 libvips-cpp

 Timestamp is 5a39620f (Tue Dec 19 22:01:35 2017)

 Preferred load address is 0000000180000000

 Start         Length     Name                   Class
 0001:00000000 00000280H .text                   CODE
 0001:00000280 00028ec0H .text$mn                CODE
 0001:00029140 00000020H .text$mn$00             CODE
 0001:00029160 00000d60H .text$x                 CODE
 0001:00029ec0 00000003H .text$yd                CODE
 0002:00000000 000004e0H .idata$5                DATA
 0002:000004e0 00000010H .00cfg                  DATA
 0002:000004f0 00000008H .CRT$XCA                DATA
 0002:000004f8 00000008H .CRT$XCZ                DATA
 0002:00000500 00000008H .CRT$XIA                DATA
 0002:00000508 00000020H .CRT$XIC                DATA
 0002:00000528 00000008H .CRT$XIZ                DATA
 0002:00000530 00000008H .CRT$XLA                DATA
 0002:00000538 00000008H .CRT$XLZ                DATA
 0002:00000540 00000008H .CRT$XPA                DATA
 0002:00000548 00000010H .CRT$XPX                DATA
 0002:00000558 00000008H .CRT$XPXA               DATA
 0002:00000560 00000008H .CRT$XPZ                DATA
 0002:00000568 00000008H .CRT$XTA                DATA
 0002:00000570 00000010H .CRT$XTZ                DATA
 0002:00000580 0000c908H .rdata                  DATA
 0002:0000ce88 00000028H .rdata$T                DATA
 0002:0000ceb0 00000484H .rdata$r                DATA
 0002:0000d334 00000414H .rdata$zzzdbg           DATA
 0002:0000d748 00000008H .rtc$IAA                DATA
 0002:0000d750 00000008H .rtc$IZZ                DATA
 0002:0000d758 00000008H .rtc$TAA                DATA
 0002:0000d760 00000010H .rtc$TZZ                DATA
 0002:0000d770 00005bd8H .xdata                  DATA
 0002:00013348 000002d8H .xdata$x                DATA
 0002:00013620 000075e0H .edata                  DATA
 0002:0001ac00 00000050H .idata$2                DATA
 0002:0001ac50 00000018H .idata$3                DATA
 0002:0001ac68 000004e0H .idata$4                DATA
 0002:0001b148 00000cd8H .idata$6                DATA
 0002:0001be20 0000017cH .idata$7                DATA
 0003:00000000 000008e0H .data                   DATA
 0003:000008e0 000001c0H .data$r                 DATA
 0003:00000aa0 00001214H .bss                    DATA
 0004:00000000 000029e8H .pdata                  DATA
 0005:00000000 00000080H .gfids$x                DATA
 0005:00000080 00000068H .gfids$y                DATA
 0006:00000000 00000004H .tls                    DATA
 0006:00000004 00000004H .tls$                   DATA
 0006:00000008 00000001H .tls$ZZZ                DATA
 0007:00000000 00000060H .rsrc$01                DATA
 0007:00000060 00000180H .rsrc$02                DATA

  Address         Publics by Value              Rva+Base               Lib:Object

 0000:00000000       __dynamic_value_reloc_table 0000000000000000     <absolute>
 0000:00000000       __guard_iat_count          0000000000000000     <absolute>
 0000:00000000       __guard_longjmp_count      0000000000000000     <absolute>
 0000:00000000       __guard_longjmp_table      0000000000000000     <absolute>
 0000:00000000       __guard_iat_table          0000000000000000     <absolute>
 0000:00000000       __guard_fids_count         0000000000000000     <absolute>
 0000:00000000       ___safe_se_handler_table   0000000000000000     <absolute>
 0000:00000000       ___safe_se_handler_count   0000000000000000     <absolute>
 0000:00000000       __guard_fids_table         0000000000000000     <absolute>
 0000:00000100       __guard_flags              0000000000000100     <absolute>
 0000:00000000       __ImageBase                0000000180000000     <linker-defined>
 0001:00000000       vips_image_set_int         0000000180001000     libvips:ddcis01505.o
 0001:00000008       vips_image_new_from_memory 0000000180001008     libvips:ddcis01482.o
 0001:00000010       vips_image_set_string      0000000180001010     libvips:ddcis01508.o
 0001:00000018       vips_image_set_blob        0000000180001018     libvips:ddcis01502.o
 0001:00000020       vips_object_get_type       0000000180001020     libvips:ddcis01670.o
 0001:00000028       vips_image_get_xoffset     0000000180001028     libvips:ddcis01455.o
 0001:00000030       vips_image_get_width       0000000180001030     libvips:ddcis01454.o
 0001:00000038       vips_image_get_yres        0000000180001038     libvips:ddcis01458.o
 0001:00000040       vips_image_get_height      0000000180001040     libvips:ddcis01444.o
 0001:00000048       vips_image_new_memory      0000000180001048     libvips:ddcis01487.o
 0001:00000050       vips_image_get_filename    0000000180001050     libvips:ddcis01442.o
 0001:00000058       vips_image_get_string      0000000180001058     libvips:ddcis01451.o
 0001:00000060       vips_image_get_data        0000000180001060     libvips:ddcis01439.o
 0001:00000068       vips_image_guess_interpretation 0000000180001068     libvips:ddcis01460.o
 0001:00000070       vips_image_get_format      0000000180001070     libvips:ddcis01443.o
 0001:00000078       vips_image_get_xres        0000000180001078     libvips:ddcis01456.o
 0001:00000080       vips_image_get_interpretation 0000000180001080     libvips:ddcis01447.o
 0001:00000088       vips_image_write_to_memory 0000000180001088     libvips:ddcis01516.o
 0001:00000090       vips_image_get_bands       0000000180001090     libvips:ddcis01436.o
 0001:00000098       vips_image_get_typeof      0000000180001098     libvips:ddcis01453.o
 0001:000000a0       vips_image_new_matrix_from_array 00000001800010a0     libvips:ddcis01485.o
 0001:000000a8       vips_image_get_coding      00000001800010a8     libvips:ddcis01438.o
 0001:000000b0       vips_error_buffer          00000001800010b0     libvips:ddcis01210.o
 0001:000000b8       vips_image_new_temp_file   00000001800010b8     libvips:ddcis01489.o
 0001:000000c0       vips_image_get_blob        00000001800010c0     libvips:ddcis01437.o
 0001:000000c8       vips_image_get_double      00000001800010c8     libvips:ddcis01440.o
 0001:000000d0       vips_image_set_double      00000001800010d0     libvips:ddcis01504.o
 0001:000000d8       vips_image_get_int         00000001800010d8     libvips:ddcis01446.o
 0001:000000e0       vips_image_get_yoffset     00000001800010e0     libvips:ddcis01457.o
 0001:000000e8       vips_interpolate_new       00000001800010e8     libvips:ddcis01538.o
 0001:000000f0       vips_interpolate_get_type  00000001800010f0     libvips:ddcis01531.o
 0001:000000f8       vips_value_set_array_image 00000001800010f8     libvips:ddcis01979.o
 0001:00000100       vips_value_set_array_double 0000000180001100     libvips:ddcis01978.o
 0001:00000108       vips_foreign_find_load_buffer 0000000180001108     libvips:ddcis01255.o
 0001:00000110       vips_operation_new         0000000180001110     libvips:ddcis01709.o
 0001:00000118       vips_array_image_get_type  0000000180001118     libvips:ddcis00900.o
 0001:00000120       vips__filename_split8      0000000180001120     libvips:ddcis00699.o
 0001:00000128       vips_blob_new              0000000180001128     libvips:ddcis00951.o
 0001:00000130       vips_cache_operation_buildp 0000000180001130     libvips:ddcis01003.o
 0001:00000138       vips_blob_get_type         0000000180001138     libvips:ddcis00950.o
 0001:00000140       vips_enum_from_nick        0000000180001140     libvips:ddcis01200.o
 0001:00000148       vips_array_double_get_type 0000000180001148     libvips:ddcis00894.o
 0001:00000150       vips_format_sizeof_unsafe  0000000180001150     libvips:ddcis01337.o
 0001:00000158       vips_value_get_array_double 0000000180001158     libvips:ddcis01968.o
 0001:00000160       vips_image_new_matrix      0000000180001160     libvips:ddcis01484.o
 0001:00000168       vips_image_get_type        0000000180001168     libvips:ddcis01452.o
 0001:00000170       vips_object_unref_outputs  0000000180001170     libvips:ddcis01694.o
 0001:00000178       vips_foreign_find_save     0000000180001178     libvips:ddcis01256.o
 0001:00000180       vips_error_clear           0000000180001180     libvips:ddcis01211.o
 0001:00000188       vips_object_set_from_string 0000000180001188     libvips:ddcis01687.o
 0001:00000190       vips_value_get_array_image 0000000180001190     libvips:ddcis01969.o
 0001:00000198       vips_image_write           0000000180001198     libvips:ddcis01511.o
 0001:000001a0       vips_area_unref            00000001800011a0     libvips:ddcis00881.o
 0001:000001a8       vips_foreign_find_save_buffer 00000001800011a8     libvips:ddcis01257.o
 0001:000001b0       vips_object_get_argument   00000001800011b0     libvips:ddcis01664.o
 0001:000001b8       vips_foreign_find_load     00000001800011b8     libvips:ddcis01254.o
 0001:000001c0       g_assertion_message_expr   00000001800011c0     libglib-2.0:dxyhs00041.o
 0001:000001c8       g_log                      00000001800011c8     libglib-2.0:dxyhs00617.o
 0001:000001d0       g_object_ref               00000001800011d0     libgobject-2.0:dhzhs00138.o
 0001:000001d8       g_object_unref             00000001800011d8     libgobject-2.0:dhzhs00155.o
 0001:000001e0       g_type_check_instance_is_a 00000001800011e0     libgobject-2.0:dhzhs00272.o
 0001:000001e8       g_value_init               00000001800011e8     libgobject-2.0:dhzhs00381.o
 0001:000001f0       g_value_set_object         00000001800011f0     libgobject-2.0:dhzhs00399.o
 0001:000001f8       g_value_set_boolean        00000001800011f8     libgobject-2.0:dhzhs00386.o
 0001:00000200       g_value_get_string         0000000180001200     libgobject-2.0:dhzhs00374.o
 0001:00000208       g_value_set_double         0000000180001208     libgobject-2.0:dhzhs00390.o
 0001:00000210       g_value_set_string         0000000180001210     libgobject-2.0:dhzhs00407.o
 0001:00000218       g_type_check_instance_cast 0000000180001218     libgobject-2.0:dhzhs00271.o
 0001:00000220       g_value_get_boolean        0000000180001220     libgobject-2.0:dhzhs00359.o
 0001:00000228       g_value_set_boxed          0000000180001228     libgobject-2.0:dhzhs00387.o
 0001:00000230       g_value_get_object         0000000180001230     libgobject-2.0:dhzhs00370.o
 0001:00000238       g_value_set_int            0000000180001238     libgobject-2.0:dhzhs00396.o
 0001:00000240       g_value_dup_boxed          0000000180001240     libgobject-2.0:dhzhs00353.o
 0001:00000248       g_value_get_int            0000000180001248     libgobject-2.0:dhzhs00367.o
 0001:00000250       g_value_set_enum           0000000180001250     libgobject-2.0:dhzhs00391.o
 0001:00000258       g_value_get_double         0000000180001258     libgobject-2.0:dhzhs00362.o
 0001:00000260       g_object_get_property      0000000180001260     libgobject-2.0:dhzhs00125.o
 0001:00000268       g_value_unset              0000000180001268     libgobject-2.0:dhzhs00422.o
 0001:00000270       g_object_set_property      0000000180001270     libgobject-2.0:dhzhs00148.o
 0001:00000280       ??0exception@stdext@@QEAA@AEBV01@@Z 0000000180001280 f i VError.obj
 0001:000002a0       ??1failure@ios_base@std@@UEAA@XZ 00000001800012a0 f i VError.obj
 0001:000002a0       ??1exception@stdext@@UEAA@XZ 00000001800012a0 f i VError.obj
 0001:000002b0       ?what@exception@stdext@@UEBAPEBDXZ 00000001800012b0 f i VError.obj
 0001:000002d0       ?_Raise@exception@stdext@@QEBAXXZ 00000001800012d0 f i VError.obj
 0001:00000310       _guard_check_icall_nop     0000000180001310 f i LIBCMT:guard_support.obj
 0001:00000310       ?_Doraise@exception@stdext@@MEBAXXZ 0000000180001310 f i VError.obj
 0001:00000310       __except_validate_context_record 0000000180001310 f i libvcruntime:jbcxrval.obj
 0001:00000320       ??_Gruntime_error@std@@UEAAPEAXI@Z 0000000180001320 f i VError.obj
 0001:00000320       ??_Gexception@stdext@@UEAAPEAXI@Z 0000000180001320 f i VError.obj
 0001:00000320       ??_Eexception@stdext@@UEAAPEAXI@Z 0000000180001320 f i * CIL library *:* CIL module *
 0001:00000320       ??_Eruntime_error@std@@UEAAPEAXI@Z 0000000180001320 f i * CIL library *:* CIL module *
 0001:00000350       ?_Doraise@runtime_error@std@@MEBAXXZ 0000000180001350 f i VError.obj
 0001:00000350       ?_Doraise@failure@ios_base@std@@MEBAXXZ 0000000180001350 f i VError.obj
 0001:00000370       ??_G_Iostream_error_category@std@@UEAAPEAXI@Z 0000000180001370 f i VError.obj
 0001:00000370       ??_Gerror_category@std@@UEAAPEAXI@Z 0000000180001370 f i VError.obj
 0001:00000370       ??_Eerror_category@std@@UEAAPEAXI@Z 0000000180001370 f i * CIL library *:* CIL module *
 0001:00000370       ??_E_Iostream_error_category@std@@UEAAPEAXI@Z 0000000180001370 f i * CIL library *:* CIL module *
 0001:000003a0       ?message@error_code@std@@QEBA?AV?$basic_string@DU?$char_traits@D@std@@V?$allocator@D@2@@2@XZ 00000001800013a0 f i VError.obj
 0001:000003d0       ?default_error_condition@error_category@std@@UEBA?AVerror_condition@2@H@Z 00000001800013d0 f i VError.obj
 0001:000003e0       ?equivalent@error_category@std@@UEBA_NHAEBVerror_condition@2@@Z 00000001800013e0 f i VError.obj
 0001:00000420       ?equivalent@error_category@std@@UEBA_NAEBVerror_code@2@H@Z 0000000180001420 f i VError.obj
 0001:00000440       ?_Makestr@_System_error@std@@CA?AV?$basic_string@DU?$char_traits@D@std@@V?$allocator@D@2@@2@Verror_code@2@V32@@Z 0000000180001440 f i VError.obj
 0001:00000550       ??_G_System_error@std@@UEAAPEAXI@Z 0000000180001550 f i VError.obj
 0001:00000550       ??_Efailure@ios_base@std@@UEAAPEAXI@Z 0000000180001550 f i * CIL library *:* CIL module *
 0001:00000550       ??_Gfailure@ios_base@std@@UEAAPEAXI@Z 0000000180001550 f i VError.obj
 0001:00000550       ??_E_System_error@std@@UEAAPEAXI@Z 0000000180001550 f i * CIL library *:* CIL module *
 0001:00000580       ?message@_Generic_error_category@std@@UEBA?AV?$basic_string@DU?$char_traits@D@std@@V?$allocator@D@2@@2@H@Z 0000000180001580 f i VError.obj
 0001:000005e0       ?name@_Iostream_error_category@std@@UEBAPEBDXZ 00000001800015e0 f i VError.obj
 0001:000005f0       ?message@_Iostream_error_category@std@@UEBA?AV?$basic_string@DU?$char_traits@D@std@@V?$allocator@D@2@@2@H@Z 00000001800015f0 f i VError.obj
 0001:00000640       ?clear@ios_base@std@@QEAAXH_N@Z 0000000180001640 f i VError.obj
 0001:00000ad0       ??0VError@vips@@QEAA@V?$basic_string@DU?$char_traits@D@std@@V?$allocator@D@2@@std@@@Z 0000000180001ad0 f i VError.obj
 0001:00000b60       ??0VError@vips@@QEAA@XZ    0000000180001b60 f i VError.obj
 0001:00000bd0       ??1VError@vips@@UEAA@XZ    0000000180001bd0 f i VError.obj
 0001:00000c00       ?what@VError@vips@@UEBAPEBDXZ 0000000180001c00 f i VError.obj
 0001:00000c10       ??0VError@vips@@QEAA@AEBV01@@Z 0000000180001c10 f i VError.obj
 0001:00000c80       ??4VError@vips@@QEAAAEAV01@AEBV01@@Z 0000000180001c80 f i VError.obj
 0001:00000cc0       ??_EVError@vips@@UEAAPEAXI@Z 0000000180001cc0 f i VError.obj
 0001:00000d60       ??0VObject@vips@@QEAA@PEAU_VipsObject@@W4VSteal@1@@Z 0000000180001d60 f i VError.obj
 0001:00000de0       ??4VObject@vips@@QEAAAEAV01@AEBV01@@Z 0000000180001de0 f i VError.obj
 0001:00000eb0       ??0VOption@vips@@QEAA@XZ   0000000180001eb0 f i VError.obj
 0001:00000f10       ??0VOption@vips@@QEAA@AEBV01@@Z 0000000180001f10 f i VError.obj
 0001:00000f40       ??4VOption@vips@@QEAAAEAV01@AEBV01@@Z 0000000180001f40 f i VError.obj
 0001:00000f70       ??_EVOption@vips@@UEAAPEAXI@Z 0000000180001f70 f i VError.obj
 0001:00001000       ??0VImage@vips@@QEAA@PEAU_VipsImage@@W4VSteal@1@@Z 0000000180002000 f i VError.obj
 0001:00001000       ??0VInterpolate@vips@@QEAA@PEAU_VipsInterpolate@@W4VSteal@1@@Z 0000000180002000 f i VError.obj
 0001:00001020       ??0VImage@vips@@QEAA@XZ    0000000180002020 f i VError.obj
 0001:00001030       ?get_interpolate@VInterpolate@vips@@QEAAPEAU_VipsInterpolate@@XZ 0000000180002030 f i VError.obj
 0001:00001030       ?get_image@VImage@vips@@QEAAPEAU_VipsImage@@XZ 0000000180002030 f i VError.obj
 0001:00001090       ?width@VImage@vips@@QEAAHXZ 0000000180002090 f i VError.obj
 0001:000010f0       ?height@VImage@vips@@QEAAHXZ 00000001800020f0 f i VError.obj
 0001:00001150       ?bands@VImage@vips@@QEAAHXZ 0000000180002150 f i VError.obj
 0001:000011b0       ?format@VImage@vips@@QEAA?AW4VipsBandFormat@@XZ 00000001800021b0 f i VError.obj
 0001:00001210       ?coding@VImage@vips@@QEAA?AW4VipsCoding@@XZ 0000000180002210 f i VError.obj
 0001:00001270       ?interpretation@VImage@vips@@QEAA?AW4VipsInterpretation@@XZ 0000000180002270 f i VError.obj
 0001:000012d0       ?guess_interpretation@VImage@vips@@QEAA?AW4VipsInterpretation@@XZ 00000001800022d0 f i VError.obj
 0001:00001330       ?xres@VImage@vips@@QEAANXZ 0000000180002330 f i VError.obj
 0001:00001390       ?yres@VImage@vips@@QEAANXZ 0000000180002390 f i VError.obj
 0001:000013f0       ?xoffset@VImage@vips@@QEAANXZ 00000001800023f0 f i VError.obj
 0001:00001450       ?yoffset@VImage@vips@@QEAANXZ 0000000180002450 f i VError.obj
 0001:000014b0       ?filename@VImage@vips@@QEAAPEBDXZ 00000001800024b0 f i VError.obj
 0001:00001510       ?data@VImage@vips@@QEAAPEBXXZ 0000000180002510 f i VError.obj
 0001:00001570       ?set@VImage@vips@@QEAAXPEBDH@Z 0000000180002570 f i VError.obj
 0001:000015f0       ?set@VImage@vips@@QEAAXPEBDN@Z 00000001800025f0 f i VError.obj
 0001:00001670       ?set@VImage@vips@@QEAAXPEBD0@Z 0000000180002670 f i VError.obj
 0001:000016f0       ?set@VImage@vips@@QEAAXPEBDP6AHPEAX1@Z1_K@Z 00000001800026f0 f i VError.obj
 0001:00001780       ?get_typeof@VImage@vips@@QEAA_KPEBD@Z 0000000180002780 f i VError.obj
 0001:000017f0       ?get_int@VImage@vips@@QEAAHPEBD@Z 00000001800027f0 f i VError.obj
 0001:00001900       ?get_double@VImage@vips@@QEAANPEBD@Z 0000000180002900 f i VError.obj
 0001:00001a10       ?get_string@VImage@vips@@QEAAPEBDPEBD@Z 0000000180002a10 f i VError.obj
 0001:00001b20       ?get_blob@VImage@vips@@QEAAPEBXPEBDPEA_K@Z 0000000180002b20 f i VError.obj
 0001:00001c30       ?option@VImage@vips@@SAPEAVVOption@2@XZ 0000000180002c30 f i VError.obj
 0001:00001ca0       ?new_memory@VImage@vips@@SA?AV12@XZ 0000000180002ca0 f i VError.obj
 0001:00001d10       ?new_temp_file@VImage@vips@@SA?AV12@PEBD@Z 0000000180002d10 f i VError.obj
 0001:00001e20       ?new_from_memory@VImage@vips@@SA?AV12@PEAX_KHHHW4VipsBandFormat@@@Z 0000000180002e20 f i VError.obj
 0001:00001f50       ?new_matrix@VImage@vips@@SA?AV12@HHPEANH@Z 0000000180002f50 f i VError.obj
 0001:00002070       ?write_to_memory@VImage@vips@@QEAAPEAXPEA_K@Z 0000000180003070 f i VError.obj
 0001:00002180       ?linear@VImage@vips@@QEAA?AV12@NNPEAVVOption@2@@Z 0000000180003180 f i VError.obj
 0001:00002220       ?linear@VImage@vips@@QEAA?AV12@V?$vector@NV?$allocator@N@std@@@std@@NPEAVVOption@2@@Z 0000000180003220 f i VError.obj
 0001:000022e0       ?linear@VImage@vips@@QEAA?AV12@NV?$vector@NV?$allocator@N@std@@@std@@PEAVVOption@2@@Z 00000001800032e0 f i VError.obj
 0001:000023b0       ?bandjoin@VImage@vips@@QEAA?AV12@NPEAVVOption@2@@Z 00000001800033b0 f i VError.obj
 0001:00002410       ?bandjoin@VImage@vips@@QEAA?AV12@V?$vector@NV?$allocator@N@std@@@std@@PEAVVOption@2@@Z 0000000180003410 f i VError.obj
 0001:000024c0       ?fliphor@VImage@vips@@QEAA?AV12@PEAVVOption@2@@Z 00000001800034c0 f i VError.obj
 0001:000024f0       ?flipver@VImage@vips@@QEAA?AV12@PEAVVOption@2@@Z 00000001800034f0 f i VError.obj
 0001:00002520       ?rot90@VImage@vips@@QEAA?AV12@PEAVVOption@2@@Z 0000000180003520 f i VError.obj
 0001:00002550       ?rot180@VImage@vips@@QEAA?AV12@PEAVVOption@2@@Z 0000000180003550 f i VError.obj
 0001:00002580       ?rot270@VImage@vips@@QEAA?AV12@PEAVVOption@2@@Z 0000000180003580 f i VError.obj
 0001:000025b0       ?dilate@VImage@vips@@QEAA?AV12@V12@PEAVVOption@2@@Z 00000001800035b0 f i VError.obj
 0001:000026b0       ?erode@VImage@vips@@QEAA?AV12@V12@PEAVVOption@2@@Z 00000001800036b0 f i VError.obj
 0001:000027b0       ?median@VImage@vips@@QEAA?AV12@HPEAVVOption@2@@Z 00000001800037b0 f i VError.obj
 0001:000027f0       ?floor@VImage@vips@@QEAA?AV12@PEAVVOption@2@@Z 00000001800037f0 f i VError.obj
 0001:00002820       ?ceil@VImage@vips@@QEAA?AV12@PEAVVOption@2@@Z 0000000180003820 f i VError.obj
 0001:00002850       ?rint@VImage@vips@@QEAA?AV12@PEAVVOption@2@@Z 0000000180003850 f i VError.obj
 0001:00002880       ?real@VImage@vips@@QEAA?AV12@PEAVVOption@2@@Z 0000000180003880 f i VError.obj
 0001:000028b0       ?imag@VImage@vips@@QEAA?AV12@PEAVVOption@2@@Z 00000001800038b0 f i VError.obj
 0001:000028e0       ?polar@VImage@vips@@QEAA?AV12@PEAVVOption@2@@Z 00000001800038e0 f i VError.obj
 0001:00002910       ?rect@VImage@vips@@QEAA?AV12@PEAVVOption@2@@Z 0000000180003910 f i VError.obj
 0001:00002940       ?conj@VImage@vips@@QEAA?AV12@PEAVVOption@2@@Z 0000000180003940 f i VError.obj
 0001:00002970       ?sin@VImage@vips@@QEAA?AV12@PEAVVOption@2@@Z 0000000180003970 f i VError.obj
 0001:000029a0       ?cos@VImage@vips@@QEAA?AV12@PEAVVOption@2@@Z 00000001800039a0 f i VError.obj
 0001:000029d0       ?tan@VImage@vips@@QEAA?AV12@PEAVVOption@2@@Z 00000001800039d0 f i VError.obj
 0001:00002a00       ?asin@VImage@vips@@QEAA?AV12@PEAVVOption@2@@Z 0000000180003a00 f i VError.obj
 0001:00002a30       ?acos@VImage@vips@@QEAA?AV12@PEAVVOption@2@@Z 0000000180003a30 f i VError.obj
 0001:00002a60       ?atan@VImage@vips@@QEAA?AV12@PEAVVOption@2@@Z 0000000180003a60 f i VError.obj
 0001:00002a90       ?log@VImage@vips@@QEAA?AV12@PEAVVOption@2@@Z 0000000180003a90 f i VError.obj
 0001:00002ac0       ?log10@VImage@vips@@QEAA?AV12@PEAVVOption@2@@Z 0000000180003ac0 f i VError.obj
 0001:00002af0       ?exp@VImage@vips@@QEAA?AV12@PEAVVOption@2@@Z 0000000180003af0 f i VError.obj
 0001:00002b20       ?exp10@VImage@vips@@QEAA?AV12@PEAVVOption@2@@Z 0000000180003b20 f i VError.obj
 0001:00002b50       ?pow@VImage@vips@@QEAA?AV12@V12@PEAVVOption@2@@Z 0000000180003b50 f i VError.obj
 0001:00002c50       ?pow@VImage@vips@@QEAA?AV12@NPEAVVOption@2@@Z 0000000180003c50 f i VError.obj
 0001:00002cb0       ?pow@VImage@vips@@QEAA?AV12@V?$vector@NV?$allocator@N@std@@@std@@PEAVVOption@2@@Z 0000000180003cb0 f i VError.obj
 0001:00002d50       ?wop@VImage@vips@@QEAA?AV12@V12@PEAVVOption@2@@Z 0000000180003d50 f i VError.obj
 0001:00002e50       ?wop@VImage@vips@@QEAA?AV12@NPEAVVOption@2@@Z 0000000180003e50 f i VError.obj
 0001:00002eb0       ?wop@VImage@vips@@QEAA?AV12@V?$vector@NV?$allocator@N@std@@@std@@PEAVVOption@2@@Z 0000000180003eb0 f i VError.obj
 0001:00002f50       ?ifthenelse@VImage@vips@@QEAA?AV12@V?$vector@NV?$allocator@N@std@@@std@@V12@PEAVVOption@2@@Z 0000000180003f50 f i VError.obj
 0001:000030a0       ?ifthenelse@VImage@vips@@QEAA?AV12@V12@V?$vector@NV?$allocator@N@std@@@std@@PEAVVOption@2@@Z 00000001800040a0 f i VError.obj
 0001:00003200       ?ifthenelse@VImage@vips@@QEAA?AV12@V?$vector@NV?$allocator@N@std@@@std@@0PEAVVOption@2@@Z 0000000180004200 f i VError.obj
 0001:00003310       ?ifthenelse@VImage@vips@@QEAA?AV12@NV12@PEAVVOption@2@@Z 0000000180004310 f i VError.obj
 0001:00003440       ?ifthenelse@VImage@vips@@QEAA?AV12@V12@NPEAVVOption@2@@Z 0000000180004440 f i VError.obj
 0001:00003560       ?ifthenelse@VImage@vips@@QEAA?AV12@NNPEAVVOption@2@@Z 0000000180004560 f i VError.obj
 0001:00003600       ??1VImage@vips@@QEAA@XZ    0000000180004600 f i VError.obj
 0001:00003600       ??1VInterpolate@vips@@QEAA@XZ 0000000180004600 f i VError.obj
 0001:00003670       ??0VImage@vips@@QEAA@AEBV01@@Z 0000000180004670 f i VError.obj
 0001:00003670       ??0VInterpolate@vips@@QEAA@$$QEAV01@@Z 0000000180004670 f i VError.obj
 0001:00003670       ??0VImage@vips@@QEAA@$$QEAV01@@Z 0000000180004670 f i VError.obj
 0001:00003670       ??0VInterpolate@vips@@QEAA@AEBV01@@Z 0000000180004670 f i VError.obj
 0001:000036e0       ??4VImage@vips@@QEAAAEAV01@$$QEAV01@@Z 00000001800046e0 f i VError.obj
 0001:000036e0       ??4VImage@vips@@QEAAAEAV01@AEBV01@@Z 00000001800046e0 f i VError.obj
 0001:000036e0       ??4VInterpolate@vips@@QEAAAEAV01@$$QEAV01@@Z 00000001800046e0 f i VError.obj
 0001:000036e0       ??4VInterpolate@vips@@QEAAAEAV01@AEBV01@@Z 00000001800046e0 f i VError.obj
 0001:00003700       ?ostream_print@VError@vips@@QEBAXAEAV?$basic_ostream@DU?$char_traits@D@std@@@std@@@Z 0000000180004700 f   VError.obj
 0001:00003710       ??0?$list@PEAUPair@VOption@vips@@V?$allocator@PEAUPair@VOption@vips@@@std@@@std@@QEAA@AEBV01@@Z 0000000180004710 f i VError.obj
 0001:000037a0       ??1?$vector@NV?$allocator@N@std@@@std@@QEAA@XZ 00000001800047a0 f i VError.obj
 0001:000037e0       ??0?$vector@NV?$allocator@N@std@@@std@@QEAA@AEBV01@@Z 00000001800047e0 f i VError.obj
 0001:00003890       ??1?$basic_string@DU?$char_traits@D@std@@V?$allocator@D@2@@std@@QEAA@XZ 0000000180004890 f i VError.obj
 0001:00003920       ??1?$_List_buy@PEAUPair@VOption@vips@@V?$allocator@PEAUPair@VOption@vips@@@std@@@std@@QEAA@XZ 0000000180004920 f i VError.obj
 0001:00003930       ?assign@?$basic_string@DU?$char_traits@D@std@@V?$allocator@D@2@@std@@QEAAAEAV12@PEBD_K@Z 0000000180004930 f i VError.obj
 0001:00003a60       ?assign@?$basic_string@DU?$char_traits@D@std@@V?$allocator@D@2@@std@@QEAAAEAV12@AEBV12@_K1@Z 0000000180004a60 f i VError.obj
 0001:00003b90       ?append@?$basic_string@DU?$char_traits@D@std@@V?$allocator@D@2@@std@@QEAAAEAV12@PEBD_K@Z 0000000180004b90 f i VError.obj
 0001:00003ce0       ?append@?$basic_string@DU?$char_traits@D@std@@V?$allocator@D@2@@std@@QEAAAEAV12@AEBV12@_K1@Z 0000000180004ce0 f i VError.obj
 0001:00003e10       ?_Assign_rv@?$basic_string@DU?$char_traits@D@std@@V?$allocator@D@2@@std@@QEAAX$$QEAV12@@Z 0000000180004e10 f i VError.obj
 0001:00003e90       ?deallocate@?$_Wrap_alloc@V?$allocator@N@std@@@std@@QEAAXPEAN_K@Z 0000000180004e90 f i VError.obj
 0001:00003e90       ?deallocate@?$_Wrap_alloc@V?$allocator@VVImage@vips@@@std@@@std@@QEAAXPEAVVImage@vips@@_K@Z 0000000180004e90 f i VImage.obj
 0001:00003f00       ?allocate@?$_Wrap_alloc@V?$allocator@VVImage@vips@@@std@@@std@@QEAAPEAVVImage@vips@@_K@Z 0000000180004f00 f i VImage.obj
 0001:00003f00       ?allocate@?$_Wrap_alloc@V?$allocator@N@std@@@std@@QEAAPEAN_K@Z 0000000180004f00 f i VError.obj
 0001:00003f70       ?erase@?$basic_string@DU?$char_traits@D@std@@V?$allocator@D@2@@std@@QEAAAEAV12@_K0@Z 0000000180004f70 f i VError.obj
 0001:00004010       ?_Copy@?$basic_string@DU?$char_traits@D@std@@V?$allocator@D@2@@std@@QEAAX_K0@Z 0000000180005010 f i VError.obj
 0001:00004190       ??$_Immortalize@V_Iostream_error_category@std@@@std@@YAAEAV_Iostream_error_category@0@XZ 0000000180005190 f i VError.obj
 0001:00004210       ??$?6DU?$char_traits@D@std@@V?$allocator@D@1@@std@@YAAEAV?$basic_ostream@DU?$char_traits@D@std@@@0@AEAV10@AEBV?$basic_string@DU?$char_traits@D@std@@V?$allocator@D@2@@0@@Z 0000000180005210 f i VError.obj
 0001:00004470       ??$assign@V?$_List_const_iterator@V?$_List_val@U?$_List_simple_types@PEAUPair@VOption@vips@@@std@@@std@@@std@@@?$list@PEAUPair@VOption@vips@@V?$allocator@PEAUPair@VOption@vips@@@std@@@std@@QEAAXV?$_List_const_iterator@V?$_List_val@U?$_List_simple_types@PEAUPair@VOption@vips@@@std@@@std@@@1@0@Z 0000000180005470 f i VError.obj
 0001:00004580       ??1sentry@?$basic_ostream@DU?$char_traits@D@std@@@std@@QEAA@XZ 0000000180005580 f i VError.obj
 0001:00004600       ??0sentry@?$basic_ostream@DU?$char_traits@D@std@@@std@@QEAA@AEAV12@@Z 0000000180005600 f i VError.obj
 0001:00004680       ??1_Sentry_base@?$basic_ostream@DU?$char_traits@D@std@@@std@@QEAA@XZ 0000000180005680 f i VError.obj
 0001:000046a0       ?flush@?$basic_ostream@DU?$char_traits@D@std@@@std@@QEAAAEAV12@XZ 00000001800056a0 f i VError.obj
 0001:00004790       ??$_Insert@AEBQEAUPair@VOption@vips@@@?$list@PEAUPair@VOption@vips@@V?$allocator@PEAUPair@VOption@vips@@@std@@@std@@QEAAXV?$_List_unchecked_const_iterator@V?$_List_val@U?$_List_simple_types@PEAUPair@VOption@vips@@@std@@@std@@U_Iterator_base0@2@@1@AEBQEAUPair@VOption@vips@@@Z 0000000180005790 f i VError.obj
 0001:00004840       ?new_from_name@VInterpolate@vips@@SA?AV12@PEBDPEAVVOption@2@@Z 0000000180005840 f   VInterpolate.obj
 0001:00004970       ?set@VOption@vips@@QEAAPEAV12@PEBDVVInterpolate@2@@Z 0000000180005970 f   VInterpolate.obj
 0001:00004af0       ?to_vectorv@vips@@YA?AV?$vector@NV?$allocator@N@std@@@std@@HZZ 0000000180005af0 f   VImage.obj
 0001:00004b60       ?to_vector@vips@@YA?AV?$vector@NV?$allocator@N@std@@@std@@N@Z 0000000180005b60 f   VImage.obj
 0001:00004b90       ?to_vector@vips@@YA?AV?$vector@NV?$allocator@N@std@@@std@@HQEAN@Z 0000000180005b90 f   VImage.obj
 0001:00004c80       ?negate@vips@@YA?AV?$vector@NV?$allocator@N@std@@@std@@V23@@Z 0000000180005c80 f   VImage.obj
 0001:00004da0       ?invert@vips@@YA?AV?$vector@NV?$allocator@N@std@@@std@@V23@@Z 0000000180005da0 f   VImage.obj
 0001:00004ec0       ??1VOption@vips@@UEAA@XZ   0000000180005ec0 f   VImage.obj
 0001:00004f70       ?set@VOption@vips@@QEAAPEAV12@PEBD_N@Z 0000000180005f70 f   VImage.obj
 0001:00005060       ?set@VOption@vips@@QEAAPEAV12@PEBDH@Z 0000000180006060 f   VImage.obj
 0001:00005150       ?set@VOption@vips@@QEAAPEAV12@PEBDN@Z 0000000180006150 f   VImage.obj
 0001:00005250       ?set@VOption@vips@@QEAAPEAV12@PEBD0@Z 0000000180006250 f   VImage.obj
 0001:00005340       ?set@VOption@vips@@QEAAPEAV12@PEBDVVImage@2@@Z 0000000180006340 f   VImage.obj
 0001:000054c0       ?set@VOption@vips@@QEAAPEAV12@PEBDV?$vector@NV?$allocator@N@std@@@std@@@Z 00000001800064c0 f   VImage.obj
 0001:00005690       ?set@VOption@vips@@QEAAPEAV12@PEBDV?$vector@VVImage@vips@@V?$allocator@VVImage@vips@@@std@@@std@@@Z 0000000180006690 f   VImage.obj
 0001:00005920       ?set@VOption@vips@@QEAAPEAV12@PEBDPEAU_VipsBlob@@@Z 0000000180006920 f   VImage.obj
 0001:00005a10       ?set@VOption@vips@@QEAAPEAV12@PEBDPEA_N@Z 0000000180006a10 f   VImage.obj
 0001:00005b00       ?set@VOption@vips@@QEAAPEAV12@PEBDPEAH@Z 0000000180006b00 f   VImage.obj
 0001:00005bf0       ?set@VOption@vips@@QEAAPEAV12@PEBDPEAN@Z 0000000180006bf0 f   VImage.obj
 0001:00005ce0       ?set@VOption@vips@@QEAAPEAV12@PEBDPEAVVImage@2@@Z 0000000180006ce0 f   VImage.obj
 0001:00005dd0       ?set@VOption@vips@@QEAAPEAV12@PEBDPEAV?$vector@NV?$allocator@N@std@@@std@@@Z 0000000180006dd0 f   VImage.obj
 0001:00005ec0       ?set@VOption@vips@@QEAAPEAV12@PEBDPEAPEAU_VipsBlob@@@Z 0000000180006ec0 f   VImage.obj
 0001:00006110       ?set_operation@VOption@vips@@QEAAXPEAU_VipsOperation@@@Z 0000000180007110 f   VImage.obj
 0001:00006190       ?get_operation@VOption@vips@@QEAAXPEAU_VipsOperation@@@Z 0000000180007190 f   VImage.obj
 0001:000063e0       ?call_option_string@VImage@vips@@SAXPEBD0PEAVVOption@2@@Z 00000001800073e0 f   VImage.obj
 0001:00006650       ?call@VImage@vips@@SAXPEBDPEAVVOption@2@@Z 0000000180007650 f   VImage.obj
 0001:00006660       ?new_from_file@VImage@vips@@SA?AV12@PEBDPEAVVOption@2@@Z 0000000180007660 f   VImage.obj
 0001:000067c0       ?new_from_buffer@VImage@vips@@SA?AV12@PEAX_KPEBDPEAVVOption@2@@Z 00000001800077c0 f   VImage.obj
 0001:00006920       ?new_from_image@VImage@vips@@QEAA?AV12@V?$vector@NV?$allocator@N@std@@@std@@@Z 0000000180007920 f   VImage.obj
 0001:00006ee0       ?new_from_image@VImage@vips@@QEAA?AV12@N@Z 0000000180007ee0 f   VImage.obj
 0001:00006f30       ?new_matrix@VImage@vips@@SA?AV12@HH@Z 0000000180007f30 f   VImage.obj
 0001:00006fa0       ?new_matrixv@VImage@vips@@SA?AV12@HHZZ 0000000180007fa0 f   VImage.obj
 0001:000070d0       ?write@VImage@vips@@QEAA?AV12@V12@@Z 00000001800080d0 f   VImage.obj
 0001:000072d0       ?write_to_file@VImage@vips@@QEAAXPEBDPEAVVOption@2@@Z 00000001800082d0 f   VImage.obj
 0001:00007460       ?write_to_buffer@VImage@vips@@QEAAXPEBDPEAPEAXPEA_KPEAVVOption@2@@Z 0000000180008460 f   VImage.obj
 0001:00007640       ?system@VImage@vips@@SAXPEADPEAVVOption@2@@Z 0000000180008640 f   VImage.obj
 0001:00007680       ?add@VImage@vips@@QEAA?AV12@V12@PEAVVOption@2@@Z 0000000180008680 f   VImage.obj
 0001:00007820       ?subtract@VImage@vips@@QEAA?AV12@V12@PEAVVOption@2@@Z 0000000180008820 f   VImage.obj
 0001:000079c0       ?multiply@VImage@vips@@QEAA?AV12@V12@PEAVVOption@2@@Z 00000001800089c0 f   VImage.obj
 0001:00007b60       ?divide@VImage@vips@@QEAA?AV12@V12@PEAVVOption@2@@Z 0000000180008b60 f   VImage.obj
 0001:00007d00       ?relational@VImage@vips@@QEAA?AV12@V12@W4VipsOperationRelational@@PEAVVOption@2@@Z 0000000180008d00 f   VImage.obj
 0001:00007ec0       ?remainder@VImage@vips@@QEAA?AV12@V12@PEAVVOption@2@@Z 0000000180008ec0 f   VImage.obj
 0001:00008060       ?boolean@VImage@vips@@QEAA?AV12@V12@W4VipsOperationBoolean@@PEAVVOption@2@@Z 0000000180009060 f   VImage.obj
 0001:00008220       ?math2@VImage@vips@@QEAA?AV12@V12@W4VipsOperationMath2@@PEAVVOption@2@@Z 0000000180009220 f   VImage.obj
 0001:000083e0       ?complex2@VImage@vips@@QEAA?AV12@V12@W4VipsOperationComplex2@@PEAVVOption@2@@Z 00000001800093e0 f   VImage.obj
 0001:000085a0       ?complexform@VImage@vips@@QEAA?AV12@V12@PEAVVOption@2@@Z 00000001800095a0 f   VImage.obj
 0001:00008740       ?sum@VImage@vips@@SA?AV12@V?$vector@VVImage@vips@@V?$allocator@VVImage@vips@@@std@@@std@@PEAVVOption@2@@Z 0000000180009740 f   VImage.obj
 0001:00008810       ?invert@VImage@vips@@QEAA?AV12@PEAVVOption@2@@Z 0000000180009810 f   VImage.obj
 0001:000088f0       ?linear@VImage@vips@@QEAA?AV12@V?$vector@NV?$allocator@N@std@@@std@@0PEAVVOption@2@@Z 00000001800098f0 f   VImage.obj
 0001:00008aa0       ?math@VImage@vips@@QEAA?AV12@W4VipsOperationMath@@PEAVVOption@2@@Z 0000000180009aa0 f   VImage.obj
 0001:00008b90       ?abs@VImage@vips@@QEAA?AV12@PEAVVOption@2@@Z 0000000180009b90 f   VImage.obj
 0001:00008c70       ?sign@VImage@vips@@QEAA?AV12@PEAVVOption@2@@Z 0000000180009c70 f   VImage.obj
 0001:00008d50       ?round@VImage@vips@@QEAA?AV12@W4VipsOperationRound@@PEAVVOption@2@@Z 0000000180009d50 f   VImage.obj
 0001:00008e40       ?relational_const@VImage@vips@@QEAA?AV12@W4VipsOperationRelational@@V?$vector@NV?$allocator@N@std@@@std@@PEAVVOption@2@@Z 0000000180009e40 f   VImage.obj
 0001:00008fa0       ?remainder_const@VImage@vips@@QEAA?AV12@V?$vector@NV?$allocator@N@std@@@std@@PEAVVOption@2@@Z 0000000180009fa0 f   VImage.obj
 0001:000090e0       ?boolean_const@VImage@vips@@QEAA?AV12@W4VipsOperationBoolean@@V?$vector@NV?$allocator@N@std@@@std@@PEAVVOption@2@@Z 000000018000a0e0 f   VImage.obj
 0001:00009240       ?math2_const@VImage@vips@@QEAA?AV12@W4VipsOperationMath2@@V?$vector@NV?$allocator@N@std@@@std@@PEAVVOption@2@@Z 000000018000a240 f   VImage.obj
 0001:000093a0       ?complex@VImage@vips@@QEAA?AV12@W4VipsOperationComplex@@PEAVVOption@2@@Z 000000018000a3a0 f   VImage.obj
 0001:00009490       ?complexget@VImage@vips@@QEAA?AV12@W4VipsOperationComplexget@@PEAVVOption@2@@Z 000000018000a490 f   VImage.obj
 0001:00009580       ?avg@VImage@vips@@QEAANPEAVVOption@2@@Z 000000018000a580 f   VImage.obj
 0001:00009640       ?min@VImage@vips@@QEAANPEAVVOption@2@@Z 000000018000a640 f   VImage.obj
 0001:00009700       ?max@VImage@vips@@QEAANPEAVVOption@2@@Z 000000018000a700 f   VImage.obj
 0001:000097c0       ?deviate@VImage@vips@@QEAANPEAVVOption@2@@Z 000000018000a7c0 f   VImage.obj
 0001:00009880       ?stats@VImage@vips@@QEAA?AV12@PEAVVOption@2@@Z 000000018000a880 f   VImage.obj
 0001:00009960       ?hist_find@VImage@vips@@QEAA?AV12@PEAVVOption@2@@Z 000000018000a960 f   VImage.obj
 0001:00009a40       ?hist_find_ndim@VImage@vips@@QEAA?AV12@PEAVVOption@2@@Z 000000018000aa40 f   VImage.obj
 0001:00009b20       ?hist_find_indexed@VImage@vips@@QEAA?AV12@V12@PEAVVOption@2@@Z 000000018000ab20 f   VImage.obj
 0001:00009cc0       ?hough_line@VImage@vips@@QEAA?AV12@PEAVVOption@2@@Z 000000018000acc0 f   VImage.obj
 0001:00009da0       ?hough_circle@VImage@vips@@QEAA?AV12@PEAVVOption@2@@Z 000000018000ada0 f   VImage.obj
 0001:00009e80       ?project@VImage@vips@@QEAA?AV12@PEAV12@PEAVVOption@2@@Z 000000018000ae80 f   VImage.obj
 0001:00009f70       ?profile@VImage@vips@@QEAA?AV12@PEAV12@PEAVVOption@2@@Z 000000018000af70 f   VImage.obj
 0001:0000a060       ?measure@VImage@vips@@QEAA?AV12@HHPEAVVOption@2@@Z 000000018000b060 f   VImage.obj
 0001:0000a180       ?getpoint@VImage@vips@@QEAA?AV?$vector@NV?$allocator@N@std@@@std@@HHPEAVVOption@2@@Z 000000018000b180 f   VImage.obj
 0001:0000a2a0       ?copy@VImage@vips@@QEAA?AV12@PEAVVOption@2@@Z 000000018000b2a0 f   VImage.obj
 0001:0000a380       ?tilecache@VImage@vips@@QEAA?AV12@PEAVVOption@2@@Z 000000018000b380 f   VImage.obj
 0001:0000a460       ?linecache@VImage@vips@@QEAA?AV12@PEAVVOption@2@@Z 000000018000b460 f   VImage.obj
 0001:0000a540       ?sequential@VImage@vips@@QEAA?AV12@PEAVVOption@2@@Z 000000018000b540 f   VImage.obj
 0001:0000a620       ?cache@VImage@vips@@QEAA?AV12@PEAVVOption@2@@Z 000000018000b620 f   VImage.obj
 0001:0000a700       ?embed@VImage@vips@@QEAA?AV12@HHHHPEAVVOption@2@@Z 000000018000b700 f   VImage.obj
 0001:0000a840       ?flip@VImage@vips@@QEAA?AV12@W4VipsDirection@@PEAVVOption@2@@Z 000000018000b840 f   VImage.obj
 0001:0000a930       ?insert@VImage@vips@@QEAA?AV12@V12@HHPEAVVOption@2@@Z 000000018000b930 f   VImage.obj
 0001:0000ab10       ?join@VImage@vips@@QEAA?AV12@V12@W4VipsDirection@@PEAVVOption@2@@Z 000000018000bb10 f   VImage.obj
 0001:0000acd0       ?arrayjoin@VImage@vips@@SA?AV12@V?$vector@VVImage@vips@@V?$allocator@VVImage@vips@@@std@@@std@@PEAVVOption@2@@Z 000000018000bcd0 f   VImage.obj
 0001:0000ada0       ?extract_area@VImage@vips@@QEAA?AV12@HHHHPEAVVOption@2@@Z 000000018000bda0 f   VImage.obj
 0001:0000aee0       ?smartcrop@VImage@vips@@QEAA?AV12@HHPEAVVOption@2@@Z 000000018000bee0 f   VImage.obj
 0001:0000b000       ?extract_band@VImage@vips@@QEAA?AV12@HPEAVVOption@2@@Z 000000018000c000 f   VImage.obj
 0001:0000b0f0       ?bandjoin@VImage@vips@@SA?AV12@V?$vector@VVImage@vips@@V?$allocator@VVImage@vips@@@std@@@std@@PEAVVOption@2@@Z 000000018000c0f0 f   VImage.obj
 0001:0000b1c0       ?bandjoin_const@VImage@vips@@QEAA?AV12@V?$vector@NV?$allocator@N@std@@@std@@PEAVVOption@2@@Z 000000018000c1c0 f   VImage.obj
 0001:0000b300       ?bandrank@VImage@vips@@SA?AV12@V?$vector@VVImage@vips@@V?$allocator@VVImage@vips@@@std@@@std@@PEAVVOption@2@@Z 000000018000c300 f   VImage.obj
 0001:0000b3d0       ?bandmean@VImage@vips@@QEAA?AV12@PEAVVOption@2@@Z 000000018000c3d0 f   VImage.obj
 0001:0000b4b0       ?bandbool@VImage@vips@@QEAA?AV12@W4VipsOperationBoolean@@PEAVVOption@2@@Z 000000018000c4b0 f   VImage.obj
 0001:0000b5a0       ?replicate@VImage@vips@@QEAA?AV12@HHPEAVVOption@2@@Z 000000018000c5a0 f   VImage.obj
 0001:0000b6c0       ?cast@VImage@vips@@QEAA?AV12@W4VipsBandFormat@@PEAVVOption@2@@Z 000000018000c6c0 f   VImage.obj
 0001:0000b7b0       ?rot@VImage@vips@@QEAA?AV12@W4VipsAngle@@PEAVVOption@2@@Z 000000018000c7b0 f   VImage.obj
 0001:0000b8a0       ?rot45@VImage@vips@@QEAA?AV12@PEAVVOption@2@@Z 000000018000c8a0 f   VImage.obj
 0001:0000b980       ?autorot@VImage@vips@@QEAA?AV12@PEAVVOption@2@@Z 000000018000c980 f   VImage.obj
 0001:0000ba60       ?ifthenelse@VImage@vips@@QEAA?AV12@V12@0PEAVVOption@2@@Z 000000018000ca60 f   VImage.obj
 0001:0000bcb0       ?recomb@VImage@vips@@QEAA?AV12@V12@PEAVVOption@2@@Z 000000018000ccb0 f   VImage.obj
 0001:0000be50       ?bandfold@VImage@vips@@QEAA?AV12@PEAVVOption@2@@Z 000000018000ce50 f   VImage.obj
 0001:0000bf30       ?bandunfold@VImage@vips@@QEAA?AV12@PEAVVOption@2@@Z 000000018000cf30 f   VImage.obj
 0001:0000c010       ?flatten@VImage@vips@@QEAA?AV12@PEAVVOption@2@@Z 000000018000d010 f   VImage.obj
 0001:0000c0f0       ?premultiply@VImage@vips@@QEAA?AV12@PEAVVOption@2@@Z 000000018000d0f0 f   VImage.obj
 0001:0000c1d0       ?unpremultiply@VImage@vips@@QEAA?AV12@PEAVVOption@2@@Z 000000018000d1d0 f   VImage.obj
 0001:0000c2b0       ?grid@VImage@vips@@QEAA?AV12@HHHPEAVVOption@2@@Z 000000018000d2b0 f   VImage.obj
 0001:0000c3e0       ?scale@VImage@vips@@QEAA?AV12@PEAVVOption@2@@Z 000000018000d3e0 f   VImage.obj
 0001:0000c4c0       ?wrap@VImage@vips@@QEAA?AV12@PEAVVOption@2@@Z 000000018000d4c0 f   VImage.obj
 0001:0000c5a0       ?zoom@VImage@vips@@QEAA?AV12@HHPEAVVOption@2@@Z 000000018000d5a0 f   VImage.obj
 0001:0000c6c0       ?subsample@VImage@vips@@QEAA?AV12@HHPEAVVOption@2@@Z 000000018000d6c0 f   VImage.obj
 0001:0000c7e0       ?msb@VImage@vips@@QEAA?AV12@PEAVVOption@2@@Z 000000018000d7e0 f   VImage.obj
 0001:0000c8c0       ?byteswap@VImage@vips@@QEAA?AV12@PEAVVOption@2@@Z 000000018000d8c0 f   VImage.obj
 0001:0000c9a0       ?falsecolour@VImage@vips@@QEAA?AV12@PEAVVOption@2@@Z 000000018000d9a0 f   VImage.obj
 0001:0000ca80       ?gamma@VImage@vips@@QEAA?AV12@PEAVVOption@2@@Z 000000018000da80 f   VImage.obj
 0001:0000cb60       ?black@VImage@vips@@SA?AV12@HHPEAVVOption@2@@Z 000000018000db60 f   VImage.obj
 0001:0000cc00       ?gaussnoise@VImage@vips@@SA?AV12@HHPEAVVOption@2@@Z 000000018000dc00 f   VImage.obj
 0001:0000cca0       ?text@VImage@vips@@SA?AV12@PEADPEAVVOption@2@@Z 000000018000dca0 f   VImage.obj
 0001:0000cd20       ?xyz@VImage@vips@@SA?AV12@HHPEAVVOption@2@@Z 000000018000dd20 f   VImage.obj
 0001:0000cdc0       ?gaussmat@VImage@vips@@SA?AV12@NNPEAVVOption@2@@Z 000000018000ddc0 f   VImage.obj
 0001:0000ce60       ?logmat@VImage@vips@@SA?AV12@NNPEAVVOption@2@@Z 000000018000de60 f   VImage.obj
 0001:0000cf00       ?eye@VImage@vips@@SA?AV12@HHPEAVVOption@2@@Z 000000018000df00 f   VImage.obj
 0001:0000cfa0       ?grey@VImage@vips@@SA?AV12@HHPEAVVOption@2@@Z 000000018000dfa0 f   VImage.obj
 0001:0000d040       ?zone@VImage@vips@@SA?AV12@HHPEAVVOption@2@@Z 000000018000e040 f   VImage.obj
 0001:0000d0e0       ?sines@VImage@vips@@SA?AV12@HHPEAVVOption@2@@Z 000000018000e0e0 f   VImage.obj
 0001:0000d180       ?mask_ideal@VImage@vips@@SA?AV12@HHNPEAVVOption@2@@Z 000000018000e180 f   VImage.obj
 0001:0000d240       ?mask_ideal_ring@VImage@vips@@SA?AV12@HHNNPEAVVOption@2@@Z 000000018000e240 f   VImage.obj
 0001:0000d320       ?mask_ideal_band@VImage@vips@@SA?AV12@HHNNNPEAVVOption@2@@Z 000000018000e320 f   VImage.obj
 0001:0000d410       ?mask_butterworth@VImage@vips@@SA?AV12@HHNNNPEAVVOption@2@@Z 000000018000e410 f   VImage.obj
 0001:0000d500       ?mask_butterworth_ring@VImage@vips@@SA?AV12@HHNNNNPEAVVOption@2@@Z 000000018000e500 f   VImage.obj
 0001:0000d610       ?mask_butterworth_band@VImage@vips@@SA?AV12@HHNNNNNPEAVVOption@2@@Z 000000018000e610 f   VImage.obj
 0001:0000d730       ?mask_gaussian@VImage@vips@@SA?AV12@HHNNPEAVVOption@2@@Z 000000018000e730 f   VImage.obj
 0001:0000d810       ?mask_gaussian_ring@VImage@vips@@SA?AV12@HHNNNPEAVVOption@2@@Z 000000018000e810 f   VImage.obj
 0001:0000d900       ?mask_gaussian_band@VImage@vips@@SA?AV12@HHNNNNPEAVVOption@2@@Z 000000018000e900 f   VImage.obj
 0001:0000da10       ?mask_fractal@VImage@vips@@SA?AV12@HHNPEAVVOption@2@@Z 000000018000ea10 f   VImage.obj
 0001:0000dad0       ?buildlut@VImage@vips@@QEAA?AV12@PEAVVOption@2@@Z 000000018000ead0 f   VImage.obj
 0001:0000dbb0       ?invertlut@VImage@vips@@QEAA?AV12@PEAVVOption@2@@Z 000000018000ebb0 f   VImage.obj
 0001:0000dc90       ?tonelut@VImage@vips@@SA?AV12@PEAVVOption@2@@Z 000000018000ec90 f   VImage.obj
 0001:0000dd00       ?identity@VImage@vips@@SA?AV12@PEAVVOption@2@@Z 000000018000ed00 f   VImage.obj
 0001:0000dd70       ?fractsurf@VImage@vips@@SA?AV12@HHNPEAVVOption@2@@Z 000000018000ed70 f   VImage.obj
 0001:0000de30       ?worley@VImage@vips@@SA?AV12@HHPEAVVOption@2@@Z 000000018000ee30 f   VImage.obj
 0001:0000ded0       ?perlin@VImage@vips@@SA?AV12@HHPEAVVOption@2@@Z 000000018000eed0 f   VImage.obj
 0001:0000df70       ?csvload@VImage@vips@@SA?AV12@PEADPEAVVOption@2@@Z 000000018000ef70 f   VImage.obj
 0001:0000dff0       ?matrixload@VImage@vips@@SA?AV12@PEADPEAVVOption@2@@Z 000000018000eff0 f   VImage.obj
 0001:0000e070       ?rawload@VImage@vips@@SA?AV12@PEADHHHPEAVVOption@2@@Z 000000018000f070 f   VImage.obj
 0001:0000e150       ?vipsload@VImage@vips@@SA?AV12@PEADPEAVVOption@2@@Z 000000018000f150 f   VImage.obj
 0001:0000e1d0       ?analyzeload@VImage@vips@@SA?AV12@PEADPEAVVOption@2@@Z 000000018000f1d0 f   VImage.obj
 0001:0000e250       ?ppmload@VImage@vips@@SA?AV12@PEADPEAVVOption@2@@Z 000000018000f250 f   VImage.obj
 0001:0000e2d0       ?radload@VImage@vips@@SA?AV12@PEADPEAVVOption@2@@Z 000000018000f2d0 f   VImage.obj
 0001:0000e350       ?pdfload@VImage@vips@@SA?AV12@PEADPEAVVOption@2@@Z 000000018000f350 f   VImage.obj
 0001:0000e3d0       ?pdfload_buffer@VImage@vips@@SA?AV12@PEAU_VipsBlob@@PEAVVOption@2@@Z 000000018000f3d0 f   VImage.obj
 0001:0000e450       ?svgload@VImage@vips@@SA?AV12@PEADPEAVVOption@2@@Z 000000018000f450 f   VImage.obj
 0001:0000e4d0       ?svgload_buffer@VImage@vips@@SA?AV12@PEAU_VipsBlob@@PEAVVOption@2@@Z 000000018000f4d0 f   VImage.obj
 0001:0000e550       ?gifload@VImage@vips@@SA?AV12@PEADPEAVVOption@2@@Z 000000018000f550 f   VImage.obj
 0001:0000e5d0       ?gifload_buffer@VImage@vips@@SA?AV12@PEAU_VipsBlob@@PEAVVOption@2@@Z 000000018000f5d0 f   VImage.obj
 0001:0000e650       ?pngload@VImage@vips@@SA?AV12@PEADPEAVVOption@2@@Z 000000018000f650 f   VImage.obj
 0001:0000e6d0       ?pngload_buffer@VImage@vips@@SA?AV12@PEAU_VipsBlob@@PEAVVOption@2@@Z 000000018000f6d0 f   VImage.obj
 0001:0000e750       ?matload@VImage@vips@@SA?AV12@PEADPEAVVOption@2@@Z 000000018000f750 f   VImage.obj
 0001:0000e7d0       ?jpegload@VImage@vips@@SA?AV12@PEADPEAVVOption@2@@Z 000000018000f7d0 f   VImage.obj
 0001:0000e850       ?jpegload_buffer@VImage@vips@@SA?AV12@PEAU_VipsBlob@@PEAVVOption@2@@Z 000000018000f850 f   VImage.obj
 0001:0000e8d0       ?webpload@VImage@vips@@SA?AV12@PEADPEAVVOption@2@@Z 000000018000f8d0 f   VImage.obj
 0001:0000e950       ?webpload_buffer@VImage@vips@@SA?AV12@PEAU_VipsBlob@@PEAVVOption@2@@Z 000000018000f950 f   VImage.obj
 0001:0000e9d0       ?tiffload@VImage@vips@@SA?AV12@PEADPEAVVOption@2@@Z 000000018000f9d0 f   VImage.obj
 0001:0000ea50       ?tiffload_buffer@VImage@vips@@SA?AV12@PEAU_VipsBlob@@PEAVVOption@2@@Z 000000018000fa50 f   VImage.obj
 0001:0000ead0       ?openslideload@VImage@vips@@SA?AV12@PEADPEAVVOption@2@@Z 000000018000fad0 f   VImage.obj
 0001:0000eb50       ?magickload@VImage@vips@@SA?AV12@PEADPEAVVOption@2@@Z 000000018000fb50 f   VImage.obj
 0001:0000ebd0       ?magickload_buffer@VImage@vips@@SA?AV12@PEAU_VipsBlob@@PEAVVOption@2@@Z 000000018000fbd0 f   VImage.obj
 0001:0000ec50       ?fitsload@VImage@vips@@SA?AV12@PEADPEAVVOption@2@@Z 000000018000fc50 f   VImage.obj
 0001:0000ecd0       ?openexrload@VImage@vips@@SA?AV12@PEADPEAVVOption@2@@Z 000000018000fcd0 f   VImage.obj
 0001:0000ed50       ?csvsave@VImage@vips@@QEAAXPEADPEAVVOption@2@@Z 000000018000fd50 f   VImage.obj
 0001:0000ee10       ?matrixsave@VImage@vips@@QEAAXPEADPEAVVOption@2@@Z 000000018000fe10 f   VImage.obj
 0001:0000eed0       ?matrixprint@VImage@vips@@QEAAXPEAVVOption@2@@Z 000000018000fed0 f   VImage.obj
 0001:0000ef70       ?rawsave@VImage@vips@@QEAAXPEADPEAVVOption@2@@Z 000000018000ff70 f   VImage.obj
 0001:0000f030       ?rawsave_fd@VImage@vips@@QEAAXHPEAVVOption@2@@Z 0000000180010030 f   VImage.obj
 0001:0000f0f0       ?vipssave@VImage@vips@@QEAAXPEADPEAVVOption@2@@Z 00000001800100f0 f   VImage.obj
 0001:0000f1b0       ?ppmsave@VImage@vips@@QEAAXPEADPEAVVOption@2@@Z 00000001800101b0 f   VImage.obj
 0001:0000f270       ?radsave@VImage@vips@@QEAAXPEADPEAVVOption@2@@Z 0000000180010270 f   VImage.obj
 0001:0000f330       ?radsave_buffer@VImage@vips@@QEAAPEAU_VipsBlob@@PEAVVOption@2@@Z 0000000180010330 f   VImage.obj
 0001:0000f3f0       ?dzsave@VImage@vips@@QEAAXPEADPEAVVOption@2@@Z 00000001800103f0 f   VImage.obj
 0001:0000f4b0       ?dzsave_buffer@VImage@vips@@QEAAPEAU_VipsBlob@@PEAVVOption@2@@Z 00000001800104b0 f   VImage.obj
 0001:0000f570       ?pngsave@VImage@vips@@QEAAXPEADPEAVVOption@2@@Z 0000000180010570 f   VImage.obj
 0001:0000f630       ?pngsave_buffer@VImage@vips@@QEAAPEAU_VipsBlob@@PEAVVOption@2@@Z 0000000180010630 f   VImage.obj
 0001:0000f6f0       ?jpegsave@VImage@vips@@QEAAXPEADPEAVVOption@2@@Z 00000001800106f0 f   VImage.obj
 0001:0000f7b0       ?jpegsave_buffer@VImage@vips@@QEAAPEAU_VipsBlob@@PEAVVOption@2@@Z 00000001800107b0 f   VImage.obj
 0001:0000f870       ?jpegsave_mime@VImage@vips@@QEAAXPEAVVOption@2@@Z 0000000180010870 f   VImage.obj
 0001:0000f910       ?webpsave@VImage@vips@@QEAAXPEADPEAVVOption@2@@Z 0000000180010910 f   VImage.obj
 0001:0000f9d0       ?webpsave_buffer@VImage@vips@@QEAAPEAU_VipsBlob@@PEAVVOption@2@@Z 00000001800109d0 f   VImage.obj
 0001:0000fa90       ?tiffsave@VImage@vips@@QEAAXPEADPEAVVOption@2@@Z 0000000180010a90 f   VImage.obj
 0001:0000fb50       ?tiffsave_buffer@VImage@vips@@QEAAPEAU_VipsBlob@@PEAVVOption@2@@Z 0000000180010b50 f   VImage.obj
 0001:0000fc10       ?fitssave@VImage@vips@@QEAAXPEADPEAVVOption@2@@Z 0000000180010c10 f   VImage.obj
 0001:0000fcd0       ?thumbnail@VImage@vips@@SA?AV12@PEADHPEAVVOption@2@@Z 0000000180010cd0 f   VImage.obj
 0001:0000fd70       ?thumbnail_buffer@VImage@vips@@SA?AV12@PEAU_VipsBlob@@HPEAVVOption@2@@Z 0000000180010d70 f   VImage.obj
 0001:0000fe10       ?mapim@VImage@vips@@QEAA?AV12@V12@PEAVVOption@2@@Z 0000000180010e10 f   VImage.obj
 0001:0000ffb0       ?shrink@VImage@vips@@QEAA?AV12@NNPEAVVOption@2@@Z 0000000180010fb0 f   VImage.obj
 0001:000100d0       ?shrinkh@VImage@vips@@QEAA?AV12@HPEAVVOption@2@@Z 00000001800110d0 f   VImage.obj
 0001:000101c0       ?shrinkv@VImage@vips@@QEAA?AV12@HPEAVVOption@2@@Z 00000001800111c0 f   VImage.obj
 0001:000102b0       ?reduceh@VImage@vips@@QEAA?AV12@NPEAVVOption@2@@Z 00000001800112b0 f   VImage.obj
 0001:000103b0       ?reducev@VImage@vips@@QEAA?AV12@NPEAVVOption@2@@Z 00000001800113b0 f   VImage.obj
 0001:000104b0       ?reduce@VImage@vips@@QEAA?AV12@NNPEAVVOption@2@@Z 00000001800114b0 f   VImage.obj
 0001:000105d0       ?quadratic@VImage@vips@@QEAA?AV12@V12@PEAVVOption@2@@Z 00000001800115d0 f   VImage.obj
 0001:00010770       ?affine@VImage@vips@@QEAA?AV12@V?$vector@NV?$allocator@N@std@@@std@@PEAVVOption@2@@Z 0000000180011770 f   VImage.obj
 0001:000108b0       ?similarity@VImage@vips@@QEAA?AV12@PEAVVOption@2@@Z 00000001800118b0 f   VImage.obj
 0001:00010990       ?resize@VImage@vips@@QEAA?AV12@NPEAVVOption@2@@Z 0000000180011990 f   VImage.obj
 0001:00010a90       ?colourspace@VImage@vips@@QEAA?AV12@W4VipsInterpretation@@PEAVVOption@2@@Z 0000000180011a90 f   VImage.obj
 0001:00010b80       ?Lab2XYZ@VImage@vips@@QEAA?AV12@PEAVVOption@2@@Z 0000000180011b80 f   VImage.obj
 0001:00010c60       ?XYZ2Lab@VImage@vips@@QEAA?AV12@PEAVVOption@2@@Z 0000000180011c60 f   VImage.obj
 0001:00010d40       ?Lab2LCh@VImage@vips@@QEAA?AV12@PEAVVOption@2@@Z 0000000180011d40 f   VImage.obj
 0001:00010e20       ?LCh2Lab@VImage@vips@@QEAA?AV12@PEAVVOption@2@@Z 0000000180011e20 f   VImage.obj
 0001:00010f00       ?LCh2CMC@VImage@vips@@QEAA?AV12@PEAVVOption@2@@Z 0000000180011f00 f   VImage.obj
 0001:00010fe0       ?CMC2LCh@VImage@vips@@QEAA?AV12@PEAVVOption@2@@Z 0000000180011fe0 f   VImage.obj
 0001:000110c0       ?XYZ2Yxy@VImage@vips@@QEAA?AV12@PEAVVOption@2@@Z 00000001800120c0 f   VImage.obj
 0001:000111a0       ?Yxy2XYZ@VImage@vips@@QEAA?AV12@PEAVVOption@2@@Z 00000001800121a0 f   VImage.obj
 0001:00011280       ?scRGB2XYZ@VImage@vips@@QEAA?AV12@PEAVVOption@2@@Z 0000000180012280 f   VImage.obj
 0001:00011360       ?XYZ2scRGB@VImage@vips@@QEAA?AV12@PEAVVOption@2@@Z 0000000180012360 f   VImage.obj
 0001:00011440       ?LabQ2Lab@VImage@vips@@QEAA?AV12@PEAVVOption@2@@Z 0000000180012440 f   VImage.obj
 0001:00011520       ?Lab2LabQ@VImage@vips@@QEAA?AV12@PEAVVOption@2@@Z 0000000180012520 f   VImage.obj
 0001:00011600       ?LabQ2LabS@VImage@vips@@QEAA?AV12@PEAVVOption@2@@Z 0000000180012600 f   VImage.obj
 0001:000116e0       ?LabS2LabQ@VImage@vips@@QEAA?AV12@PEAVVOption@2@@Z 00000001800126e0 f   VImage.obj
 0001:000117c0       ?LabS2Lab@VImage@vips@@QEAA?AV12@PEAVVOption@2@@Z 00000001800127c0 f   VImage.obj
 0001:000118a0       ?Lab2LabS@VImage@vips@@QEAA?AV12@PEAVVOption@2@@Z 00000001800128a0 f   VImage.obj
 0001:00011980       ?rad2float@VImage@vips@@QEAA?AV12@PEAVVOption@2@@Z 0000000180012980 f   VImage.obj
 0001:00011a60       ?float2rad@VImage@vips@@QEAA?AV12@PEAVVOption@2@@Z 0000000180012a60 f   VImage.obj
 0001:00011b40       ?LabQ2sRGB@VImage@vips@@QEAA?AV12@PEAVVOption@2@@Z 0000000180012b40 f   VImage.obj
 0001:00011c20       ?sRGB2HSV@VImage@vips@@QEAA?AV12@PEAVVOption@2@@Z 0000000180012c20 f   VImage.obj
 0001:00011d00       ?HSV2sRGB@VImage@vips@@QEAA?AV12@PEAVVOption@2@@Z 0000000180012d00 f   VImage.obj
 0001:00011de0       ?icc_import@VImage@vips@@QEAA?AV12@PEAVVOption@2@@Z 0000000180012de0 f   VImage.obj
 0001:00011ec0       ?icc_export@VImage@vips@@QEAA?AV12@PEAVVOption@2@@Z 0000000180012ec0 f   VImage.obj
 0001:00011fa0       ?icc_transform@VImage@vips@@QEAA?AV12@PEADPEAVVOption@2@@Z 0000000180012fa0 f   VImage.obj
 0001:00012090       ?dE76@VImage@vips@@QEAA?AV12@V12@PEAVVOption@2@@Z 0000000180013090 f   VImage.obj
 0001:00012230       ?dE00@VImage@vips@@QEAA?AV12@V12@PEAVVOption@2@@Z 0000000180013230 f   VImage.obj
 0001:000123d0       ?dECMC@VImage@vips@@QEAA?AV12@V12@PEAVVOption@2@@Z 00000001800133d0 f   VImage.obj
 0001:00012570       ?sRGB2scRGB@VImage@vips@@QEAA?AV12@PEAVVOption@2@@Z 0000000180013570 f   VImage.obj
 0001:00012650       ?scRGB2BW@VImage@vips@@QEAA?AV12@PEAVVOption@2@@Z 0000000180013650 f   VImage.obj
 0001:00012730       ?scRGB2sRGB@VImage@vips@@QEAA?AV12@PEAVVOption@2@@Z 0000000180013730 f   VImage.obj
 0001:00012810       ?maplut@VImage@vips@@QEAA?AV12@V12@PEAVVOption@2@@Z 0000000180013810 f   VImage.obj
 0001:000129b0       ?percent@VImage@vips@@QEAAHNPEAVVOption@2@@Z 00000001800139b0 f   VImage.obj
 0001:00012a90       ?stdif@VImage@vips@@QEAA?AV12@HHPEAVVOption@2@@Z 0000000180013a90 f   VImage.obj
 0001:00012bb0       ?hist_cum@VImage@vips@@QEAA?AV12@PEAVVOption@2@@Z 0000000180013bb0 f   VImage.obj
 0001:00012c90       ?hist_match@VImage@vips@@QEAA?AV12@V12@PEAVVOption@2@@Z 0000000180013c90 f   VImage.obj
 0001:00012e30       ?hist_norm@VImage@vips@@QEAA?AV12@PEAVVOption@2@@Z 0000000180013e30 f   VImage.obj
 0001:00012f10       ?hist_equal@VImage@vips@@QEAA?AV12@PEAVVOption@2@@Z 0000000180013f10 f   VImage.obj
 0001:00012ff0       ?hist_plot@VImage@vips@@QEAA?AV12@PEAVVOption@2@@Z 0000000180013ff0 f   VImage.obj
 0001:000130d0       ?hist_local@VImage@vips@@QEAA?AV12@HHPEAVVOption@2@@Z 00000001800140d0 f   VImage.obj
 0001:000131f0       ?hist_ismonotonic@VImage@vips@@QEAA_NPEAVVOption@2@@Z 00000001800141f0 f   VImage.obj
 0001:000132b0       ?hist_entropy@VImage@vips@@QEAANPEAVVOption@2@@Z 00000001800142b0 f   VImage.obj
 0001:00013370       ?conv@VImage@vips@@QEAA?AV12@V12@PEAVVOption@2@@Z 0000000180014370 f   VImage.obj
 0001:00013510       ?conva@VImage@vips@@QEAA?AV12@V12@PEAVVOption@2@@Z 0000000180014510 f   VImage.obj
 0001:000136b0       ?convf@VImage@vips@@QEAA?AV12@V12@PEAVVOption@2@@Z 00000001800146b0 f   VImage.obj
 0001:00013850       ?convi@VImage@vips@@QEAA?AV12@V12@PEAVVOption@2@@Z 0000000180014850 f   VImage.obj
 0001:000139f0       ?compass@VImage@vips@@QEAA?AV12@V12@PEAVVOption@2@@Z 00000001800149f0 f   VImage.obj
 0001:00013b90       ?convsep@VImage@vips@@QEAA?AV12@V12@PEAVVOption@2@@Z 0000000180014b90 f   VImage.obj
 0001:00013d30       ?convasep@VImage@vips@@QEAA?AV12@V12@PEAVVOption@2@@Z 0000000180014d30 f   VImage.obj
 0001:00013ed0       ?fastcor@VImage@vips@@QEAA?AV12@V12@PEAVVOption@2@@Z 0000000180014ed0 f   VImage.obj
 0001:00014070       ?spcor@VImage@vips@@QEAA?AV12@V12@PEAVVOption@2@@Z 0000000180015070 f   VImage.obj
 0001:00014210       ?sharpen@VImage@vips@@QEAA?AV12@PEAVVOption@2@@Z 0000000180015210 f   VImage.obj
 0001:000142f0       ?gaussblur@VImage@vips@@QEAA?AV12@NPEAVVOption@2@@Z 00000001800152f0 f   VImage.obj
 0001:000143f0       ?fwfft@VImage@vips@@QEAA?AV12@PEAVVOption@2@@Z 00000001800153f0 f   VImage.obj
 0001:000144d0       ?invfft@VImage@vips@@QEAA?AV12@PEAVVOption@2@@Z 00000001800154d0 f   VImage.obj
 0001:000145b0       ?freqmult@VImage@vips@@QEAA?AV12@V12@PEAVVOption@2@@Z 00000001800155b0 f   VImage.obj
 0001:00014750       ?spectrum@VImage@vips@@QEAA?AV12@PEAVVOption@2@@Z 0000000180015750 f   VImage.obj
 0001:00014830       ?phasecor@VImage@vips@@QEAA?AV12@V12@PEAVVOption@2@@Z 0000000180015830 f   VImage.obj
 0001:000149d0       ?morph@VImage@vips@@QEAA?AV12@V12@W4VipsOperationMorphology@@PEAVVOption@2@@Z 00000001800159d0 f   VImage.obj
 0001:00014b90       ?rank@VImage@vips@@QEAA?AV12@HHHPEAVVOption@2@@Z 0000000180015b90 f   VImage.obj
 0001:00014cc0       ?countlines@VImage@vips@@QEAANW4VipsDirection@@PEAVVOption@2@@Z 0000000180015cc0 f   VImage.obj
 0001:00014da0       ?labelregions@VImage@vips@@QEAA?AV12@PEAVVOption@2@@Z 0000000180015da0 f   VImage.obj
 0001:00014e80       ?draw_rect@VImage@vips@@QEAAXV?$vector@NV?$allocator@N@std@@@std@@HHHHPEAVVOption@2@@Z 0000000180015e80 f   VImage.obj
 0001:00015000       ?draw_mask@VImage@vips@@QEAAXV?$vector@NV?$allocator@N@std@@@std@@V12@HHPEAVVOption@2@@Z 0000000180016000 f   VImage.obj
 0001:00015200       ?draw_line@VImage@vips@@QEAAXV?$vector@NV?$allocator@N@std@@@std@@HHHHPEAVVOption@2@@Z 0000000180016200 f   VImage.obj
 0001:00015380       ?draw_circle@VImage@vips@@QEAAXV?$vector@NV?$allocator@N@std@@@std@@HHHPEAVVOption@2@@Z 0000000180016380 f   VImage.obj
 0001:000154e0       ?draw_flood@VImage@vips@@QEAAXV?$vector@NV?$allocator@N@std@@@std@@HHPEAVVOption@2@@Z 00000001800164e0 f   VImage.obj
 0001:00015630       ?draw_image@VImage@vips@@QEAAXV12@HHPEAVVOption@2@@Z 0000000180016630 f   VImage.obj
 0001:000157e0       ?draw_smudge@VImage@vips@@QEAAXHHHHPEAVVOption@2@@Z 00000001800167e0 f   VImage.obj
 0001:000158e0       ?merge@VImage@vips@@QEAA?AV12@V12@W4VipsDirection@@HHPEAVVOption@2@@Z 00000001800168e0 f   VImage.obj
 0001:00015ad0       ?mosaic@VImage@vips@@QEAA?AV12@V12@W4VipsDirection@@HHHHPEAVVOption@2@@Z 0000000180016ad0 f   VImage.obj
 0001:00015cf0       ?mosaic1@VImage@vips@@QEAA?AV12@V12@W4VipsDirection@@HHHHHHHHPEAVVOption@2@@Z 0000000180016cf0 f   VImage.obj
 0001:00015f70       ?match@VImage@vips@@QEAA?AV12@V12@HHHHHHHHPEAVVOption@2@@Z 0000000180016f70 f   VImage.obj
 0001:000161d0       ?globalbalance@VImage@vips@@QEAA?AV12@PEAVVOption@2@@Z 00000001800171d0 f   VImage.obj
 0001:000162b0       ?bandsplit@VImage@vips@@QEAA?AV?$vector@VVImage@vips@@V?$allocator@VVImage@vips@@@std@@@std@@PEAVVOption@2@@Z 00000001800172b0 f   VImage.obj
 0001:000163c0       ?bandjoin@VImage@vips@@QEAA?AV12@V12@PEAVVOption@2@@Z 00000001800173c0 f   VImage.obj
 0001:000165f0       ?minpos@VImage@vips@@QEAA?AV?$complex@N@std@@PEAVVOption@2@@Z 00000001800175f0 f   VImage.obj
 0001:00016670       ?maxpos@VImage@vips@@QEAA?AV?$complex@N@std@@PEAVVOption@2@@Z 0000000180017670 f   VImage.obj
 0001:000166f0       ??AVImage@vips@@QEAA?AV01@H@Z 00000001800176f0 f   VImage.obj
 0001:00016720       ??RVImage@vips@@QEAA?AV?$vector@NV?$allocator@N@std@@@std@@HH@Z 0000000180017720 f   VImage.obj
 0001:00016750       ??Hvips@@YA?AVVImage@0@V10@0@Z 0000000180017750 f   VImage.obj
 0001:00016890       ??Hvips@@YA?AVVImage@0@NV10@@Z 0000000180017890 f   VImage.obj
 0001:00016930       ??Hvips@@YA?AVVImage@0@V10@N@Z 0000000180017930 f   VImage.obj
 0001:000169d0       ??Hvips@@YA?AVVImage@0@V?$vector@NV?$allocator@N@std@@@std@@V10@@Z 00000001800179d0 f   VImage.obj
 0001:00016ab0       ??Hvips@@YA?AVVImage@0@V10@V?$vector@NV?$allocator@N@std@@@std@@@Z 0000000180017ab0 f   VImage.obj
 0001:00016b90       ??Yvips@@YAAEAVVImage@0@AEAV10@V10@@Z 0000000180017b90 f   VImage.obj
 0001:00016d00       ??Yvips@@YAAEAVVImage@0@AEAV10@N@Z 0000000180017d00 f   VImage.obj
 0001:00016de0       ??Yvips@@YAAEAVVImage@0@AEAV10@V?$vector@NV?$allocator@N@std@@@std@@@Z 0000000180017de0 f   VImage.obj
 0001:00016f10       ??Gvips@@YA?AVVImage@0@V10@0@Z 0000000180017f10 f   VImage.obj
 0001:00017050       ??Gvips@@YA?AVVImage@0@NV10@@Z 0000000180018050 f   VImage.obj
 0001:000170f0       ??Gvips@@YA?AVVImage@0@V10@N@Z 00000001800180f0 f   VImage.obj
 0001:000171a0       ??Gvips@@YA?AVVImage@0@V?$vector@NV?$allocator@N@std@@@std@@V10@@Z 00000001800181a0 f   VImage.obj
 0001:00017280       ??Gvips@@YA?AVVImage@0@V10@V?$vector@NV?$allocator@N@std@@@std@@@Z 0000000180018280 f   VImage.obj
 0001:00017370       ??Zvips@@YAAEAVVImage@0@AEAV10@V10@@Z 0000000180018370 f   VImage.obj
 0001:000174e0       ??Zvips@@YAAEAVVImage@0@AEAV10@N@Z 00000001800184e0 f   VImage.obj
 0001:000175c0       ??Zvips@@YAAEAVVImage@0@AEAV10@V?$vector@NV?$allocator@N@std@@@std@@@Z 00000001800185c0 f   VImage.obj
 0001:000176f0       ??Gvips@@YA?AVVImage@0@V10@@Z 00000001800186f0 f   VImage.obj
 0001:000177e0       ??Dvips@@YA?AVVImage@0@V10@0@Z 00000001800187e0 f   VImage.obj
 0001:00017920       ??Dvips@@YA?AVVImage@0@NV10@@Z 0000000180018920 f   VImage.obj
 0001:000179c0       ??Dvips@@YA?AVVImage@0@V10@N@Z 00000001800189c0 f   VImage.obj
 0001:00017a60       ??Dvips@@YA?AVVImage@0@V?$vector@NV?$allocator@N@std@@@std@@V10@@Z 0000000180018a60 f   VImage.obj
 0001:00017b40       ??Dvips@@YA?AVVImage@0@V10@V?$vector@NV?$allocator@N@std@@@std@@@Z 0000000180018b40 f   VImage.obj
 0001:00017c20       ??Xvips@@YAAEAVVImage@0@AEAV10@V10@@Z 0000000180018c20 f   VImage.obj
 0001:00017d90       ??Xvips@@YAAEAVVImage@0@AEAV10@N@Z 0000000180018d90 f   VImage.obj
 0001:00017e70       ??Xvips@@YAAEAVVImage@0@AEAV10@V?$vector@NV?$allocator@N@std@@@std@@@Z 0000000180018e70 f   VImage.obj
 0001:00017fa0       ??Kvips@@YA?AVVImage@0@V10@0@Z 0000000180018fa0 f   VImage.obj
 0001:000180e0       ??Kvips@@YA?AVVImage@0@NV10@@Z 00000001800190e0 f   VImage.obj
 0001:00018200       ??Kvips@@YA?AVVImage@0@V10@N@Z 0000000180019200 f   VImage.obj
 0001:000182b0       ??Kvips@@YA?AVVImage@0@V?$vector@NV?$allocator@N@std@@@std@@V10@@Z 00000001800192b0 f   VImage.obj
 0001:00018400       ??Kvips@@YA?AVVImage@0@V10@V?$vector@NV?$allocator@N@std@@@std@@@Z 0000000180019400 f   VImage.obj
 0001:000184f0       ??_0vips@@YAAEAVVImage@0@AEAV10@V10@@Z 00000001800194f0 f   VImage.obj
 0001:00018660       ??_0vips@@YAAEAVVImage@0@AEAV10@N@Z 0000000180019660 f   VImage.obj
 0001:00018740       ??_0vips@@YAAEAVVImage@0@AEAV10@V?$vector@NV?$allocator@N@std@@@std@@@Z 0000000180019740 f   VImage.obj
 0001:00018870       ??Lvips@@YA?AVVImage@0@V10@0@Z 0000000180019870 f   VImage.obj
 0001:000189b0       ??Lvips@@YA?AVVImage@0@V10@N@Z 00000001800199b0 f   VImage.obj
 0001:00018a60       ??Lvips@@YA?AVVImage@0@V10@V?$vector@NV?$allocator@N@std@@@std@@@Z 0000000180019a60 f   VImage.obj
 0001:00018b30       ??_1vips@@YAAEAVVImage@0@AEAV10@V10@@Z 0000000180019b30 f   VImage.obj
 0001:00018ca0       ??_1vips@@YAAEAVVImage@0@AEAV10@N@Z 0000000180019ca0 f   VImage.obj
 0001:00018d80       ??_1vips@@YAAEAVVImage@0@AEAV10@V?$vector@NV?$allocator@N@std@@@std@@@Z 0000000180019d80 f   VImage.obj
 0001:00018eb0       ??Mvips@@YA?AVVImage@0@V10@0@Z 0000000180019eb0 f   VImage.obj
 0001:00018ff0       ??Mvips@@YA?AVVImage@0@NV10@@Z 0000000180019ff0 f   VImage.obj
 0001:000190a0       ??Mvips@@YA?AVVImage@0@V10@N@Z 000000018001a0a0 f   VImage.obj
 0001:00019150       ??Mvips@@YA?AVVImage@0@V?$vector@NV?$allocator@N@std@@@std@@V10@@Z 000000018001a150 f   VImage.obj
 0001:00019230       ??Mvips@@YA?AVVImage@0@V10@V?$vector@NV?$allocator@N@std@@@std@@@Z 000000018001a230 f   VImage.obj
 0001:00019310       ??Nvips@@YA?AVVImage@0@V10@0@Z 000000018001a310 f   VImage.obj
 0001:00019450       ??Nvips@@YA?AVVImage@0@NV10@@Z 000000018001a450 f   VImage.obj
 0001:00019500       ??Nvips@@YA?AVVImage@0@V10@N@Z 000000018001a500 f   VImage.obj
 0001:000195b0       ??Nvips@@YA?AVVImage@0@V?$vector@NV?$allocator@N@std@@@std@@V10@@Z 000000018001a5b0 f   VImage.obj
 0001:00019690       ??Nvips@@YA?AVVImage@0@V10@V?$vector@NV?$allocator@N@std@@@std@@@Z 000000018001a690 f   VImage.obj
 0001:00019770       ??Ovips@@YA?AVVImage@0@V10@0@Z 000000018001a770 f   VImage.obj
 0001:000198b0       ??Ovips@@YA?AVVImage@0@NV10@@Z 000000018001a8b0 f   VImage.obj
 0001:00019960       ??Ovips@@YA?AVVImage@0@V10@N@Z 000000018001a960 f   VImage.obj
 0001:00019a10       ??Ovips@@YA?AVVImage@0@V?$vector@NV?$allocator@N@std@@@std@@V10@@Z 000000018001aa10 f   VImage.obj
 0001:00019af0       ??Ovips@@YA?AVVImage@0@V10@V?$vector@NV?$allocator@N@std@@@std@@@Z 000000018001aaf0 f   VImage.obj
 0001:00019bd0       ??Pvips@@YA?AVVImage@0@V10@0@Z 000000018001abd0 f   VImage.obj
 0001:00019d10       ??Pvips@@YA?AVVImage@0@NV10@@Z 000000018001ad10 f   VImage.obj
 0001:00019dc0       ??Pvips@@YA?AVVImage@0@V10@N@Z 000000018001adc0 f   VImage.obj
 0001:00019e70       ??Pvips@@YA?AVVImage@0@V?$vector@NV?$allocator@N@std@@@std@@V10@@Z 000000018001ae70 f   VImage.obj
 0001:00019f50       ??Pvips@@YA?AVVImage@0@V10@V?$vector@NV?$allocator@N@std@@@std@@@Z 000000018001af50 f   VImage.obj
 0001:0001a030       ??8vips@@YA?AVVImage@0@V10@0@Z 000000018001b030 f   VImage.obj
 0001:0001a170       ??8vips@@YA?AVVImage@0@NV10@@Z 000000018001b170 f   VImage.obj
 0001:0001a220       ??8vips@@YA?AVVImage@0@V10@N@Z 000000018001b220 f   VImage.obj
 0001:0001a2d0       ??8vips@@YA?AVVImage@0@V?$vector@NV?$allocator@N@std@@@std@@V10@@Z 000000018001b2d0 f   VImage.obj
 0001:0001a3b0       ??8vips@@YA?AVVImage@0@V10@V?$vector@NV?$allocator@N@std@@@std@@@Z 000000018001b3b0 f   VImage.obj
 0001:0001a490       ??9vips@@YA?AVVImage@0@V10@0@Z 000000018001b490 f   VImage.obj
 0001:0001a5d0       ??9vips@@YA?AVVImage@0@NV10@@Z 000000018001b5d0 f   VImage.obj
 0001:0001a680       ??9vips@@YA?AVVImage@0@V10@N@Z 000000018001b680 f   VImage.obj
 0001:0001a730       ??9vips@@YA?AVVImage@0@V?$vector@NV?$allocator@N@std@@@std@@V10@@Z 000000018001b730 f   VImage.obj
 0001:0001a810       ??9vips@@YA?AVVImage@0@V10@V?$vector@NV?$allocator@N@std@@@std@@@Z 000000018001b810 f   VImage.obj
 0001:0001a8f0       ??Ivips@@YA?AVVImage@0@V10@0@Z 000000018001b8f0 f   VImage.obj
 0001:0001aa30       ??Ivips@@YA?AVVImage@0@NV10@@Z 000000018001ba30 f   VImage.obj
 0001:0001aae0       ??Ivips@@YA?AVVImage@0@V10@N@Z 000000018001bae0 f   VImage.obj
 0001:0001ab90       ??Ivips@@YA?AVVImage@0@V?$vector@NV?$allocator@N@std@@@std@@V10@@Z 000000018001bb90 f   VImage.obj
 0001:0001ac70       ??Ivips@@YA?AVVImage@0@V10@V?$vector@NV?$allocator@N@std@@@std@@@Z 000000018001bc70 f   VImage.obj
 0001:0001ad50       ??_4vips@@YAAEAVVImage@0@AEAV10@V10@@Z 000000018001bd50 f   VImage.obj
 0001:0001aec0       ??_4vips@@YAAEAVVImage@0@AEAV10@N@Z 000000018001bec0 f   VImage.obj
 0001:0001afa0       ??_4vips@@YAAEAVVImage@0@AEAV10@V?$vector@NV?$allocator@N@std@@@std@@@Z 000000018001bfa0 f   VImage.obj
 0001:0001b0d0       ??Uvips@@YA?AVVImage@0@V10@0@Z 000000018001c0d0 f   VImage.obj
 0001:0001b210       ??Uvips@@YA?AVVImage@0@NV10@@Z 000000018001c210 f   VImage.obj
 0001:0001b2c0       ??Uvips@@YA?AVVImage@0@V10@N@Z 000000018001c2c0 f   VImage.obj
 0001:0001b370       ??Uvips@@YA?AVVImage@0@V?$vector@NV?$allocator@N@std@@@std@@V10@@Z 000000018001c370 f   VImage.obj
 0001:0001b450       ??Uvips@@YA?AVVImage@0@V10@V?$vector@NV?$allocator@N@std@@@std@@@Z 000000018001c450 f   VImage.obj
 0001:0001b530       ??_5vips@@YAAEAVVImage@0@AEAV10@V10@@Z 000000018001c530 f   VImage.obj
 0001:0001b6a0       ??_5vips@@YAAEAVVImage@0@AEAV10@N@Z 000000018001c6a0 f   VImage.obj
 0001:0001b780       ??_5vips@@YAAEAVVImage@0@AEAV10@V?$vector@NV?$allocator@N@std@@@std@@@Z 000000018001c780 f   VImage.obj
 0001:0001b8b0       ??Tvips@@YA?AVVImage@0@V10@0@Z 000000018001c8b0 f   VImage.obj
 0001:0001b9f0       ??Tvips@@YA?AVVImage@0@NV10@@Z 000000018001c9f0 f   VImage.obj
 0001:0001baa0       ??Tvips@@YA?AVVImage@0@V10@N@Z 000000018001caa0 f   VImage.obj
 0001:0001bb50       ??Tvips@@YA?AVVImage@0@V?$vector@NV?$allocator@N@std@@@std@@V10@@Z 000000018001cb50 f   VImage.obj
 0001:0001bc30       ??Tvips@@YA?AVVImage@0@V10@V?$vector@NV?$allocator@N@std@@@std@@@Z 000000018001cc30 f   VImage.obj
 0001:0001bd10       ??_6vips@@YAAEAVVImage@0@AEAV10@V10@@Z 000000018001cd10 f   VImage.obj
 0001:0001be80       ??_6vips@@YAAEAVVImage@0@AEAV10@N@Z 000000018001ce80 f   VImage.obj
 0001:0001bf60       ??_6vips@@YAAEAVVImage@0@AEAV10@V?$vector@NV?$allocator@N@std@@@std@@@Z 000000018001cf60 f   VImage.obj
 0001:0001c090       ??6vips@@YA?AVVImage@0@V10@0@Z 000000018001d090 f   VImage.obj
 0001:0001c1d0       ??6vips@@YA?AVVImage@0@V10@N@Z 000000018001d1d0 f   VImage.obj
 0001:0001c280       ??6vips@@YA?AVVImage@0@V10@V?$vector@NV?$allocator@N@std@@@std@@@Z 000000018001d280 f   VImage.obj
 0001:0001c360       ??_2vips@@YAAEAVVImage@0@AEAV10@V10@@Z 000000018001d360 f   VImage.obj
 0001:0001c360       ??_3vips@@YAAEAVVImage@0@AEAV10@V10@@Z 000000018001d360 f   VImage.obj
 0001:0001c4d0       ??_3vips@@YAAEAVVImage@0@AEAV10@N@Z 000000018001d4d0 f   VImage.obj
 0001:0001c4d0       ??_2vips@@YAAEAVVImage@0@AEAV10@N@Z 000000018001d4d0 f   VImage.obj
 0001:0001c5b0       ??_2vips@@YAAEAVVImage@0@AEAV10@V?$vector@NV?$allocator@N@std@@@std@@@Z 000000018001d5b0 f   VImage.obj
 0001:0001c5b0       ??_3vips@@YAAEAVVImage@0@AEAV10@V?$vector@NV?$allocator@N@std@@@std@@@Z 000000018001d5b0 f   VImage.obj
 0001:0001c6e0       ??5vips@@YA?AVVImage@0@V10@0@Z 000000018001d6e0 f   VImage.obj
 0001:0001c820       ??5vips@@YA?AVVImage@0@V10@N@Z 000000018001d820 f   VImage.obj
 0001:0001c8d0       ??5vips@@YA?AVVImage@0@V10@V?$vector@NV?$allocator@N@std@@@std@@@Z 000000018001d8d0 f   VImage.obj
 0001:0001c9b0       ??1?$vector@VVImage@vips@@V?$allocator@VVImage@vips@@@std@@@std@@QEAA@XZ 000000018001d9b0 f i VImage.obj
 0001:0001c9f0       ?push_back@?$vector@VVImage@vips@@V?$allocator@VVImage@vips@@@std@@@std@@QEAAX$$QEAVVImage@vips@@@Z 000000018001d9f0 f i VImage.obj
 0001:0001cb00       ??0?$vector@VVImage@vips@@V?$allocator@VVImage@vips@@@std@@@std@@QEAA@AEBV01@@Z 000000018001db00 f i VImage.obj
 0001:0001cba0       ?resize@?$vector@NV?$allocator@N@std@@@std@@QEAAX_K@Z 000000018001dba0 f i VImage.obj
 0001:0001cc90       ??0?$vector@NV?$allocator@N@std@@@std@@QEAA@_K@Z 000000018001dc90 f i VImage.obj
 0001:0001cd10       ?_Reserve@?$vector@VVImage@vips@@V?$allocator@VVImage@vips@@@std@@@std@@IEAAX_K@Z 000000018001dd10 f i VImage.obj
 0001:0001cda0       ?_Reallocate@?$vector@VVImage@vips@@V?$allocator@VVImage@vips@@@std@@@std@@IEAAX_K@Z 000000018001dda0 f i VImage.obj
 0001:0001ce90       ?_Reallocate@?$vector@NV?$allocator@N@std@@@std@@IEAAX_K@Z 000000018001de90 f i VImage.obj
 0001:0001cf70       ??$_Destroy_range1@V?$allocator@VVImage@vips@@@std@@PEAVVImage@vips@@@std@@YAXPEAVVImage@vips@@0AEAU?$_Wrap_alloc@V?$allocator@VVImage@vips@@@std@@@0@U?$integral_constant@_N$0A@@0@@Z 000000018001df70 f i VImage.obj
 0001:0001d000       ??$_Uninitialized_move_al_unchecked1@PEAVVImage@vips@@PEAV12@V?$allocator@VVImage@vips@@@std@@@std@@YAPEAVVImage@vips@@PEAV12@00AEAU?$_Wrap_alloc@V?$allocator@VVImage@vips@@@std@@@0@U_General_ptr_iterator_tag@0@U_Any_tag@0@@Z 000000018001e000 f i VImage.obj
 0001:0001d000       ??$_Uninitialized_copy_al_unchecked1@PEBVVImage@vips@@PEAV12@V?$allocator@VVImage@vips@@@std@@@std@@YAPEAVVImage@vips@@PEBV12@0PEAV12@AEAU?$_Wrap_alloc@V?$allocator@VVImage@vips@@@std@@@0@U_General_ptr_iterator_tag@0@U_Any_tag@0@@Z 000000018001e000 f i VImage.obj
 0001:0001d000       ??$_Uninitialized_copy_al_unchecked1@PEAVVImage@vips@@PEAV12@V?$allocator@VVImage@vips@@@std@@@std@@YAPEAVVImage@vips@@PEAV12@00AEAU?$_Wrap_alloc@V?$allocator@VVImage@vips@@@std@@@0@U_General_ptr_iterator_tag@0@U_Any_tag@0@@Z 000000018001e000 f i VImage.obj
 0001:0001d09c       ??0bad_alloc@std@@QEAA@AEBV01@@Z 000000018001e09c f i libcpmt:xthrow.obj
 0001:0001d0dc       ??0bad_alloc@std@@QEAA@XZ  000000018001e0dc f i libcpmt:xthrow.obj
 0001:0001d0fc       ??0exception@std@@QEAA@AEBV01@@Z 000000018001e0fc f i libcpmt:xthrow.obj
 0001:0001d134       ??0length_error@std@@QEAA@AEBV01@@Z 000000018001e134 f i libcpmt:xthrow.obj
 0001:0001d174       ??0length_error@std@@QEAA@PEBD@Z 000000018001e174 f i libcpmt:xthrow.obj
 0001:0001d1c0       ??0logic_error@std@@QEAA@AEBV01@@Z 000000018001e1c0 f i libcpmt:xthrow.obj
 0001:0001d200       ??0out_of_range@std@@QEAA@AEBV01@@Z 000000018001e200 f i libcpmt:xthrow.obj
 0001:0001d240       ??0out_of_range@std@@QEAA@PEBD@Z 000000018001e240 f i libcpmt:xthrow.obj
 0001:0001d28c       ??1bad_array_new_length@std@@UEAA@XZ 000000018001e28c f i LIBCMT:throw_bad_alloc.obj
 0001:0001d28c       ??1length_error@std@@UEAA@XZ 000000018001e28c f i libcpmt:xthrow.obj
 0001:0001d28c       ??1out_of_range@std@@UEAA@XZ 000000018001e28c f i libcpmt:xthrow.obj
 0001:0001d28c       ??1bad_alloc@std@@UEAA@XZ  000000018001e28c f i libcpmt:xthrow.obj
 0001:0001d28c       ??1bad_exception@std@@UEAA@XZ 000000018001e28c f i libvcruntime:frame.obj
 0001:0001d2a0       ??_Elogic_error@std@@UEAAPEAXI@Z 000000018001e2a0 f i libcpmt:xthrow.obj
 0001:0001d2a0       ??_Gbad_exception@std@@UEAAPEAXI@Z 000000018001e2a0 f i libvcruntime:frame.obj
 0001:0001d2a0       ??_Ebad_array_new_length@std@@UEAAPEAXI@Z 000000018001e2a0 f i LIBCMT:throw_bad_alloc.obj
 0001:0001d2a0       ??_Ebad_exception@std@@UEAAPEAXI@Z 000000018001e2a0 f i libvcruntime:frame.obj
 0001:0001d2a0       ??_Gbad_alloc@std@@UEAAPEAXI@Z 000000018001e2a0 f i libcpmt:xthrow.obj
 0001:0001d2a0       ??_Gexception@std@@UEAAPEAXI@Z 000000018001e2a0 f i libcpmt:xthrow.obj
 0001:0001d2a0       ??_Glogic_error@std@@UEAAPEAXI@Z 000000018001e2a0 f i libcpmt:xthrow.obj
 0001:0001d2a0       ??_Gbad_array_new_length@std@@UEAAPEAXI@Z 000000018001e2a0 f i LIBCMT:throw_bad_alloc.obj
 0001:0001d2a0       ??_Eout_of_range@std@@UEAAPEAXI@Z 000000018001e2a0 f i libcpmt:xthrow.obj
 0001:0001d2a0       ??_Glength_error@std@@UEAAPEAXI@Z 000000018001e2a0 f i libcpmt:xthrow.obj
 0001:0001d2a0       ??_Ebad_alloc@std@@UEAAPEAXI@Z 000000018001e2a0 f i libcpmt:xthrow.obj
 0001:0001d2a0       ??_Eexception@std@@UEAAPEAXI@Z 000000018001e2a0 f i libcpmt:xthrow.obj
 0001:0001d2a0       ??_Gout_of_range@std@@UEAAPEAXI@Z 000000018001e2a0 f i libcpmt:xthrow.obj
 0001:0001d2a0       ??_Elength_error@std@@UEAAPEAXI@Z 000000018001e2a0 f i libcpmt:xthrow.obj
 0001:0001d2e4       ?_Xlength_error@std@@YAXPEBD@Z 000000018001e2e4 f   libcpmt:xthrow.obj
 0001:0001d308       ?_Xout_of_range@std@@YAXPEBD@Z 000000018001e308 f   libcpmt:xthrow.obj
 0001:0001d32c       ?what@exception@std@@UEBAPEBDXZ 000000018001e32c f i libcpmt:xthrow.obj
 0001:0001d340       ?_Syserror_map@std@@YAPEBDH@Z 000000018001e340 f   libcpmt:syserror.obj
 0001:0001d380       __security_check_cookie    000000018001e380 f   LIBCMT:_amdsecgs_.obj
 0001:0001d3a4       ??_V@YAXPEAX_K@Z           000000018001e3a4 f   LIBCMT:delete_array_size.obj
 0001:0001d4f4       _Init_thread_footer        000000018001e4f4 f   LIBCMT:thread_safe_statics.obj
 0001:0001d554       _Init_thread_header        000000018001e554 f   LIBCMT:thread_safe_statics.obj
 0001:0001d5bc       _Init_thread_notify        000000018001e5bc f   LIBCMT:thread_safe_statics.obj
 0001:0001d618       _Init_thread_wait          000000018001e618 f   LIBCMT:thread_safe_statics.obj
 0001:0001d6b0       ??2@YAPEAX_K@Z             000000018001e6b0 f   LIBCMT:new_scalar.obj
 0001:0001d6ec       ??_M@YAXPEAX_K1P6AX0@Z@Z   000000018001e6ec f   LIBCMT:ehvecdtr.obj
 0001:0001d758       ?__ArrayUnwind@@YAXPEAX_K1P6AX0@Z@Z 000000018001e758 f   LIBCMT:ehvecdtr.obj
 0001:0001d7bc       __scrt_acquire_startup_lock 000000018001e7bc f   LIBCMT:utility.obj
 0001:0001d7f8       __scrt_dllmain_after_initialize_c 000000018001e7f8 f   LIBCMT:utility.obj
 0001:0001d82c       __scrt_dllmain_before_initialize_c 000000018001e82c f   LIBCMT:utility.obj
 0001:0001d844       __scrt_dllmain_crt_thread_attach 000000018001e844 f   LIBCMT:utility.obj
 0001:0001d86c       __scrt_dllmain_crt_thread_detach 000000018001e86c f   LIBCMT:utility.obj
 0001:0001d884       __scrt_dllmain_exception_filter 000000018001e884 f   LIBCMT:utility.obj
 0001:0001d8e8       __scrt_dllmain_uninitialize_c 000000018001e8e8 f   LIBCMT:utility.obj
 0001:0001d918       __scrt_dllmain_uninitialize_critical 000000018001e918 f   LIBCMT:utility.obj
 0001:0001d92c       __scrt_initialize_crt      000000018001e92c f   LIBCMT:utility.obj
 0001:0001d978       __scrt_initialize_onexit_tables 000000018001e978 f   LIBCMT:utility.obj
 0001:0001da44       __scrt_is_nonwritable_in_current_image 000000018001ea44 f   LIBCMT:utility.obj
 0001:0001dae0       __scrt_release_startup_lock 000000018001eae0 f   LIBCMT:utility.obj
 0001:0001db04       __scrt_uninitialize_crt    000000018001eb04 f   LIBCMT:utility.obj
 0001:0001db30       _onexit                    000000018001eb30 f   LIBCMT:utility.obj
 0001:0001db80       atexit                     000000018001eb80 f   LIBCMT:utility.obj
 0001:0001db98       ??3@YAXPEAX@Z              000000018001eb98 f   LIBCMT:delete_scalar.obj
 0001:0001dba0       ??_V@YAXPEAX@Z             000000018001eba0 f   LIBCMT:delete_array.obj
 0001:0001dba0       ??3@YAXPEAX_K@Z            000000018001eba0 f   LIBCMT:delete_scalar_size.obj
 0001:0001dba8       ??_Gtype_info@@UEAAPEAXI@Z 000000018001eba8 f i LIBCMT:std_type_info_static.obj
 0001:0001dba8       ??_Etype_info@@UEAAPEAXI@Z 000000018001eba8 f i LIBCMT:std_type_info_static.obj
 0001:0001df20       _DllMainCRTStartup         000000018001ef20 f   LIBCMT:dll_dllmain.obj
 0001:0001df60       __GSHandlerCheck           000000018001ef60 f   LIBCMT:_gshandler_.obj
 0001:0001df80       __GSHandlerCheckCommon     000000018001ef80 f   LIBCMT:_gshandler_.obj
 0001:0001dfdc       __raise_securityfailure    000000018001efdc f   LIBCMT:gs_report.obj
 0001:0001e010       __report_gsfailure         000000018001f010 f   LIBCMT:gs_report.obj
 0001:0001e0e4       __report_rangecheckfailure 000000018001f0e4 f   LIBCMT:gs_report.obj
 0001:0001e0f8       __report_securityfailure   000000018001f0f8 f   LIBCMT:gs_report.obj
 0001:0001e278       __crt_debugger_hook        000000018001f278 f   LIBCMT:utility_desktop.obj
 0001:0001e280       __scrt_fastfail            000000018001f280 f   LIBCMT:utility_desktop.obj
 0001:0001e3c8       _guard_check_icall         000000018001f3c8 f i LIBCMT:checkcfg.obj
 0001:0001e3d0       ??0bad_array_new_length@std@@QEAA@AEBV01@@Z 000000018001f3d0 f i LIBCMT:throw_bad_alloc.obj
 0001:0001e410       ??0bad_array_new_length@std@@QEAA@XZ 000000018001f410 f i LIBCMT:throw_bad_alloc.obj
 0001:0001e430       ?_Xbad_alloc@std@@YAXXZ    000000018001f430 f   libcpmt:xthrow.obj
 0001:0001e430       ?__scrt_throw_std_bad_alloc@@YAXXZ 000000018001f430 f   LIBCMT:throw_bad_alloc.obj
 0001:0001e450       ?__scrt_throw_std_bad_array_new_length@@YAXXZ 000000018001f450 f   LIBCMT:throw_bad_alloc.obj
 0001:0001e470       __isa_available_init       000000018001f470 f   LIBCMT:_cpu_disp_.obj
 0001:0001e638       __scrt_is_ucrt_dll_in_use  000000018001f638 f   LIBCMT:ucrt_detection.obj
 0001:0001e644       __security_init_cookie     000000018001f644 f   LIBCMT:gs_support.obj
 0001:0001e6f0       DllMain                    000000018001f6f0 f   LIBCMT:dll_dllmain_stub.obj
 0001:0001e6f0       _get_startup_argv_mode     000000018001f6f0 f   LIBCMT:argv_mode.obj
 0001:0001e6f8       ?__scrt_initialize_type_info@@YAXXZ 000000018001f6f8 f   LIBCMT:tncleanup.obj
 0001:0001e708       ?__scrt_uninitialize_type_info@@YAXXZ 000000018001f708 f   LIBCMT:tncleanup.obj
 0001:0001e714       __local_stdio_printf_options 000000018001f714 f i LIBCMT:default_local_stdio_options.obj
 0001:0001e71c       __local_stdio_scanf_options 000000018001f71c f i LIBCMT:default_local_stdio_options.obj
 0001:0001e724       __scrt_initialize_default_local_stdio_options 000000018001f724 f   LIBCMT:default_local_stdio_options.obj
 0001:0001e740       __scrt_get_dyn_tls_init_callback 000000018001f740 f   LIBCMT:dyn_tls_init.obj
 0001:0001e748       _RTC_Initialize            000000018001f748 f   LIBCMT:_initsect_.obj
 0001:0001e794       _RTC_Terminate             000000018001f794 f   LIBCMT:_initsect_.obj
 0001:0001e7f0       memcpy                     000000018001f7f0 f   libvcruntime:memcpy.obj
 0001:0001e7f0       memmove                    000000018001f7f0 f   libvcruntime:memcpy.obj
 0001:0001ec28       _purecall                  000000018001fc28 f   libvcruntime:purevirt.obj
 0001:0001ec64       __DestructExceptionObject  000000018001fc64 f   libvcruntime:frame.obj
 0001:0001ecec       ??0bad_exception@std@@QEAA@AEBV01@@Z 000000018001fcec f i libvcruntime:frame.obj
 0001:0001ed2c       ??0bad_exception@std@@QEAA@XZ 000000018001fd2c f i libvcruntime:frame.obj
 0001:0001f6a8       ?_CallMemberFunction0@@YAXPEAXP6AX0@Z@Z 00000001800206a8 f i libvcruntime:frame.obj
 0001:0001f6ac       ?_CallMemberFunction1@@YAXPEAXP6AX0@Z0@Z 00000001800206ac f i libvcruntime:frame.obj
 0001:0001f6b8       ?_CallMemberFunction2@@YAXPEAXP6AX0@Z0H@Z 00000001800206b8 f i libvcruntime:frame.obj
 0001:0001f6c8       __AdjustPointer            00000001800206c8 f   libvcruntime:frame.obj
 0001:0001f6ec       __BuildCatchObject         00000001800206ec f   libvcruntime:frame.obj
 0001:0001f7b0       __BuildCatchObjectHelper   00000001800207b0 f   libvcruntime:frame.obj
 0001:0001f990       __CxxCallCatchBlock        0000000180020990 f   libvcruntime:frame.obj
 0001:0001fb7c       __FrameUnwindFilter        0000000180020b7c f   libvcruntime:frame.obj
 0001:0001fbc8       __FrameUnwindToState       0000000180020bc8 f   libvcruntime:frame.obj
 0001:0001fd5c       __InternalCxxFrameHandler  0000000180020d5c f   libvcruntime:frame.obj
 0001:0001ffb4       __TypeMatch                0000000180020fb4 f   libvcruntime:frame.obj
 0001:000200f4       __std_exception_copy       00000001800210f4 f   libvcruntime:std_exception.obj
 0001:00020184       __std_exception_destroy    0000000180021184 f   libvcruntime:std_exception.obj
 0001:000201ac       _CxxThrowException         00000001800211ac f   libvcruntime:throw.obj
 0001:00020284       ?_ExecutionInCatch@@YAHPEAU_xDISPATCHER_CONTEXT@@PEBU_s_FuncInfo@@@Z 0000000180021284 f   libvcruntime:trnsctrl.obj
 0001:000202f8       ?_GetEstablisherFrame@@YAPEA_KPEA_KPEAU_xDISPATCHER_CONTEXT@@PEBU_s_FuncInfo@@0@Z 00000001800212f8 f   libvcruntime:trnsctrl.obj
 0001:000203c4       ?_GetRangeOfTrysToCheck@@YAPEBU_s_TryBlockMapEntry@@PEA_KPEBU_s_FuncInfo@@HHPEAI2PEAU_xDISPATCHER_CONTEXT@@@Z 00000001800213c4 f   libvcruntime:trnsctrl.obj
 0001:000204f0       ?__FrameUnwindToEmptyState@@YAXPEA_KPEAU_xDISPATCHER_CONTEXT@@PEBU_s_FuncInfo@@@Z 00000001800214f0 f   libvcruntime:trnsctrl.obj
 0001:00020584       ?__SehTransFilter@@YAHPEAU_EXCEPTION_POINTERS@@PEAUEHExceptionRecord@@PEA_KPEAU_CONTEXT@@PEAU_xDISPATCHER_CONTEXT@@PEBU_s_FuncInfo@@PEAH@Z 0000000180021584 f   libvcruntime:trnsctrl.obj
 0001:0002061c       _CallSETranslator          000000018002161c f   libvcruntime:trnsctrl.obj
 0001:00020674       _CreateFrameInfo           0000000180021674 f   libvcruntime:trnsctrl.obj
 0001:000206b0       _FindAndUnlinkFrame        00000001800216b0 f   libvcruntime:trnsctrl.obj
 0001:00020708       _GetImageBase              0000000180021708 f   libvcruntime:trnsctrl.obj
 0001:0002071c       _GetThrowImageBase         000000018002171c f   libvcruntime:trnsctrl.obj
 0001:00020730       _IsExceptionObjectToBeDestroyed 0000000180021730 f   libvcruntime:trnsctrl.obj
 0001:00020760       _SetImageBase              0000000180021760 f   libvcruntime:trnsctrl.obj
 0001:00020778       _SetThrowImageBase         0000000180021778 f   libvcruntime:trnsctrl.obj
 0001:00020790       _UnwindNestedFrames        0000000180021790 f   libvcruntime:trnsctrl.obj
 0001:000208b4       __CxxFrameHandler3         00000001800218b4 f   libvcruntime:trnsctrl.obj
 0001:00020afc       __vcrt_FlsAlloc            0000000180021afc f   libvcruntime:winapi_downlevel.obj
 0001:00020b50       __vcrt_FlsFree             0000000180021b50 f   libvcruntime:winapi_downlevel.obj
 0001:00020ba4       __vcrt_FlsGetValue         0000000180021ba4 f   libvcruntime:winapi_downlevel.obj
 0001:00020bf8       __vcrt_FlsSetValue         0000000180021bf8 f   libvcruntime:winapi_downlevel.obj
 0001:00020c60       __vcrt_InitializeCriticalSectionEx 0000000180021c60 f   libvcruntime:winapi_downlevel.obj
 0001:00020cd8       __vcrt_initialize_winapi_thunks 0000000180021cd8 f   libvcruntime:winapi_downlevel.obj
 0001:00020d24       __vcrt_uninitialize_winapi_thunks 0000000180021d24 f   libvcruntime:winapi_downlevel.obj
 0001:00020d64       __C_specific_handler       0000000180021d64 f   libvcruntime:_chandler_.obj
 0001:00020f60       __vcrt_initialize          0000000180021f60 f   libvcruntime:initialization.obj
 0001:00020f94       __vcrt_thread_attach       0000000180021f94 f   libvcruntime:initialization.obj
 0001:00020fa8       __vcrt_thread_detach       0000000180021fa8 f   libvcruntime:initialization.obj
 0001:00020fbc       __vcrt_uninitialize        0000000180021fbc f   libvcruntime:initialization.obj
 0001:00020fdc       __vcrt_uninitialize_critical 0000000180021fdc f   libvcruntime:initialization.obj
 0001:00021000       memset                     0000000180022000 f   libvcruntime:memset.obj
 0001:000211a0       __std_type_info_compare    00000001800221a0 f   libvcruntime:std_type_info.obj
 0001:000211c8       __std_type_info_destroy_list 00000001800221c8 f   libvcruntime:std_type_info.obj
 0001:000211f4       __vcrt_initialize_pure_virtual_call_handler 00000001800221f4 f   libvcruntime:purevirt_data.obj
 0001:00021218       __vcrt_freefls             0000000180022218 f   libvcruntime:per_thread_data.obj
 0001:00021238       __vcrt_freeptd             0000000180022238 f   libvcruntime:per_thread_data.obj
 0001:00021288       __vcrt_getptd              0000000180022288 f   libvcruntime:per_thread_data.obj
 0001:000212a4       __vcrt_getptd_noexit       00000001800222a4 f   libvcruntime:per_thread_data.obj
 0001:0002135c       __vcrt_initialize_ptd      000000018002235c f   libvcruntime:per_thread_data.obj
 0001:0002139c       __vcrt_uninitialize_ptd    000000018002239c f   libvcruntime:per_thread_data.obj
 0001:000213c0       ?__GetCurrentState@@YAHPEA_KPEAU_xDISPATCHER_CONTEXT@@PEBU_s_FuncInfo@@@Z 00000001800223c0 f   libvcruntime:ehstate.obj
 0001:000213e8       ?__GetUnwindTryBlock@@YAHPEA_KPEAU_xDISPATCHER_CONTEXT@@PEBU_s_FuncInfo@@@Z 00000001800223e8 f   libvcruntime:ehstate.obj
 0001:00021414       ?__SetState@@YAXPEA_KPEAU_xDISPATCHER_CONTEXT@@PEBU_s_FuncInfo@@H@Z 0000000180022414 f   libvcruntime:ehstate.obj
 0001:00021420       ?__SetUnwindTryBlock@@YAXPEA_KPEAU_xDISPATCHER_CONTEXT@@PEBU_s_FuncInfo@@H@Z 0000000180022420 f   libvcruntime:ehstate.obj
 0001:0002145c       ?__StateFromControlPc@@YAHPEBU_s_FuncInfo@@PEAU_xDISPATCHER_CONTEXT@@@Z 000000018002245c f   libvcruntime:ehstate.obj
 0001:00021464       ?__StateFromIp@@YAHPEBU_s_FuncInfo@@PEAU_xDISPATCHER_CONTEXT@@_J@Z 0000000180022464 f   libvcruntime:ehstate.obj
 0001:000214e0       _CallSettingFrame          00000001800224e0 f   libvcruntime:handlers.obj
 0001:00021530       _local_unwind              0000000180022530 f   libvcruntime:_jmpuwind_.obj
 0001:00021560       _NLG_Notify                0000000180022560 f   libvcruntime:_jmpuwind_.obj
 0001:00021580       __NLG_Dispatch2            0000000180022580 f   libvcruntime:_jmpuwind_.obj
 0001:00021590       __NLG_Return2              0000000180022590 f   libvcruntime:_jmpuwind_.obj
 0001:00021594       __vcrt_initialize_locks    0000000180022594 f   libvcruntime:locks.obj
 0001:000215dc       __vcrt_uninitialize_locks  00000001800225dc f   libvcruntime:locks.obj
 0001:00021614       __acrt_call_reportfault    0000000180022614 f   libucrt:invalid_parameter.obj
 0001:00021770       __acrt_initialize_invalid_parameter_handler 0000000180022770 f   libucrt:invalid_parameter.obj
 0001:00021778       _invalid_parameter         0000000180022778 f   libucrt:invalid_parameter.obj
 0001:00021820       _invalid_parameter_noinfo  0000000180022820 f   libucrt:invalid_parameter.obj
 0001:00021840       _invalid_parameter_noinfo_noreturn 0000000180022840 f   libucrt:invalid_parameter.obj
 0001:00021870       _invoke_watson             0000000180022870 f   libucrt:invalid_parameter.obj
 0001:000218b8       ??0_LocaleUpdate@@QEAA@QEAU__crt_locale_pointers@@@Z 00000001800228b8 f i libucrt:stricmp.obj
 0001:00021948       __acrt_initialize_new_handler 0000000180022948 f   libucrt:new_handler.obj
 0001:00021950       _callnewh                  0000000180022950 f   libucrt:new_handler.obj
 0001:00021990       _query_new_handler         0000000180022990 f   libucrt:new_handler.obj
 0001:000219c4       malloc                     00000001800229c4 f   libucrt:malloc.obj
 0001:000219cc       terminate                  00000001800229cc f   libucrt:terminate.obj
 0001:000219f4       _seh_filter_dll            00000001800229f4 f   libucrt:exception_filter.obj
 0001:00021a08       _seh_filter_exe            0000000180022a08 f   libucrt:exception_filter.obj
 0001:00021dc8       __acrt_initialize_thread_local_exit_callback 0000000180022dc8 f   libucrt:exit.obj
 0001:00021dd0       _cexit                     0000000180022dd0 f   libucrt:exit.obj
 0001:00021de0       _exit                      0000000180022de0 f   libucrt:exit.obj
 0001:00021dec       _is_c_termination_complete 0000000180022dec f   libucrt:exit.obj
 0001:00021fb0       __acrt_allocate_buffer_for_argv 0000000180022fb0 f   libucrt:argv_parsing.obj
 0001:00022014       _configure_narrow_argv     0000000180023014 f   libucrt:argv_parsing.obj
 0001:00022370       __dcrt_uninitialize_environments_nolock 0000000180023370 f   libucrt:environment_initialization.obj
 0001:000223a8       _initialize_narrow_environment 00000001800233a8 f   libucrt:environment_initialization.obj
 0001:000223b0       ??$?RV<lambda_b8c45f8f788dd370798f47cfe8ac3a86>@@AEAV<lambda_4e60a939b0d047cfe11ddc22648dfba9>@@V<lambda_332c3edc96d0294ec56c57d38c1cdfd5>@@@?$__crt_seh_guarded_call@H@@QEAAH$$QEAV<lambda_b8c45f8f788dd370798f47cfe8ac3a86>@@AEAV<lambda_4e60a939b0d047cfe11ddc22648dfba9>@@$$QEAV<lambda_332c3edc96d0294ec56c57d38c1cdfd5>@@@Z 00000001800233b0 f i libucrt:onexit.obj
 0001:000223ec       ??$?RV<lambda_e24bbb7b643b32fcea6fa61b31d4c984>@@AEAV<lambda_275893d493268fdec8709772e3fcec0e>@@V<lambda_9d71df4d7cf3f480f8d633942495c3b0>@@@?$__crt_seh_guarded_call@H@@QEAAH$$QEAV<lambda_e24bbb7b643b32fcea6fa61b31d4c984>@@AEAV<lambda_275893d493268fdec8709772e3fcec0e>@@$$QEAV<lambda_9d71df4d7cf3f480f8d633942495c3b0>@@@Z 00000001800233ec f i libucrt:onexit.obj
 0001:00022768       _crt_atexit                0000000180023768 f   libucrt:onexit.obj
 0001:00022778       _execute_onexit_table      0000000180023778 f   libucrt:onexit.obj
 0001:000227b4       _initialize_onexit_table   00000001800237b4 f   libucrt:onexit.obj
 0001:000227f4       _register_onexit_function  00000001800237f4 f   libucrt:onexit.obj
 0001:00022970       __acrt_uninitialize_command_line 0000000180023970 f   libucrt:argv_data.obj
 0001:00022974       __acrt_initialize          0000000180023974 f   libucrt:initialization.obj
 0001:00022988       __acrt_thread_attach       0000000180023988 f   libucrt:initialization.obj
 0001:0002299c       __acrt_thread_detach       000000018002399c f   libucrt:initialization.obj
 0001:000229ac       __acrt_uninitialize        00000001800239ac f   libucrt:initialization.obj
 0001:000229c0       __acrt_uninitialize_critical 00000001800239c0 f   libucrt:initialization.obj
 0001:000229d0       free                       00000001800239d0 f   libucrt:free.obj
 0001:000229d8       _initterm                  00000001800239d8 f   libucrt:initterm.obj
 0001:00022a50       _initterm_e                0000000180023a50 f   libucrt:initterm.obj
 0001:00022a9c       abort                      0000000180023a9c f   libucrt:abort.obj
 0001:00022af4       strcpy_s                   0000000180023af4 f   libucrt:strcpy_s.obj
 0001:00022b54       _free_base                 0000000180023b54 f   libucrt:free_base.obj
 0001:00022b94       _malloc_base               0000000180023b94 f   libucrt:malloc_base.obj
 0001:00022bf4       _calloc_base               0000000180023bf4 f   libucrt:calloc_base.obj
 0001:00022c6c       ??$?RV<lambda_46352004c1216016012b18bd6f87e700>@@AEAV<lambda_3bd07e1a1191394380780325891bf33f>@@V<lambda_334532d3f185bcaa59b5be82d7d22bff>@@@?$__crt_seh_guarded_call@X@@QEAAX$$QEAV<lambda_46352004c1216016012b18bd6f87e700>@@AEAV<lambda_3bd07e1a1191394380780325891bf33f>@@$$QEAV<lambda_334532d3f185bcaa59b5be82d7d22bff>@@@Z 0000000180023c6c f i libucrt:per_thread_data.obj
 0001:00022ccc       ??$?RV<lambda_5e887d1dcbef67a5eb4283622ba103bf>@@AEAV<lambda_4466841279450cc726390878d4a41900>@@V<lambda_341c25c0346d94847f1f3c463c57e077>@@@?$__crt_seh_guarded_call@X@@QEAAX$$QEAV<lambda_5e887d1dcbef67a5eb4283622ba103bf>@@AEAV<lambda_4466841279450cc726390878d4a41900>@@$$QEAV<lambda_341c25c0346d94847f1f3c463c57e077>@@@Z 0000000180023ccc f i libucrt:per_thread_data.obj
 0001:00022d14       ??$?RV<lambda_72d1df2b273a38828b1ce30cbf4cdab5>@@AEAV<lambda_876a65b173b8412d3a47c70a915b0cf4>@@V<lambda_41932305e351933ebe8f8be3ed8bb5dc>@@@?$__crt_seh_guarded_call@X@@QEAAX$$QEAV<lambda_72d1df2b273a38828b1ce30cbf4cdab5>@@AEAV<lambda_876a65b173b8412d3a47c70a915b0cf4>@@$$QEAV<lambda_41932305e351933ebe8f8be3ed8bb5dc>@@@Z 0000000180023d14 f i libucrt:per_thread_data.obj
 0001:00022d54       ??$?RV<lambda_fb3a7dec4e47f37f22dae91bb15c9095>@@AEAV<lambda_698284760c8add0bfb0756c19673e34b>@@V<lambda_dfb8eca1e75fef3034a8fb18dd509707>@@@?$__crt_seh_guarded_call@X@@QEAAX$$QEAV<lambda_fb3a7dec4e47f37f22dae91bb15c9095>@@AEAV<lambda_698284760c8add0bfb0756c19673e34b>@@$$QEAV<lambda_dfb8eca1e75fef3034a8fb18dd509707>@@@Z 0000000180023d54 f i libucrt:per_thread_data.obj
 0001:00022fe4       __acrt_freeptd             0000000180023fe4 f   libucrt:per_thread_data.obj
 0001:00023028       __acrt_getptd              0000000180024028 f   libucrt:per_thread_data.obj
 0001:000230bc       __acrt_getptd_noexit       00000001800240bc f   libucrt:per_thread_data.obj
 0001:0002315c       __acrt_initialize_ptd      000000018002415c f   libucrt:per_thread_data.obj
 0001:00023198       __acrt_uninitialize_ptd    0000000180024198 f   libucrt:per_thread_data.obj
 0001:000231bc       __acrt_errno_from_os_error 00000001800241bc f   libucrt:errno.obj
 0001:00023204       __acrt_errno_map_os_error  0000000180024204 f   libucrt:errno.obj
 0001:00023254       __doserrno                 0000000180024254 f   libucrt:errno.obj
 0001:00023274       _errno                     0000000180024274 f   libucrt:errno.obj
 0001:00023294       __acrt_update_locale_info  0000000180024294 f   libucrt:locale_update.obj
 0001:000232c8       __acrt_update_multibyte_info 00000001800242c8 f   libucrt:locale_update.obj
 0001:000232fc       __acrt_set_locale_changed  00000001800242fc f   libucrt:wsetlocale.obj
 0001:00023308       __acrt_uninitialize_locale 0000000180024308 f   libucrt:wsetlocale.obj
 0001:00023350       __acrt_initialize_locks    0000000180024350 f   libucrt:locks.obj
 0001:00023398       __acrt_lock                0000000180024398 f   libucrt:locks.obj
 0001:000233b4       __acrt_uninitialize_locks  00000001800243b4 f   libucrt:locks.obj
 0001:000233ec       __acrt_unlock              00000001800243ec f   libucrt:locks.obj
 0001:000235a8       __acrt_FlsAlloc            00000001800245a8 f   libucrt:winapi_thunks.obj
 0001:00023600       __acrt_FlsFree             0000000180024600 f   libucrt:winapi_thunks.obj
 0001:00023658       __acrt_FlsGetValue         0000000180024658 f   libucrt:winapi_thunks.obj
 0001:000236b0       __acrt_FlsSetValue         00000001800246b0 f   libucrt:winapi_thunks.obj
 0001:00023718       __acrt_InitializeCriticalSectionEx 0000000180024718 f   libucrt:winapi_thunks.obj
 0001:00023790       __acrt_LCMapStringEx       0000000180024790 f   libucrt:winapi_thunks.obj
 0001:00023880       __acrt_LocaleNameToLCID    0000000180024880 f   libucrt:winapi_thunks.obj
 0001:000238e8       __acrt_initialize_winapi_thunks 00000001800248e8 f   libucrt:winapi_thunks.obj
 0001:00023920       __acrt_is_packaged_app     0000000180024920 f   libucrt:winapi_thunks.obj
 0001:000239a8       __acrt_uninitialize_winapi_thunks 00000001800249a8 f   libucrt:winapi_thunks.obj
 0001:00023ec8       ?expand_if_necessary@?$argument_list@D@?A0xca0879c4@@AEAAHXZ 0000000180024ec8 f i libucrt:argv_wildcards.obj
 0001:00023f90       __acrt_expand_narrow_argv_wildcards 0000000180024f90 f   libucrt:argv_wildcards.obj
 0001:00023f98       ??$?RV<lambda_99476a1ad63dd22509b5d3e65b0ffc95>@@AEAV<lambda_ad1ced32f4ac17aa236e5ef05d6b3b7c>@@V<lambda_f7424dd8d45958661754dc4f2697e9c3>@@@?$__crt_seh_guarded_call@X@@QEAAX$$QEAV<lambda_99476a1ad63dd22509b5d3e65b0ffc95>@@AEAV<lambda_ad1ced32f4ac17aa236e5ef05d6b3b7c>@@$$QEAV<lambda_f7424dd8d45958661754dc4f2697e9c3>@@@Z 0000000180024f98 f i libucrt:mbctype.obj
 0001:00024694       __acrt_initialize_multibyte 0000000180025694 f   libucrt:mbctype.obj
 0001:000246bc       __acrt_update_thread_multibyte_data 00000001800256bc f   libucrt:mbctype.obj
 0001:0002477c       _setmbcp_nolock            000000018002577c f   libucrt:mbctype.obj
 0001:00024a9c       _ismbblead                 0000000180025a9c f   libucrt:ismbbyte.obj
 0001:00024ab0       __acrt_initialize_command_line 0000000180025ab0 f   libucrt:argv_data.obj
 0001:00024ad8       __dcrt_get_narrow_environment_from_os 0000000180025ad8 f   libucrt:get_environment_from_os.obj
 0001:00024bdc       _recalloc                  0000000180025bdc f   libucrt:recalloc.obj
 0001:00024be4       _recalloc_base             0000000180025be4 f   libucrt:recalloc.obj
 0001:00024c7c       __acrt_initialize_heap     0000000180025c7c f   libucrt:heap_handle.obj
 0001:00024c98       __acrt_uninitialize_heap   0000000180025c98 f   libucrt:heap_handle.obj
 0001:00024e8c       __acrt_initialize_lowio    0000000180025e8c f   libucrt:ioinit.obj
 0001:00024ec8       __acrt_uninitialize_lowio  0000000180025ec8 f   libucrt:ioinit.obj
 0001:00024f08       __acrt_execute_initializers 0000000180025f08 f   libucrt:shared_initialization.obj
 0001:00024f9c       __acrt_execute_uninitializers 0000000180025f9c f   libucrt:shared_initialization.obj
 0001:00024fec       ??$?RV<lambda_c36588078e9f5dfd39652860aa6b3aaf>@@AEAV<lambda_ec61778202f4f5fc7e7711acc23c3bca>@@V<lambda_dc9d2797ccde5d239b4a0efae8ebd7db>@@@?$__crt_seh_guarded_call@P6AXH@Z@@QEAAP6AXH@Z$$QEAV<lambda_c36588078e9f5dfd39652860aa6b3aaf>@@AEAV<lambda_ec61778202f4f5fc7e7711acc23c3bca>@@$$QEAV<lambda_dc9d2797ccde5d239b4a0efae8ebd7db>@@@Z 0000000180025fec f i libucrt:signal.obj
 0001:00025034       __acrt_get_sigabrt_handler 0000000180026034 f   libucrt:signal.obj
 0001:00025064       __acrt_initialize_signal_handlers 0000000180026064 f   libucrt:signal.obj
 0001:00025084       raise                      0000000180026084 f   libucrt:signal.obj
 0001:00025320       __acrt_has_user_matherr    0000000180026320 f   libucrt:matherr.obj
 0001:00025340       __acrt_initialize_user_matherr 0000000180026340 f   libucrt:matherr.obj
 0001:00025348       __acrt_invoke_user_matherr 0000000180026348 f   libucrt:matherr.obj
 0001:00025390       _query_new_mode            0000000180026390 f   libucrt:new_mode.obj
 0001:00025398       _mbtowc_l                  0000000180026398 f   libucrt:mbtowc.obj
 0001:000254e0       mbtowc                     00000001800264e0 f   libucrt:mbtowc.obj
 0001:000254e8       _fileno                    00000001800264e8 f   libucrt:fileno.obj
 0001:00025510       __acrt_initialize_stdio    0000000180026510 f   libucrt:_file.obj
 0001:00025630       __acrt_uninitialize_stdio  0000000180026630 f   libucrt:_file.obj
 0001:0002568c       _lock_file                 000000018002668c f   libucrt:_file.obj
 0001:00025698       _unlock_file               0000000180026698 f   libucrt:_file.obj
 0001:000256a4       __pctype_func              00000001800266a4 f   libucrt:ctype.obj
 0001:000256d4       __acrt_add_locale_ref      00000001800266d4 f   libucrt:locale_refcounting.obj
 0001:00025760       __acrt_free_locale         0000000180026760 f   libucrt:locale_refcounting.obj
 0001:000258d8       __acrt_locale_add_lc_time_reference 00000001800268d8 f   libucrt:locale_refcounting.obj
 0001:00025900       __acrt_locale_free_lc_time_if_unreferenced 0000000180026900 f   libucrt:locale_refcounting.obj
 0001:00025938       __acrt_locale_release_lc_time_reference 0000000180026938 f   libucrt:locale_refcounting.obj
 0001:00025960       __acrt_release_locale_ref  0000000180026960 f   libucrt:locale_refcounting.obj
 0001:00025a08       __acrt_update_thread_locale_data 0000000180026a08 f   libucrt:locale_refcounting.obj
 0001:00025a78       _updatetlocinfoEx_nolock   0000000180026a78 f   libucrt:locale_refcounting.obj
 0001:00025ae0       _isleadbyte_l              0000000180026ae0 f i libucrt:_wctype.obj
 0001:00025e7c       __acrt_LCMapStringA        0000000180026e7c f   libucrt:lcmapstringa.obj
 0001:00025f14       __acrt_locale_free_monetary 0000000180026f14 f   libucrt:initmon.obj
 0001:00026020       __acrt_locale_free_numeric 0000000180027020 f   libucrt:initnum.obj
 0001:000260e4       __acrt_locale_free_time    00000001800270e4 f   libucrt:inittime.obj
 0001:000261ec       __acrt_GetStringTypeA      00000001800271ec f   libucrt:getstringtypea.obj
 0001:00026468       __acrt_DownlevelLocaleNameToLCID 0000000180027468 f   libucrt:lcidtoname_downlevel.obj
 0001:00026570       qsort                      0000000180027570 f   libucrt:qsort.obj
 0001:000268a4       strncpy_s                  00000001800278a4 f   libucrt:strncpy_s.obj
 0001:00026978       strpbrk                    0000000180027978 f   libucrt:strpbrk.obj
 0001:00026a18       _mbsdec                    0000000180027a18 f   libucrt:mbsdec.obj
 0001:00026a20       _mbsdec_l                  0000000180027a20 f   libucrt:mbsdec.obj
 0001:00026ad0       _msize                     0000000180027ad0 f   libucrt:msize.obj
 0001:00026b0c       _realloc_base              0000000180027b0c f   libucrt:realloc_base.obj
 0001:00026b90       __acrt_lowio_create_handle_array 0000000180027b90 f   libucrt:osfinfo.obj
 0001:00026c28       __acrt_lowio_destroy_handle_array 0000000180027c28 f   libucrt:osfinfo.obj
 0001:00026c78       __acrt_lowio_ensure_fh_exists 0000000180027c78 f   libucrt:osfinfo.obj
 0001:00026d30       __acrt_lowio_lock_fh       0000000180027d30 f   libucrt:osfinfo.obj
 0001:00026d54       __acrt_lowio_unlock_fh     0000000180027d54 f   libucrt:osfinfo.obj
 0001:00026d78       _free_osfhnd               0000000180027d78 f   libucrt:osfinfo.obj
 0001:00026e34       _get_osfhandle             0000000180027e34 f   libucrt:osfinfo.obj
 0001:00026eac       _isatty                    0000000180027eac f   libucrt:isatty.obj
 0001:00026f0c       __acrt_stdio_flush_nolock  0000000180027f0c f   libucrt:fflush.obj
 0001:00026f84       _fflush_nolock             0000000180027f84 f   libucrt:fflush.obj
 0001:00026fd0       _flushall                  0000000180027fd0 f   libucrt:fflush.obj
 0001:000270c0       _fcloseall                 00000001800280c0 f   libucrt:closeall.obj
 0001:00027174       __acrt_stdio_free_buffer_nolock 0000000180028174 f   libucrt:_freebuf.obj
 0001:000271b4       __strncnt                  00000001800281b4 f   libucrt:strncnt.obj
 0001:000271cc       _query_app_type            00000001800281cc f   libucrt:report_runtime_error.obj
 0001:000271d4       ??$?RV<lambda_b521505b218e5242e90febf6bfebc422>@@AEAV<lambda_6978c1fb23f02e42e1d9e99668cc68aa>@@V<lambda_314360699dd331753a4119843814e9a7>@@@?$__crt_seh_guarded_call@H@@QEAAH$$QEAV<lambda_b521505b218e5242e90febf6bfebc422>@@AEAV<lambda_6978c1fb23f02e42e1d9e99668cc68aa>@@$$QEAV<lambda_314360699dd331753a4119843814e9a7>@@@Z 00000001800281d4 f i libucrt:commit.obj
 0001:00027260       _commit                    0000000180028260 f   libucrt:commit.obj
 0001:00027894       _write                     0000000180028894 f   libucrt:write.obj
 0001:00027980       _write_nolock              0000000180028980 f   libucrt:write.obj
 0001:00027c70       log10                      0000000180028c70 f   libucrt:log10.obj
 0001:000282b8       _lseeki64_nolock           00000001800292b8 f   libucrt:lseek.obj
 0001:000282c0       _fclose_nolock             00000001800292c0 f   libucrt:fclose.obj
 0001:00028344       fclose                     0000000180029344 f   libucrt:fclose.obj
 0001:000283b0       _putwch_nolock             00000001800293b0 f   libucrt:putwch.obj
 0001:00028530       _handle_error              0000000180029530 f   libucrt:libm_error.obj
 0001:00028660       __acrt_initialize_fma3     0000000180029660 f   libucrt:fma3_available.obj
 0001:000286d0       _log10_special             00000001800296d0 f   libucrt:log_special.obj
 0001:00028788       ??$?RV<lambda_bfedae4ebbf01fab1bb6dcc6a9e276e0>@@AEAV<lambda_2fe9b910cf3cbf4a0ab98a02ba45b3ec>@@V<lambda_237c231691f317818eb88cc1d5d642d6>@@@?$__crt_seh_guarded_call@H@@QEAAH$$QEAV<lambda_bfedae4ebbf01fab1bb6dcc6a9e276e0>@@AEAV<lambda_2fe9b910cf3cbf4a0ab98a02ba45b3ec>@@$$QEAV<lambda_237c231691f317818eb88cc1d5d642d6>@@@Z 0000000180029788 f i libucrt:close.obj
 0001:000287fc       _close                     00000001800297fc f   libucrt:close.obj
 0001:000288a0       _close_nolock              00000001800298a0 f   libucrt:close.obj
 0001:0002895c       ?__acrt_stdio_free_stream@@YAXV__crt_stdio_stream@@@Z 000000018002995c f   libucrt:stream.obj
 0001:000289a0       __dcrt_lowio_initialize_console_output 00000001800299a0 f   libucrt:initcon.obj
 0001:000289dc       __dcrt_terminate_console_output 00000001800299dc f   libucrt:initcon.obj
 0001:00028a10       _get_fpsr                  0000000180029a10 f   libucrt:fpsr.obj
 0001:00028a20       _set_fpsr                  0000000180029a20 f   libucrt:fpsr.obj
 0001:00028a2a       _fclrf                     0000000180029a2a f   libucrt:fpsr.obj
 0001:00028a3e       _frnd                      0000000180029a3e f   libucrt:fpsr.obj
 0001:00028a60       _raise_exc                 0000000180029a60 f   libucrt:fpexcept.obj
 0001:00028a88       _raise_exc_ex              0000000180029a88 f   libucrt:fpexcept.obj
 0001:00028d90       _set_errno_from_matherr    0000000180029d90 f   libucrt:fpexcept.obj
 0001:00028dc0       _clrfp                     0000000180029dc0 f   libucrt:fpctrl.obj
 0001:00028de0       _ctrlfp                    0000000180029de0 f   libucrt:fpctrl.obj
 0001:00028e5c       _set_statfp                0000000180029e5c f   libucrt:fpctrl.obj
 0001:00028e7c       _statfp                    0000000180029e7c f   libucrt:fpctrl.obj
 0001:00028e8e       IsProcessorFeaturePresent  0000000180029e8e f   kernel32:KERNEL32.dll
 0001:00028e94       RtlUnwindEx                0000000180029e94 f   kernel32:KERNEL32.dll
 0001:00028ea0       _FindPESection             0000000180029ea0 f   LIBCMT:pesect.obj
 0001:00028ef0       _IsNonwritableInCurrentImage 0000000180029ef0 f   LIBCMT:pesect.obj
 0001:00028f40       _ValidateImageBase         0000000180029f40 f   LIBCMT:pesect.obj
 0001:00028f80       __chkstk                   0000000180029f80 f   LIBCMT:_chkstk_.obj
 0001:00028f80       _alloca_probe              0000000180029f80 f   LIBCMT:_chkstk_.obj
 0001:00028ff0       memcmp                     0000000180029ff0 f   libvcruntime:memcmp.obj
 0001:000290b8       __GSHandlerCheck_EH        000000018002a0b8 f   LIBCMT:gshandlereh.obj
 0001:00029150       _guard_dispatch_icall_nop  000000018002a150 f   LIBCMT:_guard_dispatch_.obj
 0001:00029ec0       ??__F_Static@?1???$_Immortalize@V_Iostream_error_category@std@@@std@@YAAEAV_Iostream_error_category@0@XZ@YAXXZ 000000018002aec0 f i VError.obj
 0002:00000000       __imp_WriteConsoleW        000000018002b000     kernel32:KERNEL32.dll
 0002:00000008       __imp_SetFilePointerEx     000000018002b008     kernel32:KERNEL32.dll
 0002:00000010       __imp_GetConsoleMode       000000018002b010     kernel32:KERNEL32.dll
 0002:00000018       __imp_GetConsoleCP         000000018002b018     kernel32:KERNEL32.dll
 0002:00000020       __imp_FlushFileBuffers     000000018002b020     kernel32:KERNEL32.dll
 0002:00000028       __imp_WriteFile            000000018002b028     kernel32:KERNEL32.dll
 0002:00000030       __imp_SetStdHandle         000000018002b030     kernel32:KERNEL32.dll
 0002:00000038       __imp_HeapReAlloc          000000018002b038     kernel32:KERNEL32.dll
 0002:00000040       __imp_HeapSize             000000018002b040     kernel32:KERNEL32.dll
 0002:00000048       __imp_GetStringTypeW       000000018002b048     kernel32:KERNEL32.dll
 0002:00000050       __imp_GetFileType          000000018002b050     kernel32:KERNEL32.dll
 0002:00000058       __imp_GetStdHandle         000000018002b058     kernel32:KERNEL32.dll
 0002:00000060       __imp_GetProcessHeap       000000018002b060     kernel32:KERNEL32.dll
 0002:00000068       __imp_FreeEnvironmentStringsW 000000018002b068     kernel32:KERNEL32.dll
 0002:00000070       __imp_GetEnvironmentStringsW 000000018002b070     kernel32:KERNEL32.dll
 0002:00000078       __imp_GetCommandLineW      000000018002b078     kernel32:KERNEL32.dll
 0002:00000080       __imp_GetCommandLineA      000000018002b080     kernel32:KERNEL32.dll
 0002:00000088       __imp_GetCPInfo            000000018002b088     kernel32:KERNEL32.dll
 0002:00000090       __imp_GetOEMCP             000000018002b090     kernel32:KERNEL32.dll
 0002:00000098       __imp_IsValidCodePage      000000018002b098     kernel32:KERNEL32.dll
 0002:000000a0       __imp_FindNextFileA        000000018002b0a0     kernel32:KERNEL32.dll
 0002:000000a8       __imp_FindFirstFileExA     000000018002b0a8     kernel32:KERNEL32.dll
 0002:000000b0       __imp_FindClose            000000018002b0b0     kernel32:KERNEL32.dll
 0002:000000b8       __imp_LCMapStringW         000000018002b0b8     kernel32:KERNEL32.dll
 0002:000000c0       __imp_GetACP               000000018002b0c0     kernel32:KERNEL32.dll
 0002:000000c8       __imp_HeapAlloc            000000018002b0c8     kernel32:KERNEL32.dll
 0002:000000d0       __imp_HeapFree             000000018002b0d0     kernel32:KERNEL32.dll
 0002:000000d8       __imp_MultiByteToWideChar  000000018002b0d8     kernel32:KERNEL32.dll
 0002:000000e0       __imp_GetModuleFileNameA   000000018002b0e0     kernel32:KERNEL32.dll
 0002:000000e8       __imp_GetModuleHandleExW   000000018002b0e8     kernel32:KERNEL32.dll
 0002:000000f0       __imp_ExitProcess          000000018002b0f0     kernel32:KERNEL32.dll
 0002:000000f8       __imp_SetLastError         000000018002b0f8     kernel32:KERNEL32.dll
 0002:00000100       __imp_InterlockedFlushSList 000000018002b100     kernel32:KERNEL32.dll
 0002:00000108       __imp_LoadLibraryExW       000000018002b108     kernel32:KERNEL32.dll
 0002:00000110       __imp_FreeLibrary          000000018002b110     kernel32:KERNEL32.dll
 0002:00000118       __imp_TlsFree              000000018002b118     kernel32:KERNEL32.dll
 0002:00000120       __imp_TlsSetValue          000000018002b120     kernel32:KERNEL32.dll
 0002:00000128       __imp_TlsGetValue          000000018002b128     kernel32:KERNEL32.dll
 0002:00000130       __imp_TlsAlloc             000000018002b130     kernel32:KERNEL32.dll
 0002:00000138       __imp_InitializeCriticalSectionAndSpinCount 000000018002b138     kernel32:KERNEL32.dll
 0002:00000140       __imp_GetLastError         000000018002b140     kernel32:KERNEL32.dll
 0002:00000148       __imp_RtlUnwindEx          000000018002b148     kernel32:KERNEL32.dll
 0002:00000150       __imp_RaiseException       000000018002b150     kernel32:KERNEL32.dll
 0002:00000158       __imp_EncodePointer        000000018002b158     kernel32:KERNEL32.dll
 0002:00000160       __imp_RtlPcToFileHeader    000000018002b160     kernel32:KERNEL32.dll
 0002:00000168       __imp_InitializeSListHead  000000018002b168     kernel32:KERNEL32.dll
 0002:00000170       __imp_GetSystemTimeAsFileTime 000000018002b170     kernel32:KERNEL32.dll
 0002:00000178       __imp_GetCurrentThreadId   000000018002b178     kernel32:KERNEL32.dll
 0002:00000180       __imp_GetCurrentProcessId  000000018002b180     kernel32:KERNEL32.dll
 0002:00000188       __imp_QueryPerformanceCounter 000000018002b188     kernel32:KERNEL32.dll
 0002:00000190       __imp_GetStartupInfoW      000000018002b190     kernel32:KERNEL32.dll
 0002:00000198       __imp_IsDebuggerPresent    000000018002b198     kernel32:KERNEL32.dll
 0002:000001a0       __imp_IsProcessorFeaturePresent 000000018002b1a0     kernel32:KERNEL32.dll
 0002:000001a8       __imp_TerminateProcess     000000018002b1a8     kernel32:KERNEL32.dll
 0002:000001b0       __imp_GetCurrentProcess    000000018002b1b0     kernel32:KERNEL32.dll
 0002:000001b8       __imp_SetUnhandledExceptionFilter 000000018002b1b8     kernel32:KERNEL32.dll
 0002:000001c0       __imp_UnhandledExceptionFilter 000000018002b1c0     kernel32:KERNEL32.dll
 0002:000001c8       __imp_RtlVirtualUnwind     000000018002b1c8     kernel32:KERNEL32.dll
 0002:000001d0       __imp_RtlLookupFunctionEntry 000000018002b1d0     kernel32:KERNEL32.dll
 0002:000001d8       __imp_RtlCaptureContext    000000018002b1d8     kernel32:KERNEL32.dll
 0002:000001e0       __imp_GetProcAddress       000000018002b1e0     kernel32:KERNEL32.dll
 0002:000001e8       __imp_GetModuleHandleW     000000018002b1e8     kernel32:KERNEL32.dll
 0002:000001f0       __imp_CreateEventW         000000018002b1f0     kernel32:KERNEL32.dll
 0002:000001f8       __imp_WaitForSingleObjectEx 000000018002b1f8     kernel32:KERNEL32.dll
 0002:00000200       __imp_ResetEvent           000000018002b200     kernel32:KERNEL32.dll
 0002:00000208       __imp_SetEvent             000000018002b208     kernel32:KERNEL32.dll
 0002:00000210       __imp_DeleteCriticalSection 000000018002b210     kernel32:KERNEL32.dll
 0002:00000218       __imp_LeaveCriticalSection 000000018002b218     kernel32:KERNEL32.dll
 0002:00000220       __imp_WideCharToMultiByte  000000018002b220     kernel32:KERNEL32.dll
 0002:00000228       __imp_CloseHandle          000000018002b228     kernel32:KERNEL32.dll
 0002:00000230       __imp_EnterCriticalSection 000000018002b230     kernel32:KERNEL32.dll
 0002:00000238       __imp_CreateFileW          000000018002b238     kernel32:KERNEL32.dll
 0002:00000240       \177KERNEL32_NULL_THUNK_DATA 000000018002b240     kernel32:KERNEL32.dll
 0002:00000248       __imp_vips__filename_split8 000000018002b248     libvips:ddcis00699.o
 0002:00000250       __imp_vips_area_unref      000000018002b250     libvips:ddcis00881.o
 0002:00000258       __imp_vips_array_double_get_type 000000018002b258     libvips:ddcis00894.o
 0002:00000260       __imp_vips_array_image_get_type 000000018002b260     libvips:ddcis00900.o
 0002:00000268       __imp_vips_blob_get_type   000000018002b268     libvips:ddcis00950.o
 0002:00000270       __imp_vips_blob_new        000000018002b270     libvips:ddcis00951.o
 0002:00000278       __imp_vips_cache_operation_buildp 000000018002b278     libvips:ddcis01003.o
 0002:00000280       __imp_vips_enum_from_nick  000000018002b280     libvips:ddcis01200.o
 0002:00000288       __imp_vips_error_buffer    000000018002b288     libvips:ddcis01210.o
 0002:00000290       __imp_vips_error_clear     000000018002b290     libvips:ddcis01211.o
 0002:00000298       __imp_vips_foreign_find_load 000000018002b298     libvips:ddcis01254.o
 0002:000002a0       __imp_vips_foreign_find_load_buffer 000000018002b2a0     libvips:ddcis01255.o
 0002:000002a8       __imp_vips_foreign_find_save 000000018002b2a8     libvips:ddcis01256.o
 0002:000002b0       __imp_vips_foreign_find_save_buffer 000000018002b2b0     libvips:ddcis01257.o
 0002:000002b8       __imp_vips_format_sizeof_unsafe 000000018002b2b8     libvips:ddcis01337.o
 0002:000002c0       __imp_vips_image_get_bands 000000018002b2c0     libvips:ddcis01436.o
 0002:000002c8       __imp_vips_image_get_blob  000000018002b2c8     libvips:ddcis01437.o
 0002:000002d0       __imp_vips_image_get_coding 000000018002b2d0     libvips:ddcis01438.o
 0002:000002d8       __imp_vips_image_get_data  000000018002b2d8     libvips:ddcis01439.o
 0002:000002e0       __imp_vips_image_get_double 000000018002b2e0     libvips:ddcis01440.o
 0002:000002e8       __imp_vips_image_get_filename 000000018002b2e8     libvips:ddcis01442.o
 0002:000002f0       __imp_vips_image_get_format 000000018002b2f0     libvips:ddcis01443.o
 0002:000002f8       __imp_vips_image_get_height 000000018002b2f8     libvips:ddcis01444.o
 0002:00000300       __imp_vips_image_get_int   000000018002b300     libvips:ddcis01446.o
 0002:00000308       __imp_vips_image_get_interpretation 000000018002b308     libvips:ddcis01447.o
 0002:00000310       __imp_vips_image_get_string 000000018002b310     libvips:ddcis01451.o
 0002:00000318       __imp_vips_image_get_type  000000018002b318     libvips:ddcis01452.o
 0002:00000320       __imp_vips_image_get_typeof 000000018002b320     libvips:ddcis01453.o
 0002:00000328       __imp_vips_image_get_width 000000018002b328     libvips:ddcis01454.o
 0002:00000330       __imp_vips_image_get_xoffset 000000018002b330     libvips:ddcis01455.o
 0002:00000338       __imp_vips_image_get_xres  000000018002b338     libvips:ddcis01456.o
 0002:00000340       __imp_vips_image_get_yoffset 000000018002b340     libvips:ddcis01457.o
 0002:00000348       __imp_vips_image_get_yres  000000018002b348     libvips:ddcis01458.o
 0002:00000350       __imp_vips_image_guess_interpretation 000000018002b350     libvips:ddcis01460.o
 0002:00000358       __imp_vips_image_new_from_memory 000000018002b358     libvips:ddcis01482.o
 0002:00000360       __imp_vips_image_new_matrix 000000018002b360     libvips:ddcis01484.o
 0002:00000368       __imp_vips_image_new_matrix_from_array 000000018002b368     libvips:ddcis01485.o
 0002:00000370       __imp_vips_image_new_memory 000000018002b370     libvips:ddcis01487.o
 0002:00000378       __imp_vips_image_new_temp_file 000000018002b378     libvips:ddcis01489.o
 0002:00000380       __imp_vips_image_set_blob  000000018002b380     libvips:ddcis01502.o
 0002:00000388       __imp_vips_image_set_double 000000018002b388     libvips:ddcis01504.o
 0002:00000390       __imp_vips_image_set_int   000000018002b390     libvips:ddcis01505.o
 0002:00000398       __imp_vips_image_set_string 000000018002b398     libvips:ddcis01508.o
 0002:000003a0       __imp_vips_image_write     000000018002b3a0     libvips:ddcis01511.o
 0002:000003a8       __imp_vips_image_write_to_memory 000000018002b3a8     libvips:ddcis01516.o
 0002:000003b0       __imp_vips_interpolate_get_type 000000018002b3b0     libvips:ddcis01531.o
 0002:000003b8       __imp_vips_interpolate_new 000000018002b3b8     libvips:ddcis01538.o
 0002:000003c0       __imp_vips_object_get_argument 000000018002b3c0     libvips:ddcis01664.o
 0002:000003c8       __imp_vips_object_get_type 000000018002b3c8     libvips:ddcis01670.o
 0002:000003d0       __imp_vips_object_set_from_string 000000018002b3d0     libvips:ddcis01687.o
 0002:000003d8       __imp_vips_object_unref_outputs 000000018002b3d8     libvips:ddcis01694.o
 0002:000003e0       __imp_vips_operation_new   000000018002b3e0     libvips:ddcis01709.o
 0002:000003e8       __imp_vips_value_get_array_double 000000018002b3e8     libvips:ddcis01968.o
 0002:000003f0       __imp_vips_value_get_array_image 000000018002b3f0     libvips:ddcis01969.o
 0002:000003f8       __imp_vips_value_set_array_double 000000018002b3f8     libvips:ddcis01978.o
 0002:00000400       __imp_vips_value_set_array_image 000000018002b400     libvips:ddcis01979.o
 0002:00000410       __imp_g_object_get_property 000000018002b410     libgobject-2.0:dhzhs00125.o
 0002:00000418       __imp_g_object_ref         000000018002b418     libgobject-2.0:dhzhs00138.o
 0002:00000420       __imp_g_object_set_property 000000018002b420     libgobject-2.0:dhzhs00148.o
 0002:00000428       __imp_g_object_unref       000000018002b428     libgobject-2.0:dhzhs00155.o
 0002:00000430       __imp_g_param_spec_types   000000018002b430     libgobject-2.0:dhzhs00196.o
 0002:00000438       __imp_g_type_check_instance_cast 000000018002b438     libgobject-2.0:dhzhs00271.o
 0002:00000440       __imp_g_type_check_instance_is_a 000000018002b440     libgobject-2.0:dhzhs00272.o
 0002:00000448       __imp_g_value_dup_boxed    000000018002b448     libgobject-2.0:dhzhs00353.o
 0002:00000450       __imp_g_value_get_boolean  000000018002b450     libgobject-2.0:dhzhs00359.o
 0002:00000458       __imp_g_value_get_double   000000018002b458     libgobject-2.0:dhzhs00362.o
 0002:00000460       __imp_g_value_get_int      000000018002b460     libgobject-2.0:dhzhs00367.o
 0002:00000468       __imp_g_value_get_object   000000018002b468     libgobject-2.0:dhzhs00370.o
 0002:00000470       __imp_g_value_get_string   000000018002b470     libgobject-2.0:dhzhs00374.o
 0002:00000478       __imp_g_value_init         000000018002b478     libgobject-2.0:dhzhs00381.o
 0002:00000480       __imp_g_value_set_boolean  000000018002b480     libgobject-2.0:dhzhs00386.o
 0002:00000488       __imp_g_value_set_boxed    000000018002b488     libgobject-2.0:dhzhs00387.o
 0002:00000490       __imp_g_value_set_double   000000018002b490     libgobject-2.0:dhzhs00390.o
 0002:00000498       __imp_g_value_set_enum     000000018002b498     libgobject-2.0:dhzhs00391.o
 0002:000004a0       __imp_g_value_set_int      000000018002b4a0     libgobject-2.0:dhzhs00396.o
 0002:000004a8       __imp_g_value_set_object   000000018002b4a8     libgobject-2.0:dhzhs00399.o
 0002:000004b0       __imp_g_value_set_string   000000018002b4b0     libgobject-2.0:dhzhs00407.o
 0002:000004b8       __imp_g_value_unset        000000018002b4b8     libgobject-2.0:dhzhs00422.o
 0002:000004c8       __imp_g_assertion_message_expr 000000018002b4c8     libglib-2.0:dxyhs00041.o
 0002:000004d0       __imp_g_log                000000018002b4d0     libglib-2.0:dxyhs00617.o
 0002:000004e0       __guard_check_icall_fptr   000000018002b4e0     LIBCMT:guard_support.obj
 0002:000004e8       __guard_dispatch_icall_fptr 000000018002b4e8     LIBCMT:guard_support.obj
 0002:000004f0       __xc_a                     000000018002b4f0     LIBCMT:initializers.obj
 0002:000004f8       __xc_z                     000000018002b4f8     LIBCMT:initializers.obj
 0002:00000500       __xi_a                     000000018002b500     LIBCMT:initializers.obj
 0002:00000510       __acrt_multibyte_initializer 000000018002b510     libucrt:multibyte_initializer.obj
 0002:00000518       __acrt_stdio_initializer   000000018002b518     libucrt:stdio_initializer.obj
 0002:00000520       __acrt_tran_fma3_initializer 000000018002b520     libucrt:fma3_initializer.obj
 0002:00000528       __xi_z                     000000018002b528     LIBCMT:initializers.obj
 0002:00000530       __xl_a                     000000018002b530     LIBCMT:tlssup.obj
 0002:00000538       __xl_z                     000000018002b538     LIBCMT:tlssup.obj
 0002:00000540       __xp_a                     000000018002b540     LIBCMT:initializers.obj
 0002:00000548       __acrt_locale_terminator   000000018002b548     libucrt:locale_initializer.obj
 0002:00000550       __dcrt_console_output_terminator 000000018002b550     libucrt:console_output_initializer.obj
 0002:00000558       __acrt_stdio_terminator    000000018002b558     libucrt:stdio_initializer.obj
 0002:00000560       __xp_z                     000000018002b560     LIBCMT:initializers.obj
 0002:00000568       __xt_a                     000000018002b568     LIBCMT:initializers.obj
 0002:00000570       __xt_z                     000000018002b570     LIBCMT:initializers.obj
 0002:00000588       ??_7exception@std@@6B@     000000018002b588     libcpmt:xthrow.obj
 0002:00000598       ??_C@_0BC@EOODALEL@Unknown?5exception?$AA@ 000000018002b598     libcpmt:xthrow.obj
 0002:000005b8       ??_7bad_alloc@std@@6B@     000000018002b5b8     libcpmt:xthrow.obj
 0002:000005c8       ??_C@_0P@GHFPNOJB@bad?5allocation?$AA@ 000000018002b5c8     libcpmt:xthrow.obj
 0002:000005e0       ??_7logic_error@std@@6B@   000000018002b5e0     libcpmt:xthrow.obj
 0002:000005f8       ??_7length_error@std@@6B@  000000018002b5f8     libcpmt:xthrow.obj
 0002:00000610       ??_7out_of_range@std@@6B@  000000018002b610     libcpmt:xthrow.obj
 0002:00000628       ??_7runtime_error@std@@6B@ 000000018002b628     libcpmt:xthrow.obj
 0002:00000d70       ??_C@_0BN@LKKBCCDB@address?5family?5not?5supported?$AA@ 000000018002bd70     libcpmt:syserror.obj
 0002:00000d90       ??_C@_0P@LDMLAFHI@address?5in?5use?$AA@ 000000018002bd90     libcpmt:syserror.obj
 0002:00000da0       ??_C@_0BG@DHPCNBJB@address?5not?5available?$AA@ 000000018002bda0     libcpmt:syserror.obj
 0002:00000db8       ??_C@_0BC@DFIBIBIL@already?5connected?$AA@ 000000018002bdb8     libcpmt:syserror.obj
 0002:00000dd0       ??_C@_0BH@CAKOHOMI@argument?5list?5too?5long?$AA@ 000000018002bdd0     libcpmt:syserror.obj
 0002:00000de8       ??_C@_0BH@CGIMPKIM@argument?5out?5of?5domain?$AA@ 000000018002bde8     libcpmt:syserror.obj
 0002:00000e00       ??_C@_0M@KGHGGJGL@bad?5address?$AA@ 000000018002be00     libcpmt:syserror.obj
 0002:00000e10       ??_C@_0BE@MPJPGCEO@bad?5file?5descriptor?$AA@ 000000018002be10     libcpmt:syserror.obj
 0002:00000e28       ??_C@_0M@PMMIEFCP@bad?5message?$AA@ 000000018002be28     libcpmt:syserror.obj
 0002:00000e38       ??_C@_0M@KPHOFDBE@broken?5pipe?$AA@ 000000018002be38     libcpmt:syserror.obj
 0002:00000e48       ??_C@_0BD@MGNDDEGM@connection?5aborted?$AA@ 000000018002be48     libcpmt:syserror.obj
 0002:00000e60       ??_C@_0BP@KAIHPOGN@connection?5already?5in?5progress?$AA@ 000000018002be60     libcpmt:syserror.obj
 0002:00000e80       ??_C@_0BD@PJLIIJEL@connection?5refused?$AA@ 000000018002be80     libcpmt:syserror.obj
 0002:00000e98       ??_C@_0BB@IECNJNOI@connection?5reset?$AA@ 000000018002be98     libcpmt:syserror.obj
 0002:00000eb0       ??_C@_0BC@PPHBOELF@cross?5device?5link?$AA@ 000000018002beb0     libcpmt:syserror.obj
 0002:00000ec8       ??_C@_0BN@KDMIFEIP@destination?5address?5required?$AA@ 000000018002bec8     libcpmt:syserror.obj
 0002:00000ee8       ??_C@_0BI@NGCEHDD@device?5or?5resource?5busy?$AA@ 000000018002bee8     libcpmt:syserror.obj
 0002:00000f00       ??_C@_0BE@JIDOCPHM@directory?5not?5empty?$AA@ 000000018002bf00     libcpmt:syserror.obj
 0002:00000f18       ??_C@_0BI@BNCLIGPB@executable?5format?5error?$AA@ 000000018002bf18     libcpmt:syserror.obj
 0002:00000f30       ??_C@_0M@MIDIAGJP@file?5exists?$AA@ 000000018002bf30     libcpmt:syserror.obj
 0002:00000f40       ??_C@_0P@DNAJLBJK@file?5too?5large?$AA@ 000000018002bf40     libcpmt:syserror.obj
 0002:00000f50       ??_C@_0BC@EJHOMAAK@filename?5too?5long?$AA@ 000000018002bf50     libcpmt:syserror.obj
 0002:00000f68       ??_C@_0BH@KEFGLDAF@function?5not?5supported?$AA@ 000000018002bf68     libcpmt:syserror.obj
 0002:00000f80       ??_C@_0BB@DHFDFGDM@host?5unreachable?$AA@ 000000018002bf80     libcpmt:syserror.obj
 0002:00000f98       ??_C@_0BD@JPHBMONG@identifier?5removed?$AA@ 000000018002bf98     libcpmt:syserror.obj
 0002:00000fb0       ??_C@_0BG@CDNPAGJK@illegal?5byte?5sequence?$AA@ 000000018002bfb0     libcpmt:syserror.obj
 0002:00000fc8       ??_C@_0CD@BNPLBMNA@inappropriate?5io?5control?5operati@ 000000018002bfc8     libcpmt:syserror.obj
 0002:00000ff0       ??_C@_0M@EGEKIIMP@interrupted?$AA@ 000000018002bff0     libcpmt:syserror.obj
 0002:00001000       ??_C@_0BB@FCMFBGOM@invalid?5argument?$AA@ 000000018002c000     libcpmt:syserror.obj
 0002:00001018       ??_C@_0N@OHAFKDEK@invalid?5seek?$AA@ 000000018002c018     libcpmt:syserror.obj
 0002:00001028       ??_C@_08GLNPIFBN@io?5error?$AA@ 000000018002c028     libcpmt:syserror.obj
 0002:00001038       ??_C@_0P@FLLDBIDK@is?5a?5directory?$AA@ 000000018002c038     libcpmt:syserror.obj
 0002:00001048       ??_C@_0N@IFLPBIOP@message?5size?$AA@ 000000018002c048     libcpmt:syserror.obj
 0002:00001058       ??_C@_0N@KIIEAAIO@network?5down?$AA@ 000000018002c058     libcpmt:syserror.obj
 0002:00001068       ??_C@_0O@FNPDBHEE@network?5reset?$AA@ 000000018002c068     libcpmt:syserror.obj
 0002:00001078       ??_C@_0BE@IFNCKGE@network?5unreachable?$AA@ 000000018002c078     libcpmt:syserror.obj
 0002:00001090       ??_C@_0BA@PFFCAOFK@no?5buffer?5space?$AA@ 000000018002c090     libcpmt:syserror.obj
 0002:000010a0       ??_C@_0BB@IEPBLJHK@no?5child?5process?$AA@ 000000018002c0a0     libcpmt:syserror.obj
 0002:000010b8       ??_C@_07PLECNNKG@no?5link?$AA@ 000000018002c0b8     libcpmt:syserror.obj
 0002:000010c0       ??_C@_0BC@NJECKMKE@no?5lock?5available?$AA@ 000000018002c0c0     libcpmt:syserror.obj
 0002:000010d8       ??_C@_0BF@PBGGPKKE@no?5message?5available?$AA@ 000000018002c0d8     libcpmt:syserror.obj
 0002:000010f0       ??_C@_0L@EDOLMPAK@no?5message?$AA@ 000000018002c0f0     libcpmt:syserror.obj
 0002:00001100       ??_C@_0BD@EAMBFIDF@no?5protocol?5option?$AA@ 000000018002c100     libcpmt:syserror.obj
 0002:00001118       ??_C@_0BD@IJDJKDEA@no?5space?5on?5device?$AA@ 000000018002c118     libcpmt:syserror.obj
 0002:00001130       ??_C@_0BE@MKFDAFMP@no?5stream?5resources?$AA@ 000000018002c130     libcpmt:syserror.obj
 0002:00001148       ??_C@_0BK@IMCPHCBI@no?5such?5device?5or?5address?$AA@ 000000018002c148     libcpmt:syserror.obj
 0002:00001168       ??_C@_0P@FDINDDOK@no?5such?5device?$AA@ 000000018002c168     libcpmt:syserror.obj
 0002:00001178       ??_C@_0BK@NDOCBPGE@no?5such?5file?5or?5directory?$AA@ 000000018002c178     libcpmt:syserror.obj
 0002:00001198       ??_C@_0BA@ENLPPKBN@no?5such?5process?$AA@ 000000018002c198     libcpmt:syserror.obj
 0002:000011a8       ??_C@_0BA@DOCPFFJG@not?5a?5directory?$AA@ 000000018002c1a8     libcpmt:syserror.obj
 0002:000011b8       ??_C@_0N@POEIPGGF@not?5a?5socket?$AA@ 000000018002c1b8     libcpmt:syserror.obj
 0002:000011c8       ??_C@_0N@LGAPMMPI@not?5a?5stream?$AA@ 000000018002c1c8     libcpmt:syserror.obj
 0002:000011d8       ??_C@_0O@GLMIBBEG@not?5connected?$AA@ 000000018002c1d8     libcpmt:syserror.obj
 0002:000011e8       ??_C@_0BC@ENOOLCNF@not?5enough?5memory?$AA@ 000000018002c1e8     libcpmt:syserror.obj
 0002:00001200       ??_C@_0O@NHEDABJP@not?5supported?$AA@ 000000018002c200     libcpmt:syserror.obj
 0002:00001210       ??_C@_0BD@MOLBPMEA@operation?5canceled?$AA@ 000000018002c210     libcpmt:syserror.obj
 0002:00001228       ??_C@_0BG@KDKHOPCO@operation?5in?5progress?$AA@ 000000018002c228     libcpmt:syserror.obj
 0002:00001240       ??_C@_0BI@OHIEJAAB@operation?5not?5permitted?$AA@ 000000018002c240     libcpmt:syserror.obj
 0002:00001258       ??_C@_0BI@LNEGIFLN@operation?5not?5supported?$AA@ 000000018002c258     libcpmt:syserror.obj
 0002:00001270       ??_C@_0BG@OEMDKMEE@operation?5would?5block?$AA@ 000000018002c270     libcpmt:syserror.obj
 0002:00001288       ??_C@_0L@BLPOFLNJ@owner?5dead?$AA@ 000000018002c288     libcpmt:syserror.obj
 0002:00001298       ??_C@_0BC@CIJDGCDI@permission?5denied?$AA@ 000000018002c298     libcpmt:syserror.obj
 0002:000012b0       ??_C@_0P@FNPOCJBE@protocol?5error?$AA@ 000000018002c2b0     libcpmt:syserror.obj
 0002:000012c0       ??_C@_0BH@JPPPLHJB@protocol?5not?5supported?$AA@ 000000018002c2c0     libcpmt:syserror.obj
 0002:000012d8       ??_C@_0BG@EICBIHDP@read?5only?5file?5system?$AA@ 000000018002c2d8     libcpmt:syserror.obj
 0002:000012f0       ??_C@_0BO@BJBOMOEJ@resource?5deadlock?5would?5occur?$AA@ 000000018002c2f0     libcpmt:syserror.obj
 0002:00001310       ??_C@_0BP@LKNGHENJ@resource?5unavailable?5try?5again?$AA@ 000000018002c310     libcpmt:syserror.obj
 0002:00001330       ??_C@_0BE@GOIPJJHG@result?5out?5of?5range?$AA@ 000000018002c330     libcpmt:syserror.obj
 0002:00001348       ??_C@_0BG@MPLKFPAE@state?5not?5recoverable?$AA@ 000000018002c348     libcpmt:syserror.obj
 0002:00001360       ??_C@_0P@DIIFGFCG@stream?5timeout?$AA@ 000000018002c360     libcpmt:syserror.obj
 0002:00001370       ??_C@_0P@IPFDMIFL@text?5file?5busy?$AA@ 000000018002c370     libcpmt:syserror.obj
 0002:00001380       ??_C@_09KJPPMAOI@timed?5out?$AA@ 000000018002c380     libcpmt:syserror.obj
 0002:00001390       ??_C@_0BO@HACHBEKI@too?5many?5files?5open?5in?5system?$AA@ 000000018002c390     libcpmt:syserror.obj
 0002:000013b0       ??_C@_0BE@GHAFMPAH@too?5many?5files?5open?$AA@ 000000018002c3b0     libcpmt:syserror.obj
 0002:000013c8       ??_C@_0P@HCOMKFCC@too?5many?5links?$AA@ 000000018002c3c8     libcpmt:syserror.obj
 0002:000013d8       ??_C@_0BO@EFGOJEF@too?5many?5symbolic?5link?5levels?$AA@ 000000018002c3d8     libcpmt:syserror.obj
 0002:000013f8       ??_C@_0BA@KGKGOOJA@value?5too?5large?$AA@ 000000018002c3f8     libcpmt:syserror.obj
 0002:00001408       ??_C@_0BE@MIEJDDNH@wrong?5protocol?5type?$AA@ 000000018002c408     libcpmt:syserror.obj
 0002:00001420       ??_C@_0O@BFJCFAAK@unknown?5error?$AA@ 000000018002c420     libcpmt:syserror.obj
 0002:00001430       ??_C@_1BK@MGMFAEKH@?$AAk?$AAe?$AAr?$AAn?$AAe?$AAl?$AA3?$AA2?$AA?4?$AAd?$AAl?$AAl?$AA?$AA@ 000000018002c430     LIBCMT:thread_safe_statics.obj
 0002:00001450       ??_C@_0BM@HLJJNPAH@InitializeConditionVariable?$AA@ 000000018002c450     LIBCMT:thread_safe_statics.obj
 0002:00001470       ??_C@_0BJ@JEBJOJFJ@SleepConditionVariableCS?$AA@ 000000018002c470     LIBCMT:thread_safe_statics.obj
 0002:00001490       ??_C@_0BJ@PGPPEPCC@WakeAllConditionVariable?$AA@ 000000018002c490     LIBCMT:thread_safe_statics.obj
 0002:000014b8       ??_7type_info@@6B@         000000018002c4b8     LIBCMT:std_type_info_static.obj
 0002:000014c0       _pDefaultRawDllMain        000000018002c4c0     LIBCMT:dll_dllmain.obj
 0002:000014c0       _pRawDllMain               000000018002c4c0     LIBCMT:dll_dllmain.obj
 0002:000014e0       ??_7bad_array_new_length@std@@6B@ 000000018002c4e0     LIBCMT:throw_bad_alloc.obj
 0002:000014f0       ??_C@_0BF@KINCDENJ@bad?5array?5new?5length?$AA@ 000000018002c4f0     LIBCMT:throw_bad_alloc.obj
 0002:00001508       _pDestructExceptionObject  000000018002c508     libvcruntime:frame.obj
 0002:00001518       ??_7bad_exception@std@@6B@ 000000018002c518     libvcruntime:frame.obj
 0002:00001528       ??_C@_0O@DPKOEFFH@bad?5exception?$AA@ 000000018002c528     libvcruntime:frame.obj
 0002:00001638       ??_C@_1BC@DNHGCMLG@?$AAa?$AAd?$AAv?$AAa?$AAp?$AAi?$AA3?$AA2?$AA?$AA@ 000000018002c638     libvcruntime:winapi_downlevel.obj
 0002:00001650       ??_C@_1DM@KHCHBNEB@?$AAa?$AAp?$AAi?$AA?9?$AAm?$AAs?$AA?9?$AAw?$AAi?$AAn?$AA?9?$AAc?$AAo?$AAr?$AAe?$AA?9?$AAf?$AAi?$AAb?$AAe?$AAr?$AAs?$AA?9?$AAl?$AA1?$AA?9?$AA1?$AA?9?$AA1?$AA?$AA@ 000000018002c650     libvcruntime:winapi_downlevel.obj
 0002:00001690       ??_C@_1DK@LPPGFMPP@?$AAa?$AAp?$AAi?$AA?9?$AAm?$AAs?$AA?9?$AAw?$AAi?$AAn?$AA?9?$AAc?$AAo?$AAr?$AAe?$AA?9?$AAs?$AAy?$AAn?$AAc?$AAh?$AA?9?$AAl?$AA1?$AA?9?$AA2?$AA?9?$AA0?$AA?$AA@ 000000018002c690     libvcruntime:winapi_downlevel.obj
 0002:000016d0       ??_C@_1BC@GDMECMAK@?$AAk?$AAe?$AAr?$AAn?$AAe?$AAl?$AA3?$AA2?$AA?$AA@ 000000018002c6d0     libvcruntime:winapi_downlevel.obj
 0002:000016f0       ??_C@_08KNHFBNJ@FlsAlloc?$AA@ 000000018002c6f0     libvcruntime:winapi_downlevel.obj
 0002:00001708       ??_C@_07PEJMOBNF@FlsFree?$AA@ 000000018002c708     libvcruntime:winapi_downlevel.obj
 0002:00001718       ??_C@_0M@GDNOONDI@FlsGetValue?$AA@ 000000018002c718     libvcruntime:winapi_downlevel.obj
 0002:00001730       ??_C@_0M@JCPCPOEF@FlsSetValue?$AA@ 000000018002c730     libvcruntime:winapi_downlevel.obj
 0002:00001748       ??_C@_0BM@HCFOFFN@InitializeCriticalSectionEx?$AA@ 000000018002c748     libvcruntime:winapi_downlevel.obj
 0002:00001a90       ??_C@_08EHJDFFNH@__based?$CI?$AA@ 000000018002ca90     libvcruntime:undname.obj
 0002:00001aa0       ??_C@_07KOLFKCDI@__cdecl?$AA@ 000000018002caa0     libvcruntime:undname.obj
 0002:00001aa8       ??_C@_08GHMPAG@__pascal?$AA@ 000000018002caa8     libvcruntime:undname.obj
 0002:00001ab8       ??_C@_09IFJBGAPI@__stdcall?$AA@ 000000018002cab8     libvcruntime:undname.obj
 0002:00001ac8       ??_C@_0L@NPHFGOKO@__thiscall?$AA@ 000000018002cac8     libvcruntime:undname.obj
 0002:00001ad8       ??_C@_0L@JMKHOMEK@__fastcall?$AA@ 000000018002cad8     libvcruntime:undname.obj
 0002:00001ae8       ??_C@_0N@BCKKPABJ@__vectorcall?$AA@ 000000018002cae8     libvcruntime:undname.obj
 0002:00001af8       ??_C@_09HIJEGCPM@__clrcall?$AA@ 000000018002caf8     libvcruntime:undname.obj
 0002:00001b04       ??_C@_06GHPCKEAG@__eabi?$AA@ 000000018002cb04     libvcruntime:undname.obj
 0002:00001b10       ??_C@_07JOMMBBKO@__ptr64?$AA@ 000000018002cb10     libvcruntime:undname.obj
 0002:00001b18       ??_C@_0L@PILCLIHE@__restrict?$AA@ 000000018002cb18     libvcruntime:undname.obj
 0002:00001b28       ??_C@_0M@GFIIJFMG@__unaligned?$AA@ 000000018002cb28     libvcruntime:undname.obj
 0002:00001b38       ??_C@_09DHDLOLLB@restrict?$CI?$AA@ 000000018002cb38     libvcruntime:undname.obj
 0002:00001b42       ??_C@_00CNPNBAHC@?$AA@     000000018002cb42     libvcruntime:undname.obj
 0002:00001b44       ??_C@_04NIHEBCM@?5new?$AA@ 000000018002cb44     libvcruntime:undname.obj
 0002:00001b50       ??_C@_07FPCDHGMM@?5delete?$AA@ 000000018002cb50     libvcruntime:undname.obj
 0002:00001b58       ??_C@_01NEMOKFLO@?$DN?$AA@ 000000018002cb58     libvcruntime:undname.obj
 0002:00001b5c       ??_C@_02GPIOPFAK@?$DO?$DO?$AA@ 000000018002cb5c     libvcruntime:undname.obj
 0002:00001b60       ??_C@_02FODMEDOG@?$DM?$DM?$AA@ 000000018002cb60     libvcruntime:undname.obj
 0002:00001b64       ??_C@_01DCLJPIOD@?$CB?$AA@ 000000018002cb64     libvcruntime:undname.obj
 0002:00001b68       ??_C@_02EGOFBIJA@?$DN?$DN?$AA@ 000000018002cb68     libvcruntime:undname.obj
 0002:00001b6c       ??_C@_02FDNJECIE@?$CB?$DN?$AA@ 000000018002cb6c     libvcruntime:undname.obj
 0002:00001b70       ??_C@_02GPECMEKF@?$FL?$FN?$AA@ 000000018002cb70     libvcruntime:undname.obj
 0002:00001b78       ??_C@_08LHJFAFGD@operator?$AA@ 000000018002cb78     libvcruntime:undname.obj
 0002:00001b84       ??_C@_02HBOOOICD@?9?$DO?$AA@ 000000018002cb84     libvcruntime:undname.obj
 0002:00001b88       ??_C@_01NBENCBCI@?$CK?$AA@ 000000018002cb88     libvcruntime:undname.obj
 0002:00001b8c       ??_C@_02ECNGHCIF@?$CL?$CL?$AA@ 000000018002cb8c     libvcruntime:undname.obj
 0002:00001b90       ??_C@_02BAABKJLB@?9?9?$AA@ 000000018002cb90     libvcruntime:undname.obj
 0002:00001b94       ??_C@_01JOAMLHOP@?9?$AA@   000000018002cb94     libvcruntime:undname.obj
 0002:00001b98       ??_C@_01MIFGBAGJ@?$CL?$AA@ 000000018002cb98     libvcruntime:undname.obj
 0002:00001b9c       ??_C@_01HNPIGOCE@?$CG?$AA@ 000000018002cb9c     libvcruntime:undname.obj
 0002:00001ba0       ??_C@_03MNHNFDLC@?9?$DO?$CK?$AA@ 000000018002cba0     libvcruntime:undname.obj
 0002:00001ba4       ??_C@_01KMDKNFGN@?1?$AA@   000000018002cba4     libvcruntime:undname.obj
 0002:00001ba8       ??_C@_01FGNFDNOH@?$CF?$AA@ 000000018002cba8     libvcruntime:undname.obj
 0002:00001bac       ??_C@_01MNNFJEPP@?$DM?$AA@ 000000018002cbac     libvcruntime:undname.obj
 0002:00001bb0       ??_C@_02EHCHHCKH@?$DM?$DN?$AA@ 000000018002cbb0     libvcruntime:undname.obj
 0002:00001bb4       ??_C@_01PPODPGHN@?$DO?$AA@ 000000018002cbb4     libvcruntime:undname.obj
 0002:00001bb8       ??_C@_02EEKDKGMJ@?$DO?$DN?$AA@ 000000018002cbb8     libvcruntime:undname.obj
 0002:00001bbc       ??_C@_01IHBHIGKO@?0?$AA@   000000018002cbbc     libvcruntime:undname.obj
 0002:00001bc0       ??_C@_02HCKGKOFO@?$CI?$CJ?$AA@ 000000018002cbc0     libvcruntime:undname.obj
 0002:00001bc4       ??_C@_01PJKLJHI@?$HO?$AA@  000000018002cbc4     libvcruntime:undname.obj
 0002:00001bc8       ??_C@_01JKBOJNNK@?$FO?$AA@ 000000018002cbc8     libvcruntime:undname.obj
 0002:00001bcc       ??_C@_01DNKMNLPK@?$HM?$AA@ 000000018002cbcc     libvcruntime:undname.obj
 0002:00001bd0       ??_C@_02PPKAJPJL@?$CG?$CG?$AA@ 000000018002cbd0     libvcruntime:undname.obj
 0002:00001bd4       ??_C@_02NONPIBCD@?$HM?$HM?$AA@ 000000018002cbd4     libvcruntime:undname.obj
 0002:00001bd8       ??_C@_02FPIMKNGF@?$CK?$DN?$AA@ 000000018002cbd8     libvcruntime:undname.obj
 0002:00001bdc       ??_C@_02FOEOMHFC@?$CL?$DN?$AA@ 000000018002cbdc     libvcruntime:undname.obj
 0002:00001be0       ??_C@_02FKMDLLOA@?9?$DN?$AA@ 000000018002cbe0     libvcruntime:undname.obj
 0002:00001be4       ??_C@_02FJEHGPIO@?1?$DN?$AA@ 000000018002cbe4     libvcruntime:undname.obj
 0002:00001be8       ??_C@_02FENAOKFI@?$CF?$DN?$AA@ 000000018002cbe8     libvcruntime:undname.obj
 0002:00001bec       ??_C@_03IKFCCPFF@?$DO?$DO?$DN?$AA@ 000000018002cbec     libvcruntime:undname.obj
 0002:00001bf0       ??_C@_03CDNPDDLA@?$DM?$DM?$DN?$AA@ 000000018002cbf0     libvcruntime:undname.obj
 0002:00001bf4       ??_C@_02FGJGFEAB@?$CG?$DN?$AA@ 000000018002cbf4     libvcruntime:undname.obj
 0002:00001bf8       ??_C@_02DHLNPPGH@?$HM?$DN?$AA@ 000000018002cbf8     libvcruntime:undname.obj
 0002:00001bfc       ??_C@_02MHEGNOJ@?$FO?$DN?$AA@ 000000018002cbfc     libvcruntime:undname.obj
 0002:00001c00       ??_C@_09IFPLHPGF@?$GAvftable?8?$AA@ 000000018002cc00     libvcruntime:undname.obj
 0002:00001c10       ??_C@_09BLBHBJP@?$GAvbtable?8?$AA@ 000000018002cc10     libvcruntime:undname.obj
 0002:00001c20       ??_C@_07FEEIOKP@?$GAvcall?8?$AA@ 000000018002cc20     libvcruntime:undname.obj
 0002:00001c28       ??_C@_08LLFFHHDJ@?$GAtypeof?8?$AA@ 000000018002cc28     libvcruntime:undname.obj
 0002:00001c38       ??_C@_0BF@KDPPACIK@?$GAlocal?5static?5guard?8?$AA@ 000000018002cc38     libvcruntime:undname.obj
 0002:00001c50       ??_C@_08OBABFOLI@?$GAstring?8?$AA@ 000000018002cc50     libvcruntime:undname.obj
 0002:00001c60       ??_C@_0BD@JDLKDPAB@?$GAvbase?5destructor?8?$AA@ 000000018002cc60     libvcruntime:undname.obj
 0002:00001c78       ??_C@_0BN@DEGPLNFK@?$GAvector?5deleting?5destructor?8?$AA@ 000000018002cc78     libvcruntime:undname.obj
 0002:00001c98       ??_C@_0BO@OBMKPJIG@?$GAdefault?5constructor?5closure?8?$AA@ 000000018002cc98     libvcruntime:undname.obj
 0002:00001cb8       ??_C@_0BN@IMDCHIKM@?$GAscalar?5deleting?5destructor?8?$AA@ 000000018002ccb8     libvcruntime:undname.obj
 0002:00001cd8       ??_C@_0BO@PFGOCPJJ@?$GAvector?5constructor?5iterator?8?$AA@ 000000018002ccd8     libvcruntime:undname.obj
 0002:00001cf8       ??_C@_0BN@LFPFMEDL@?$GAvector?5destructor?5iterator?8?$AA@ 000000018002ccf8     libvcruntime:undname.obj
 0002:00001d18       ??_C@_0CE@IKBNEHA@?$GAvector?5vbase?5constructor?5iterat@ 000000018002cd18     libvcruntime:undname.obj
 0002:00001d40       ??_C@_0BL@NILFHHPC@?$GAvirtual?5displacement?5map?8?$AA@ 000000018002cd40     libvcruntime:undname.obj
 0002:00001d60       ??_C@_0CB@JONCMFFK@?$GAeh?5vector?5constructor?5iterator?8@ 000000018002cd60     libvcruntime:undname.obj
 0002:00001d88       ??_C@_0CA@GCEOPDGL@?$GAeh?5vector?5destructor?5iterator?8?$AA@ 000000018002cd88     libvcruntime:undname.obj
 0002:00001da8       ??_C@_0CH@OOJPLCPH@?$GAeh?5vector?5vbase?5constructor?5ite@ 000000018002cda8     libvcruntime:undname.obj
 0002:00001dd0       ??_C@_0BL@LLKPOHJI@?$GAcopy?5constructor?5closure?8?$AA@ 000000018002cdd0     libvcruntime:undname.obj
 0002:00001df0       ??_C@_0BA@KBCDOMBN@?$GAudt?5returning?8?$AA@ 000000018002cdf0     libvcruntime:undname.obj
 0002:00001e00       ??_C@_03KLGMFNMG@?$GAEH?$AA@ 000000018002ce00     libvcruntime:undname.obj
 0002:00001e04       ??_C@_05KHLCHHI@?$GARTTI?$AA@ 000000018002ce04     libvcruntime:undname.obj
 0002:00001e10       ??_C@_0BA@KKLDJDLB@?$GAlocal?5vftable?8?$AA@ 000000018002ce10     libvcruntime:undname.obj
 0002:00001e20       ??_C@_0CE@IIHCMGGL@?$GAlocal?5vftable?5constructor?5closu@ 000000018002ce20     libvcruntime:undname.obj
 0002:00001e44       ??_C@_06FHBGPFGH@?5new?$FL?$FN?$AA@ 000000018002ce44     libvcruntime:undname.obj
 0002:00001e50       ??_C@_09LBNFPBCA@?5delete?$FL?$FN?$AA@ 000000018002ce50     libvcruntime:undname.obj
 0002:00001e60       ??_C@_0P@HJKNJFNN@?$GAomni?5callsig?8?$AA@ 000000018002ce60     libvcruntime:undname.obj
 0002:00001e70       ??_C@_0BL@CNOONJFP@?$GAplacement?5delete?5closure?8?$AA@ 000000018002ce70     libvcruntime:undname.obj
 0002:00001e90       ??_C@_0BN@CKNJLHMB@?$GAplacement?5delete?$FL?$FN?5closure?8?$AA@ 000000018002ce90     libvcruntime:undname.obj
 0002:00001eb0       ??_C@_0CG@CFDHKGGD@?$GAmanaged?5vector?5constructor?5iter@ 000000018002ceb0     libvcruntime:undname.obj
 0002:00001ed8       ??_C@_0CF@IMGKMJNO@?$GAmanaged?5vector?5destructor?5itera@ 000000018002ced8     libvcruntime:undname.obj
 0002:00001f00       ??_C@_0CG@HLDDJMAG@?$GAeh?5vector?5copy?5constructor?5iter@ 000000018002cf00     libvcruntime:undname.obj
 0002:00001f28       ??_C@_0CM@FCBBDIGB@?$GAeh?5vector?5vbase?5copy?5constructo@ 000000018002cf28     libvcruntime:undname.obj
 0002:00001f58       ??_C@_0BL@CLIPGLGB@?$GAdynamic?5initializer?5for?5?8?$AA@ 000000018002cf58     libvcruntime:undname.obj
 0002:00001f78       ??_C@_0CB@PDBIFEP@?$GAdynamic?5atexit?5destructor?5for?5?8@ 000000018002cf78     libvcruntime:undname.obj
 0002:00001fa0       ??_C@_0CD@CGAJBKEJ@?$GAvector?5copy?5constructor?5iterato@ 000000018002cfa0     libvcruntime:undname.obj
 0002:00001fc8       ??_C@_0CJ@GJELGAMM@?$GAvector?5vbase?5copy?5constructor?5i@ 000000018002cfc8     libvcruntime:undname.obj
 0002:00001ff8       ??_C@_0CL@FGIJHLCE@?$GAmanaged?5vector?5copy?5constructor@ 000000018002cff8     libvcruntime:undname.obj
 0002:00002028       ??_C@_0BM@PMGGMLDN@?$GAlocal?5static?5thread?5guard?8?$AA@ 000000018002d028     libvcruntime:undname.obj
 0002:00002048       ??_C@_0N@BDNMDMOL@operator?5?$CC?$CC?5?$AA@ 000000018002d048     libvcruntime:undname.obj
 0002:00002058       ??_C@_0BC@DAFEJGAK@?5Type?5Descriptor?8?$AA@ 000000018002d058     libvcruntime:undname.obj
 0002:00002070       ??_C@_0BM@LDKODKLH@?5Base?5Class?5Descriptor?5at?5?$CI?$AA@ 000000018002d070     libvcruntime:undname.obj
 0002:00002090       ??_C@_0BD@LGICGFMM@?5Base?5Class?5Array?8?$AA@ 000000018002d090     libvcruntime:undname.obj
 0002:000020a8       ??_C@_0BN@MECKDCOJ@?5Class?5Hierarchy?5Descriptor?8?$AA@ 000000018002d0a8     libvcruntime:undname.obj
 0002:000020c8       ??_C@_0BK@CFCOFLF@?5Complete?5Object?5Locator?8?$AA@ 000000018002d0c8     libvcruntime:undname.obj
 0002:000020f0       __acrt_exception_action_table 000000018002d0f0     libucrt:exception_filter.obj
 0002:000021b0       __acrt_signal_action_table_count 000000018002d1b0     libucrt:exception_filter.obj
 0002:000021b8       __acrt_signal_action_first_fpe_index 000000018002d1b8     libucrt:exception_filter.obj
 0002:000021c0       __acrt_signal_action_fpe_count 000000018002d1c0     libucrt:exception_filter.obj
 0002:000021c8       ??_C@_1BI@BGOHAHKC@?$AAm?$AAs?$AAc?$AAo?$AAr?$AAe?$AAe?$AA?4?$AAd?$AAl?$AAl?$AA?$AA@ 000000018002d1c8     libucrt:exit.obj
 0002:000021e0       ??_C@_0P@MIGLKIOC@CorExitProcess?$AA@ 000000018002d1e0     libucrt:exit.obj
 0002:00002450       __lc_time_c                000000018002d450     libucrt:nlsdata.obj
 0002:00002710       ??_C@_03KOEHGMDN@Sun?$AA@  000000018002d710     libucrt:nlsdata.obj
 0002:00002714       ??_C@_03PDAGKDH@Mon?$AA@   000000018002d714     libucrt:nlsdata.obj
 0002:00002718       ??_C@_03NAGEINEP@Tue?$AA@  000000018002d718     libucrt:nlsdata.obj
 0002:0000271c       ??_C@_03MHOMLAJA@Wed?$AA@  000000018002d71c     libucrt:nlsdata.obj
 0002:00002720       ??_C@_03IOFIKPDN@Thu?$AA@  000000018002d720     libucrt:nlsdata.obj
 0002:00002724       ??_C@_03IDIOELNC@Fri?$AA@  000000018002d724     libucrt:nlsdata.obj
 0002:00002728       ??_C@_03FEFJNEK@Sat?$AA@   000000018002d728     libucrt:nlsdata.obj
 0002:0000272c       ??_C@_06OOPIFAJ@Sunday?$AA@ 000000018002d72c     libucrt:nlsdata.obj
 0002:00002734       ??_C@_06JLEDEDGH@Monday?$AA@ 000000018002d734     libucrt:nlsdata.obj
 0002:00002740       ??_C@_07BAAGCFCM@Tuesday?$AA@ 000000018002d740     libucrt:nlsdata.obj
 0002:00002748       ??_C@_09DLIGFAKA@Wednesday?$AA@ 000000018002d748     libucrt:nlsdata.obj
 0002:00002758       ??_C@_08HACCIKIA@Thursday?$AA@ 000000018002d758     libucrt:nlsdata.obj
 0002:00002764       ??_C@_06JECMNKMI@Friday?$AA@ 000000018002d764     libucrt:nlsdata.obj
 0002:00002770       ??_C@_08INBOOONO@Saturday?$AA@ 000000018002d770     libucrt:nlsdata.obj
 0002:0000277c       ??_C@_03JIHJHPIE@Jan?$AA@  000000018002d77c     libucrt:nlsdata.obj
 0002:00002780       ??_C@_03HJBDCHOM@Feb?$AA@  000000018002d780     libucrt:nlsdata.obj
 0002:00002784       ??_C@_03ODNJBKGA@Mar?$AA@  000000018002d784     libucrt:nlsdata.obj
 0002:00002788       ??_C@_03LEOLGMJP@Apr?$AA@  000000018002d788     libucrt:nlsdata.obj
 0002:0000278c       ??_C@_03CNMDKL@May?$AA@    000000018002d78c     libucrt:nlsdata.obj
 0002:00002790       ??_C@_03IDFGHECI@Jun?$AA@  000000018002d790     libucrt:nlsdata.obj
 0002:00002794       ??_C@_03LBGABGKK@Jul?$AA@  000000018002d794     libucrt:nlsdata.obj
 0002:00002798       ??_C@_03IFJFEIGA@Aug?$AA@  000000018002d798     libucrt:nlsdata.obj
 0002:0000279c       ??_C@_03GGCAPAJC@Sep?$AA@  000000018002d79c     libucrt:nlsdata.obj
 0002:000027a0       ??_C@_03BMAOKBAD@Oct?$AA@  000000018002d7a0     libucrt:nlsdata.obj
 0002:000027a4       ??_C@_03JPJOFNIA@Nov?$AA@  000000018002d7a4     libucrt:nlsdata.obj
 0002:000027a8       ??_C@_03MKABNOCG@Dec?$AA@  000000018002d7a8     libucrt:nlsdata.obj
 0002:000027b0       ??_C@_07CGJPFGJA@January?$AA@ 000000018002d7b0     libucrt:nlsdata.obj
 0002:000027b8       ??_C@_08GNJGEPFN@February?$AA@ 000000018002d7b8     libucrt:nlsdata.obj
 0002:000027c4       ??_C@_05HPCKOFNC@March?$AA@ 000000018002d7c4     libucrt:nlsdata.obj
 0002:000027cc       ??_C@_05DMJDNLEJ@April?$AA@ 000000018002d7cc     libucrt:nlsdata.obj
 0002:000027d4       ??_C@_04CNLMGBGM@June?$AA@ 000000018002d7d4     libucrt:nlsdata.obj
 0002:000027dc       ??_C@_04MIEPOIFP@July?$AA@ 000000018002d7dc     libucrt:nlsdata.obj
 0002:000027e4       ??_C@_06LBBHFDDG@August?$AA@ 000000018002d7e4     libucrt:nlsdata.obj
 0002:000027f0       ??_C@_09BHHEALKD@September?$AA@ 000000018002d7f0     libucrt:nlsdata.obj
 0002:00002800       ??_C@_07JJNFCEND@October?$AA@ 000000018002d800     libucrt:nlsdata.obj
 0002:00002808       ??_C@_08HCHEGEOA@November?$AA@ 000000018002d808     libucrt:nlsdata.obj
 0002:00002818       ??_C@_08EDHMEBNP@December?$AA@ 000000018002d818     libucrt:nlsdata.obj
 0002:00002824       ??_C@_02DEDBPAFC@AM?$AA@   000000018002d824     libucrt:nlsdata.obj
 0002:00002828       ??_C@_02CJNFDJBF@PM?$AA@   000000018002d828     libucrt:nlsdata.obj
 0002:00002830       ??_C@_08BPBNCDIB@MM?1dd?1yy?$AA@ 000000018002d830     libucrt:nlsdata.obj
 0002:00002840       ??_C@_0BE@CKGJFCPC@dddd?0?5MMMM?5dd?0?5yyyy?$AA@ 000000018002d840     libucrt:nlsdata.obj
 0002:00002858       ??_C@_08JCCMCCIL@HH?3mm?3ss?$AA@ 000000018002d858     libucrt:nlsdata.obj
 0002:00002868       ??_C@_17MBGCMIPB@?$AAS?$AAu?$AAn?$AA?$AA@ 000000018002d868     libucrt:nlsdata.obj
 0002:00002870       ??_C@_17KBOMKBF@?$AAM?$AAo?$AAn?$AA?$AA@ 000000018002d870     libucrt:nlsdata.obj
 0002:00002878       ??_C@_17BMKGEGOJ@?$AAT?$AAu?$AAe?$AA?$AA@ 000000018002d878     libucrt:nlsdata.obj
 0002:00002880       ??_C@_17CJEDCEPE@?$AAW?$AAe?$AAd?$AA?$AA@ 000000018002d880     libucrt:nlsdata.obj
 0002:00002888       ??_C@_17PDPHAADD@?$AAT?$AAh?$AAu?$AA?$AA@ 000000018002d888     libucrt:nlsdata.obj
 0002:00002890       ??_C@_17HFOLPPLP@?$AAF?$AAr?$AAi?$AA?$AA@ 000000018002d890     libucrt:nlsdata.obj
 0002:00002898       ??_C@_17GGIBDPIH@?$AAS?$AAa?$AAt?$AA?$AA@ 000000018002d898     libucrt:nlsdata.obj
 0002:000028a0       ??_C@_1O@IHNHDHPB@?$AAS?$AAu?$AAn?$AAd?$AAa?$AAy?$AA?$AA@ 000000018002d8a0     libucrt:nlsdata.obj
 0002:000028b0       ??_C@_1O@MMNBFLIA@?$AAM?$AAo?$AAn?$AAd?$AAa?$AAy?$AA?$AA@ 000000018002d8b0     libucrt:nlsdata.obj
 0002:000028c0       ??_C@_1BA@ENFBFFEK@?$AAT?$AAu?$AAe?$AAs?$AAd?$AAa?$AAy?$AA?$AA@ 000000018002d8c0     libucrt:nlsdata.obj
 0002:000028d0       ??_C@_1BE@EBOGMDOH@?$AAW?$AAe?$AAd?$AAn?$AAe?$AAs?$AAd?$AAa?$AAy?$AA?$AA@ 000000018002d8d0     libucrt:nlsdata.obj
 0002:000028e8       ??_C@_1BC@HHMNLIHE@?$AAT?$AAh?$AAu?$AAr?$AAs?$AAd?$AAa?$AAy?$AA?$AA@ 000000018002d8e8     libucrt:nlsdata.obj
 0002:00002900       ??_C@_1O@PDICJHAG@?$AAF?$AAr?$AAi?$AAd?$AAa?$AAy?$AA?$AA@ 000000018002d900     libucrt:nlsdata.obj
 0002:00002910       ??_C@_1BC@ENMNNPAJ@?$AAS?$AAa?$AAt?$AAu?$AAr?$AAd?$AAa?$AAy?$AA?$AA@ 000000018002d910     libucrt:nlsdata.obj
 0002:00002928       ??_C@_17DKNBKCHM@?$AAJ?$AAa?$AAn?$AA?$AA@ 000000018002d928     libucrt:nlsdata.obj
 0002:00002930       ??_C@_17LMDJEKJN@?$AAF?$AAe?$AAb?$AA?$AA@ 000000018002d930     libucrt:nlsdata.obj
 0002:00002938       ??_C@_17CKNLEDEC@?$AAM?$AAa?$AAr?$AA?$AA@ 000000018002d938     libucrt:nlsdata.obj
 0002:00002940       ??_C@_17LFPOIHDD@?$AAA?$AAp?$AAr?$AA?$AA@ 000000018002d940     libucrt:nlsdata.obj
 0002:00002948       ??_C@_17PNNKMEED@?$AAM?$AAa?$AAy?$AA?$AA@ 000000018002d948     libucrt:nlsdata.obj
 0002:00002950       ??_C@_17KCJGOCPB@?$AAJ?$AAu?$AAn?$AA?$AA@ 000000018002d950     libucrt:nlsdata.obj
 0002:00002958       ??_C@_17IJPCKHK@?$AAJ?$AAu?$AAl?$AA?$AA@ 000000018002d958     libucrt:nlsdata.obj
 0002:00002960       ??_C@_17ICPELBCN@?$AAA?$AAu?$AAg?$AA?$AA@ 000000018002d960     libucrt:nlsdata.obj
 0002:00002968       ??_C@_17HCHCOKMG@?$AAS?$AAe?$AAp?$AA?$AA@ 000000018002d968     libucrt:nlsdata.obj
 0002:00002970       ??_C@_17FNLKOI@?$AAO?$AAc?$AAt?$AA?$AA@ 000000018002d970     libucrt:nlsdata.obj
 0002:00002978       ??_C@_17BBDMLCIG@?$AAN?$AAo?$AAv?$AA?$AA@ 000000018002d978     libucrt:nlsdata.obj
 0002:00002980       ??_C@_17EGKACKIF@?$AAD?$AAe?$AAc?$AA?$AA@ 000000018002d980     libucrt:nlsdata.obj
 0002:00002988       ??_C@_1BA@EFMEIEBA@?$AAJ?$AAa?$AAn?$AAu?$AAa?$AAr?$AAy?$AA?$AA@ 000000018002d988     libucrt:nlsdata.obj
 0002:00002998       ??_C@_1BC@JGDDFFAM@?$AAF?$AAe?$AAb?$AAr?$AAu?$AAa?$AAr?$AAy?$AA?$AA@ 000000018002d998     libucrt:nlsdata.obj
 0002:000029b0       ??_C@_1M@IKEENEDF@?$AAM?$AAa?$AAr?$AAc?$AAh?$AA?$AA@ 000000018002d9b0     libucrt:nlsdata.obj
 0002:000029c0       ??_C@_1M@GJNLMHFD@?$AAA?$AAp?$AAr?$AAi?$AAl?$AA?$AA@ 000000018002d9c0     libucrt:nlsdata.obj
 0002:000029d0       ??_C@_19EPFLPGAP@?$AAJ?$AAu?$AAn?$AAe?$AA?$AA@ 000000018002d9d0     libucrt:nlsdata.obj
 0002:000029e0       ??_C@_19BIFMLPCD@?$AAJ?$AAu?$AAl?$AAy?$AA?$AA@ 000000018002d9e0     libucrt:nlsdata.obj
 0002:000029f0       ??_C@_1O@PAHLKOAC@?$AAA?$AAu?$AAg?$AAu?$AAs?$AAt?$AA?$AA@ 000000018002d9f0     libucrt:nlsdata.obj
 0002:00002a00       ??_C@_1BE@DKAAMBJL@?$AAS?$AAe?$AAp?$AAt?$AAe?$AAm?$AAb?$AAe?$AAr?$AA?$AA@ 000000018002da00     libucrt:nlsdata.obj
 0002:00002a18       ??_C@_1BA@EPANDLNG@?$AAO?$AAc?$AAt?$AAo?$AAb?$AAe?$AAr?$AA?$AA@ 000000018002da18     libucrt:nlsdata.obj
 0002:00002a28       ??_C@_1BC@BGLIFPF@?$AAN?$AAo?$AAv?$AAe?$AAm?$AAb?$AAe?$AAr?$AA?$AA@ 000000018002da28     libucrt:nlsdata.obj
 0002:00002a40       ??_C@_1BC@FEMKIFH@?$AAD?$AAe?$AAc?$AAe?$AAm?$AAb?$AAe?$AAr?$AA?$AA@ 000000018002da40     libucrt:nlsdata.obj
 0002:00002a54       ??_C@_15ODEHAHHF@?$AAA?$AAM?$AA?$AA@ 000000018002da54     libucrt:nlsdata.obj
 0002:00002a5c       ??_C@_15CLMNNGEL@?$AAP?$AAM?$AA?$AA@ 000000018002da5c     libucrt:nlsdata.obj
 0002:00002a68       ??_C@_1BC@IEBCMHCM@?$AAM?$AAM?$AA?1?$AAd?$AAd?$AA?1?$AAy?$AAy?$AA?$AA@ 000000018002da68     libucrt:nlsdata.obj
 0002:00002a80       ??_C@_1CI@KNAKOEBC@?$AAd?$AAd?$AAd?$AAd?$AA?0?$AA?5?$AAM?$AAM?$AAM?$AAM?$AA?5?$AAd?$AAd?$AA?0?$AA?5?$AAy?$AAy?$AAy?$AAy?$AA?$AA@ 000000018002da80     libucrt:nlsdata.obj
 0002:00002aa8       ??_C@_1BC@GDGBMEMK@?$AAH?$AAH?$AA?3?$AAm?$AAm?$AA?3?$AAs?$AAs?$AA?$AA@ 000000018002daa8     libucrt:nlsdata.obj
 0002:00002ac0       ??_C@_1M@BMHNFIME@?$AAe?$AAn?$AA?9?$AAU?$AAS?$AA?$AA@ 000000018002dac0     libucrt:nlsdata.obj
 0002:00002b70       ??_C@_1EG@CNNIPFIM@?$AAa?$AAp?$AAi?$AA?9?$AAm?$AAs?$AA?9?$AAw?$AAi?$AAn?$AA?9?$AAa?$AAp?$AAp?$AAm?$AAo?$AAd?$AAe?$AAl?$AA?9?$AAr?$AAu?$AAn?$AAt?$AAi?$AAm?$AAe?$AA?9?$AAl?$AA1?$AA?9?$AA1@ 000000018002db70     libucrt:winapi_thunks.obj
 0002:00002bc0       ??_C@_1EA@JGEFHKEI@?$AAa?$AAp?$AAi?$AA?9?$AAm?$AAs?$AA?9?$AAw?$AAi?$AAn?$AA?9?$AAc?$AAo?$AAr?$AAe?$AA?9?$AAd?$AAa?$AAt?$AAe?$AAt?$AAi?$AAm?$AAe?$AA?9?$AAl?$AA1?$AA?9?$AA1?$AA?9?$AA1?$AA?$AA@ 000000018002dbc0     libucrt:winapi_thunks.obj
 0002:00002c00       ??_C@_1DI@GCIAAENM@?$AAa?$AAp?$AAi?$AA?9?$AAm?$AAs?$AA?9?$AAw?$AAi?$AAn?$AA?9?$AAc?$AAo?$AAr?$AAe?$AA?9?$AAf?$AAi?$AAl?$AAe?$AA?9?$AAl?$AA2?$AA?9?$AA1?$AA?9?$AA1?$AA?$AA@ 000000018002dc00     libucrt:winapi_thunks.obj
 0002:00002c40       ??_C@_1EI@MPIAOHOC@?$AAa?$AAp?$AAi?$AA?9?$AAm?$AAs?$AA?9?$AAw?$AAi?$AAn?$AA?9?$AAc?$AAo?$AAr?$AAe?$AA?9?$AAl?$AAo?$AAc?$AAa?$AAl?$AAi?$AAz?$AAa?$AAt?$AAi?$AAo?$AAn?$AA?9?$AAl?$AA1?$AA?9@ 000000018002dc40     libucrt:winapi_thunks.obj
 0002:00002c90       ??_C@_1FK@FPHCKFIE@?$AAa?$AAp?$AAi?$AA?9?$AAm?$AAs?$AA?9?$AAw?$AAi?$AAn?$AA?9?$AAc?$AAo?$AAr?$AAe?$AA?9?$AAl?$AAo?$AAc?$AAa?$AAl?$AAi?$AAz?$AAa?$AAt?$AAi?$AAo?$AAn?$AA?9?$AAo?$AAb?$AAs@ 000000018002dc90     libucrt:winapi_thunks.obj
 0002:00002cf0       ??_C@_1EM@DILCGIIO@?$AAa?$AAp?$AAi?$AA?9?$AAm?$AAs?$AA?9?$AAw?$AAi?$AAn?$AA?9?$AAc?$AAo?$AAr?$AAe?$AA?9?$AAp?$AAr?$AAo?$AAc?$AAe?$AAs?$AAs?$AAt?$AAh?$AAr?$AAe?$AAa?$AAd?$AAs?$AA?9?$AAl@ 000000018002dcf0     libucrt:winapi_thunks.obj
 0002:00002d40       ??_C@_1DM@LNCGDDPN@?$AAa?$AAp?$AAi?$AA?9?$AAm?$AAs?$AA?9?$AAw?$AAi?$AAn?$AA?9?$AAc?$AAo?$AAr?$AAe?$AA?9?$AAs?$AAt?$AAr?$AAi?$AAn?$AAg?$AA?9?$AAl?$AA1?$AA?9?$AA1?$AA?9?$AA0?$AA?$AA@ 000000018002dd40     libucrt:winapi_thunks.obj
 0002:00002d80       ??_C@_1DO@FPAPJEMD@?$AAa?$AAp?$AAi?$AA?9?$AAm?$AAs?$AA?9?$AAw?$AAi?$AAn?$AA?9?$AAc?$AAo?$AAr?$AAe?$AA?9?$AAs?$AAy?$AAs?$AAi?$AAn?$AAf?$AAo?$AA?9?$AAl?$AA1?$AA?9?$AA2?$AA?9?$AA1?$AA?$AA@ 000000018002dd80     libucrt:winapi_thunks.obj
 0002:00002dc0       ??_C@_1DK@NDHNAHIO@?$AAa?$AAp?$AAi?$AA?9?$AAm?$AAs?$AA?9?$AAw?$AAi?$AAn?$AA?9?$AAc?$AAo?$AAr?$AAe?$AA?9?$AAw?$AAi?$AAn?$AAr?$AAt?$AA?9?$AAl?$AA1?$AA?9?$AA1?$AA?9?$AA0?$AA?$AA@ 000000018002ddc0     libucrt:winapi_thunks.obj
 0002:00002e00       ??_C@_1DM@KGHDGBCM@?$AAa?$AAp?$AAi?$AA?9?$AAm?$AAs?$AA?9?$AAw?$AAi?$AAn?$AA?9?$AAc?$AAo?$AAr?$AAe?$AA?9?$AAx?$AAs?$AAt?$AAa?$AAt?$AAe?$AA?9?$AAl?$AA2?$AA?9?$AA1?$AA?9?$AA0?$AA?$AA@ 000000018002de00     libucrt:winapi_thunks.obj
 0002:00002e40       ??_C@_1EO@IJIOEFOH@?$AAa?$AAp?$AAi?$AA?9?$AAm?$AAs?$AA?9?$AAw?$AAi?$AAn?$AA?9?$AAr?$AAt?$AAc?$AAo?$AAr?$AAe?$AA?9?$AAn?$AAt?$AAu?$AAs?$AAe?$AAr?$AA?9?$AAw?$AAi?$AAn?$AAd?$AAo?$AAw?$AA?9@ 000000018002de40     libucrt:winapi_thunks.obj
 0002:00002e90       ??_C@_1FG@HHGEKANL@?$AAa?$AAp?$AAi?$AA?9?$AAm?$AAs?$AA?9?$AAw?$AAi?$AAn?$AA?9?$AAs?$AAe?$AAc?$AAu?$AAr?$AAi?$AAt?$AAy?$AA?9?$AAs?$AAy?$AAs?$AAt?$AAe?$AAm?$AAf?$AAu?$AAn?$AAc?$AAt?$AAi@ 000000018002de90     libucrt:winapi_thunks.obj
 0002:00002ef0       ??_C@_1FG@NCKKOLKO@?$AAe?$AAx?$AAt?$AA?9?$AAm?$AAs?$AA?9?$AAw?$AAi?$AAn?$AA?9?$AAk?$AAe?$AAr?$AAn?$AAe?$AAl?$AA3?$AA2?$AA?9?$AAp?$AAa?$AAc?$AAk?$AAa?$AAg?$AAe?$AA?9?$AAc?$AAu?$AAr?$AAr@ 000000018002def0     libucrt:winapi_thunks.obj
 0002:00002f50       ??_C@_1EG@DBIOJECG@?$AAe?$AAx?$AAt?$AA?9?$AAm?$AAs?$AA?9?$AAw?$AAi?$AAn?$AA?9?$AAn?$AAt?$AAu?$AAs?$AAe?$AAr?$AA?9?$AAd?$AAi?$AAa?$AAl?$AAo?$AAg?$AAb?$AAo?$AAx?$AA?9?$AAl?$AA1?$AA?9?$AA1@ 000000018002df50     libucrt:winapi_thunks.obj
 0002:00002fa0       ??_C@_1EO@FIHMJCLF@?$AAe?$AAx?$AAt?$AA?9?$AAm?$AAs?$AA?9?$AAw?$AAi?$AAn?$AA?9?$AAn?$AAt?$AAu?$AAs?$AAe?$AAr?$AA?9?$AAw?$AAi?$AAn?$AAd?$AAo?$AAw?$AAs?$AAt?$AAa?$AAt?$AAi?$AAo?$AAn?$AA?9@ 000000018002dfa0     libucrt:winapi_thunks.obj
 0002:00002ff0       ??_C@_1O@BCCLBEOE@?$AAu?$AAs?$AAe?$AAr?$AA3?$AA2?$AA?$AA@ 000000018002dff0     libucrt:winapi_thunks.obj
 0002:00003028       ??_C@_0BE@JOGNEJCI@GetCurrentPackageId?$AA@ 000000018002e028     libucrt:winapi_thunks.obj
 0002:00003050       ??_C@_0O@KKBNKAPF@LCMapStringEx?$AA@ 000000018002e050     libucrt:winapi_thunks.obj
 0002:00003068       ??_C@_0BB@HBDEELFH@LocaleNameToLCID?$AA@ 000000018002e068     libucrt:winapi_thunks.obj
 0002:000030a0       ??_C@_1M@HPNHIDJI@?$AAj?$AAa?$AA?9?$AAJ?$AAP?$AA?$AA@ 000000018002e0a0     libucrt:mbctype.obj
 0002:000030b0       ??_C@_1M@BIBDDEMK@?$AAz?$AAh?$AA?9?$AAC?$AAN?$AA?$AA@ 000000018002e0b0     libucrt:mbctype.obj
 0002:000030c0       ??_C@_1M@JLOOOEGK@?$AAk?$AAo?$AA?9?$AAK?$AAR?$AA?$AA@ 000000018002e0c0     libucrt:mbctype.obj
 0002:000030d0       ??_C@_1M@CLNBBOPM@?$AAz?$AAh?$AA?9?$AAT?$AAW?$AA?$AA@ 000000018002e0d0     libucrt:mbctype.obj
 0002:000030e0       __newctype                 000000018002e0e0     libucrt:ctype.obj
 0002:000033e0       __newclmap                 000000018002e3e0     libucrt:ctype.obj
 0002:00003560       __newcumap                 000000018002e560     libucrt:ctype.obj
 0002:000036e0       ??_C@_15PJPFLCCM@?$AAu?$AAk?$AA?$AA@ 000000018002e6e0     libucrt:get_qualified_locale.obj
 0002:00004530       ??_C@_15EMKDOKLE@?$AAa?$AAr?$AA?$AA@ 000000018002f530     libucrt:lcidtoname_downlevel.obj
 0002:00004538       ??_C@_15KNPADPLH@?$AAb?$AAg?$AA?$AA@ 000000018002f538     libucrt:lcidtoname_downlevel.obj
 0002:00004540       ??_C@_15EDMHLDMO@?$AAc?$AAa?$AA?$AA@ 000000018002f540     libucrt:lcidtoname_downlevel.obj
 0002:00004548       ??_C@_1O@BPEAJADD@?$AAz?$AAh?$AA?9?$AAC?$AAH?$AAS?$AA?$AA@ 000000018002f548     libucrt:lcidtoname_downlevel.obj
 0002:00004558       ??_C@_15LJNHCMNK@?$AAc?$AAs?$AA?$AA@ 000000018002f558     libucrt:lcidtoname_downlevel.obj
 0002:00004560       ??_C@_15FOMCIDHG@?$AAd?$AAa?$AA?$AA@ 000000018002f560     libucrt:lcidtoname_downlevel.obj
 0002:00004568       ??_C@_15NBKABECB@?$AAd?$AAe?$AA?$AA@ 000000018002f568     libucrt:lcidtoname_downlevel.obj
 0002:00004570       ??_C@_15GHPEIIAO@?$AAe?$AAl?$AA?$AA@ 000000018002f570     libucrt:lcidtoname_downlevel.obj
 0002:00004578       ??_C@_15MNPNEAIF@?$AAe?$AAn?$AA?$AA@ 000000018002f578     libucrt:lcidtoname_downlevel.obj
 0002:00004580       ??_C@_15GPIOMPMH@?$AAe?$AAs?$AA?$AA@ 000000018002f580     libucrt:lcidtoname_downlevel.obj
 0002:00004588       ??_C@_15NGLOAKJC@?$AAf?$AAi?$AA?$AA@ 000000018002f588     libucrt:lcidtoname_downlevel.obj
 0002:00004590       ??_C@_15FBKGNKAM@?$AAf?$AAr?$AA?$AA@ 000000018002f590     libucrt:lcidtoname_downlevel.obj
 0002:00004598       ??_C@_15KGGCNEFK@?$AAh?$AAe?$AA?$AA@ 000000018002f598     libucrt:lcidtoname_downlevel.obj
 0002:000045a0       ??_C@_15PGHLIDMF@?$AAh?$AAu?$AA?$AA@ 000000018002f5a0     libucrt:lcidtoname_downlevel.obj
 0002:000045a8       ??_C@_15BIEMAPLM@?$AAi?$AAs?$AA?$AA@ 000000018002f5a8     libucrt:lcidtoname_downlevel.obj
 0002:000045b0       ??_C@_15IFJLDHAF@?$AAi?$AAt?$AA?$AA@ 000000018002f5b0     libucrt:lcidtoname_downlevel.obj
 0002:000045b8       ??_C@_15GEMIOCAG@?$AAj?$AAa?$AA?$AA@ 000000018002f5b8     libucrt:lcidtoname_downlevel.obj
 0002:000045c0       ??_C@_15EPELEGJA@?$AAk?$AAo?$AA?$AA@ 000000018002f5c0     libucrt:lcidtoname_downlevel.obj
 0002:000045c8       ??_C@_15NDDHIMN@?$AAn?$AAl?$AA?$AA@ 000000018002f5c8     libucrt:lcidtoname_downlevel.obj
 0002:000045d0       ??_C@_15BPIGNHCD@?$AAn?$AAo?$AA?$AA@ 000000018002f5d0     libucrt:lcidtoname_downlevel.obj
 0002:000045d8       ??_C@_15DEOPBLCG@?$AAp?$AAl?$AA?$AA@ 000000018002f5d8     libucrt:lcidtoname_downlevel.obj
 0002:000045e0       ??_C@_15KBECGEFG@?$AAp?$AAt?$AA?$AA@ 000000018002f5e0     libucrt:lcidtoname_downlevel.obj
 0002:000045e8       ??_C@_15GLJCBFMD@?$AAr?$AAo?$AA?$AA@ 000000018002f5e8     libucrt:lcidtoname_downlevel.obj
 0002:000045f0       ??_C@_15FEDGKCDI@?$AAr?$AAu?$AA?$AA@ 000000018002f5f0     libucrt:lcidtoname_downlevel.obj
 0002:000045f8       ??_C@_15GLKMLLHM@?$AAh?$AAr?$AA?$AA@ 000000018002f5f8     libucrt:lcidtoname_downlevel.obj
 0002:00004600       ??_C@_15CPKMFBDB@?$AAs?$AAk?$AA?$AA@ 000000018002f600     libucrt:lcidtoname_downlevel.obj
 0002:00004608       ??_C@_15BAAIOGMK@?$AAs?$AAq?$AA?$AA@ 000000018002f608     libucrt:lcidtoname_downlevel.obj
 0002:00004610       ??_C@_15INNPNOHD@?$AAs?$AAv?$AA?$AA@ 000000018002f610     libucrt:lcidtoname_downlevel.obj
 0002:00004618       ??_C@_15CABMMOGH@?$AAt?$AAh?$AA?$AA@ 000000018002f618     libucrt:lcidtoname_downlevel.obj
 0002:00004620       ??_C@_15BPLIHJJM@?$AAt?$AAr?$AA?$AA@ 000000018002f620     libucrt:lcidtoname_downlevel.obj
 0002:00004628       ??_C@_15NEOEKKDJ@?$AAu?$AAr?$AA?$AA@ 000000018002f628     libucrt:lcidtoname_downlevel.obj
 0002:00004630       ??_C@_15NFICGAJK@?$AAi?$AAd?$AA?$AA@ 000000018002f630     libucrt:lcidtoname_downlevel.obj
 0002:00004638       ??_C@_15HPJPHDM@?$AAb?$AAe?$AA?$AA@ 000000018002f638     libucrt:lcidtoname_downlevel.obj
 0002:00004640       ??_C@_15LCHLGJII@?$AAs?$AAl?$AA?$AA@ 000000018002f640     libucrt:lcidtoname_downlevel.obj
 0002:00004648       ??_C@_15PCFJPHHO@?$AAe?$AAt?$AA?$AA@ 000000018002f648     libucrt:lcidtoname_downlevel.obj
 0002:00004650       ??_C@_15HPFPGODN@?$AAl?$AAv?$AA?$AA@ 000000018002f650     libucrt:lcidtoname_downlevel.obj
 0002:00004658       ??_C@_15NFFGKGLG@?$AAl?$AAt?$AA?$AA@ 000000018002f658     libucrt:lcidtoname_downlevel.obj
 0002:00004660       ??_C@_15BDAKCCHN@?$AAf?$AAa?$AA?$AA@ 000000018002f660     libucrt:lcidtoname_downlevel.obj
 0002:00004668       ??_C@_15NFGIAIAJ@?$AAv?$AAi?$AA?$AA@ 000000018002f668     libucrt:lcidtoname_downlevel.obj
 0002:00004670       ??_C@_15LMKNDMHN@?$AAh?$AAy?$AA?$AA@ 000000018002f670     libucrt:lcidtoname_downlevel.obj
 0002:00004678       ??_C@_15IJBHMCFL@?$AAa?$AAz?$AA?$AA@ 000000018002f678     libucrt:lcidtoname_downlevel.obj
 0002:00004680       ??_C@_15EKOFJABL@?$AAe?$AAu?$AA?$AA@ 000000018002f680     libucrt:lcidtoname_downlevel.obj
 0002:00004688       ??_C@_15BGHADCNK@?$AAm?$AAk?$AA?$AA@ 000000018002f688     libucrt:lcidtoname_downlevel.obj
 0002:00004690       ??_C@_15JDNICKHM@?$AAa?$AAf?$AA?$AA@ 000000018002f690     libucrt:lcidtoname_downlevel.obj
 0002:00004698       ??_C@_15KPJEDBKD@?$AAk?$AAa?$AA?$AA@ 000000018002f698     libucrt:lcidtoname_downlevel.obj
 0002:000046a0       ??_C@_15PDNFFFEO@?$AAf?$AAo?$AA?$AA@ 000000018002f6a0     libucrt:lcidtoname_downlevel.obj
 0002:000046a8       ??_C@_15OMLEGLOC@?$AAh?$AAi?$AA?$AA@ 000000018002f6a8     libucrt:lcidtoname_downlevel.obj
 0002:000046b0       ??_C@_15IDNNENKK@?$AAm?$AAs?$AA?$AA@ 000000018002f6b0     libucrt:lcidtoname_downlevel.obj
 0002:000046b8       ??_C@_15MACJNBMH@?$AAk?$AAk?$AA?$AA@ 000000018002f6b8     libucrt:lcidtoname_downlevel.obj
 0002:000046c0       ??_C@_15DKDJEOND@?$AAk?$AAy?$AA?$AA@ 000000018002f6c0     libucrt:lcidtoname_downlevel.obj
 0002:000046c8       ??_C@_15DFGDLJBG@?$AAs?$AAw?$AA?$AA@ 000000018002f6c8     libucrt:lcidtoname_downlevel.obj
 0002:000046d0       ??_C@_15BBFAICNG@?$AAu?$AAz?$AA?$AA@ 000000018002f6d0     libucrt:lcidtoname_downlevel.obj
 0002:000046d8       ??_C@_15DKNDCGEA@?$AAt?$AAt?$AA?$AA@ 000000018002f6d8     libucrt:lcidtoname_downlevel.obj
 0002:000046e0       ??_C@_15MGIFMDPL@?$AAp?$AAa?$AA?$AA@ 000000018002f6e0     libucrt:lcidtoname_downlevel.obj
 0002:000046e8       ??_C@_15HCNDBBA@?$AAg?$AAu?$AA?$AA@ 000000018002f6e8     libucrt:lcidtoname_downlevel.obj
 0002:000046f0       ??_C@_15FNBEIBON@?$AAt?$AAa?$AA?$AA@ 000000018002f6f0     libucrt:lcidtoname_downlevel.obj
 0002:000046f8       ??_C@_15NCHGBGLK@?$AAt?$AAe?$AA?$AA@ 000000018002f6f8     libucrt:lcidtoname_downlevel.obj
 0002:00004700       ??_C@_15PHPHCBPF@?$AAk?$AAn?$AA?$AA@ 000000018002f700     libucrt:lcidtoname_downlevel.obj
 0002:00004708       ??_C@_15DLGBCKMP@?$AAm?$AAr?$AA?$AA@ 000000018002f708     libucrt:lcidtoname_downlevel.obj
 0002:00004710       ??_C@_15EABBLBFF@?$AAs?$AAa?$AA?$AA@ 000000018002f710     libucrt:lcidtoname_downlevel.obj
 0002:00004718       ??_C@_15CBKOMCOI@?$AAm?$AAn?$AA?$AA@ 000000018002f718     libucrt:lcidtoname_downlevel.obj
 0002:00004720       ??_C@_15CKDMCJAF@?$AAg?$AAl?$AA?$AA@ 000000018002f720     libucrt:lcidtoname_downlevel.obj
 0002:00004728       ??_C@_17CNJFBPG@?$AAk?$AAo?$AAk?$AA?$AA@ 000000018002f728     libucrt:lcidtoname_downlevel.obj
 0002:00004730       ??_C@_17FFBJICPL@?$AAs?$AAy?$AAr?$AA?$AA@ 000000018002f730     libucrt:lcidtoname_downlevel.obj
 0002:00004738       ??_C@_17KPNDCPAF@?$AAd?$AAi?$AAv?$AA?$AA@ 000000018002f738     libucrt:lcidtoname_downlevel.obj
 0002:00004740       ??_C@_11LOCGONAA@?$AA?$AA@ 000000018002f740     libucrt:lcidtoname_downlevel.obj
 0002:00004748       ??_C@_1M@OKAHONE@?$AAa?$AAr?$AA?9?$AAS?$AAA?$AA?$AA@ 000000018002f748     libucrt:lcidtoname_downlevel.obj
 0002:00004758       ??_C@_1M@FFFIGIGK@?$AAb?$AAg?$AA?9?$AAB?$AAG?$AA?$AA@ 000000018002f758     libucrt:lcidtoname_downlevel.obj
 0002:00004768       ??_C@_1M@BJNKEDC@?$AAc?$AAa?$AA?9?$AAE?$AAS?$AA?$AA@ 000000018002f768     libucrt:lcidtoname_downlevel.obj
 0002:00004778       ??_C@_1M@IJJHFJHA@?$AAc?$AAs?$AA?9?$AAC?$AAZ?$AA?$AA@ 000000018002f778     libucrt:lcidtoname_downlevel.obj
 0002:00004788       ??_C@_1M@CLPEOBGI@?$AAd?$AAa?$AA?9?$AAD?$AAK?$AA?$AA@ 000000018002f788     libucrt:lcidtoname_downlevel.obj
 0002:00004798       ??_C@_1M@MCMADGCB@?$AAd?$AAe?$AA?9?$AAD?$AAE?$AA?$AA@ 000000018002f798     libucrt:lcidtoname_downlevel.obj
 0002:000047a8       ??_C@_1M@OOCKEMAM@?$AAe?$AAl?$AA?9?$AAG?$AAR?$AA?$AA@ 000000018002f7a8     libucrt:lcidtoname_downlevel.obj
 0002:000047b8       ??_C@_1M@DDNJFGID@?$AAf?$AAi?$AA?9?$AAF?$AAI?$AA?$AA@ 000000018002f7b8     libucrt:lcidtoname_downlevel.obj
 0002:000047c8       ??_C@_1M@GLIPPMAC@?$AAf?$AAr?$AA?9?$AAF?$AAR?$AA?$AA@ 000000018002f7c8     libucrt:lcidtoname_downlevel.obj
 0002:000047d8       ??_C@_1M@GFMCHPE@?$AAh?$AAe?$AA?9?$AAI?$AAL?$AA?$AA@ 000000018002f7d8     libucrt:lcidtoname_downlevel.obj
 0002:000047e8       ??_C@_1M@MHLPGNKM@?$AAh?$AAu?$AA?9?$AAH?$AAU?$AA?$AA@ 000000018002f7e8     libucrt:lcidtoname_downlevel.obj
 0002:000047f8       ??_C@_1M@LPDDNNPN@?$AAi?$AAs?$AA?9?$AAI?$AAS?$AA?$AA@ 000000018002f7f8     libucrt:lcidtoname_downlevel.obj
 0002:00004808       ??_C@_1M@MADIPODN@?$AAi?$AAt?$AA?9?$AAI?$AAT?$AA?$AA@ 000000018002f808     libucrt:lcidtoname_downlevel.obj
 0002:00004818       ??_C@_1M@IHBJJGG@?$AAn?$AAl?$AA?9?$AAN?$AAL?$AA?$AA@ 000000018002f818     libucrt:lcidtoname_downlevel.obj
 0002:00004828       ??_C@_1M@EANAGDL@?$AAn?$AAb?$AA?9?$AAN?$AAO?$AA?$AA@ 000000018002f828     libucrt:lcidtoname_downlevel.obj
 0002:00004838       ??_C@_1M@NEIEMEGP@?$AAp?$AAl?$AA?9?$AAP?$AAL?$AA?$AA@ 000000018002f838     libucrt:lcidtoname_downlevel.obj
 0002:00004848       ??_C@_1M@BOCFIGEP@?$AAp?$AAt?$AA?9?$AAB?$AAR?$AA?$AA@ 000000018002f848     libucrt:lcidtoname_downlevel.obj
 0002:00004858       ??_C@_1M@IMPFOPBG@?$AAr?$AAo?$AA?9?$AAR?$AAO?$AA?$AA@ 000000018002f858     libucrt:lcidtoname_downlevel.obj
 0002:00004868       ??_C@_1M@IDNNEJMM@?$AAr?$AAu?$AA?9?$AAR?$AAU?$AA?$AA@ 000000018002f868     libucrt:lcidtoname_downlevel.obj
 0002:00004878       ??_C@_1M@LILEEOGM@?$AAh?$AAr?$AA?9?$AAH?$AAR?$AA?$AA@ 000000018002f878     libucrt:lcidtoname_downlevel.obj
 0002:00004888       ??_C@_1M@FKIFEHPB@?$AAs?$AAk?$AA?9?$AAS?$AAK?$AA?$AA@ 000000018002f888     libucrt:lcidtoname_downlevel.obj
 0002:00004898       ??_C@_1M@LJMAMNPJ@?$AAs?$AAq?$AA?9?$AAA?$AAL?$AA?$AA@ 000000018002f898     libucrt:lcidtoname_downlevel.obj
 0002:000048a8       ??_C@_1M@GIAKDKJK@?$AAs?$AAv?$AA?9?$AAS?$AAE?$AA?$AA@ 000000018002f8a8     libucrt:lcidtoname_downlevel.obj
 0002:000048b8       ??_C@_1M@MKJKIKCL@?$AAt?$AAh?$AA?9?$AAT?$AAH?$AA?$AA@ 000000018002f8b8     libucrt:lcidtoname_downlevel.obj
 0002:000048c8       ??_C@_1M@MFLCCMPB@?$AAt?$AAr?$AA?9?$AAT?$AAR?$AA?$AA@ 000000018002f8c8     libucrt:lcidtoname_downlevel.obj
 0002:000048d8       ??_C@_1M@OIJHDKJN@?$AAu?$AAr?$AA?9?$AAP?$AAK?$AA?$AA@ 000000018002f8d8     libucrt:lcidtoname_downlevel.obj
 0002:000048e8       ??_C@_1M@LHIPCIEK@?$AAi?$AAd?$AA?9?$AAI?$AAD?$AA?$AA@ 000000018002f8e8     libucrt:lcidtoname_downlevel.obj
 0002:000048f8       ??_C@_1M@MFMOBGI@?$AAu?$AAk?$AA?9?$AAU?$AAA?$AA?$AA@ 000000018002f8f8     libucrt:lcidtoname_downlevel.obj
 0002:00004908       ??_C@_1M@OBGLJIPL@?$AAb?$AAe?$AA?9?$AAB?$AAY?$AA?$AA@ 000000018002f908     libucrt:lcidtoname_downlevel.obj
 0002:00004918       ??_C@_1M@BCFAJEAD@?$AAs?$AAl?$AA?9?$AAS?$AAI?$AA?$AA@ 000000018002f918     libucrt:lcidtoname_downlevel.obj
 0002:00004928       ??_C@_1M@FKFFEDDN@?$AAe?$AAt?$AA?9?$AAE?$AAE?$AA?$AA@ 000000018002f928     libucrt:lcidtoname_downlevel.obj
 0002:00004938       ??_C@_1M@KGKKAACI@?$AAl?$AAv?$AA?9?$AAL?$AAV?$AA?$AA@ 000000018002f938     libucrt:lcidtoname_downlevel.obj
 0002:00004948       ??_C@_1M@IFGBIJO@?$AAl?$AAt?$AA?9?$AAL?$AAT?$AA?$AA@ 000000018002f948     libucrt:lcidtoname_downlevel.obj
 0002:00004958       ??_C@_1M@FGEAHEDM@?$AAf?$AAa?$AA?9?$AAI?$AAR?$AA?$AA@ 000000018002f958     libucrt:lcidtoname_downlevel.obj
 0002:00004968       ??_C@_1M@KBMAIBFN@?$AAv?$AAi?$AA?9?$AAV?$AAN?$AA?$AA@ 000000018002f968     libucrt:lcidtoname_downlevel.obj
 0002:00004978       ??_C@_1M@GPCBKDJK@?$AAh?$AAy?$AA?9?$AAA?$AAM?$AA?$AA@ 000000018002f978     libucrt:lcidtoname_downlevel.obj
 0002:00004988       ??_C@_1BG@BECMDDJB@?$AAa?$AAz?$AA?9?$AAA?$AAZ?$AA?9?$AAL?$AAa?$AAt?$AAn?$AA?$AA@ 000000018002f988     libucrt:lcidtoname_downlevel.obj
 0002:000049a0       ??_C@_1M@MAOFCAEA@?$AAe?$AAu?$AA?9?$AAE?$AAS?$AA?$AA@ 000000018002f9a0     libucrt:lcidtoname_downlevel.obj
 0002:000049b0       ??_C@_1M@IGHABKPI@?$AAm?$AAk?$AA?9?$AAM?$AAK?$AA?$AA@ 000000018002f9b0     libucrt:lcidtoname_downlevel.obj
 0002:000049c0       ??_C@_1M@IAIGNEJG@?$AAt?$AAn?$AA?9?$AAZ?$AAA?$AA?$AA@ 000000018002f9c0     libucrt:lcidtoname_downlevel.obj
 0002:000049d0       ??_C@_1M@IIJCOJFA@?$AAx?$AAh?$AA?9?$AAZ?$AAA?$AA?$AA@ 000000018002f9d0     libucrt:lcidtoname_downlevel.obj
 0002:000049e0       ??_C@_1M@LGPJHNJH@?$AAz?$AAu?$AA?9?$AAZ?$AAA?$AA?$AA@ 000000018002f9e0     libucrt:lcidtoname_downlevel.obj
 0002:000049f0       ??_C@_1M@HOKAOIO@?$AAa?$AAf?$AA?9?$AAZ?$AAA?$AA?$AA@ 000000018002f9f0     libucrt:lcidtoname_downlevel.obj
 0002:00004a00       ??_C@_1M@DPCLHLIE@?$AAk?$AAa?$AA?9?$AAG?$AAE?$AA?$AA@ 000000018002fa00     libucrt:lcidtoname_downlevel.obj
 0002:00004a10       ??_C@_1M@BLKMHJBI@?$AAf?$AAo?$AA?9?$AAF?$AAO?$AA?$AA@ 000000018002fa10     libucrt:lcidtoname_downlevel.obj
 0002:00004a20       ??_C@_1M@LGGJAPPB@?$AAh?$AAi?$AA?9?$AAI?$AAN?$AA?$AA@ 000000018002fa20     libucrt:lcidtoname_downlevel.obj
 0002:00004a30       ??_C@_1M@FIKPIHFE@?$AAm?$AAt?$AA?9?$AAM?$AAT?$AA?$AA@ 000000018002fa30     libucrt:lcidtoname_downlevel.obj
 0002:00004a40       ??_C@_1M@HEGGPBFA@?$AAs?$AAe?$AA?9?$AAN?$AAO?$AA?$AA@ 000000018002fa40     libucrt:lcidtoname_downlevel.obj
 0002:00004a50       ??_C@_1M@EIBJEEPA@?$AAm?$AAs?$AA?9?$AAM?$AAY?$AA?$AA@ 000000018002fa50     libucrt:lcidtoname_downlevel.obj
 0002:00004a60       ??_C@_1M@FHLBGMPP@?$AAk?$AAk?$AA?9?$AAK?$AAZ?$AA?$AA@ 000000018002fa60     libucrt:lcidtoname_downlevel.obj
 0002:00004a70       ??_C@_1M@NGJJLCGI@?$AAk?$AAy?$AA?9?$AAK?$AAG?$AA?$AA@ 000000018002fa70     libucrt:lcidtoname_downlevel.obj
 0002:00004a80       ??_C@_1M@GIENNBFC@?$AAs?$AAw?$AA?9?$AAK?$AAE?$AA?$AA@ 000000018002fa80     libucrt:lcidtoname_downlevel.obj
 0002:00004a90       ??_C@_1BG@NDGMJIMJ@?$AAu?$AAz?$AA?9?$AAU?$AAZ?$AA?9?$AAL?$AAa?$AAt?$AAn?$AA?$AA@ 000000018002fa90     libucrt:lcidtoname_downlevel.obj
 0002:00004aa8       ??_C@_1M@IDCCIHBC@?$AAt?$AAt?$AA?9?$AAR?$AAU?$AA?$AA@ 000000018002faa8     libucrt:lcidtoname_downlevel.obj
 0002:00004ab8       ??_C@_1M@LOICPMOJ@?$AAb?$AAn?$AA?9?$AAI?$AAN?$AA?$AA@ 000000018002fab8     libucrt:lcidtoname_downlevel.obj
 0002:00004ac8       ??_C@_1M@KPKKNEAH@?$AAp?$AAa?$AA?9?$AAI?$AAN?$AA?$AA@ 000000018002fac8     libucrt:lcidtoname_downlevel.obj
 0002:00004ad8       ??_C@_1M@PJGPPBOG@?$AAg?$AAu?$AA?9?$AAI?$AAN?$AA?$AA@ 000000018002fad8     libucrt:lcidtoname_downlevel.obj
 0002:00004ae8       ??_C@_1M@KMKMOPHI@?$AAt?$AAa?$AA?9?$AAI?$AAN?$AA?$AA@ 000000018002fae8     libucrt:lcidtoname_downlevel.obj
 0002:00004af8       ??_C@_1M@KFEHEPAC@?$AAt?$AAe?$AA?9?$AAI?$AAN?$AA?$AA@ 000000018002faf8     libucrt:lcidtoname_downlevel.obj
 0002:00004b08       ??_C@_1M@CDCLMGHI@?$AAk?$AAn?$AA?9?$AAI?$AAN?$AA?$AA@ 000000018002fb08     libucrt:lcidtoname_downlevel.obj
 0002:00004b18       ??_C@_1M@MIODLDKF@?$AAm?$AAl?$AA?9?$AAI?$AAN?$AA?$AA@ 000000018002fb18     libucrt:lcidtoname_downlevel.obj
 0002:00004b28       ??_C@_1M@PBIEACPO@?$AAm?$AAr?$AA?9?$AAI?$AAN?$AA?$AA@ 000000018002fb28     libucrt:lcidtoname_downlevel.obj
 0002:00004b38       ??_C@_1M@NIDEAGPH@?$AAs?$AAa?$AA?9?$AAI?$AAN?$AA?$AA@ 000000018002fb38     libucrt:lcidtoname_downlevel.obj
 0002:00004b48       ??_C@_1M@FHIHCBIO@?$AAm?$AAn?$AA?9?$AAM?$AAN?$AA?$AA@ 000000018002fb48     libucrt:lcidtoname_downlevel.obj
 0002:00004b58       ??_C@_1M@JAIJPENP@?$AAc?$AAy?$AA?9?$AAG?$AAB?$AA?$AA@ 000000018002fb58     libucrt:lcidtoname_downlevel.obj
 0002:00004b68       ??_C@_1M@PHGFBEPN@?$AAg?$AAl?$AA?9?$AAE?$AAS?$AA?$AA@ 000000018002fb68     libucrt:lcidtoname_downlevel.obj
 0002:00004b78       ??_C@_1O@KPIPDNCP@?$AAk?$AAo?$AAk?$AA?9?$AAI?$AAN?$AA?$AA@ 000000018002fb78     libucrt:lcidtoname_downlevel.obj
 0002:00004b88       ??_C@_1O@KNHJLDJA@?$AAs?$AAy?$AAr?$AA?9?$AAS?$AAY?$AA?$AA@ 000000018002fb88     libucrt:lcidtoname_downlevel.obj
 0002:00004b98       ??_C@_1O@MKEKBLAH@?$AAd?$AAi?$AAv?$AA?9?$AAM?$AAV?$AA?$AA@ 000000018002fb98     libucrt:lcidtoname_downlevel.obj
 0002:00004ba8       ??_C@_1O@OHDCKDDF@?$AAq?$AAu?$AAz?$AA?9?$AAB?$AAO?$AA?$AA@ 000000018002fba8     libucrt:lcidtoname_downlevel.obj
 0002:00004bb8       ??_C@_1M@LEPJNLFD@?$AAn?$AAs?$AA?9?$AAZ?$AAA?$AA?$AA@ 000000018002fbb8     libucrt:lcidtoname_downlevel.obj
 0002:00004bc8       ??_C@_1M@OMLEIIJB@?$AAm?$AAi?$AA?9?$AAN?$AAZ?$AA?$AA@ 000000018002fbc8     libucrt:lcidtoname_downlevel.obj
 0002:00004bd8       ??_C@_1M@PMPEAILG@?$AAa?$AAr?$AA?9?$AAI?$AAQ?$AA?$AA@ 000000018002fbd8     libucrt:lcidtoname_downlevel.obj
 0002:00004be8       ??_C@_1M@CNKPNOEE@?$AAd?$AAe?$AA?9?$AAC?$AAH?$AA?$AA@ 000000018002fbe8     libucrt:lcidtoname_downlevel.obj
 0002:00004bf8       ??_C@_1M@LKMGMLKO@?$AAe?$AAn?$AA?9?$AAG?$AAB?$AA?$AA@ 000000018002fbf8     libucrt:lcidtoname_downlevel.obj
 0002:00004c08       ??_C@_1M@PGKJFFGL@?$AAe?$AAs?$AA?9?$AAM?$AAX?$AA?$AA@ 000000018002fc08     libucrt:lcidtoname_downlevel.obj
 0002:00004c18       ??_C@_1M@DNNANBDC@?$AAf?$AAr?$AA?9?$AAB?$AAE?$AA?$AA@ 000000018002fc18     libucrt:lcidtoname_downlevel.obj
 0002:00004c28       ??_C@_1M@HLGMDFHM@?$AAi?$AAt?$AA?9?$AAC?$AAH?$AA?$AA@ 000000018002fc28     libucrt:lcidtoname_downlevel.obj
 0002:00004c38       ??_C@_1M@CLLBGJH@?$AAn?$AAl?$AA?9?$AAB?$AAE?$AA?$AA@ 000000018002fc38     libucrt:lcidtoname_downlevel.obj
 0002:00004c48       ??_C@_1M@BODBOGLF@?$AAn?$AAn?$AA?9?$AAN?$AAO?$AA?$AA@ 000000018002fc48     libucrt:lcidtoname_downlevel.obj
 0002:00004c58       ??_C@_1M@HFFAHKAD@?$AAp?$AAt?$AA?9?$AAP?$AAT?$AA?$AA@ 000000018002fc58     libucrt:lcidtoname_downlevel.obj
 0002:00004c68       ??_C@_1BG@LNOAKHIE@?$AAs?$AAr?$AA?9?$AAS?$AAP?$AA?9?$AAL?$AAa?$AAt?$AAn?$AA?$AA@ 000000018002fc68     libucrt:lcidtoname_downlevel.obj
 0002:00004c80       ??_C@_1M@HBMHBGAK@?$AAs?$AAv?$AA?9?$AAF?$AAI?$AA?$AA@ 000000018002fc80     libucrt:lcidtoname_downlevel.obj
 0002:00004c90       ??_C@_1BG@DGCJGJBE@?$AAa?$AAz?$AA?9?$AAA?$AAZ?$AA?9?$AAC?$AAy?$AAr?$AAl?$AA?$AA@ 000000018002fc90     libucrt:lcidtoname_downlevel.obj
 0002:00004ca8       ??_C@_1M@KEJDAAHB@?$AAs?$AAe?$AA?9?$AAS?$AAE?$AA?$AA@ 000000018002fca8     libucrt:lcidtoname_downlevel.obj
 0002:00004cb8       ??_C@_1M@HEIBJJAD@?$AAm?$AAs?$AA?9?$AAB?$AAN?$AA?$AA@ 000000018002fcb8     libucrt:lcidtoname_downlevel.obj
 0002:00004cc8       ??_C@_1BG@PBGJMCEM@?$AAu?$AAz?$AA?9?$AAU?$AAZ?$AA?9?$AAC?$AAy?$AAr?$AAl?$AA?$AA@ 000000018002fcc8     libucrt:lcidtoname_downlevel.obj
 0002:00004ce0       ??_C@_1O@LAOBCMDF@?$AAq?$AAu?$AAz?$AA?9?$AAE?$AAC?$AA?$AA@ 000000018002fce0     libucrt:lcidtoname_downlevel.obj
 0002:00004cf0       ??_C@_1M@POEEMAIO@?$AAa?$AAr?$AA?9?$AAE?$AAG?$AA?$AA@ 000000018002fcf0     libucrt:lcidtoname_downlevel.obj
 0002:00004d00       ??_C@_1M@EFAKDEDL@?$AAz?$AAh?$AA?9?$AAH?$AAK?$AA?$AA@ 000000018002fd00     libucrt:lcidtoname_downlevel.obj
 0002:00004d10       ??_C@_1M@HKKIJHGI@?$AAd?$AAe?$AA?9?$AAA?$AAT?$AA?$AA@ 000000018002fd10     libucrt:lcidtoname_downlevel.obj
 0002:00004d20       ??_C@_1M@KBFBEHJF@?$AAe?$AAn?$AA?9?$AAA?$AAU?$AA?$AA@ 000000018002fd20     libucrt:lcidtoname_downlevel.obj
 0002:00004d30       ??_C@_1M@MNPLFAAH@?$AAe?$AAs?$AA?9?$AAE?$AAS?$AA?$AA@ 000000018002fd30     libucrt:lcidtoname_downlevel.obj
 0002:00004d40       ??_C@_1M@HJOOJFMA@?$AAf?$AAr?$AA?9?$AAC?$AAA?$AA?$AA@ 000000018002fd40     libucrt:lcidtoname_downlevel.obj
 0002:00004d50       ??_C@_1BG@JPOFPNAB@?$AAs?$AAr?$AA?9?$AAS?$AAP?$AA?9?$AAC?$AAy?$AAr?$AAl?$AA?$AA@ 000000018002fd50     libucrt:lcidtoname_downlevel.obj
 0002:00004d68       ??_C@_1M@LNFOCMOB@?$AAs?$AAe?$AA?9?$AAF?$AAI?$AA?$AA@ 000000018002fd68     libucrt:lcidtoname_downlevel.obj
 0002:00004d78       ??_C@_1O@MGJBOAMB@?$AAq?$AAu?$AAz?$AA?9?$AAP?$AAE?$AA?$AA@ 000000018002fd78     libucrt:lcidtoname_downlevel.obj
 0002:00004d88       ??_C@_1M@GJINLBOK@?$AAa?$AAr?$AA?9?$AAL?$AAY?$AA?$AA@ 000000018002fd88     libucrt:lcidtoname_downlevel.obj
 0002:00004d98       ??_C@_1M@GGMNHJNL@?$AAz?$AAh?$AA?9?$AAS?$AAG?$AA?$AA@ 000000018002fd98     libucrt:lcidtoname_downlevel.obj
 0002:00004da8       ??_C@_1M@HOIKODND@?$AAd?$AAe?$AA?9?$AAL?$AAU?$AA?$AA@ 000000018002fda8     libucrt:lcidtoname_downlevel.obj
 0002:00004db8       ??_C@_1M@DDOCCGFG@?$AAe?$AAn?$AA?9?$AAC?$AAA?$AA?$AA@ 000000018002fdb8     libucrt:lcidtoname_downlevel.obj
 0002:00004dc8       ??_C@_1M@BNOEMJLF@?$AAe?$AAs?$AA?9?$AAG?$AAT?$AA?$AA@ 000000018002fdc8     libucrt:lcidtoname_downlevel.obj
 0002:00004dd8       ??_C@_1M@EOGNKEK@?$AAf?$AAr?$AA?9?$AAC?$AAH?$AA?$AA@ 000000018002fdd8     libucrt:lcidtoname_downlevel.obj
 0002:00004de8       ??_C@_1M@FLIDJFHL@?$AAh?$AAr?$AA?9?$AAB?$AAA?$AA?$AA@ 000000018002fde8     libucrt:lcidtoname_downlevel.obj
 0002:00004df8       ??_C@_1O@FMCELNAJ@?$AAs?$AAm?$AAj?$AA?9?$AAN?$AAO?$AA?$AA@ 000000018002fdf8     libucrt:lcidtoname_downlevel.obj
 0002:00004e08       ??_C@_1M@JHGLJMGJ@?$AAa?$AAr?$AA?9?$AAD?$AAZ?$AA?$AA@ 000000018002fe08     libucrt:lcidtoname_downlevel.obj
 0002:00004e18       ??_C@_1M@JKKFDCNP@?$AAz?$AAh?$AA?9?$AAM?$AAO?$AA?$AA@ 000000018002fe18     libucrt:lcidtoname_downlevel.obj
 0002:00004e28       ??_C@_1M@GEEFALPE@?$AAd?$AAe?$AA?9?$AAL?$AAI?$AA?$AA@ 000000018002fe28     libucrt:lcidtoname_downlevel.obj
 0002:00004e38       ??_C@_1M@IGEOFBG@?$AAe?$AAn?$AA?9?$AAN?$AAZ?$AA?$AA@ 000000018002fe38     libucrt:lcidtoname_downlevel.obj
 0002:00004e48       ??_C@_1M@KDBONEHP@?$AAe?$AAs?$AA?9?$AAC?$AAR?$AA?$AA@ 000000018002fe48     libucrt:lcidtoname_downlevel.obj
 0002:00004e58       ??_C@_1M@FHMDOHNN@?$AAf?$AAr?$AA?9?$AAL?$AAU?$AA?$AA@ 000000018002fe58     libucrt:lcidtoname_downlevel.obj
 0002:00004e68       ??_C@_1BG@NFKKMAFG@?$AAb?$AAs?$AA?9?$AAB?$AAA?$AA?9?$AAL?$AAa?$AAt?$AAn?$AA?$AA@ 000000018002fe68     libucrt:lcidtoname_downlevel.obj
 0002:00004e80       ??_C@_1O@IMNBEMCI@?$AAs?$AAm?$AAj?$AA?9?$AAS?$AAE?$AA?$AA@ 000000018002fe80     libucrt:lcidtoname_downlevel.obj
 0002:00004e90       ??_C@_1M@DHHMBNDP@?$AAa?$AAr?$AA?9?$AAM?$AAA?$AA?$AA@ 000000018002fe90     libucrt:lcidtoname_downlevel.obj
 0002:00004ea0       ??_C@_1M@BNBLJCGH@?$AAe?$AAn?$AA?9?$AAI?$AAE?$AA?$AA@ 000000018002fea0     libucrt:lcidtoname_downlevel.obj
 0002:00004eb0       ??_C@_1M@GEPAFMDL@?$AAe?$AAs?$AA?9?$AAP?$AAA?$AA?$AA@ 000000018002feb0     libucrt:lcidtoname_downlevel.obj
 0002:00004ec0       ??_C@_1M@OJONDMDL@?$AAf?$AAr?$AA?9?$AAM?$AAC?$AA?$AA@ 000000018002fec0     libucrt:lcidtoname_downlevel.obj
 0002:00004ed0       ??_C@_1BG@OBCNFJB@?$AAs?$AAr?$AA?9?$AAB?$AAA?$AA?9?$AAL?$AAa?$AAt?$AAn?$AA?$AA@ 000000018002fed0     libucrt:lcidtoname_downlevel.obj
 0002:00004ee8       ??_C@_1O@KEMEEGPO@?$AAs?$AAm?$AAa?$AA?9?$AAN?$AAO?$AA?$AA@ 000000018002fee8     libucrt:lcidtoname_downlevel.obj
 0002:00004ef8       ??_C@_1M@ELMGFODK@?$AAa?$AAr?$AA?9?$AAT?$AAN?$AA?$AA@ 000000018002fef8     libucrt:lcidtoname_downlevel.obj
 0002:00004f08       ??_C@_1M@BHDLHFAF@?$AAe?$AAn?$AA?9?$AAZ?$AAA?$AA?$AA@ 000000018002ff08     libucrt:lcidtoname_downlevel.obj
 0002:00004f18       ??_C@_1M@BMGIGLIF@?$AAe?$AAs?$AA?9?$AAD?$AAO?$AA?$AA@ 000000018002ff18     libucrt:lcidtoname_downlevel.obj
 0002:00004f28       ??_C@_1BG@CMBHIPBE@?$AAs?$AAr?$AA?9?$AAB?$AAA?$AA?9?$AAC?$AAy?$AAr?$AAl?$AA?$AA@ 000000018002ff28     libucrt:lcidtoname_downlevel.obj
 0002:00004f40       ??_C@_1O@HEDBLHNP@?$AAs?$AAm?$AAa?$AA?9?$AAS?$AAE?$AA?$AA@ 000000018002ff40     libucrt:lcidtoname_downlevel.obj
 0002:00004f50       ??_C@_1M@DAGCADIM@?$AAa?$AAr?$AA?9?$AAO?$AAM?$AA?$AA@ 000000018002ff50     libucrt:lcidtoname_downlevel.obj
 0002:00004f60       ??_C@_1M@FODLMICG@?$AAe?$AAn?$AA?9?$AAJ?$AAM?$AA?$AA@ 000000018002ff60     libucrt:lcidtoname_downlevel.obj
 0002:00004f70       ??_C@_1M@DNMLCIHB@?$AAe?$AAs?$AA?9?$AAV?$AAE?$AA?$AA@ 000000018002ff70     libucrt:lcidtoname_downlevel.obj
 0002:00004f80       ??_C@_1O@EOKHMKJK@?$AAs?$AAm?$AAs?$AA?9?$AAF?$AAI?$AA?$AA@ 000000018002ff80     libucrt:lcidtoname_downlevel.obj
 0002:00004f90       ??_C@_1M@CAFJMKOF@?$AAa?$AAr?$AA?9?$AAY?$AAE?$AA?$AA@ 000000018002ff90     libucrt:lcidtoname_downlevel.obj
 0002:00004fa0       ??_C@_1M@CBFHIJLI@?$AAe?$AAn?$AA?9?$AAC?$AAB?$AA?$AA@ 000000018002ffa0     libucrt:lcidtoname_downlevel.obj
 0002:00004fb0       ??_C@_1M@BGNFLDN@?$AAe?$AAs?$AA?9?$AAC?$AAO?$AA?$AA@ 000000018002ffb0     libucrt:lcidtoname_downlevel.obj
 0002:00004fc0       ??_C@_1O@JMPHMAMC@?$AAs?$AAm?$AAn?$AA?9?$AAF?$AAI?$AA?$AA@ 000000018002ffc0     libucrt:lcidtoname_downlevel.obj
 0002:00004fd0       ??_C@_1M@JLANABKE@?$AAa?$AAr?$AA?9?$AAS?$AAY?$AA?$AA@ 000000018002ffd0     libucrt:lcidtoname_downlevel.obj
 0002:00004fe0       ??_C@_1M@HPKGCFGN@?$AAe?$AAn?$AA?9?$AAB?$AAZ?$AA?$AA@ 000000018002ffe0     libucrt:lcidtoname_downlevel.obj
 0002:00004ff0       ??_C@_1M@OLJCMLGM@?$AAe?$AAs?$AA?9?$AAP?$AAE?$AA?$AA@ 000000018002fff0     libucrt:lcidtoname_downlevel.obj
 0002:00005000       ??_C@_1M@MKKGFKLE@?$AAa?$AAr?$AA?9?$AAJ?$AAO?$AA?$AA@ 0000000180030000     libucrt:lcidtoname_downlevel.obj
 0002:00005010       ??_C@_1M@EKPGLDNI@?$AAe?$AAn?$AA?9?$AAT?$AAT?$AA?$AA@ 0000000180030010     libucrt:lcidtoname_downlevel.obj
 0002:00005020       ??_C@_1M@OONGHFHE@?$AAe?$AAs?$AA?9?$AAA?$AAR?$AA?$AA@ 0000000180030020     libucrt:lcidtoname_downlevel.obj
 0002:00005030       ??_C@_1M@OOJFGBHE@?$AAa?$AAr?$AA?9?$AAL?$AAB?$AA?$AA@ 0000000180030030     libucrt:lcidtoname_downlevel.obj
 0002:00005040       ??_C@_1M@GCEJHNEG@?$AAe?$AAn?$AA?9?$AAZ?$AAW?$AA?$AA@ 0000000180030040     libucrt:lcidtoname_downlevel.obj
 0002:00005050       ??_C@_1M@JNOCAHJI@?$AAe?$AAs?$AA?9?$AAE?$AAC?$AA?$AA@ 0000000180030050     libucrt:lcidtoname_downlevel.obj
 0002:00005060       ??_C@_1M@JEFHPGGB@?$AAa?$AAr?$AA?9?$AAK?$AAW?$AA?$AA@ 0000000180030060     libucrt:lcidtoname_downlevel.obj
 0002:00005070       ??_C@_1M@MLKIBJOJ@?$AAe?$AAn?$AA?9?$AAP?$AAH?$AA?$AA@ 0000000180030070     libucrt:lcidtoname_downlevel.obj
 0002:00005080       ??_C@_1M@BDNIPEND@?$AAe?$AAs?$AA?9?$AAC?$AAL?$AA?$AA@ 0000000180030080     libucrt:lcidtoname_downlevel.obj
 0002:00005090       ??_C@_1M@MPNMEKBD@?$AAa?$AAr?$AA?9?$AAA?$AAE?$AA?$AA@ 0000000180030090     libucrt:lcidtoname_downlevel.obj
 0002:000050a0       ??_C@_1M@KBJALCPI@?$AAe?$AAs?$AA?9?$AAU?$AAY?$AA?$AA@ 00000001800300a0     libucrt:lcidtoname_downlevel.obj
 0002:000050b0       ??_C@_1M@LLCCOAGA@?$AAa?$AAr?$AA?9?$AAB?$AAH?$AA?$AA@ 00000001800300b0     libucrt:lcidtoname_downlevel.obj
 0002:000050c0       ??_C@_1M@PBFNCDEL@?$AAe?$AAs?$AA?9?$AAP?$AAY?$AA?$AA@ 00000001800300c0     libucrt:lcidtoname_downlevel.obj
 0002:000050d0       ??_C@_1M@EDGINPNP@?$AAa?$AAr?$AA?9?$AAQ?$AAA?$AA?$AA@ 00000001800300d0     libucrt:lcidtoname_downlevel.obj
 0002:000050e0       ??_C@_1M@MKDBIIJI@?$AAe?$AAs?$AA?9?$AAB?$AAO?$AA?$AA@ 00000001800300e0     libucrt:lcidtoname_downlevel.obj
 0002:000050f0       ??_C@_1M@CPKKEBLD@?$AAe?$AAs?$AA?9?$AAS?$AAV?$AA?$AA@ 00000001800300f0     libucrt:lcidtoname_downlevel.obj
 0002:00005100       ??_C@_1M@NDBGMMJL@?$AAe?$AAs?$AA?9?$AAH?$AAN?$AA?$AA@ 0000000180030100     libucrt:lcidtoname_downlevel.obj
 0002:00005110       ??_C@_1M@JIJIBHDP@?$AAe?$AAs?$AA?9?$AAN?$AAI?$AA?$AA@ 0000000180030110     libucrt:lcidtoname_downlevel.obj
 0002:00005120       ??_C@_1M@CGFMKEEK@?$AAe?$AAs?$AA?9?$AAP?$AAR?$AA?$AA@ 0000000180030120     libucrt:lcidtoname_downlevel.obj
 0002:00005130       ??_C@_1O@ICJHKIIK@?$AAz?$AAh?$AA?9?$AAC?$AAH?$AAT?$AA?$AA@ 0000000180030130     libucrt:lcidtoname_downlevel.obj
 0002:00005140       ??_C@_15CLNEJCE@?$AAs?$AAr?$AA?$AA@ 0000000180030140     libucrt:lcidtoname_downlevel.obj
 0002:00005f90       ??_C@_1M@KAHEKEIG@?$AAa?$AAf?$AA?9?$AAz?$AAa?$AA?$AA@ 0000000180030f90     libucrt:lcidtoname_downlevel.obj
 0002:00005fa0       ??_C@_1M@GIECOABL@?$AAa?$AAr?$AA?9?$AAa?$AAe?$AA?$AA@ 0000000180030fa0     libucrt:lcidtoname_downlevel.obj
 0002:00005fb0       ??_C@_1M@BMLMEKGI@?$AAa?$AAr?$AA?9?$AAb?$AAh?$AA?$AA@ 0000000180030fb0     libucrt:lcidtoname_downlevel.obj
 0002:00005fc0       ??_C@_1M@DAPFDGGB@?$AAa?$AAr?$AA?9?$AAd?$AAz?$AA?$AA@ 0000000180030fc0     libucrt:lcidtoname_downlevel.obj
 0002:00005fd0       ??_C@_1M@FJNKGKIG@?$AAa?$AAr?$AA?9?$AAe?$AAg?$AA?$AA@ 0000000180030fd0     libucrt:lcidtoname_downlevel.obj
 0002:00005fe0       ??_C@_1M@FLGKKCLO@?$AAa?$AAr?$AA?9?$AAi?$AAq?$AA?$AA@ 0000000180030fe0     libucrt:lcidtoname_downlevel.obj
 0002:00005ff0       ??_C@_1M@GNDIPALM@?$AAa?$AAr?$AA?9?$AAj?$AAo?$AA?$AA@ 0000000180030ff0     libucrt:lcidtoname_downlevel.obj
 0002:00006000       ??_C@_1M@DDMJFMGJ@?$AAa?$AAr?$AA?9?$AAk?$AAw?$AA?$AA@ 0000000180031000     libucrt:lcidtoname_downlevel.obj
 0002:00006010       ??_C@_1M@EJALMLHM@?$AAa?$AAr?$AA?9?$AAl?$AAb?$AA?$AA@ 0000000180031010     libucrt:lcidtoname_downlevel.obj
 0002:00006020       ??_C@_1M@MOBDBLOC@?$AAa?$AAr?$AA?9?$AAl?$AAy?$AA?$AA@ 0000000180031020     libucrt:lcidtoname_downlevel.obj
 0002:00006030       ??_C@_1M@JAOCLHDH@?$AAa?$AAr?$AA?9?$AAm?$AAa?$AA?$AA@ 0000000180031030     libucrt:lcidtoname_downlevel.obj
 0002:00006040       ??_C@_1M@JHPMKJIE@?$AAa?$AAr?$AA?9?$AAo?$AAm?$AA?$AA@ 0000000180031040     libucrt:lcidtoname_downlevel.obj
 0002:00006050       ??_C@_1M@OEPGHFNH@?$AAa?$AAr?$AA?9?$AAq?$AAa?$AA?$AA@ 0000000180031050     libucrt:lcidtoname_downlevel.obj
 0002:00006060       ??_C@_1M@KJDONENM@?$AAa?$AAr?$AA?9?$AAs?$AAa?$AA?$AA@ 0000000180031060     libucrt:lcidtoname_downlevel.obj
 0002:00006070       ??_C@_1M@DMJDKLKM@?$AAa?$AAr?$AA?9?$AAs?$AAy?$AA?$AA@ 0000000180031070     libucrt:lcidtoname_downlevel.obj
 0002:00006080       ??_C@_1M@OMFIPEDC@?$AAa?$AAr?$AA?9?$AAt?$AAn?$AA?$AA@ 0000000180031080     libucrt:lcidtoname_downlevel.obj
 0002:00006090       ??_C@_1M@IHMHGAON@?$AAa?$AAr?$AA?9?$AAy?$AAe?$AA?$AA@ 0000000180031090     libucrt:lcidtoname_downlevel.obj
 0002:000060a0       ??_C@_1BG@KDCPGJGB@?$AAa?$AAz?$AA?9?$AAa?$AAz?$AA?9?$AAc?$AAy?$AAr?$AAl?$AA?$AA@ 00000001800310a0     libucrt:lcidtoname_downlevel.obj
 0002:000060b8       ??_C@_1BG@IBCKDDOE@?$AAa?$AAz?$AA?9?$AAa?$AAz?$AA?9?$AAl?$AAa?$AAt?$AAn?$AA?$AA@ 00000001800310b8     libucrt:lcidtoname_downlevel.obj
 0002:000060d0       ??_C@_1M@EGPFDCPD@?$AAb?$AAe?$AA?9?$AAb?$AAy?$AA?$AA@ 00000001800310d0     libucrt:lcidtoname_downlevel.obj
 0002:000060e0       ??_C@_1M@PCMGMCGC@?$AAb?$AAg?$AA?9?$AAb?$AAg?$AA?$AA@ 00000001800310e0     libucrt:lcidtoname_downlevel.obj
 0002:000060f0       ??_C@_1M@BJBMFGOB@?$AAb?$AAn?$AA?9?$AAi?$AAn?$AA?$AA@ 00000001800310f0     libucrt:lcidtoname_downlevel.obj
 0002:00006100       ??_C@_1BG@EAKMMACD@?$AAb?$AAs?$AA?9?$AAb?$AAa?$AA?9?$AAl?$AAa?$AAt?$AAn?$AA?$AA@ 0000000180031100     libucrt:lcidtoname_downlevel.obj
 0002:00006118       ??_C@_1M@KGADAODK@?$AAc?$AAa?$AA?9?$AAe?$AAs?$AA?$AA@ 0000000180031118     libucrt:lcidtoname_downlevel.obj
 0002:00006128       ??_C@_1M@COAJPDHI@?$AAc?$AAs?$AA?9?$AAc?$AAz?$AA?$AA@ 0000000180031128     libucrt:lcidtoname_downlevel.obj
 0002:00006138       ??_C@_1M@DHBHFONH@?$AAc?$AAy?$AA?9?$AAg?$AAb?$AA?$AA@ 0000000180031138     libucrt:lcidtoname_downlevel.obj
 0002:00006148       ??_C@_1M@IMGKELGA@?$AAd?$AAa?$AA?9?$AAd?$AAk?$AA?$AA@ 0000000180031148     libucrt:lcidtoname_downlevel.obj
 0002:00006158       ??_C@_1M@NNDGDNGA@?$AAd?$AAe?$AA?9?$AAa?$AAt?$AA?$AA@ 0000000180031158     libucrt:lcidtoname_downlevel.obj
 0002:00006168       ??_C@_1M@IKDBHEEM@?$AAd?$AAe?$AA?9?$AAc?$AAh?$AA?$AA@ 0000000180031168     libucrt:lcidtoname_downlevel.obj
 0002:00006178       ??_C@_1M@GFFOJMCJ@?$AAd?$AAe?$AA?9?$AAd?$AAe?$AA?$AA@ 0000000180031178     libucrt:lcidtoname_downlevel.obj
 0002:00006188       ??_C@_1M@MDNLKBPM@?$AAd?$AAe?$AA?9?$AAl?$AAi?$AA?$AA@ 0000000180031188     libucrt:lcidtoname_downlevel.obj
 0002:00006198       ??_C@_1M@NJBEEJNL@?$AAd?$AAe?$AA?9?$AAl?$AAu?$AA?$AA@ 0000000180031198     libucrt:lcidtoname_downlevel.obj
 0002:000061a8       ??_C@_1O@GNNELBAP@?$AAd?$AAi?$AAv?$AA?9?$AAm?$AAv?$AA?$AA@ 00000001800311a8     libucrt:lcidtoname_downlevel.obj
 0002:000061b8       ??_C@_1M@EJLEOGAE@?$AAe?$AAl?$AA?9?$AAg?$AAr?$AA?$AA@ 00000001800311b8     libucrt:lcidtoname_downlevel.obj
 0002:000061c8       ??_C@_1M@GMPONJN@?$AAe?$AAn?$AA?9?$AAa?$AAu?$AA?$AA@ 00000001800311c8     libucrt:lcidtoname_downlevel.obj
 0002:000061d8       ??_C@_1M@NIDIIPGF@?$AAe?$AAn?$AA?9?$AAb?$AAz?$AA?$AA@ 00000001800311d8     libucrt:lcidtoname_downlevel.obj
 0002:000061e8       ??_C@_1M@JEHMIMFO@?$AAe?$AAn?$AA?9?$AAc?$AAa?$AA?$AA@ 00000001800311e8     libucrt:lcidtoname_downlevel.obj
 0002:000061f8       ??_C@_1M@IGMJCDLA@?$AAe?$AAn?$AA?9?$AAc?$AAb?$AA?$AA@ 00000001800311f8     libucrt:lcidtoname_downlevel.obj
 0002:00006208       ??_C@_1M@BNFIGBKG@?$AAe?$AAn?$AA?9?$AAg?$AAb?$AA?$AA@ 0000000180031208     libucrt:lcidtoname_downlevel.obj
 0002:00006218       ??_C@_1M@LKIFDIGP@?$AAe?$AAn?$AA?9?$AAi?$AAe?$AA?$AA@ 0000000180031218     libucrt:lcidtoname_downlevel.obj
 0002:00006228       ??_C@_1M@PJKFGCCO@?$AAe?$AAn?$AA?9?$AAj?$AAm?$AA?$AA@ 0000000180031228     libucrt:lcidtoname_downlevel.obj
 0002:00006238       ??_C@_1M@KPPKEPBO@?$AAe?$AAn?$AA?9?$AAn?$AAz?$AA?$AA@ 0000000180031238     libucrt:lcidtoname_downlevel.obj
 0002:00006248       ??_C@_1M@GMDGLDOB@?$AAe?$AAn?$AA?9?$AAp?$AAh?$AA?$AA@ 0000000180031248     libucrt:lcidtoname_downlevel.obj
 0002:00006258       ??_C@_1M@ONGIBJNA@?$AAe?$AAn?$AA?9?$AAt?$AAt?$AA?$AA@ 0000000180031258     libucrt:lcidtoname_downlevel.obj
 0002:00006268       ??_C@_1M@LLODPCMM@?$AAe?$AAn?$AA?9?$AAu?$AAs?$AA?$AA@ 0000000180031268     libucrt:lcidtoname_downlevel.obj
 0002:00006278       ??_C@_1M@LAKFNPAN@?$AAe?$AAn?$AA?9?$AAz?$AAa?$AA?$AA@ 0000000180031278     libucrt:lcidtoname_downlevel.obj
 0002:00006288       ??_C@_1M@MFNHNHEO@?$AAe?$AAn?$AA?9?$AAz?$AAw?$AA?$AA@ 0000000180031288     libucrt:lcidtoname_downlevel.obj
 0002:00006298       ??_C@_1M@EJEINPHM@?$AAe?$AAs?$AA?9?$AAa?$AAr?$AA?$AA@ 0000000180031298     libucrt:lcidtoname_downlevel.obj
 0002:000062a8       ??_C@_1M@GNKPCCJA@?$AAe?$AAs?$AA?9?$AAb?$AAo?$AA?$AA@ 00000001800312a8     libucrt:lcidtoname_downlevel.obj
 0002:000062b8       ??_C@_1M@LEEGFONL@?$AAe?$AAs?$AA?9?$AAc?$AAl?$AA?$AA@ 00000001800312b8     libucrt:lcidtoname_downlevel.obj
 0002:000062c8       ??_C@_1M@KGPDPBDF@?$AAe?$AAs?$AA?9?$AAc?$AAo?$AA?$AA@ 00000001800312c8     libucrt:lcidtoname_downlevel.obj
 0002:000062d8       ??_C@_1M@EIAHOHH@?$AAe?$AAs?$AA?9?$AAc?$AAr?$AA?$AA@ 00000001800312d8     libucrt:lcidtoname_downlevel.obj
 0002:000062e8       ??_C@_1M@LLPGMBIN@?$AAe?$AAs?$AA?9?$AAd?$AAo?$AA?$AA@ 00000001800312e8     libucrt:lcidtoname_downlevel.obj
 0002:000062f8       ??_C@_1M@DKHMKNJA@?$AAe?$AAs?$AA?9?$AAe?$AAc?$AA?$AA@ 00000001800312f8     libucrt:lcidtoname_downlevel.obj
 0002:00006308       ??_C@_1M@GKGFPKAP@?$AAe?$AAs?$AA?9?$AAe?$AAs?$AA?$AA@ 0000000180031308     libucrt:lcidtoname_downlevel.obj
 0002:00006318       ??_C@_1M@LKHKGDLN@?$AAe?$AAs?$AA?9?$AAg?$AAt?$AA?$AA@ 0000000180031318     libucrt:lcidtoname_downlevel.obj
 0002:00006328       ??_C@_1M@HEIIGGJD@?$AAe?$AAs?$AA?9?$AAh?$AAn?$AA?$AA@ 0000000180031328     libucrt:lcidtoname_downlevel.obj
 0002:00006338       ??_C@_1M@FBDHPPGD@?$AAe?$AAs?$AA?9?$AAm?$AAx?$AA?$AA@ 0000000180031338     libucrt:lcidtoname_downlevel.obj
 0002:00006348       ??_C@_1M@DPAGLNDH@?$AAe?$AAs?$AA?9?$AAn?$AAi?$AA?$AA@ 0000000180031348     libucrt:lcidtoname_downlevel.obj
 0002:00006358       ??_C@_1M@MDGOPGDD@?$AAe?$AAs?$AA?9?$AAp?$AAa?$AA?$AA@ 0000000180031358     libucrt:lcidtoname_downlevel.obj
 0002:00006368       ??_C@_1M@EMAMGBGE@?$AAe?$AAs?$AA?9?$AAp?$AAe?$AA?$AA@ 0000000180031368     libucrt:lcidtoname_downlevel.obj
 0002:00006378       ??_C@_1M@IBMCAOEC@?$AAe?$AAs?$AA?9?$AAp?$AAr?$AA?$AA@ 0000000180031378     libucrt:lcidtoname_downlevel.obj
 0002:00006388       ??_C@_1M@FGMDIJED@?$AAe?$AAs?$AA?9?$AAp?$AAy?$AA?$AA@ 0000000180031388     libucrt:lcidtoname_downlevel.obj
 0002:00006398       ??_C@_1M@IIDEOLLL@?$AAe?$AAs?$AA?9?$AAs?$AAv?$AA?$AA@ 0000000180031398     libucrt:lcidtoname_downlevel.obj
 0002:000063a8       ??_C@_1M@GAOBIPA@?$AAe?$AAs?$AA?9?$AAu?$AAy?$AA?$AA@ 00000001800313a8     libucrt:lcidtoname_downlevel.obj
 0002:000063b8       ??_C@_1M@JKFFICHJ@?$AAe?$AAs?$AA?9?$AAv?$AAe?$AA?$AA@ 00000001800313b8     libucrt:lcidtoname_downlevel.obj
 0002:000063c8       ??_C@_1M@PNMLOJDF@?$AAe?$AAt?$AA?9?$AAe?$AAe?$AA?$AA@ 00000001800313c8     libucrt:lcidtoname_downlevel.obj
 0002:000063d8       ??_C@_1M@GHHLIKEI@?$AAe?$AAu?$AA?9?$AAe?$AAs?$AA?$AA@ 00000001800313d8     libucrt:lcidtoname_downlevel.obj
 0002:000063e8       ??_C@_1M@PBNONODE@?$AAf?$AAa?$AA?9?$AAi?$AAr?$AA?$AA@ 00000001800313e8     libucrt:lcidtoname_downlevel.obj
 0002:000063f8       ??_C@_1M@JEEHPMIL@?$AAf?$AAi?$AA?9?$AAf?$AAi?$AA?$AA@ 00000001800313f8     libucrt:lcidtoname_downlevel.obj
 0002:00006408       ??_C@_1M@LMDCNDBA@?$AAf?$AAo?$AA?9?$AAf?$AAo?$AA?$AA@ 0000000180031408     libucrt:lcidtoname_downlevel.obj
 0002:00006418       ??_C@_1M@JKEOHLDK@?$AAf?$AAr?$AA?9?$AAb?$AAe?$AA?$AA@ 0000000180031418     libucrt:lcidtoname_downlevel.obj
 0002:00006428       ??_C@_1M@NOHADPMI@?$AAf?$AAr?$AA?9?$AAc?$AAa?$AA?$AA@ 0000000180031428     libucrt:lcidtoname_downlevel.obj
 0002:00006438       ??_C@_1M@KDHIHAEC@?$AAf?$AAr?$AA?9?$AAc?$AAh?$AA?$AA@ 0000000180031438     libucrt:lcidtoname_downlevel.obj
 0002:00006448       ??_C@_1M@MMBBFGAK@?$AAf?$AAr?$AA?9?$AAf?$AAr?$AA?$AA@ 0000000180031448     libucrt:lcidtoname_downlevel.obj
 0002:00006458       ??_C@_1M@PAFNENNF@?$AAf?$AAr?$AA?9?$AAl?$AAu?$AA?$AA@ 0000000180031458     libucrt:lcidtoname_downlevel.obj
 0002:00006468       ??_C@_1M@EOHDJGDD@?$AAf?$AAr?$AA?9?$AAm?$AAc?$AA?$AA@ 0000000180031468     libucrt:lcidtoname_downlevel.obj
 0002:00006478       ??_C@_1M@FAPLLOPF@?$AAg?$AAl?$AA?9?$AAe?$AAs?$AA?$AA@ 0000000180031478     libucrt:lcidtoname_downlevel.obj
 0002:00006488       ??_C@_1M@FOPBFLOO@?$AAg?$AAu?$AA?9?$AAi?$AAn?$AA?$AA@ 0000000180031488     libucrt:lcidtoname_downlevel.obj
 0002:00006498       ??_C@_1M@KBMCINPM@?$AAh?$AAe?$AA?9?$AAi?$AAl?$AA?$AA@ 0000000180031498     libucrt:lcidtoname_downlevel.obj
 0002:000064a8       ??_C@_1M@BBPHKFPJ@?$AAh?$AAi?$AA?9?$AAi?$AAn?$AA?$AA@ 00000001800314a8     libucrt:lcidtoname_downlevel.obj
 0002:000064b8       ??_C@_1M@PMBNDPHD@?$AAh?$AAr?$AA?9?$AAb?$AAa?$AA?$AA@ 00000001800314b8     libucrt:lcidtoname_downlevel.obj
 0002:000064c8       ??_C@_1M@BPCKOEGE@?$AAh?$AAr?$AA?9?$AAh?$AAr?$AA?$AA@ 00000001800314c8     libucrt:lcidtoname_downlevel.obj
 0002:000064d8       ??_C@_1M@GACBMHKE@?$AAh?$AAu?$AA?9?$AAh?$AAu?$AA?$AA@ 00000001800314d8     libucrt:lcidtoname_downlevel.obj
 0002:000064e8       ??_C@_1M@MILPAJJC@?$AAh?$AAy?$AA?9?$AAa?$AAm?$AA?$AA@ 00000001800314e8     libucrt:lcidtoname_downlevel.obj
 0002:000064f8       ??_C@_1M@BABBICEC@?$AAi?$AAd?$AA?9?$AAi?$AAd?$AA?$AA@ 00000001800314f8     libucrt:lcidtoname_downlevel.obj
 0002:00006508       ??_C@_1M@BIKNHHPF@?$AAi?$AAs?$AA?9?$AAi?$AAs?$AA?$AA@ 0000000180031508     libucrt:lcidtoname_downlevel.obj
 0002:00006518       ??_C@_1M@NMPCJPHE@?$AAi?$AAt?$AA?9?$AAc?$AAh?$AA?$AA@ 0000000180031518     libucrt:lcidtoname_downlevel.obj
 0002:00006528       ??_C@_1M@GHKGFEDF@?$AAi?$AAt?$AA?9?$AAi?$AAt?$AA?$AA@ 0000000180031528     libucrt:lcidtoname_downlevel.obj
 0002:00006538       ??_C@_1M@NIEJCJJA@?$AAj?$AAa?$AA?9?$AAj?$AAp?$AA?$AA@ 0000000180031538     libucrt:lcidtoname_downlevel.obj
 0002:00006548       ??_C@_1M@JILFNBIM@?$AAk?$AAa?$AA?9?$AAg?$AAe?$AA?$AA@ 0000000180031548     libucrt:lcidtoname_downlevel.obj
 0002:00006558       ??_C@_1M@PACPMGPH@?$AAk?$AAk?$AA?9?$AAk?$AAz?$AA?$AA@ 0000000180031558     libucrt:lcidtoname_downlevel.obj
 0002:00006568       ??_C@_1M@IELFGMHA@?$AAk?$AAn?$AA?9?$AAi?$AAn?$AA?$AA@ 0000000180031568     libucrt:lcidtoname_downlevel.obj
 0002:00006578       ??_C@_1O@IBBJHCH@?$AAk?$AAo?$AAk?$AA?9?$AAi?$AAn?$AA?$AA@ 0000000180031578     libucrt:lcidtoname_downlevel.obj
 0002:00006588       ??_C@_1M@DMHAEOGC@?$AAk?$AAo?$AA?9?$AAk?$AAr?$AA?$AA@ 0000000180031588     libucrt:lcidtoname_downlevel.obj
 0002:00006598       ??_C@_1M@HBAHBIGA@?$AAk?$AAy?$AA?9?$AAk?$AAg?$AA?$AA@ 0000000180031598     libucrt:lcidtoname_downlevel.obj
 0002:000065a8       ??_C@_1M@KPMILCJG@?$AAl?$AAt?$AA?9?$AAl?$AAt?$AA?$AA@ 00000001800315a8     libucrt:lcidtoname_downlevel.obj
 0002:000065b8       ??_C@_1M@BDEKKCA@?$AAl?$AAv?$AA?9?$AAl?$AAv?$AA?$AA@ 00000001800315b8     libucrt:lcidtoname_downlevel.obj
 0002:000065c8       ??_C@_1M@ELCKCCJJ@?$AAm?$AAi?$AA?9?$AAn?$AAz?$AA?$AA@ 00000001800315c8     libucrt:lcidtoname_downlevel.obj
 0002:000065d8       ??_C@_1M@CBOOLAPA@?$AAm?$AAk?$AA?9?$AAm?$AAk?$AA?$AA@ 00000001800315d8     libucrt:lcidtoname_downlevel.obj
 0002:000065e8       ??_C@_1M@GPHNBJKN@?$AAm?$AAl?$AA?9?$AAi?$AAn?$AA?$AA@ 00000001800315e8     libucrt:lcidtoname_downlevel.obj
 0002:000065f8       ??_C@_1M@PABJILIG@?$AAm?$AAn?$AA?9?$AAm?$AAn?$AA?$AA@ 00000001800315f8     libucrt:lcidtoname_downlevel.obj
 0002:00006608       ??_C@_1M@FGBKKIPG@?$AAm?$AAr?$AA?9?$AAi?$AAn?$AA?$AA@ 0000000180031608     libucrt:lcidtoname_downlevel.obj
 0002:00006618       ??_C@_1M@NDBPDDAL@?$AAm?$AAs?$AA?9?$AAb?$AAn?$AA?$AA@ 0000000180031618     libucrt:lcidtoname_downlevel.obj
 0002:00006628       ??_C@_1M@OPIHOOPI@?$AAm?$AAs?$AA?9?$AAm?$AAy?$AA?$AA@ 0000000180031628     libucrt:lcidtoname_downlevel.obj
 0002:00006638       ??_C@_1M@PPDBCNFM@?$AAm?$AAt?$AA?9?$AAm?$AAt?$AA?$AA@ 0000000180031638     libucrt:lcidtoname_downlevel.obj
 0002:00006648       ??_C@_1M@KDJDKMDD@?$AAn?$AAb?$AA?9?$AAn?$AAo?$AA?$AA@ 0000000180031648     libucrt:lcidtoname_downlevel.obj
 0002:00006658       ??_C@_1M@KFCFLMJP@?$AAn?$AAl?$AA?9?$AAb?$AAe?$AA?$AA@ 0000000180031658     libucrt:lcidtoname_downlevel.obj
 0002:00006668       ??_C@_1M@KPOPDDGO@?$AAn?$AAl?$AA?9?$AAn?$AAl?$AA?$AA@ 0000000180031668     libucrt:lcidtoname_downlevel.obj
 0002:00006678       ??_C@_1M@LJKPEMLN@?$AAn?$AAn?$AA?9?$AAn?$AAo?$AA?$AA@ 0000000180031678     libucrt:lcidtoname_downlevel.obj
 0002:00006688       ??_C@_1M@BDGHHBFL@?$AAn?$AAs?$AA?9?$AAz?$AAa?$AA?$AA@ 0000000180031688     libucrt:lcidtoname_downlevel.obj
 0002:00006698       ??_C@_1M@IDEHOAP@?$AAp?$AAa?$AA?9?$AAi?$AAn?$AA?$AA@ 0000000180031698     libucrt:lcidtoname_downlevel.obj
 0002:000066a8       ??_C@_1M@HDBKGOGH@?$AAp?$AAl?$AA?9?$AAp?$AAl?$AA?$AA@ 00000001800316a8     libucrt:lcidtoname_downlevel.obj
 0002:000066b8       ??_C@_1M@LJLLCMEH@?$AAp?$AAt?$AA?9?$AAb?$AAr?$AA?$AA@ 00000001800316b8     libucrt:lcidtoname_downlevel.obj
 0002:000066c8       ??_C@_1M@NCMONAAL@?$AAp?$AAt?$AA?9?$AAp?$AAt?$AA?$AA@ 00000001800316c8     libucrt:lcidtoname_downlevel.obj
 0002:000066d8       ??_C@_1O@EAKMAJDN@?$AAq?$AAu?$AAz?$AA?9?$AAb?$AAo?$AA?$AA@ 00000001800316d8     libucrt:lcidtoname_downlevel.obj
 0002:000066e8       ??_C@_1O@BHHPIGDN@?$AAq?$AAu?$AAz?$AA?9?$AAe?$AAc?$AA?$AA@ 00000001800316e8     libucrt:lcidtoname_downlevel.obj
 0002:000066f8       ??_C@_1O@GBAPEKMJ@?$AAq?$AAu?$AAz?$AA?9?$AAp?$AAe?$AA?$AA@ 00000001800316f8     libucrt:lcidtoname_downlevel.obj
 0002:00006708       ??_C@_1M@CLGLEFBO@?$AAr?$AAo?$AA?9?$AAr?$AAo?$AA?$AA@ 0000000180031708     libucrt:lcidtoname_downlevel.obj
 0002:00006718       ??_C@_1M@CEEDODME@?$AAr?$AAu?$AA?9?$AAr?$AAu?$AA?$AA@ 0000000180031718     libucrt:lcidtoname_downlevel.obj
 0002:00006728       ??_C@_1M@HPKKKMPP@?$AAs?$AAa?$AA?9?$AAi?$AAn?$AA?$AA@ 0000000180031728     libucrt:lcidtoname_downlevel.obj
 0002:00006738       ??_C@_1M@BKMAIGOJ@?$AAs?$AAe?$AA?9?$AAf?$AAi?$AA?$AA@ 0000000180031738     libucrt:lcidtoname_downlevel.obj
 0002:00006748       ??_C@_1M@NDPIFLFI@?$AAs?$AAe?$AA?9?$AAn?$AAo?$AA?$AA@ 0000000180031748     libucrt:lcidtoname_downlevel.obj
 0002:00006758       ??_C@_1M@DANKKHJ@?$AAs?$AAe?$AA?9?$AAs?$AAe?$AA?$AA@ 0000000180031758     libucrt:lcidtoname_downlevel.obj
 0002:00006768       ??_C@_1M@PNBLONPJ@?$AAs?$AAk?$AA?9?$AAs?$AAk?$AA?$AA@ 0000000180031768     libucrt:lcidtoname_downlevel.obj
 0002:00006778       ??_C@_1M@LFMODOAL@?$AAs?$AAl?$AA?9?$AAs?$AAi?$AA?$AA@ 0000000180031778     libucrt:lcidtoname_downlevel.obj
 0002:00006788       ??_C@_1O@DFKOMPG@?$AAs?$AAm?$AAa?$AA?9?$AAn?$AAo?$AA?$AA@ 0000000180031788     libucrt:lcidtoname_downlevel.obj
 0002:00006798       ??_C@_1O@NDKPBNNH@?$AAs?$AAm?$AAa?$AA?9?$AAs?$AAe?$AA?$AA@ 0000000180031798     libucrt:lcidtoname_downlevel.obj
 0002:000067a8       ??_C@_1O@PLLKBHAB@?$AAs?$AAm?$AAj?$AA?9?$AAn?$AAo?$AA?$AA@ 00000001800317a8     libucrt:lcidtoname_downlevel.obj
 0002:000067b8       ??_C@_1O@CLEPOGCA@?$AAs?$AAm?$AAj?$AA?9?$AAs?$AAe?$AA?$AA@ 00000001800317b8     libucrt:lcidtoname_downlevel.obj
 0002:000067c8       ??_C@_1O@DLGJGKMK@?$AAs?$AAm?$AAn?$AA?9?$AAf?$AAi?$AA?$AA@ 00000001800317c8     libucrt:lcidtoname_downlevel.obj
 0002:000067d8       ??_C@_1O@OJDJGAJC@?$AAs?$AAm?$AAs?$AA?9?$AAf?$AAi?$AA?$AA@ 00000001800317d8     libucrt:lcidtoname_downlevel.obj
 0002:000067e8       ??_C@_1M@BOFOGHPB@?$AAs?$AAq?$AA?9?$AAa?$AAl?$AA?$AA@ 00000001800317e8     libucrt:lcidtoname_downlevel.obj
 0002:000067f8       ??_C@_1BG@LJBBIPGB@?$AAs?$AAr?$AA?9?$AAb?$AAa?$AA?9?$AAc?$AAy?$AAr?$AAl?$AA?$AA@ 00000001800317f8     libucrt:lcidtoname_downlevel.obj
 0002:00006810       ??_C@_1BG@JLBENFOE@?$AAs?$AAr?$AA?9?$AAb?$AAa?$AA?9?$AAl?$AAa?$AAt?$AAn?$AA?$AA@ 0000000180031810     libucrt:lcidtoname_downlevel.obj
 0002:00006828       ??_C@_1BG@KODPNHE@?$AAs?$AAr?$AA?9?$AAs?$AAp?$AA?9?$AAc?$AAy?$AAr?$AAl?$AA?$AA@ 0000000180031828     libucrt:lcidtoname_downlevel.obj
 0002:00006840       ??_C@_1BG@CIOGKHPB@?$AAs?$AAr?$AA?9?$AAs?$AAp?$AA?9?$AAl?$AAa?$AAt?$AAn?$AA?$AA@ 0000000180031840     libucrt:lcidtoname_downlevel.obj
 0002:00006858       ??_C@_1M@NGFJLMAC@?$AAs?$AAv?$AA?9?$AAf?$AAi?$AA?$AA@ 0000000180031858     libucrt:lcidtoname_downlevel.obj
 0002:00006868       ??_C@_1M@MPJEJAJC@?$AAs?$AAv?$AA?9?$AAs?$AAe?$AA?$AA@ 0000000180031868     libucrt:lcidtoname_downlevel.obj
 0002:00006878       ??_C@_1M@MPNDHLFK@?$AAs?$AAw?$AA?9?$AAk?$AAe?$AA?$AA@ 0000000180031878     libucrt:lcidtoname_downlevel.obj
 0002:00006888       ??_C@_1O@KOHBJJI@?$AAs?$AAy?$AAr?$AA?9?$AAs?$AAy?$AA?$AA@ 0000000180031888     libucrt:lcidtoname_downlevel.obj
 0002:00006898       ??_C@_1M@LDCEFHA@?$AAt?$AAa?$AA?9?$AAi?$AAn?$AA?$AA@ 0000000180031898     libucrt:lcidtoname_downlevel.obj
 0002:000068a8       ??_C@_1M@CNJOFAK@?$AAt?$AAe?$AA?9?$AAi?$AAn?$AA?$AA@ 00000001800318a8     libucrt:lcidtoname_downlevel.obj
 0002:000068b8       ??_C@_1M@GNAECACD@?$AAt?$AAh?$AA?9?$AAt?$AAh?$AA?$AA@ 00000001800318b8     libucrt:lcidtoname_downlevel.obj
 0002:000068c8       ??_C@_1M@CHBIHOJO@?$AAt?$AAn?$AA?9?$AAz?$AAa?$AA?$AA@ 00000001800318c8     libucrt:lcidtoname_downlevel.obj
 0002:000068d8       ??_C@_1M@GCCMIGPJ@?$AAt?$AAr?$AA?9?$AAt?$AAr?$AA?$AA@ 00000001800318d8     libucrt:lcidtoname_downlevel.obj
 0002:000068e8       ??_C@_1M@CELMCNBK@?$AAt?$AAt?$AA?9?$AAr?$AAu?$AA?$AA@ 00000001800318e8     libucrt:lcidtoname_downlevel.obj
 0002:000068f8       ??_C@_1M@KLMCELGA@?$AAu?$AAk?$AA?9?$AAu?$AAa?$AA?$AA@ 00000001800318f8     libucrt:lcidtoname_downlevel.obj
 0002:00006908       ??_C@_1M@EPAJJAJF@?$AAu?$AAr?$AA?9?$AAp?$AAk?$AA?$AA@ 0000000180031908     libucrt:lcidtoname_downlevel.obj
 0002:00006918       ??_C@_1BG@GEGPMCDJ@?$AAu?$AAz?$AA?9?$AAu?$AAz?$AA?9?$AAc?$AAy?$AAr?$AAl?$AA?$AA@ 0000000180031918     libucrt:lcidtoname_downlevel.obj
 0002:00006930       ??_C@_1BG@EGGKJILM@?$AAu?$AAz?$AA?9?$AAu?$AAz?$AA?9?$AAl?$AAa?$AAt?$AAn?$AA?$AA@ 0000000180031930     libucrt:lcidtoname_downlevel.obj
 0002:00006948       ??_C@_1M@GFOCLFF@?$AAv?$AAi?$AA?9?$AAv?$AAn?$AA?$AA@ 0000000180031948     libucrt:lcidtoname_downlevel.obj
 0002:00006958       ??_C@_1M@CPAMEDFI@?$AAx?$AAh?$AA?9?$AAz?$AAa?$AA?$AA@ 0000000180031958     libucrt:lcidtoname_downlevel.obj
 0002:00006968       ??_C@_1O@EBKIFIGN@?$AAz?$AAh?$AA?9?$AAc?$AAh?$AAs?$AA?$AA@ 0000000180031968     libucrt:lcidtoname_downlevel.obj
 0002:00006978       ??_C@_1O@NMHPGANE@?$AAz?$AAh?$AA?9?$AAc?$AAh?$AAt?$AA?$AA@ 0000000180031978     libucrt:lcidtoname_downlevel.obj
 0002:00006988       ??_C@_1M@LPINJOMC@?$AAz?$AAh?$AA?9?$AAc?$AAn?$AA?$AA@ 0000000180031988     libucrt:lcidtoname_downlevel.obj
 0002:00006998       ??_C@_1M@OCJEJODD@?$AAz?$AAh?$AA?9?$AAh?$AAk?$AA?$AA@ 0000000180031998     libucrt:lcidtoname_downlevel.obj
 0002:000069a8       ??_C@_1M@DNDLJINH@?$AAz?$AAh?$AA?9?$AAm?$AAo?$AA?$AA@ 00000001800319a8     libucrt:lcidtoname_downlevel.obj
 0002:000069b8       ??_C@_1M@MBFDNDND@?$AAz?$AAh?$AA?9?$AAs?$AAg?$AA?$AA@ 00000001800319b8     libucrt:lcidtoname_downlevel.obj
 0002:000069c8       ??_C@_1M@IMEPLEPE@?$AAz?$AAh?$AA?9?$AAt?$AAw?$AA?$AA@ 00000001800319c8     libucrt:lcidtoname_downlevel.obj
 0002:000069d8       ??_C@_1M@BBGHNHJP@?$AAz?$AAu?$AA?9?$AAz?$AAa?$AA?$AA@ 00000001800319d8     libucrt:lcidtoname_downlevel.obj
 0002:00006c40       __log10_256_lead           0000000180031c40     libucrt:log10_256_lead_tail_table.obj
 0002:00007450       __log10_256_tail           0000000180032450     libucrt:log10_256_lead_tail_table.obj
 0002:00007c60       __log_F_inv_qword          0000000180032c60     libucrt:log_f_inv_qword_table.obj
 0002:00008470       ??_C@_05HGHHAHAP@log10?$AA@ 0000000180033470     libucrt:log_special.obj
 0002:00008478       ??_C@_1BA@BALFACEM@?$AAC?$AAO?$AAN?$AAO?$AAU?$AAT?$AA$?$AA?$AA@ 0000000180033478     libucrt:initcon.obj
 0002:000084a0       ??_C@_0BC@BDKFLDHL@unknown?5exception?$AA@ 00000001800334a0     VError.obj
 0002:000084b4       ??_C@_02LMMGGCAJ@?3?5?$AA@ 00000001800334b4     VError.obj
 0002:000084b8       ??_C@_08LLGCOLLL@iostream?$AA@ 00000001800334b8     VError.obj
 0002:000084c8       ??_C@_0BG@PADBLCHM@iostream?5stream?5error?$AA@ 00000001800334c8     VError.obj
 0002:000084e0       ??_C@_0BF@PHHKMMFD@ios_base?3?3badbit?5set?$AA@ 00000001800334e0     VError.obj
 0002:000084f8       ??_C@_0BG@FMKFHCIL@ios_base?3?3failbit?5set?$AA@ 00000001800334f8     VError.obj
 0002:00008510       ??_C@_0BF@OOHOMBOF@ios_base?3?3eofbit?5set?$AA@ 0000000180033510     VError.obj
 0002:00008528       ??_C@_07CIFAGBMG@unknown?$AA@ 0000000180033528     VError.obj
 0002:00008530       ??_C@_0CO@MDKMFKKK@?$CBnew_vobject?5?$HM?$HM?5VIPS_IS_OBJECT?$CI?5@ 0000000180033530     VError.obj
 0002:00008560       ??_C@_0BH@GOCJPHDF@vips?3?3VObject?3?3VObject?$AA@ 0000000180033560     VError.obj
 0002:00008580       ??_C@_0FN@OHFDPMEA@c?3?2users?2dmitry?2desktop?23k?2?o?q?j?o?2@ 0000000180033580     VError.obj
 0002:000085e0       ??_C@_0BM@LENMHEAB@VIPS_IS_OBJECT?$CI?5a?4vobject?5?$CJ?$AA@ 00000001800335e0     VError.obj
 0002:00008600       ??_C@_0CG@IJKKON@?$CBvobject?5?$HM?$HM?5VIPS_IS_OBJECT?$CI?5vobj@ 0000000180033600     VError.obj
 0002:00008628       ??_C@_0BK@FEDAPFJC@vips?3?3VObject?3?3operator?5?$DN?$AA@ 0000000180033628     VError.obj
 0002:00008648       ??_C@_0CJ@JCMMCJOH@a?4vobject?5?$CG?$CG?5VIPS_IS_OBJECT?$CI?5a?4v@ 0000000180033648     VError.obj
 0002:00008678       ??_C@_0BI@LLDIPMFE@vips?3?3VObject?3?3?$HOVObject?$AA@ 0000000180033678     VError.obj
 0002:00008690       ??_C@_0BK@CFEFMCJG@vips?3?3VObject?3?3get_object?$AA@ 0000000180033690     VError.obj
 0002:000086b0       ??_C@_0BD@OLBABOEK@vector?$DMT?$DO?5too?5long?$AA@ 00000001800336b0     VError.obj
 0002:000086c8       ??_C@_0BA@JFNIOLAK@string?5too?5long?$AA@ 00000001800336c8     VError.obj
 0002:000086d8       ??_C@_0BI@CFPLBAOH@invalid?5string?5position?$AA@ 00000001800336d8     VError.obj
 0002:000086f0       ??_C@_0BB@MOGOBHAF@list?$DMT?$DO?5too?5long?$AA@ 00000001800336f0     VError.obj
 0002:00008708       ??_7error_category@std@@6B@ 0000000180033708     VError.obj
 0002:00008738       ??_7_Iostream_error_category@std@@6B@ 0000000180033738     VError.obj
 0002:00008768       ??_7VError@vips@@6B@       0000000180033768     VError.obj
 0002:00008780       ??_7exception@stdext@@6B@  0000000180033780     VError.obj
 0002:00008798       ??_7_System_error@std@@6B@ 0000000180033798     VError.obj
 0002:00008798       ??_7failure@ios_base@std@@6B@ 0000000180033798     VError.obj
 0002:000087b0       ??_7VOption@vips@@6B@      00000001800337b0     VError.obj
 0002:000087b8       ??_C@_06FHFOAHML@system?$AA@ 00000001800337b8     VImage.obj
 0002:000087c0       ??_C@_02DKCKIIND@?$CFs?$AA@ 00000001800337c0     VImage.obj
 0002:000087c8       ??_C@_08BABJIOEM@filename?$AA@ 00000001800337c8     VImage.obj
 0002:000087d4       ??_C@_03KEJHNBPP@out?$AA@  00000001800337d4     VImage.obj
 0002:000087d8       ??_C@_06HOHPNJLC@buffer?$AA@ 00000001800337d8     VImage.obj
 0002:000087e0       ??_C@_05DPGGGHAJ@bands?$AA@ 00000001800337e0     VImage.obj
 0002:000087e8       ??_C@_06BPBOMFNI@extend?$AA@ 00000001800337e8     VImage.obj
 0002:000087f0       ??_C@_0P@KOMFEOGE@interpretation?$AA@ 00000001800337f0     VImage.obj
 0002:00008800       ??_C@_04HLEHOIAF@xres?$AA@ 0000000180033800     VImage.obj
 0002:00008808       ??_C@_04EGCHMBLF@yres?$AA@ 0000000180033808     VImage.obj
 0002:00008810       ??_C@_07CMIMECFO@xoffset?$AA@ 0000000180033810     VImage.obj
 0002:00008818       ??_C@_07OACGECMA@yoffset?$AA@ 0000000180033818     VImage.obj
 0002:00008820       ??_C@_02LMMGJAGL@in?$AA@   0000000180033820     VImage.obj
 0002:00008828       ??_C@_0L@EDHHNDAB@cmd?9format?$AA@ 0000000180033828     VImage.obj
 0002:00008834       ??_C@_04GOOOJOPP@left?$AA@ 0000000180033834     VImage.obj
 0002:0000883c       ??_C@_05DHJDAOHK@right?$AA@ 000000018003383c     VImage.obj
 0002:00008844       ??_C@_03BDGOHNNK@add?$AA@  0000000180033844     VImage.obj
 0002:00008848       ??_C@_08LJLIHDOM@subtract?$AA@ 0000000180033848     VImage.obj
 0002:00008858       ??_C@_08MMOCDOEL@multiply?$AA@ 0000000180033858     VImage.obj
 0002:00008864       ??_C@_06FFHJEHBN@divide?$AA@ 0000000180033864     VImage.obj
 0002:00008870       ??_C@_0L@NEPEPHDK@relational?$AA@ 0000000180033870     VImage.obj
 0002:00008880       ??_C@_09HALKBBKJ@remainder?$AA@ 0000000180033880     VImage.obj
 0002:00008890       ??_C@_07GOBOHMJA@boolean?$AA@ 0000000180033890     VImage.obj
 0002:00008898       ??_C@_05BBOMOFAH@math2?$AA@ 0000000180033898     VImage.obj
 0002:000088a0       ??_C@_05GMOLPBHC@cmplx?$AA@ 00000001800338a0     VImage.obj
 0002:000088a8       ??_C@_08HDDIDECH@complex2?$AA@ 00000001800338a8     VImage.obj
 0002:000088b8       ??_C@_0M@IHNKDMPF@complexform?$AA@ 00000001800338b8     VImage.obj
 0002:000088c4       ??_C@_03CFFIJAMA@sum?$AA@  00000001800338c4     VImage.obj
 0002:000088c8       ??_C@_06CIAPFFAP@invert?$AA@ 00000001800338c8     VImage.obj
 0002:000088d0       ??_C@_01MCMALHOG@a?$AA@    00000001800338d0     VImage.obj
 0002:000088d4       ??_C@_01OJONOECF@b?$AA@    00000001800338d4     VImage.obj
 0002:000088d8       ??_C@_06HPJICMPM@linear?$AA@ 00000001800338d8     VImage.obj
 0002:000088e0       ??_C@_04CFDJAKFL@math?$AA@ 00000001800338e0     VImage.obj
 0002:000088e8       ??_C@_03BCGAIFPO@abs?$AA@  00000001800338e8     VImage.obj
 0002:000088ec       ??_C@_04HHGHLBPI@sign?$AA@ 00000001800338ec     VImage.obj
 0002:000088f4       ??_C@_05MIMAKCN@round?$AA@ 00000001800338f4     VImage.obj
 0002:000088fc       ??_C@_01PAPGNFGE@c?$AA@    00000001800338fc     VImage.obj
 0002:00008900       ??_C@_0BB@FKPDFKGH@relational_const?$AA@ 0000000180033900     VImage.obj
 0002:00008918       ??_C@_0BA@MDCPNGEH@remainder_const?$AA@ 0000000180033918     VImage.obj
 0002:00008928       ??_C@_0O@FFEJDDPG@boolean_const?$AA@ 0000000180033928     VImage.obj
 0002:00008938       ??_C@_0M@PKPOKBCN@math2_const?$AA@ 0000000180033938     VImage.obj
 0002:00008948       ??_C@_07CMPFPFAH@complex?$AA@ 0000000180033948     VImage.obj
 0002:00008950       ??_C@_03HNAFFKGA@get?$AA@  0000000180033950     VImage.obj
 0002:00008958       ??_C@_0L@CONHPEB@complexget?$AA@ 0000000180033958     VImage.obj
 0002:00008964       ??_C@_03CHOBFJAH@avg?$AA@  0000000180033964     VImage.obj
 0002:00008968       ??_C@_03KLIPLJLL@min?$AA@  0000000180033968     VImage.obj
 0002:0000896c       ??_C@_03LJAEFNNE@max?$AA@  000000018003396c     VImage.obj
 0002:00008970       ??_C@_07JGEDNJHN@deviate?$AA@ 0000000180033970     VImage.obj
 0002:00008978       ??_C@_05BLKJBNOD@stats?$AA@ 0000000180033978     VImage.obj
 0002:00008980       ??_C@_09PKCBEOHG@hist_find?$AA@ 0000000180033980     VImage.obj
 0002:00008990       ??_C@_0P@CCEOOJJO@hist_find_ndim?$AA@ 0000000180033990     VImage.obj
 0002:000089a0       ??_C@_05FKHKFDID@index?$AA@ 00000001800339a0     VImage.obj
 0002:000089a8       ??_C@_0BC@CKAIJALJ@hist_find_indexed?$AA@ 00000001800339a8     VImage.obj
 0002:000089c0       ??_C@_0L@DLDHKKAG@hough_line?$AA@ 00000001800339c0     VImage.obj
 0002:000089d0       ??_C@_0N@EPCNCOFH@hough_circle?$AA@ 00000001800339d0     VImage.obj
 0002:000089e0       ??_C@_07HIFEPIJN@columns?$AA@ 00000001800339e0     VImage.obj
 0002:000089e8       ??_C@_04IMCGAIPI@rows?$AA@ 00000001800339e8     VImage.obj
 0002:000089f0       ??_C@_07GKGAGMNN@project?$AA@ 00000001800339f0     VImage.obj
 0002:000089f8       ??_C@_07LNMDFKEJ@profile?$AA@ 00000001800339f8     VImage.obj
 0002:00008a00       ??_C@_01BDACAMKP@h?$AA@    0000000180033a00     VImage.obj
 0002:00008a04       ??_C@_01MHEDDDHA@v?$AA@    0000000180033a04     VImage.obj
 0002:00008a08       ??_C@_07GGHJMDCM@measure?$AA@ 0000000180033a08     VImage.obj
 0002:00008a10       ??_C@_09DGLJONDH@out?9array?$AA@ 0000000180033a10     VImage.obj
 0002:00008a1c       ??_C@_01FJMABOPO@x?$AA@    0000000180033a1c     VImage.obj
 0002:00008a20       ??_C@_01EANLCPLP@y?$AA@    0000000180033a20     VImage.obj
 0002:00008a28       ??_C@_08POKMFCNH@getpoint?$AA@ 0000000180033a28     VImage.obj
 0002:00008a34       ??_C@_04COAGEIMF@copy?$AA@ 0000000180033a34     VImage.obj
 0002:00008a40       ??_C@_09BADCCNLM@tilecache?$AA@ 0000000180033a40     VImage.obj
 0002:00008a50       ??_C@_09GGGOOLNN@linecache?$AA@ 0000000180033a50     VImage.obj
 0002:00008a60       ??_C@_0L@OGEPILOF@sequential?$AA@ 0000000180033a60     VImage.obj
 0002:00008a6c       ??_C@_05BDNCCAMC@cache?$AA@ 0000000180033a6c     VImage.obj
 0002:00008a74       ??_C@_05IGKADHGO@width?$AA@ 0000000180033a74     VImage.obj
 0002:00008a7c       ??_C@_06LNLHEAAG@height?$AA@ 0000000180033a7c     VImage.obj
 0002:00008a84       ??_C@_05KJAEOLKJ@embed?$AA@ 0000000180033a84     VImage.obj
 0002:00008a90       ??_C@_09HPKLLIJF@direction?$AA@ 0000000180033a90     VImage.obj
 0002:00008a9c       ??_C@_04DGGGELON@flip?$AA@ 0000000180033a9c     VImage.obj
 0002:00008aa4       ??_C@_04GHJNJNPO@main?$AA@ 0000000180033aa4     VImage.obj
 0002:00008aac       ??_C@_03KCMAIMAP@sub?$AA@  0000000180033aac     VImage.obj
 0002:00008ab0       ??_C@_06OAOPNKHP@insert?$AA@ 0000000180033ab0     VImage.obj
 0002:00008ab8       ??_C@_03BMIBHJPC@in1?$AA@  0000000180033ab8     VImage.obj
 0002:00008abc       ??_C@_03DHKMCKDB@in2?$AA@  0000000180033abc     VImage.obj
 0002:00008ac0       ??_C@_04DFGCDGNN@join?$AA@ 0000000180033ac0     VImage.obj
 0002:00008ac8       ??_C@_09BPCDKABO@arrayjoin?$AA@ 0000000180033ac8     VImage.obj
 0002:00008ad4       ??_C@_05DFJCHPDH@input?$AA@ 0000000180033ad4     VImage.obj
 0002:00008adc       ??_C@_03FGFCOCMD@top?$AA@  0000000180033adc     VImage.obj
 0002:00008ae0       ??_C@_0N@NKELEKIM@extract_area?$AA@ 0000000180033ae0     VImage.obj
 0002:00008af0       ??_C@_09CIDCHBHA@smartcrop?$AA@ 0000000180033af0     VImage.obj
 0002:00008afc       ??_C@_04BKGNPECA@band?$AA@ 0000000180033afc     VImage.obj
 0002:00008b08       ??_C@_0N@KOGFNDIJ@extract_band?$AA@ 0000000180033b08     VImage.obj
 0002:00008b18       ??_C@_08DDHBKGJN@bandjoin?$AA@ 0000000180033b18     VImage.obj
 0002:00008b28       ??_C@_0P@CNLDBNGG@bandjoin_const?$AA@ 0000000180033b28     VImage.obj
 0002:00008b38       ??_C@_08PLAGOPCN@bandrank?$AA@ 0000000180033b38     VImage.obj
 0002:00008b48       ??_C@_08OAPPMLFB@bandmean?$AA@ 0000000180033b48     VImage.obj
 0002:00008b58       ??_C@_08DFLKPDGM@bandbool?$AA@ 0000000180033b58     VImage.obj
 0002:00008b64       ??_C@_06HDMALCOC@across?$AA@ 0000000180033b64     VImage.obj
 0002:00008b6c       ??_C@_04JMOKAGMG@down?$AA@ 0000000180033b6c     VImage.obj
 0002:00008b78       ??_C@_09CBPKCNMB@replicate?$AA@ 0000000180033b78     VImage.obj
 0002:00008b84       ??_C@_06DLEPGFEF@format?$AA@ 0000000180033b84     VImage.obj
 0002:00008b8c       ??_C@_04HJDBPPOC@cast?$AA@ 0000000180033b8c     VImage.obj
 0002:00008b94       ??_C@_05FECBCJJD@angle?$AA@ 0000000180033b94     VImage.obj
 0002:00008b9c       ??_C@_03BHFFHIBL@rot?$AA@  0000000180033b9c     VImage.obj
 0002:00008ba0       ??_C@_05HGLLKKDL@rot45?$AA@ 0000000180033ba0     VImage.obj
 0002:00008ba8       ??_C@_07HKPDIIIM@autorot?$AA@ 0000000180033ba8     VImage.obj
 0002:00008bb0       ??_C@_04MHNCKKKD@cond?$AA@ 0000000180033bb0     VImage.obj
 0002:00008bb8       ??_C@_0L@EIDGEPEL@ifthenelse?$AA@ 0000000180033bb8     VImage.obj
 0002:00008bc4       ??_C@_01GOHFPIOK@m?$AA@    0000000180033bc4     VImage.obj
 0002:00008bc8       ??_C@_06OLEOMEPE@recomb?$AA@ 0000000180033bc8     VImage.obj
 0002:00008bd0       ??_C@_08KKFGBPN@bandfold?$AA@ 0000000180033bd0     VImage.obj
 0002:00008be0       ??_C@_0L@NLCAJCCK@bandunfold?$AA@ 0000000180033be0     VImage.obj
 0002:00008bf0       ??_C@_07FOIKENOC@flatten?$AA@ 0000000180033bf0     VImage.obj
 0002:00008bf8       ??_C@_0M@OEPEEJHI@premultiply?$AA@ 0000000180033bf8     VImage.obj
 0002:00008c08       ??_C@_0O@NEEDPNBG@unpremultiply?$AA@ 0000000180033c08     VImage.obj
 0002:00008c18       ??_C@_0M@OIIHBMLD@tile?9height?$AA@ 0000000180033c18     VImage.obj
 0002:00008c24       ??_C@_04JFGOJFKE@grid?$AA@ 0000000180033c24     VImage.obj
 0002:00008c2c       ??_C@_05MHMEBBGO@scale?$AA@ 0000000180033c2c     VImage.obj
 0002:00008c34       ??_C@_04NFDDIEML@wrap?$AA@ 0000000180033c34     VImage.obj
 0002:00008c3c       ??_C@_04OJPHJCEA@xfac?$AA@ 0000000180033c3c     VImage.obj
 0002:00008c44       ??_C@_04NEJHLLPA@yfac?$AA@ 0000000180033c44     VImage.obj
 0002:00008c4c       ??_C@_04HKCCIOCO@zoom?$AA@ 0000000180033c4c     VImage.obj
 0002:00008c58       ??_C@_09GEADCAMB@subsample?$AA@ 0000000180033c58     VImage.obj
 0002:00008c64       ??_C@_03BGILNABB@msb?$AA@  0000000180033c64     VImage.obj
 0002:00008c68       ??_C@_08LGNCHIMC@byteswap?$AA@ 0000000180033c68     VImage.obj
 0002:00008c78       ??_C@_0M@HLKJCLJA@falsecolour?$AA@ 0000000180033c78     VImage.obj
 0002:00008c84       ??_C@_05KDLBCAI@gamma?$AA@ 0000000180033c84     VImage.obj
 0002:00008c8c       ??_C@_05BIMBDNDC@black?$AA@ 0000000180033c8c     VImage.obj
 0002:00008c98       ??_C@_0L@LHFGAHGN@gaussnoise?$AA@ 0000000180033c98     VImage.obj
 0002:00008ca4       ??_C@_04CIMGMMMG@text?$AA@ 0000000180033ca4     VImage.obj
 0002:00008cac       ??_C@_03POMAGKDD@xyz?$AA@  0000000180033cac     VImage.obj
 0002:00008cb0       ??_C@_05MNLBPJCA@sigma?$AA@ 0000000180033cb0     VImage.obj
 0002:00008cb8       ??_C@_08OLGCCKLK@min?9ampl?$AA@ 0000000180033cb8     VImage.obj
 0002:00008cc8       ??_C@_08HLCLIPNO@gaussmat?$AA@ 0000000180033cc8     VImage.obj
 0002:00008cd4       ??_C@_06DHDPCCPJ@logmat?$AA@ 0000000180033cd4     VImage.obj
 0002:00008cdc       ??_C@_03JBOJOLOP@eye?$AA@  0000000180033cdc     VImage.obj
 0002:00008ce0       ??_C@_04GDBIAANM@grey?$AA@ 0000000180033ce0     VImage.obj
 0002:00008ce8       ??_C@_04LDDJGOBB@zone?$AA@ 0000000180033ce8     VImage.obj
 0002:00008cf0       ??_C@_05MGFOJHMB@sines?$AA@ 0000000180033cf0     VImage.obj
 0002:00008cf8       ??_C@_0BB@FMKOBFEN@frequency?9cutoff?$AA@ 0000000180033cf8     VImage.obj
 0002:00008d10       ??_C@_0L@GPMDCNFD@mask_ideal?$AA@ 0000000180033d10     VImage.obj
 0002:00008d20       ??_C@_09FNOEFMAD@ringwidth?$AA@ 0000000180033d20     VImage.obj
 0002:00008d30       ??_C@_0BA@MHGDHMH@mask_ideal_ring?$AA@ 0000000180033d30     VImage.obj
 0002:00008d40       ??_C@_0BD@PPHJKPEA@frequency?9cutoff?9x?$AA@ 0000000180033d40     VImage.obj
 0002:00008d58       ??_C@_0BD@OGGCJOAB@frequency?9cutoff?9y?$AA@ 0000000180033d58     VImage.obj
 0002:00008d6c       ??_C@_06KGHINEPG@radius?$AA@ 0000000180033d6c     VImage.obj
 0002:00008d78       ??_C@_0BA@ICAPNLGJ@mask_ideal_band?$AA@ 0000000180033d78     VImage.obj
 0002:00008d88       ??_C@_05NDNMCCJH@order?$AA@ 0000000180033d88     VImage.obj
 0002:00008d90       ??_C@_0BB@COKDAKHA@amplitude?9cutoff?$AA@ 0000000180033d90     VImage.obj
 0002:00008da8       ??_C@_0BB@PCPOEAAM@mask_butterworth?$AA@ 0000000180033da8     VImage.obj
 0002:00008dc0       ??_C@_0BG@JHCFMCJH@mask_butterworth_ring?$AA@ 0000000180033dc0     VImage.obj
 0002:00008dd8       ??_C@_0BG@BJFMCODJ@mask_butterworth_band?$AA@ 0000000180033dd8     VImage.obj
 0002:00008df0       ??_C@_0O@PDKKOMCP@mask_gaussian?$AA@ 0000000180033df0     VImage.obj
 0002:00008e00       ??_C@_0BD@GEFHIGND@mask_gaussian_ring?$AA@ 0000000180033e00     VImage.obj
 0002:00008e18       ??_C@_0BD@OKCOGKHN@mask_gaussian_band?$AA@ 0000000180033e18     VImage.obj
 0002:00008e30       ??_C@_0BC@INLMDGNG@fractal?9dimension?$AA@ 0000000180033e30     VImage.obj
 0002:00008e48       ??_C@_0N@PNMGGNMD@mask_fractal?$AA@ 0000000180033e48     VImage.obj
 0002:00008e58       ??_C@_08OKOAJEOP@buildlut?$AA@ 0000000180033e58     VImage.obj
 0002:00008e68       ??_C@_09DELGKNGH@invertlut?$AA@ 0000000180033e68     VImage.obj
 0002:00008e78       ??_C@_07MEIMELBF@tonelut?$AA@ 0000000180033e78     VImage.obj
 0002:00008e80       ??_C@_08LBJOIDDC@identity?$AA@ 0000000180033e80     VImage.obj
 0002:00008e90       ??_C@_09KODEALMJ@fractsurf?$AA@ 0000000180033e90     VImage.obj
 0002:00008e9c       ??_C@_06PAPNEDML@worley?$AA@ 0000000180033e9c     VImage.obj
 0002:00008ea4       ??_C@_06JIFICDNB@perlin?$AA@ 0000000180033ea4     VImage.obj
 0002:00008eb0       ??_C@_07LDEBNBAJ@csvload?$AA@ 0000000180033eb0     VImage.obj
 0002:00008eb8       ??_C@_0L@PMHLAKGB@matrixload?$AA@ 0000000180033eb8     VImage.obj
 0002:00008ec8       ??_C@_07DIENLOPO@rawload?$AA@ 0000000180033ec8     VImage.obj
 0002:00008ed0       ??_C@_08EDDGDHHH@vipsload?$AA@ 0000000180033ed0     VImage.obj
 0002:00008ee0       ??_C@_0M@GFDAFAKN@analyzeload?$AA@ 0000000180033ee0     VImage.obj
 0002:00008ef0       ??_C@_07BJIMAPAE@ppmload?$AA@ 0000000180033ef0     VImage.obj
 0002:00008ef8       ??_C@_07LNAPMOML@radload?$AA@ 0000000180033ef8     VImage.obj
 0002:00008f00       ??_C@_07OANKEHBK@pdfload?$AA@ 0000000180033f00     VImage.obj
 0002:00008f08       ??_C@_0P@FECDMHMN@pdfload_buffer?$AA@ 0000000180033f08     VImage.obj
 0002:00008f18       ??_C@_07FFEIBOLL@svgload?$AA@ 0000000180033f18     VImage.obj
 0002:00008f20       ??_C@_0P@BPBEIMPA@svgload_buffer?$AA@ 0000000180033f20     VImage.obj
 0002:00008f30       ??_C@_07PHHDBOOI@gifload?$AA@ 0000000180033f30     VImage.obj
 0002:00008f38       ??_C@_0P@DMLKCHMD@gifload_buffer?$AA@ 0000000180033f38     VImage.obj
 0002:00008f48       ??_C@_07IPPGMLPB@pngload?$AA@ 0000000180033f48     VImage.obj
 0002:00008f50       ??_C@_0P@FLICMEND@pngload_buffer?$AA@ 0000000180033f50     VImage.obj
 0002:00008f60       ??_C@_07BLECOPNH@matload?$AA@ 0000000180033f60     VImage.obj
 0002:00008f68       ??_C@_08MHJHFPPG@jpegload?$AA@ 0000000180033f68     VImage.obj
 0002:00008f78       ??_C@_0BA@OCCAIACH@jpegload_buffer?$AA@ 0000000180033f78     VImage.obj
 0002:00008f88       ??_C@_08HFDHMJDC@webpload?$AA@ 0000000180033f88     VImage.obj
 0002:00008f98       ??_C@_0BA@NGBBNHGG@webpload_buffer?$AA@ 0000000180033f98     VImage.obj
 0002:00008fa8       ??_C@_08DKNFCFCN@tiffload?$AA@ 0000000180033fa8     VImage.obj
 0002:00008fb8       ??_C@_0BA@LHGCDMGM@tiffload_buffer?$AA@ 0000000180033fb8     VImage.obj
 0002:00008fc8       ??_C@_0O@MEOEBEEM@openslideload?$AA@ 0000000180033fc8     VImage.obj
 0002:00008fd8       ??_C@_0L@GJNFHGND@magickload?$AA@ 0000000180033fd8     VImage.obj
 0002:00008fe8       ??_C@_0BC@NAIBKHPN@magickload_buffer?$AA@ 0000000180033fe8     VImage.obj
 0002:00009000       ??_C@_08BLLJFBBF@fitsload?$AA@ 0000000180034000     VImage.obj
 0002:00009010       ??_C@_0M@PFMEODOM@openexrload?$AA@ 0000000180034010     VImage.obj
 0002:00009020       ??_C@_07LBFMCCNN@csvsave?$AA@ 0000000180034020     VImage.obj
 0002:00009028       ??_C@_0L@POGGPJLF@matrixsave?$AA@ 0000000180034028     VImage.obj
 0002:00009038       ??_C@_0M@FFFNKKNM@matrixprint?$AA@ 0000000180034038     VImage.obj
 0002:00009048       ??_C@_07DKFAENCK@rawsave?$AA@ 0000000180034048     VImage.obj
 0002:00009050       ??_C@_02ENHFDPNM@fd?$AA@   0000000180034050     VImage.obj
 0002:00009058       ??_C@_0L@MFMDKFHF@rawsave_fd?$AA@ 0000000180034058     VImage.obj
 0002:00009068       ??_C@_08EBCLMEKD@vipssave?$AA@ 0000000180034068     VImage.obj
 0002:00009078       ??_C@_07BLJBPMNA@ppmsave?$AA@ 0000000180034078     VImage.obj
 0002:00009080       ??_C@_07LPBCDNBP@radsave?$AA@ 0000000180034080     VImage.obj
 0002:00009088       ??_C@_0P@OGKJHKCD@radsave_buffer?$AA@ 0000000180034088     VImage.obj
 0002:00009098       ??_C@_06MCMNOHKJ@dzsave?$AA@ 0000000180034098     VImage.obj
 0002:000090a0       ??_C@_0O@IEFJKPDJ@dzsave_buffer?$AA@ 00000001800340a0     VImage.obj
 0002:000090b0       ??_C@_07INOLDICF@pngsave?$AA@ 00000001800340b0     VImage.obj
 0002:000090b8       ??_C@_0P@KFHBBDIK@pngsave_buffer?$AA@ 00000001800340b8     VImage.obj
 0002:000090c8       ??_C@_08MFIKKMCC@jpegsave?$AA@ 00000001800340c8     VImage.obj
 0002:000090d8       ??_C@_0BA@BMNDFHHO@jpegsave_buffer?$AA@ 00000001800340d8     VImage.obj
 0002:000090e8       ??_C@_0O@GEECBBEC@jpegsave_mime?$AA@ 00000001800340e8     VImage.obj
 0002:000090f8       ??_C@_08HHCKDKOG@webpsave?$AA@ 00000001800340f8     VImage.obj
 0002:00009108       ??_C@_0BA@CIOCAADP@webpsave_buffer?$AA@ 0000000180034108     VImage.obj
 0002:00009118       ??_C@_08DIMINGPJ@tiffsave?$AA@ 0000000180034118     VImage.obj
 0002:00009128       ??_C@_0BA@EJJBOLDF@tiffsave_buffer?$AA@ 0000000180034128     VImage.obj
 0002:00009138       ??_C@_08BJKEKCMB@fitssave?$AA@ 0000000180034138     VImage.obj
 0002:00009148       ??_C@_09GEFHAABJ@thumbnail?$AA@ 0000000180034148     VImage.obj
 0002:00009158       ??_C@_0BB@FMNLLCML@thumbnail_buffer?$AA@ 0000000180034158     VImage.obj
 0002:0000916c       ??_C@_05KCGPFJPM@mapim?$AA@ 000000018003416c     VImage.obj
 0002:00009178       ??_C@_07KBIIIDHJ@hshrink?$AA@ 0000000180034178     VImage.obj
 0002:00009180       ??_C@_07MILJKAGA@vshrink?$AA@ 0000000180034180     VImage.obj
 0002:00009188       ??_C@_06FKMIDIGA@shrink?$AA@ 0000000180034188     VImage.obj
 0002:00009190       ??_C@_07OAMMEIMP@shrinkh?$AA@ 0000000180034190     VImage.obj
 0002:00009198       ??_C@_07DEINHHBA@shrinkv?$AA@ 0000000180034198     VImage.obj
 0002:000091a0       ??_C@_07MFNKEHED@reduceh?$AA@ 00000001800341a0     VImage.obj
 0002:000091a8       ??_C@_07BBJLHIJM@reducev?$AA@ 00000001800341a8     VImage.obj
 0002:000091b0       ??_C@_06CDBFBENC@reduce?$AA@ 00000001800341b0     VImage.obj
 0002:000091b8       ??_C@_05KIDKLPLG@coeff?$AA@ 00000001800341b8     VImage.obj
 0002:000091c0       ??_C@_09NDEBDKFB@quadratic?$AA@ 00000001800341c0     VImage.obj
 0002:000091cc       ??_C@_06CGNOPMBC@matrix?$AA@ 00000001800341cc     VImage.obj
 0002:000091d4       ??_C@_06JLGAMIDL@affine?$AA@ 00000001800341d4     VImage.obj
 0002:000091e0       ??_C@_0L@FLEFHLED@similarity?$AA@ 00000001800341e0     VImage.obj
 0002:000091ec       ??_C@_06PIONCPJI@resize?$AA@ 00000001800341ec     VImage.obj
 0002:000091f4       ??_C@_05OLNILLAB@space?$AA@ 00000001800341f4     VImage.obj
 0002:00009200       ??_C@_0M@GKGJPELG@colourspace?$AA@ 0000000180034200     VImage.obj
 0002:00009210       ??_C@_07HKHDHCHO@Lab2XYZ?$AA@ 0000000180034210     VImage.obj
 0002:00009218       ??_C@_07BDLLOLEB@XYZ2Lab?$AA@ 0000000180034218     VImage.obj
 0002:00009220       ??_C@_07FJMJMAGB@Lab2LCh?$AA@ 0000000180034220     VImage.obj
 0002:00009228       ??_C@_07GBFGLBLG@LCh2Lab?$AA@ 0000000180034228     VImage.obj
 0002:00009230       ??_C@_07IEPNALIH@LCh2CMC?$AA@ 0000000180034230     VImage.obj
 0002:00009238       ??_C@_07EEAEFHLG@CMC2LCh?$AA@ 0000000180034238     VImage.obj
 0002:00009240       ??_C@_07MOLNBPIJ@XYZ2Yxy?$AA@ 0000000180034240     VImage.obj
 0002:00009248       ??_C@_07NFHPGGHE@Yxy2XYZ?$AA@ 0000000180034248     VImage.obj
 0002:00009250       ??_C@_09EGLLGMBC@scRGB2XYZ?$AA@ 0000000180034250     VImage.obj
 0002:00009260       ??_C@_09BGOHPOHE@XYZ2scRGB?$AA@ 0000000180034260     VImage.obj
 0002:00009270       ??_C@_08PCBHJJKI@LabQ2Lab?$AA@ 0000000180034270     VImage.obj
 0002:00009280       ??_C@_08JOOABGHI@Lab2LabQ?$AA@ 0000000180034280     VImage.obj
 0002:00009290       ??_C@_09EJGJDCNE@LabQ2LabS?$AA@ 0000000180034290     VImage.obj
 0002:000092a0       ??_C@_09OMMAEBHP@LabS2LabQ?$AA@ 00000001800342a0     VImage.obj
 0002:000092b0       ??_C@_08LPNPDIKD@LabS2Lab?$AA@ 00000001800342b0     VImage.obj
 0002:000092c0       ??_C@_08KMNGHEPK@Lab2LabS?$AA@ 00000001800342c0     VImage.obj
 0002:000092d0       ??_C@_09CNOAMBEK@rad2float?$AA@ 00000001800342d0     VImage.obj
 0002:000092e0       ??_C@_09JMDBKHNK@float2rad?$AA@ 00000001800342e0     VImage.obj
 0002:000092f0       ??_C@_09OFNJONNH@LabQ2sRGB?$AA@ 00000001800342f0     VImage.obj
 0002:00009300       ??_C@_08DLNPBGF@sRGB2HSV?$AA@ 0000000180034300     VImage.obj
 0002:00009310       ??_C@_08MGEOCPLE@HSV2sRGB?$AA@ 0000000180034310     VImage.obj
 0002:00009320       ??_C@_0L@EACMBHDC@icc_import?$AA@ 0000000180034320     VImage.obj
 0002:00009330       ??_C@_0L@NEJHOOGO@icc_export?$AA@ 0000000180034330     VImage.obj
 0002:00009340       ??_C@_0P@CKCGPENA@output?9profile?$AA@ 0000000180034340     VImage.obj
 0002:00009350       ??_C@_0O@JCOEDNPE@icc_transform?$AA@ 0000000180034350     VImage.obj
 0002:00009360       ??_C@_04FBJNBDAA@dE76?$AA@ 0000000180034360     VImage.obj
 0002:00009368       ??_C@_04CIIKCAD@dE00?$AA@  0000000180034368     VImage.obj
 0002:00009370       ??_C@_05GHPMDBKP@dECMC?$AA@ 0000000180034370     VImage.obj
 0002:00009378       ??_C@_0L@CFFEDAKI@sRGB2scRGB?$AA@ 0000000180034378     VImage.obj
 0002:00009388       ??_C@_08NGFONIGN@scRGB2BW?$AA@ 0000000180034388     VImage.obj
 0002:00009398       ??_C@_0L@EEFOEOJE@scRGB2sRGB?$AA@ 0000000180034398     VImage.obj
 0002:000093a4       ??_C@_03LGCCHOBB@lut?$AA@  00000001800343a4     VImage.obj
 0002:000093a8       ??_C@_06NKBBGPGG@maplut?$AA@ 00000001800343a8     VImage.obj
 0002:000093b0       ??_C@_07HCJJCOPK@percent?$AA@ 00000001800343b0     VImage.obj
 0002:000093b8       ??_C@_09DEHKFMCJ@threshold?$AA@ 00000001800343b8     VImage.obj
 0002:000093c4       ??_C@_05PDMDLOG@stdif?$AA@ 00000001800343c4     VImage.obj
 0002:000093d0       ??_C@_08GNGDEJLK@hist_cum?$AA@ 00000001800343d0     VImage.obj
 0002:000093dc       ??_C@_03GCDGINBO@ref?$AA@  00000001800343dc     VImage.obj
 0002:000093e0       ??_C@_0L@HEOEAOJE@hist_match?$AA@ 00000001800343e0     VImage.obj
 0002:000093f0       ??_C@_09CLMELLDG@hist_norm?$AA@ 00000001800343f0     VImage.obj
 0002:00009400       ??_C@_0L@CHADGNHE@hist_equal?$AA@ 0000000180034400     VImage.obj
 0002:00009410       ??_C@_09GJFPKEAA@hist_plot?$AA@ 0000000180034410     VImage.obj
 0002:00009420       ??_C@_0L@KKKOBNBM@hist_local?$AA@ 0000000180034420     VImage.obj
 0002:00009430       ??_C@_09FKNHDPAJ@monotonic?$AA@ 0000000180034430     VImage.obj
 0002:00009440       ??_C@_0BB@BJFODBKP@hist_ismonotonic?$AA@ 0000000180034440     VImage.obj
 0002:00009458       ??_C@_0N@LNGDFBMF@hist_entropy?$AA@ 0000000180034458     VImage.obj
 0002:00009468       ??_C@_04LFLEPBN@mask?$AA@  0000000180034468     VImage.obj
 0002:00009470       ??_C@_04LPCGNKHA@conv?$AA@ 0000000180034470     VImage.obj
 0002:00009478       ??_C@_05CMFMANAA@conva?$AA@ 0000000180034478     VImage.obj
 0002:00009480       ??_C@_05GDBNJLMH@convf?$AA@ 0000000180034480     VImage.obj
 0002:00009488       ??_C@_05OEIFIHAI@convi?$AA@ 0000000180034488     VImage.obj
 0002:00009490       ??_C@_07CFMACLND@compass?$AA@ 0000000180034490     VImage.obj
 0002:00009498       ??_C@_07OFICLPMI@convsep?$AA@ 0000000180034498     VImage.obj
 0002:000094a0       ??_C@_08MPNKBMPB@convasep?$AA@ 00000001800344a0     VImage.obj
 0002:000094b0       ??_C@_07FHGNDIBP@fastcor?$AA@ 00000001800344b0     VImage.obj
 0002:000094b8       ??_C@_05ENEIAOHI@spcor?$AA@ 00000001800344b8     VImage.obj
 0002:000094c0       ??_C@_07JOLMDEEJ@sharpen?$AA@ 00000001800344c0     VImage.obj
 0002:000094c8       ??_C@_09NOBOKBD@gaussblur?$AA@ 00000001800344c8     VImage.obj
 0002:000094d4       ??_C@_05MCCGCNHL@fwfft?$AA@ 00000001800344d4     VImage.obj
 0002:000094dc       ??_C@_06CBJFPBEN@invfft?$AA@ 00000001800344dc     VImage.obj
 0002:000094e8       ??_C@_08PGNHFFFA@freqmult?$AA@ 00000001800344e8     VImage.obj
 0002:000094f8       ??_C@_08GEGLAKCO@spectrum?$AA@ 00000001800344f8     VImage.obj
 0002:00009508       ??_C@_08GMOPJMAN@phasecor?$AA@ 0000000180034508     VImage.obj
 0002:00009514       ??_C@_05NJNGEDKM@morph?$AA@ 0000000180034514     VImage.obj
 0002:0000951c       ??_C@_04PNBFHPGN@rank?$AA@ 000000018003451c     VImage.obj
 0002:00009528       ??_C@_07FIKBNHMA@nolines?$AA@ 0000000180034528     VImage.obj
 0002:00009530       ??_C@_0L@GADDFICP@countlines?$AA@ 0000000180034530     VImage.obj
 0002:00009540       ??_C@_0N@MBCCJMPJ@labelregions?$AA@ 0000000180034540     VImage.obj
 0002:00009550       ??_C@_05NGOMGBBD@image?$AA@ 0000000180034550     VImage.obj
 0002:00009558       ??_C@_03FMNFMMCM@ink?$AA@  0000000180034558     VImage.obj
 0002:00009560       ??_C@_09FMFCFBGH@draw_rect?$AA@ 0000000180034560     VImage.obj
 0002:00009570       ??_C@_09OAPMGLIN@draw_mask?$AA@ 0000000180034570     VImage.obj
 0002:0000957c       ??_C@_02JMABBILH@x1?$AA@   000000018003457c     VImage.obj
 0002:00009580       ??_C@_02JNMDHCIA@y1?$AA@   0000000180034580     VImage.obj
 0002:00009584       ??_C@_02LHCMELHE@x2?$AA@   0000000180034584     VImage.obj
 0002:00009588       ??_C@_02LGOOCBED@y2?$AA@   0000000180034588     VImage.obj
 0002:00009590       ??_C@_09JCFFHHHP@draw_line?$AA@ 0000000180034590     VImage.obj
 0002:0000959c       ??_C@_02KNMJKAGK@cx?$AA@   000000018003459c     VImage.obj
 0002:000095a0       ??_C@_02LENCJBCL@cy?$AA@   00000001800345a0     VImage.obj
 0002:000095a8       ??_C@_0M@EJLCOLOD@draw_circle?$AA@ 00000001800345a8     VImage.obj
 0002:000095b8       ??_C@_0L@BNOJNJNM@draw_flood?$AA@ 00000001800345b8     VImage.obj
 0002:000095c8       ??_C@_0L@CGAIFFHD@draw_image?$AA@ 00000001800345c8     VImage.obj
 0002:000095d8       ??_C@_0M@JGFPDOHD@draw_smudge?$AA@ 00000001800345d8     VImage.obj
 0002:000095e4       ??_C@_03KHPNBODO@sec?$AA@  00000001800345e4     VImage.obj
 0002:000095e8       ??_C@_02KIIGLGOP@dx?$AA@   00000001800345e8     VImage.obj
 0002:000095ec       ??_C@_02LBJNIHKO@dy?$AA@   00000001800345ec     VImage.obj
 0002:000095f0       ??_C@_05DPKBJALF@merge?$AA@ 00000001800345f0     VImage.obj
 0002:000095f8       ??_C@_04EMPCAOBB@xref?$AA@ 00000001800345f8     VImage.obj
 0002:00009600       ??_C@_04HBJCCHKB@yref?$AA@ 0000000180034600     VImage.obj
 0002:00009608       ??_C@_04IJDJJNDB@xsec?$AA@ 0000000180034608     VImage.obj
 0002:00009610       ??_C@_04LEFJLEIB@ysec?$AA@ 0000000180034610     VImage.obj
 0002:00009618       ??_C@_06EFGOHCJJ@mosaic?$AA@ 0000000180034618     VImage.obj
 0002:00009620       ??_C@_03OBBIBDBM@xr1?$AA@  0000000180034620     VImage.obj
 0002:00009624       ??_C@_03FJKEHEHJ@yr1?$AA@  0000000180034624     VImage.obj
 0002:00009628       ??_C@_03OANKHJCL@xs1?$AA@  0000000180034628     VImage.obj
 0002:0000962c       ??_C@_03FIGGBOEO@ys1?$AA@  000000018003462c     VImage.obj
 0002:00009630       ??_C@_03MKDFEANP@xr2?$AA@  0000000180034630     VImage.obj
 0002:00009634       ??_C@_03HCIJCHLK@yr2?$AA@  0000000180034634     VImage.obj
 0002:00009638       ??_C@_03MLPHCKOI@xs2?$AA@  0000000180034638     VImage.obj
 0002:0000963c       ??_C@_03HDELENIN@ys2?$AA@  000000018003463c     VImage.obj
 0002:00009640       ??_C@_07EPMLECCA@mosaic1?$AA@ 0000000180034640     VImage.obj
 0002:00009648       ??_C@_05FNONLPDI@match?$AA@ 0000000180034648     VImage.obj
 0002:00009650       ??_C@_0O@GIJIBKOK@globalbalance?$AA@ 0000000180034650     VImage.obj
 0002:00009bd8       __real@3ff0000000000000    0000000180034bd8     VImage.obj
 0002:00009be0       __real@bff0000000000000    0000000180034be0     VImage.obj
 0002:00009bf0       __xmm@80000000000000008000000000000000 0000000180034bf0     VImage.obj
 0002:0000cdf0       _load_config_used          0000000180037df0     LIBCMT:loadcfg.obj
 0002:0000ce88       _tls_used                  0000000180037e88     LIBCMT:tlssup.obj
 0002:0000ceb0       ??_R4exception@std@@6B@    0000000180037eb0     libcpmt:xthrow.obj
 0002:0000ced8       ??_R3exception@std@@8      0000000180037ed8     libcpmt:xthrow.obj
 0002:0000cef0       ??_R2exception@std@@8      0000000180037ef0     libcpmt:xthrow.obj
 0002:0000cf00       ??_R1A@?0A@EA@exception@std@@8 0000000180037f00     libcpmt:xthrow.obj
 0002:0000cf28       ??_R4bad_alloc@std@@6B@    0000000180037f28     libcpmt:xthrow.obj
 0002:0000cf50       ??_R3bad_alloc@std@@8      0000000180037f50     libcpmt:xthrow.obj
 0002:0000cf68       ??_R2bad_alloc@std@@8      0000000180037f68     libcpmt:xthrow.obj
 0002:0000cf80       ??_R1A@?0A@EA@bad_alloc@std@@8 0000000180037f80     libcpmt:xthrow.obj
 0002:0000cfa8       ??_R4logic_error@std@@6B@  0000000180037fa8     libcpmt:xthrow.obj
 0002:0000cfd0       ??_R3logic_error@std@@8    0000000180037fd0     libcpmt:xthrow.obj
 0002:0000cfe8       ??_R2logic_error@std@@8    0000000180037fe8     libcpmt:xthrow.obj
 0002:0000d000       ??_R1A@?0A@EA@logic_error@std@@8 0000000180038000     libcpmt:xthrow.obj
 0002:0000d028       ??_R4length_error@std@@6B@ 0000000180038028     libcpmt:xthrow.obj
 0002:0000d050       ??_R3length_error@std@@8   0000000180038050     libcpmt:xthrow.obj
 0002:0000d068       ??_R2length_error@std@@8   0000000180038068     libcpmt:xthrow.obj
 0002:0000d088       ??_R1A@?0A@EA@length_error@std@@8 0000000180038088     libcpmt:xthrow.obj
 0002:0000d0b0       ??_R4out_of_range@std@@6B@ 00000001800380b0     libcpmt:xthrow.obj
 0002:0000d0d8       ??_R3out_of_range@std@@8   00000001800380d8     libcpmt:xthrow.obj
 0002:0000d0f0       ??_R2out_of_range@std@@8   00000001800380f0     libcpmt:xthrow.obj
 0002:0000d110       ??_R1A@?0A@EA@out_of_range@std@@8 0000000180038110     libcpmt:xthrow.obj
 0002:0000d138       ??_R4runtime_error@std@@6B@ 0000000180038138     libcpmt:xthrow.obj
 0002:0000d160       ??_R3runtime_error@std@@8  0000000180038160     libcpmt:xthrow.obj
 0002:0000d178       ??_R2runtime_error@std@@8  0000000180038178     libcpmt:xthrow.obj
 0002:0000d190       ??_R1A@?0A@EA@runtime_error@std@@8 0000000180038190     libcpmt:xthrow.obj
 0002:0000d1b8       ??_R4type_info@@6B@        00000001800381b8     LIBCMT:std_type_info_static.obj
 0002:0000d1e0       ??_R3type_info@@8          00000001800381e0     LIBCMT:std_type_info_static.obj
 0002:0000d1f8       ??_R2type_info@@8          00000001800381f8     LIBCMT:std_type_info_static.obj
 0002:0000d208       ??_R1A@?0A@EA@type_info@@8 0000000180038208     LIBCMT:std_type_info_static.obj
 0002:0000d230       ??_R4bad_array_new_length@std@@6B@ 0000000180038230     LIBCMT:throw_bad_alloc.obj
 0002:0000d258       ??_R3bad_array_new_length@std@@8 0000000180038258     LIBCMT:throw_bad_alloc.obj
 0002:0000d270       ??_R2bad_array_new_length@std@@8 0000000180038270     LIBCMT:throw_bad_alloc.obj
 0002:0000d290       ??_R1A@?0A@EA@bad_array_new_length@std@@8 0000000180038290     LIBCMT:throw_bad_alloc.obj
 0002:0000d2b8       ??_R4bad_exception@std@@6B@ 00000001800382b8     libvcruntime:frame.obj
 0002:0000d2e0       ??_R3bad_exception@std@@8  00000001800382e0     libvcruntime:frame.obj
 0002:0000d2f8       ??_R2bad_exception@std@@8  00000001800382f8     libvcruntime:frame.obj
 0002:0000d310       ??_R1A@?0A@EA@bad_exception@std@@8 0000000180038310     libvcruntime:frame.obj
 0002:0000d748       __rtc_iaa                  0000000180038748     LIBCMT:_initsect_.obj
 0002:0000d750       __rtc_izz                  0000000180038750     LIBCMT:_initsect_.obj
 0002:0000d758       __rtc_taa                  0000000180038758     LIBCMT:_initsect_.obj
 0002:0000d760       __rtc_tzz                  0000000180038760     LIBCMT:_initsect_.obj
 0002:00013348       _TI2?AVbad_alloc@std@@     000000018003e348     libcpmt:xthrow.obj
 0002:00013368       _CTA2?AVbad_alloc@std@@    000000018003e368     libcpmt:xthrow.obj
 0002:00013380       _CT??_R0?AVbad_alloc@std@@@8??0bad_alloc@std@@QEAA@AEBV01@@Z24 000000018003e380     libcpmt:xthrow.obj
 0002:000133a8       _CT??_R0?AVexception@std@@@8??0exception@std@@QEAA@AEBV01@@Z24 000000018003e3a8     libcpmt:xthrow.obj
 0002:000133d0       _CT??_R0?AVlogic_error@std@@@8??0logic_error@std@@QEAA@AEBV01@@Z24 000000018003e3d0     libcpmt:xthrow.obj
 0002:000133f8       _TI3?AVlength_error@std@@  000000018003e3f8     libcpmt:xthrow.obj
 0002:00013418       _CTA3?AVlength_error@std@@ 000000018003e418     libcpmt:xthrow.obj
 0002:00013438       _CT??_R0?AVlength_error@std@@@8??0length_error@std@@QEAA@AEBV01@@Z24 000000018003e438     libcpmt:xthrow.obj
 0002:00013460       _TI3?AVout_of_range@std@@  000000018003e460     libcpmt:xthrow.obj
 0002:00013480       _CTA3?AVout_of_range@std@@ 000000018003e480     libcpmt:xthrow.obj
 0002:000134a0       _CT??_R0?AVout_of_range@std@@@8??0out_of_range@std@@QEAA@AEBV01@@Z24 000000018003e4a0     libcpmt:xthrow.obj
 0002:000134c8       _TI3?AVbad_array_new_length@std@@ 000000018003e4c8     LIBCMT:throw_bad_alloc.obj
 0002:000134e8       _CTA3?AVbad_array_new_length@std@@ 000000018003e4e8     LIBCMT:throw_bad_alloc.obj
 0002:00013508       _CT??_R0?AVbad_array_new_length@std@@@8??0bad_array_new_length@std@@QEAA@AEBV01@@Z24 000000018003e508     LIBCMT:throw_bad_alloc.obj
 0002:00013530       _TI2?AVbad_exception@std@@ 000000018003e530     libvcruntime:frame.obj
 0002:00013550       _CTA2?AVbad_exception@std@@ 000000018003e550     libvcruntime:frame.obj
 0002:00013568       _CT??_R0?AVbad_exception@std@@@8??0bad_exception@std@@QEAA@AEBV01@@Z24 000000018003e568     libvcruntime:frame.obj
 0002:00013590       _CTA2?AVVError@vips@@      000000018003e590     VError.obj
 0002:000135a8       _CT??_R0?AVVError@vips@@@848 000000018003e5a8     VError.obj
 0002:000135d0       _TI2?AVVError@vips@@       000000018003e5d0     VError.obj
 0002:000135f0       _CT??_R0?AVexception@stdext@@@816 000000018003e5f0     VError.obj
 0002:0001ac00       __IMPORT_DESCRIPTOR_KERNEL32 0000000180045c00     kernel32:KERNEL32.dll
 0002:0001ac14       _head_lib_libvips_lib      0000000180045c14     libvips:ddcih.o
 0002:0001ac28       _head_lib_libglib_2_0_lib  0000000180045c28     libglib-2.0:dxyhh.o
 0002:0001ac3c       _head_lib_libgobject_2_0_lib 0000000180045c3c     libgobject-2.0:dhzhh.o
 0002:0001ac50       __NULL_IMPORT_DESCRIPTOR   0000000180045c50     kernel32:KERNEL32.dll
 0002:0001bf00       __lib_libvips_lib_iname    0000000180046f00     libvips:ddcit.o
 0002:0001bf18       __lib_libglib_2_0_lib_iname 0000000180046f18     libglib-2.0:dxyht.o
 0002:0001bf84       __lib_libgobject_2_0_lib_iname 0000000180046f84     libgobject-2.0:dhzht.o
 0003:00000000       _Init_global_epoch         0000000180047000     LIBCMT:thread_safe_statics.obj
 0003:00000004       __scrt_native_dllmain_reason 0000000180047004     LIBCMT:utility.obj
 0003:00000008       __security_cookie          0000000180047008     LIBCMT:gs_cookie.obj
 0003:00000010       __security_cookie_complement 0000000180047010     LIBCMT:gs_cookie.obj
 0003:00000018       __isa_available            0000000180047018     LIBCMT:_cpu_disp_.obj
 0003:0000001c       __isa_enabled              000000018004701c     LIBCMT:_cpu_disp_.obj
 0003:00000020       __memcpy_nt_iters          0000000180047020     LIBCMT:_cpu_disp_.obj
 0003:00000040       __abort_behavior           0000000180047040     libucrt:abort.obj
 0003:00000050       __acrt_initial_locale_data 0000000180047050     libucrt:nlsdata.obj
 0003:000001a8       __acrt_initial_locale_pointers 00000001800471a8     libucrt:nlsdata.obj
 0003:000001b8       __acrt_wide_c_locale_string 00000001800471b8     libucrt:nlsdata.obj
 0003:000001c0       __acrt_initial_multibyte_data 00000001800471c0     libucrt:mbctype.obj
 0003:000003e8       __acrt_current_multibyte_data 00000001800473e8     libucrt:mbctype.obj
 0003:000004f0       _mbctype                   00000001800474f0     libucrt:mbctype.obj
 0003:00000600       _mbcasemap                 0000000180047600     libucrt:mbctype.obj
 0003:00000700       _iob                       0000000180047700     libucrt:_file.obj
 0003:00000808       __globallocalestatus       0000000180047808     libucrt:glstatus.obj
 0003:00000810       __acrt_lconv_c             0000000180047810     libucrt:localeconv.obj
 0003:000008a8       __acrt_lconv_static_decimal 00000001800478a8     libucrt:localeconv.obj
 0003:000008ac       __acrt_lconv_static_W_decimal 00000001800478ac     libucrt:localeconv.obj
 0003:000008b0       __dcrt_lowio_console_output_handle 00000001800478b0     libucrt:initcon.obj
 0003:000008d0       _fltused                   00000001800478d0     LIBCMT:fltused.obj
 0003:000008e0       ??_R0?AVbad_alloc@std@@@8  00000001800478e0     libcpmt:xthrow.obj
 0003:00000908       ??_R0?AVexception@std@@@8  0000000180047908     libcpmt:xthrow.obj
 0003:00000930       ??_R0?AVlogic_error@std@@@8 0000000180047930     libcpmt:xthrow.obj
 0003:00000958       ??_R0?AVlength_error@std@@@8 0000000180047958     libcpmt:xthrow.obj
 0003:00000980       ??_R0?AVout_of_range@std@@@8 0000000180047980     libcpmt:xthrow.obj
 0003:000009a8       ??_R0?AVruntime_error@std@@@8 00000001800479a8     libcpmt:xthrow.obj
 0003:000009d0       ??_R0?AVtype_info@@@8      00000001800479d0     LIBCMT:std_type_info_static.obj
 0003:000009f0       ??_R0?AVbad_array_new_length@std@@@8 00000001800479f0     LIBCMT:throw_bad_alloc.obj
 0003:00000a20       ??_R0?AVbad_exception@std@@@8 0000000180047a20     libvcruntime:frame.obj
 0003:00000a48       ??_R0?AVexception@stdext@@@8 0000000180047a48     VError.obj
 0003:00000a70       ??_R0?AVVError@vips@@@8    0000000180047a70     VError.obj
 0003:00000aa0       ?_Raise_handler@std@@3P6AXAEBVexception@stdext@@@ZEA 0000000180047aa0     libcpmt:raisehan.obj
 0003:00000af0       __scrt_current_native_startup_state 0000000180047af0     LIBCMT:utility.obj
 0003:00000af8       __scrt_native_startup_lock 0000000180047af8     LIBCMT:utility.obj
 0003:000010b0       __scrt_debugger_hook_flag  00000001800480b0     LIBCMT:utility_desktop.obj
 0003:000010b4       _tls_index                 00000001800480b4     LIBCMT:tlssup.obj
 0003:000010b8       __favor                    00000001800480b8     LIBCMT:_cpu_disp_.obj
 0003:000010c0       ?__type_info_root_node@@3U__type_info_node@@A 00000001800480c0     LIBCMT:tncleanup.obj
 0003:000010d0       ?_OptionsStorage@?1??__local_stdio_printf_options@@9@4_KA 00000001800480d0     LIBCMT:default_local_stdio_options.obj
 0003:000010d8       ?_OptionsStorage@?1??__local_stdio_scanf_options@@9@4_KA 00000001800480d8     LIBCMT:default_local_stdio_options.obj
 0003:000010e0       ?g_OutOfMemoryExceptionCallback@@3P6APEAXXZEA 00000001800480e0     libvcruntime:frame.obj
 0003:00001158       __pPurecall                0000000180048158     libvcruntime:purevirt_data.obj
 0003:00001208       ?pArgList@UnDecorator@@0PEAVReplicator@@EA 0000000180048208     libvcruntime:undname.obj
 0003:00001210       ?pZNameList@UnDecorator@@0PEAVReplicator@@EA 0000000180048210     libvcruntime:undname.obj
 0003:00001218       ?pTemplateArgList@UnDecorator@@0PEAVReplicator@@EA 0000000180048218     libvcruntime:undname.obj
 0003:00001220       ?gName@UnDecorator@@0PEBDEB 0000000180048220     libvcruntime:undname.obj
 0003:00001228       ?name@UnDecorator@@0PEBDEB 0000000180048228     libvcruntime:undname.obj
 0003:00001230       ?outputString@UnDecorator@@0PEADEA 0000000180048230     libvcruntime:undname.obj
 0003:00001238       ?maxStringLength@UnDecorator@@0HA 0000000180048238     libvcruntime:undname.obj
 0003:0000123c       ?disableFlags@UnDecorator@@0KA 000000018004823c     libvcruntime:undname.obj
 0003:00001240       ?fExplicitTemplateParams@UnDecorator@@0_NA 0000000180048240     libvcruntime:undname.obj
 0003:00001241       ?fGetTemplateArgumentList@UnDecorator@@0_NA 0000000180048241     libvcruntime:undname.obj
 0003:00001248       ?m_pGetParameter@UnDecorator@@0P6APEADJ@ZEA 0000000180048248     libvcruntime:undname.obj
 0003:000013a8       _environ_table             00000001800483a8     libucrt:environment_initialization.obj
 0003:000013b0       _wenviron_table            00000001800483b0     libucrt:environment_initialization.obj
 0003:000013b8       __dcrt_initial_wide_environment 00000001800483b8     libucrt:environment_initialization.obj
 0003:000013c0       __dcrt_initial_narrow_environment 00000001800483c0     libucrt:environment_initialization.obj
 0003:000013c8       __acrt_atexit_table        00000001800483c8     libucrt:onexit.obj
 0003:000013e0       __acrt_at_quick_exit_table 00000001800483e0     libucrt:onexit.obj
 0003:000013f8       __acrt_locale_changed_data 00000001800483f8     libucrt:wsetlocale.obj
 0003:00001400       __acrt_current_locale_data 0000000180048400     libucrt:nlsdata.obj
 0003:000017c4       __mbcodepage               00000001800487c4     libucrt:mbctype.obj
 0003:000017c8       __ismbcodepage             00000001800487c8     libucrt:mbctype.obj
 0003:000017d0       __mbulinfo                 00000001800487d0     libucrt:mbctype.obj
 0003:000017e0       __mblocalename             00000001800487e0     libucrt:mbctype.obj
 0003:000017ec       __argc                     00000001800487ec     libucrt:argv_data.obj
 0003:000017f0       __argv                     00000001800487f0     libucrt:argv_data.obj
 0003:000017f8       __wargv                    00000001800487f8     libucrt:argv_data.obj
 0003:00001800       _acmdln                    0000000180048800     libucrt:argv_data.obj
 0003:00001808       _wcmdln                    0000000180048808     libucrt:argv_data.obj
 0003:00001810       _pgmptr                    0000000180048810     libucrt:argv_data.obj
 0003:00001818       __acrt_heap                0000000180048818     libucrt:heap_handle.obj
 0003:00001820       __pioinfo                  0000000180048820     libucrt:ioinit.obj
 0003:00001c20       _nhandle                   0000000180048c20     libucrt:ioinit.obj
 0003:00001c50       __acrt_stdout_buffer       0000000180048c50     libucrt:_sftbuf.obj
 0003:00001c58       __acrt_stderr_buffer       0000000180048c58     libucrt:_sftbuf.obj
 0003:00001c68       _nstream                   0000000180048c68     libucrt:_file.obj
 0003:00001c70       __piob                     0000000180048c70     libucrt:_file.obj
 0003:00001c78       __acrt_lconv_static_null   0000000180048c78     libucrt:localeconv.obj
 0003:00001c7c       __acrt_lconv_static_W_null 0000000180048c7c     libucrt:localeconv.obj
 0003:00001c84       __fma3_is_available        0000000180048c84     libucrt:fma3_available.obj
 0003:00001c88       __use_fma3_lib             0000000180048c88     libucrt:fma3_available.obj
 0003:00001c90       ?_Static@?1???$_Immortalize@V_Iostream_error_category@std@@@std@@YAAEAV_Iostream_error_category@1@XZ@4U?$_Immortalizer@V_Iostream_error_category@std@@@1@A 0000000180048c90     VError.obj
 0003:00001ca0       ?$TSS0@?1???$_Immortalize@V_Iostream_error_category@std@@@std@@YAAEAV_Iostream_error_category@1@XZ@4HA 0000000180048ca0     VError.obj
 0003:00001ca8       __dyn_tls_init_callback    0000000180048ca8     <common>
 0003:00001cb0       __scrt_ucrt_dll_is_in_use  0000000180048cb0     <common>
 0006:00000000       _tls_start                 000000018004d000     LIBCMT:tlssup.obj
 0006:00000004       _Init_thread_epoch         000000018004d004     LIBCMT:thread_safe_statics.obj
 0006:00000008       _tls_end                   000000018004d008     LIBCMT:tlssup.obj

 entry point at        0001:0001df20

 Static symbols

 0000:fffb0000       .debug$S                   0000000180000000     kernel32:KERNEL32.dll
 0000:fffb0000       .debug$S                   0000000180000000     kernel32:KERNEL32.dll
 0000:fffb0000       .debug$S                   0000000180000000     kernel32:KERNEL32.dll
 0000:fffb0000       .debug$S                   0000000180000000     kernel32:KERNEL32.dll
 0000:fffb0000       .debug$S                   0000000180000000     kernel32:KERNEL32.dll
 0000:fffb0000       .debug$S                   0000000180000000     kernel32:KERNEL32.dll
 0000:fffb0000       .debug$S                   0000000180000000     kernel32:KERNEL32.dll
 0000:fffb0000       .debug$S                   0000000180000000     kernel32:KERNEL32.dll
 0000:fffb0000       .debug$S                   0000000180000000     kernel32:KERNEL32.dll
 0000:fffb0000       .debug$S                   0000000180000000     kernel32:KERNEL32.dll
 0000:fffb0000       .debug$S                   0000000180000000     kernel32:KERNEL32.dll
 0000:fffb0000       .debug$S                   0000000180000000     kernel32:KERNEL32.dll
 0000:fffb0000       .debug$S                   0000000180000000     kernel32:KERNEL32.dll
 0000:fffb0000       .debug$S                   0000000180000000     kernel32:KERNEL32.dll
 0000:fffb0000       .debug$S                   0000000180000000     kernel32:KERNEL32.dll
 0000:fffb0000       .debug$S                   0000000180000000     kernel32:KERNEL32.dll
 0000:fffb0000       .debug$S                   0000000180000000     kernel32:KERNEL32.dll
 0000:fffb0000       .debug$S                   0000000180000000     kernel32:KERNEL32.dll
 0000:fffb0000       .debug$S                   0000000180000000     kernel32:KERNEL32.dll
 0000:fffb0000       .debug$S                   0000000180000000     kernel32:KERNEL32.dll
 0000:fffb0000       .debug$S                   0000000180000000     kernel32:KERNEL32.dll
 0000:fffb0000       .debug$S                   0000000180000000     kernel32:KERNEL32.dll
 0000:fffb0000       .debug$S                   0000000180000000     kernel32:KERNEL32.dll
 0000:fffb0000       .debug$S                   0000000180000000     kernel32:KERNEL32.dll
 0000:fffb0000       .debug$S                   0000000180000000     kernel32:KERNEL32.dll
 0000:fffb0000       .debug$S                   0000000180000000     kernel32:KERNEL32.dll
 0000:fffb0000       .debug$S                   0000000180000000     kernel32:KERNEL32.dll
 0000:fffb0000       .debug$S                   0000000180000000     kernel32:KERNEL32.dll
 0000:fffb0000       .debug$S                   0000000180000000     kernel32:KERNEL32.dll
 0000:fffb0000       .debug$S                   0000000180000000     kernel32:KERNEL32.dll
 0000:fffb0000       .debug$S                   0000000180000000     kernel32:KERNEL32.dll
 0000:fffb0000       .debug$S                   0000000180000000     kernel32:KERNEL32.dll
 0000:fffb0000       .debug$S                   0000000180000000     kernel32:KERNEL32.dll
 0000:fffb0000       .debug$S                   0000000180000000     kernel32:KERNEL32.dll
 0000:fffb0000       .debug$S                   0000000180000000     kernel32:KERNEL32.dll
 0000:fffb0000       .debug$S                   0000000180000000     kernel32:KERNEL32.dll
 0000:fffb0000       .debug$S                   0000000180000000     kernel32:KERNEL32.dll
 0000:fffb0000       .debug$S                   0000000180000000     kernel32:KERNEL32.dll
 0000:fffb0000       .debug$S                   0000000180000000     kernel32:KERNEL32.dll
 0000:fffb0000       .debug$S                   0000000180000000     kernel32:KERNEL32.dll
 0000:fffb0000       .debug$S                   0000000180000000     kernel32:KERNEL32.dll
 0000:fffb0000       .debug$S                   0000000180000000     kernel32:KERNEL32.dll
 0000:fffb0000       .debug$S                   0000000180000000     kernel32:KERNEL32.dll
 0000:fffb0000       .debug$S                   0000000180000000     kernel32:KERNEL32.dll
 0000:fffb0000       .debug$S                   0000000180000000     kernel32:KERNEL32.dll
 0000:fffb0000       .debug$S                   0000000180000000     kernel32:KERNEL32.dll
 0000:fffb0000       .debug$S                   0000000180000000     kernel32:KERNEL32.dll
 0000:fffb0000       .debug$S                   0000000180000000     kernel32:KERNEL32.dll
 0000:fffb0000       .debug$S                   0000000180000000     kernel32:KERNEL32.dll
 0000:fffb0000       .debug$S                   0000000180000000     kernel32:KERNEL32.dll
 0000:fffb0000       .debug$S                   0000000180000000     kernel32:KERNEL32.dll
 0000:fffb0000       .debug$S                   0000000180000000     kernel32:KERNEL32.dll
 0000:fffb0000       .debug$S                   0000000180000000     kernel32:KERNEL32.dll
 0000:fffb0000       .debug$S                   0000000180000000     kernel32:KERNEL32.dll
 0000:fffb0000       .debug$S                   0000000180000000     kernel32:KERNEL32.dll
 0000:fffb0000       .debug$S                   0000000180000000     kernel32:KERNEL32.dll
 0000:fffb0000       .debug$S                   0000000180000000     kernel32:KERNEL32.dll
 0000:fffb0000       .debug$S                   0000000180000000     kernel32:KERNEL32.dll
 0000:fffb0000       .debug$S                   0000000180000000     kernel32:KERNEL32.dll
 0000:fffb0000       .debug$S                   0000000180000000     kernel32:KERNEL32.dll
 0000:fffb0000       .debug$S                   0000000180000000     kernel32:KERNEL32.dll
 0000:fffb0000       .debug$S                   0000000180000000     kernel32:KERNEL32.dll
 0000:fffb0000       .debug$S                   0000000180000000     kernel32:KERNEL32.dll
 0000:fffb0000       .debug$S                   0000000180000000     kernel32:KERNEL32.dll
 0000:fffb0000       .debug$S                   0000000180000000     kernel32:KERNEL32.dll
 0000:fffb0000       .debug$S                   0000000180000000     kernel32:KERNEL32.dll
 0000:fffb0000       .debug$S                   0000000180000000     kernel32:KERNEL32.dll
 0000:fffb0000       .debug$S                   0000000180000000     kernel32:KERNEL32.dll
 0000:fffb0000       .debug$S                   0000000180000000     kernel32:KERNEL32.dll
 0000:fffb0000       .debug$S                   0000000180000000     kernel32:KERNEL32.dll
 0000:fffb0000       .debug$S                   0000000180000000     kernel32:KERNEL32.dll
 0000:fffb0000       .debug$S                   0000000180000000     kernel32:KERNEL32.dll
 0000:fffb0000       .debug$S                   0000000180000000     kernel32:KERNEL32.dll
 0000:fffb0000       .debug$S                   0000000180000000     kernel32:KERNEL32.dll
 0000:fffb0000       .debug$S                   0000000180000000     kernel32:KERNEL32.dll
 0000:fffb0000       .debug$S                   0000000180000000     kernel32:KERNEL32.dll
 0000:fffb0000       .debug$S                   0000000180000000     libvips-cpp.exp
 0000:fffb0000       .debug$S                   0000000180000000     kernel32:KERNEL32.dll
 0000:fffb0000       .debug$S                   0000000180000000     kernel32:KERNEL32.dll
 0000:fffb0000       .debug$S                   0000000180000000     kernel32:KERNEL32.dll
 0000:fffb0000       .debug$S                   0000000180000000     kernel32:KERNEL32.dll
 0000:fffb0000       .debug$S                   0000000180000000     kernel32:KERNEL32.dll
 0000:fffb0000       .debug$S                   0000000180000000     kernel32:KERNEL32.dll
 0000:fffb0000       .debug$S                   0000000180000000     kernel32:KERNEL32.dll
 0000:fffb0000       .debug$S                   0000000180000000     kernel32:KERNEL32.dll
 0000:fffb0000       .debug$S                   0000000180000000     kernel32:KERNEL32.dll
 0000:fffb0000       .debug$S                   0000000180000000     kernel32:KERNEL32.dll
 0000:fffb0000       .debug$S                   0000000180000000     kernel32:KERNEL32.dll
 0000:fffb0000       .debug$S                   0000000180000000     kernel32:KERNEL32.dll
 0000:fffb0000       .debug$S                   0000000180000000     kernel32:KERNEL32.dll
 0000:fffb0000       .debug$S                   0000000180000000     kernel32:KERNEL32.dll
 0000:fffb0000       .debug$S                   0000000180000000     kernel32:KERNEL32.dll
 0000:fffb0000       .debug$S                   0000000180000000     kernel32:KERNEL32.dll
 0001:00000000       .text                      0000000180001000     libvips:ddcis01505.o
 0001:00000008       .text                      0000000180001008     libvips:ddcis01482.o
 0001:00000010       .text                      0000000180001010     libvips:ddcis01508.o
 0001:00000018       .text                      0000000180001018     libvips:ddcis01502.o
 0001:00000020       .text                      0000000180001020     libvips:ddcis01670.o
 0001:00000028       .text                      0000000180001028     libvips:ddcis01455.o
 0001:00000030       .text                      0000000180001030     libvips:ddcis01454.o
 0001:00000038       .text                      0000000180001038     libvips:ddcis01458.o
 0001:00000040       .text                      0000000180001040     libvips:ddcis01444.o
 0001:00000048       .text                      0000000180001048     libvips:ddcis01487.o
 0001:00000050       .text                      0000000180001050     libvips:ddcis01442.o
 0001:00000058       .text                      0000000180001058     libvips:ddcis01451.o
 0001:00000060       .text                      0000000180001060     libvips:ddcis01439.o
 0001:00000068       .text                      0000000180001068     libvips:ddcis01460.o
 0001:00000070       .text                      0000000180001070     libvips:ddcis01443.o
 0001:00000078       .text                      0000000180001078     libvips:ddcis01456.o
 0001:00000080       .text                      0000000180001080     libvips:ddcis01447.o
 0001:00000088       .text                      0000000180001088     libvips:ddcis01516.o
 0001:00000090       .text                      0000000180001090     libvips:ddcis01436.o
 0001:00000098       .text                      0000000180001098     libvips:ddcis01453.o
 0001:000000a0       .text                      00000001800010a0     libvips:ddcis01485.o
 0001:000000a8       .text                      00000001800010a8     libvips:ddcis01438.o
 0001:000000b0       .text                      00000001800010b0     libvips:ddcis01210.o
 0001:000000b8       .text                      00000001800010b8     libvips:ddcis01489.o
 0001:000000c0       .text                      00000001800010c0     libvips:ddcis01437.o
 0001:000000c8       .text                      00000001800010c8     libvips:ddcis01440.o
 0001:000000d0       .text                      00000001800010d0     libvips:ddcis01504.o
 0001:000000d8       .text                      00000001800010d8     libvips:ddcis01446.o
 0001:000000e0       .text                      00000001800010e0     libvips:ddcis01457.o
 0001:000000e8       .text                      00000001800010e8     libvips:ddcis01538.o
 0001:000000f0       .text                      00000001800010f0     libvips:ddcis01531.o
 0001:000000f8       .text                      00000001800010f8     libvips:ddcis01979.o
 0001:00000100       .text                      0000000180001100     libvips:ddcis01978.o
 0001:00000108       .text                      0000000180001108     libvips:ddcis01255.o
 0001:00000110       .text                      0000000180001110     libvips:ddcis01709.o
 0001:00000118       .text                      0000000180001118     libvips:ddcis00900.o
 0001:00000120       .text                      0000000180001120     libvips:ddcis00699.o
 0001:00000128       .text                      0000000180001128     libvips:ddcis00951.o
 0001:00000130       .text                      0000000180001130     libvips:ddcis01003.o
 0001:00000138       .text                      0000000180001138     libvips:ddcis00950.o
 0001:00000140       .text                      0000000180001140     libvips:ddcis01200.o
 0001:00000148       .text                      0000000180001148     libvips:ddcis00894.o
 0001:00000150       .text                      0000000180001150     libvips:ddcis01337.o
 0001:00000158       .text                      0000000180001158     libvips:ddcis01968.o
 0001:00000160       .text                      0000000180001160     libvips:ddcis01484.o
 0001:00000168       .text                      0000000180001168     libvips:ddcis01452.o
 0001:00000170       .text                      0000000180001170     libvips:ddcis01694.o
 0001:00000178       .text                      0000000180001178     libvips:ddcis01256.o
 0001:00000180       .text                      0000000180001180     libvips:ddcis01211.o
 0001:00000188       .text                      0000000180001188     libvips:ddcis01687.o
 0001:00000190       .text                      0000000180001190     libvips:ddcis01969.o
 0001:00000198       .text                      0000000180001198     libvips:ddcis01511.o
 0001:000001a0       .text                      00000001800011a0     libvips:ddcis00881.o
 0001:000001a8       .text                      00000001800011a8     libvips:ddcis01257.o
 0001:000001b0       .text                      00000001800011b0     libvips:ddcis01664.o
 0001:000001b8       .text                      00000001800011b8     libvips:ddcis01254.o
 0001:000001c0       .text                      00000001800011c0     libglib-2.0:dxyhs00041.o
 0001:000001c8       .text                      00000001800011c8     libglib-2.0:dxyhs00617.o
 0001:000001d0       .text                      00000001800011d0     libgobject-2.0:dhzhs00138.o
 0001:000001d8       .text                      00000001800011d8     libgobject-2.0:dhzhs00155.o
 0001:000001e0       .text                      00000001800011e0     libgobject-2.0:dhzhs00272.o
 0001:000001e8       .text                      00000001800011e8     libgobject-2.0:dhzhs00381.o
 0001:000001f0       .text                      00000001800011f0     libgobject-2.0:dhzhs00399.o
 0001:000001f8       .text                      00000001800011f8     libgobject-2.0:dhzhs00386.o
 0001:00000200       .text                      0000000180001200     libgobject-2.0:dhzhs00374.o
 0001:00000208       .text                      0000000180001208     libgobject-2.0:dhzhs00390.o
 0001:00000210       .text                      0000000180001210     libgobject-2.0:dhzhs00407.o
 0001:00000218       .text                      0000000180001218     libgobject-2.0:dhzhs00271.o
 0001:00000220       .text                      0000000180001220     libgobject-2.0:dhzhs00359.o
 0001:00000228       .text                      0000000180001228     libgobject-2.0:dhzhs00387.o
 0001:00000230       .text                      0000000180001230     libgobject-2.0:dhzhs00370.o
 0001:00000238       .text                      0000000180001238     libgobject-2.0:dhzhs00396.o
 0001:00000240       .text                      0000000180001240     libgobject-2.0:dhzhs00353.o
 0001:00000248       .text                      0000000180001248     libgobject-2.0:dhzhs00367.o
 0001:00000250       .text                      0000000180001250     libgobject-2.0:dhzhs00391.o
 0001:00000258       .text                      0000000180001258     libgobject-2.0:dhzhs00362.o
 0001:00000260       .text                      0000000180001260     libgobject-2.0:dhzhs00125.o
 0001:00000268       .text                      0000000180001268     libgobject-2.0:dhzhs00422.o
 0001:00000270       .text                      0000000180001270     libgobject-2.0:dhzhs00148.o
 0001:00005fb0       ?set_property@vips@@YAXPEAU_VipsObject@@PEBDPEBU_GValue@@@Z 0000000180006fb0 f   VImage.obj
 0001:0001d370       $$000000                   000000018001e370     LIBCMT:_amdsecgs_.obj
 0001:0001d3ac       ?__scrt_initialize_thread_safe_statics@@YAHXZ 000000018001e3ac f   LIBCMT:thread_safe_statics.obj
 0001:0001d4cc       ?__scrt_uninitialize_thread_safe_statics@@YAXXZ 000000018001e4cc f   LIBCMT:thread_safe_statics.obj
 0001:0001dbd4       ?dllmain_crt_dispatch@@YAHQEAUHINSTANCE__@@KQEAX@Z 000000018001ebd4 f   LIBCMT:dll_dllmain.obj
 0001:0001dc24       ?dllmain_crt_process_attach@@YAHQEAUHINSTANCE__@@QEAX@Z 000000018001ec24 f   LIBCMT:dll_dllmain.obj
 0001:0001dd50       ?dllmain_crt_process_detach@@YAH_N@Z 000000018001ed50 f   LIBCMT:dll_dllmain.obj
 0001:0001ddd4       ?dllmain_dispatch@@YAHQEAUHINSTANCE__@@KQEAX@Z 000000018001edd4 f   LIBCMT:dll_dllmain.obj
 0001:0001decc       ?dllmain_raw@@YAHQEAUHINSTANCE__@@KQEAX@Z 000000018001eecc f   LIBCMT:dll_dllmain.obj
 0001:0001e194       capture_current_context    000000018001f194 f   LIBCMT:gs_report.obj
 0001:0001e204       capture_previous_context   000000018001f204 f   LIBCMT:gs_report.obj
 0001:0001e7e0       $$000000                   000000018001f7e0     libvcruntime:memcpy.obj
 0001:0001e887       MoveSmall                  000000018001f887     libvcruntime:memcpy.obj
 0001:0001ed4c       ?CatchIt@@YAXPEAUEHExceptionRecord@@PEA_KPEAU_CONTEXT@@PEAU_xDISPATCHER_CONTEXT@@PEBU_s_FuncInfo@@PEBU_s_HandlerType@@PEBU_s_CatchableType@@PEBU_s_TryBlockMapEntry@@H1EE@Z 000000018001fd4c f   libvcruntime:frame.obj
 0001:0001ee10       ?ExFilterRethrow@@YAHPEAU_EXCEPTION_POINTERS@@PEAUEHExceptionRecord@@PEAH@Z 000000018001fe10 f   libvcruntime:frame.obj
 0001:0001ee98       ?FindHandler@@YAXPEAUEHExceptionRecord@@PEA_KPEAU_CONTEXT@@PEAU_xDISPATCHER_CONTEXT@@PEBU_s_FuncInfo@@EH1@Z 000000018001fe98 f   libvcruntime:frame.obj
 0001:0001f368       ?FindHandlerForForeignException@@YAXPEAUEHExceptionRecord@@PEA_KPEAU_CONTEXT@@PEAU_xDISPATCHER_CONTEXT@@PEBU_s_FuncInfo@@HH1@Z 0000000180020368 f   libvcruntime:frame.obj
 0001:0001f5d4       ?IsInExceptionSpec@@YAEPEAUEHExceptionRecord@@PEBU_s_ESTypeList@@@Z 00000001800205d4 f   libvcruntime:frame.obj
 0001:00020934       ?try_get_function@@YAPEAXW4function_id@?A0x679b24ab@@QEBDQEBW4module_id@2@2@Z 0000000180021934 f   libvcruntime:winapi_downlevel.obj
 0001:00020ff0       $$000000                   0000000180021ff0     libvcruntime:memset.obj
 0001:000210dc       MsetTab                    00000001800220dc     libvcruntime:memset.obj
 0001:000214d0       $$000000                   00000001800224d0     libvcruntime:handlers.obj
 0001:00021520       $$000000                   0000000180022520     libvcruntime:_jmpuwind_.obj
 0001:00021b98       ?atexit_exception_filter@@YAHK@Z 0000000180022b98 f   libucrt:exit.obj
 0001:00021ba4       ?common_exit@@YAXHW4_crt_exit_cleanup_mode@@W4_crt_exit_return_mode@@@Z 0000000180022ba4 f   libucrt:exit.obj
 0001:00021d10       ?exit_or_terminate_process@@YAXI@Z 0000000180022d10 f   libucrt:exit.obj
 0001:00021d5c       ?try_cor_exit_process@@YAXI@Z 0000000180022d5c f   libucrt:exit.obj
 0001:00021df4       ??$parse_command_line@D@@YAXPEADPEAPEAD0PEA_K2@Z 0000000180022df4 f   libucrt:argv_parsing.obj
 0001:0002218c       ??$common_initialize_environment_nolock@D@@YAHXZ 000000018002318c f   libucrt:environment_initialization.obj
 0001:000221f8       ??$create_environment@D@@YAQEAPEADQEAD@Z 00000001800231f8 f   libucrt:environment_initialization.obj
 0001:000222f4       ??$free_environment@_W@@YAXQEAPEA_W@Z 00000001800232f4 f   libucrt:environment_initialization.obj
 0001:000222f4       ??$free_environment@D@@YAXQEAPEAD@Z 00000001800232f4 f   libucrt:environment_initialization.obj
 0001:00022338       ??$uninitialize_environment_internal@D@@YAXAEAPEAPEAD@Z 0000000180023338 f   libucrt:environment_initialization.obj
 0001:00022354       ??$uninitialize_environment_internal@_W@@YAXAEAPEAPEA_W@Z 0000000180023354 f   libucrt:environment_initialization.obj
 0001:0002258c       ??R<lambda_4e60a939b0d047cfe11ddc22648dfba9>@@QEBAHXZ 000000018002358c f   libucrt:onexit.obj
 0001:0002283c       initialize_global_variables 000000018002383c f   libucrt:initialization.obj
 0001:00022850       initialize_c               0000000180023850 f   libucrt:initialization.obj
 0001:00022874       uninitialize_environment   0000000180023874 f   libucrt:initialization.obj
 0001:00022884       initialize_pointers        0000000180023884 f   libucrt:initialization.obj
 0001:000228d8       uninitialize_vcruntime     00000001800238d8 f   libucrt:initialization.obj
 0001:000228e0       uninitialize_allocated_memory 00000001800238e0 f   libucrt:initialization.obj
 0001:00022970       uninitialize_global_state_isolation 0000000180023970 f   libucrt:initialization.obj
 0001:00022970       initialize_global_state_isolation 0000000180023970 f   libucrt:initialization.obj
 0001:00022970       uninitialize_c             0000000180023970 f   libucrt:initialization.obj
 0001:00022970       initialize_environment     0000000180023970 f   libucrt:initialization.obj
 0001:00022970       report_memory_leaks        0000000180023970 f   libucrt:initialization.obj
 0001:00022d94       ?construct_ptd_array@@YAXQEAU__acrt_ptd@@@Z 0000000180023d94 f   libucrt:per_thread_data.obj
 0001:00022e64       ?destroy_fls@@YAXPEAX@Z    0000000180023e64 f   libucrt:per_thread_data.obj
 0001:00022e84       ?destroy_ptd_array@@YAXQEAU__acrt_ptd@@@Z 0000000180023e84 f   libucrt:per_thread_data.obj
 0001:00022f7c       ?replace_current_thread_locale_nolock@@YAXQEAU__acrt_ptd@@QEAU__crt_locale_data@@@Z 0000000180023f7c f   libucrt:per_thread_data.obj
 0001:00023408       ?try_get_function@@YAPEAXW4function_id@?A0x63058377@@QEBDQEBW4module_id@2@2@Z 0000000180024408 f   libucrt:winapi_thunks.obj
 0001:000239ec       ?<helper_func_cdecl>@<lambda_2feae5270eb4d0d5532525f423405775>@@CAHPEBX0@Z 00000001800249ec f   libucrt:argv_wildcards.obj
 0001:00023a00       ??$common_expand_argv_wildcards@D@@YAHQEAPEADQEAPEAPEAD@Z 0000000180024a00 f   libucrt:argv_wildcards.obj
 0001:00023c0c       ??$copy_and_add_argument_to_buffer@D@@YAHQEBD0_KAEAV?$argument_list@D@?A0xca0879c4@@@Z 0000000180024c0c f   libucrt:argv_wildcards.obj
 0001:00023d1c       ??$expand_argument_wildcards@D@@YAHQEAD0AEAV?$argument_list@D@?A0xca0879c4@@@Z 0000000180024d1c f   libucrt:argv_wildcards.obj
 0001:00023fd0       ??R<lambda_ad1ced32f4ac17aa236e5ef05d6b3b7c>@@QEBAXXZ 0000000180024fd0 f   libucrt:mbctype.obj
 0001:000241e8       ?getSystemCP@@YAHH@Z       00000001800251e8 f   libucrt:mbctype.obj
 0001:00024268       ?setSBCS@@YAXPEAU__crt_multibyte_data@@@Z 0000000180025268 f   libucrt:mbctype.obj
 0001:000242f8       ?setSBUpLow@@YAXPEAU__crt_multibyte_data@@@Z 00000001800252f8 f   libucrt:mbctype.obj
 0001:000244dc       ?setmbcp_internal@@YAHH_N@Z 00000001800254dc f   libucrt:mbctype.obj
 0001:00024a24       ?x_ismbbtype_l@@YAHPEAU__crt_locale_pointers@@IHH@Z 0000000180025a24 f   libucrt:ismbbyte.obj
 0001:00024ca4       ?initialize_inherited_file_handles_nolock@@YAXXZ 0000000180025ca4 f   libucrt:ioinit.obj
 0001:00024d90       ?initialize_stdio_handles_nolock@@YAXXZ 0000000180025d90 f   libucrt:ioinit.obj
 0001:00025b20       ?__acrt_LCMapStringA_stat@@YAHPEAU__crt_locale_pointers@@PEB_WKPEBDHPEADHHH@Z 0000000180026b20 f   libucrt:lcmapstringa.obj
 0001:0002608c       ?free_crt_array_internal@@YAXQEAPEBX_K@Z 000000018002708c f   libucrt:inittime.obj
 0001:000263a0       ?GetTableIndexFromLocaleName@@YAHPEB_W@Z 00000001800273a0 f   libucrt:lcidtoname_downlevel.obj
 0001:000264a0       ?shortsort@@YAXPEAD0_KP6AHPEBX2@Z@Z 00000001800274a0 f   libucrt:qsort.obj
 0001:00026ab8       ?initialize_multibyte@@YAHXZ 0000000180027ab8 f   libucrt:multibyte_initializer.obj
 0001:00026fdc       common_flush_all           0000000180027fdc f   libucrt:fflush.obj
 0001:000272f4       ?write_double_translated_ansi_nolock@@YA?AUwrite_result@?A0x9c548279@@HQEBDI@Z 00000001800282f4 f   libucrt:write.obj
 0001:000274fc       ?write_text_ansi_nolock@@YA?AUwrite_result@?A0x9c548279@@HQEBDI@Z 00000001800284fc f   libucrt:write.obj
 0001:00027604       ?write_text_utf16le_nolock@@YA?AUwrite_result@?A0x9c548279@@HQEBDI@Z 0000000180028604 f   libucrt:write.obj
 0001:00027720       ?write_text_utf8_nolock@@YA?AUwrite_result@?A0x9c548279@@HQEBDI@Z 0000000180028720 f   libucrt:write.obj
 0001:00027c70       $$000000                   0000000180028c70     libucrt:log10.obj
 0001:0002821c       ??$common_lseek_nolock@_J@@YA_JH_JH@Z 000000018002921c f   libucrt:lseek.obj
 0001:0002840c       _call_matherr              000000018002940c f   libucrt:libm_error.obj
 0001:00028474       _exception_enabled         0000000180029474 f   libucrt:libm_error.obj
 0001:000286f0       _log_special_common        00000001800296f0 f   libucrt:log_special.obj
 0001:00028a00       $$000000                   0000000180029a00     libucrt:fpsr.obj
 0001:00028f70       $$000000                   0000000180029f70     LIBCMT:_chkstk_.obj
 0001:00028fe0       $$000000                   0000000180029fe0     libvcruntime:memcmp.obj
 0001:00029140       $$000000                   000000018002a140     LIBCMT:_guard_dispatch_.obj
 0001:00029160       ?dtor$0@?0??_Makestr@_System_error@std@@CA?AV?$basic_string@DU?$char_traits@D@std@@V?$allocator@D@2@@2@Verror_code@2@V32@@Z@4HA 000000018002a160 f   VError.obj
 0001:0002916c       ?dtor$1@?0??_Makestr@_System_error@std@@CA?AV?$basic_string@DU?$char_traits@D@std@@V?$allocator@D@2@@2@Verror_code@2@V32@@Z@4HA 000000018002a16c f   VError.obj
 0001:00029180       ?dtor$4@?0??clear@ios_base@std@@QEAAXH_N@Z@4HA 000000018002a180 f   VError.obj
 0001:0002918c       ?dtor$0@?0??clear@ios_base@std@@QEAAXH_N@Z@4HA 000000018002a18c f   VError.obj
 0001:00029198       ?dtor$14@?0??clear@ios_base@std@@QEAAXH_N@Z@4HA 000000018002a198 f   VError.obj
 0001:000291a4       ?dtor$1@?0??clear@ios_base@std@@QEAAXH_N@Z@4HA 000000018002a1a4 f   VError.obj
 0001:000291b0       ?dtor$24@?0??clear@ios_base@std@@QEAAXH_N@Z@4HA 000000018002a1b0 f   VError.obj
 0001:000291bc       ?dtor$2@?0??clear@ios_base@std@@QEAAXH_N@Z@4HA 000000018002a1bc f   VError.obj
 0001:000291d0       ?dtor$0@?0???0VError@vips@@QEAA@V?$basic_string@DU?$char_traits@D@std@@V?$allocator@D@2@@std@@@Z@4HA 000000018002a1d0 f   VError.obj
 0001:000291dc       ?dtor$1@?0???0VError@vips@@QEAA@V?$basic_string@DU?$char_traits@D@std@@V?$allocator@D@2@@std@@@Z@4HA 000000018002a1dc f   VError.obj
 0001:000291f0       ?dtor$0@?0???0VError@vips@@QEAA@AEBV01@@Z@4HA 000000018002a1f0 f   VError.obj
 0001:000291f0       ?dtor$0@?0???0VError@vips@@QEAA@XZ@4HA 000000018002a1f0 f   VError.obj
 0001:00029200       ?dtor$0@?0??get_double@VImage@vips@@QEAANPEBD@Z@4HA 000000018002a200 f   VError.obj
 0001:00029200       ?dtor$0@?0??get_int@VImage@vips@@QEAAHPEBD@Z@4HA 000000018002a200 f   VError.obj
 0001:00029200       ?dtor$0@?0??get_string@VImage@vips@@QEAAPEBDPEBD@Z@4HA 000000018002a200 f   VError.obj
 0001:00029200       ?dtor$1@?0??new_temp_file@VImage@vips@@SA?AV12@PEBD@Z@4HA 000000018002a200 f   VError.obj
 0001:00029200       ?dtor$1@?0??new_from_memory@VImage@vips@@SA?AV12@PEAX_KHHHW4VipsBandFormat@@@Z@4HA 000000018002a200 f   VError.obj
 0001:00029200       ?dtor$0@?0??get_blob@VImage@vips@@QEAAPEBXPEBDPEA_K@Z@4HA 000000018002a200 f   VError.obj
 0001:00029200       ?dtor$1@?0??write_to_file@VImage@vips@@QEAAXPEBDPEAVVOption@2@@Z@4HA 000000018002a200 f   VImage.obj
 0001:00029200       ?dtor$1@?0??new_from_name@VInterpolate@vips@@SA?AV12@PEBDPEAVVOption@2@@Z@4HA 000000018002a200 f   VInterpolate.obj
 0001:00029200       ?dtor$1@?0??new_matrix@VImage@vips@@SA?AV12@HHPEANH@Z@4HA 000000018002a200 f   VError.obj
 0001:00029210       ?dtor$0@?0??option@VImage@vips@@SAPEAVVOption@2@XZ@4HA 000000018002a210 f   VError.obj
 0001:00029230       ?dtor$0@?0??write_to_memory@VImage@vips@@QEAAPEAXPEA_K@Z@4HA 000000018002a230 f   VError.obj
 0001:00029240       ?dtor$0@?0??linear@VImage@vips@@QEAA?AV12@NNPEAVVOption@2@@Z@4HA 000000018002a240 f   VError.obj
 0001:00029240       ?dtor$0@?0??ifthenelse@VImage@vips@@QEAA?AV12@NNPEAVVOption@2@@Z@4HA 000000018002a240 f   VError.obj
 0001:00029250       ?dtor$0@?0??linear@VImage@vips@@QEAA?AV12@V?$vector@NV?$allocator@N@std@@@std@@NPEAVVOption@2@@Z@4HA 000000018002a250 f   VError.obj
 0001:0002925c       ?dtor$1@?0??linear@VImage@vips@@QEAA?AV12@V?$vector@NV?$allocator@N@std@@@std@@NPEAVVOption@2@@Z@4HA 000000018002a25c f   VError.obj
 0001:00029270       ?dtor$0@?0??linear@VImage@vips@@QEAA?AV12@NV?$vector@NV?$allocator@N@std@@@std@@PEAVVOption@2@@Z@4HA 000000018002a270 f   VError.obj
 0001:0002927c       ?dtor$1@?0??linear@VImage@vips@@QEAA?AV12@NV?$vector@NV?$allocator@N@std@@@std@@PEAVVOption@2@@Z@4HA 000000018002a27c f   VError.obj
 0001:00029290       ?dtor$0@?0??bandjoin@VImage@vips@@QEAA?AV12@V?$vector@NV?$allocator@N@std@@@std@@PEAVVOption@2@@Z@4HA 000000018002a290 f   VError.obj
 0001:000292a0       ?dtor$0@?0??wop@VImage@vips@@QEAA?AV12@V12@PEAVVOption@2@@Z@4HA 000000018002a2a0 f   VError.obj
 0001:000292a0       ?dtor$0@?0??pow@VImage@vips@@QEAA?AV12@V12@PEAVVOption@2@@Z@4HA 000000018002a2a0 f   VError.obj
 0001:000292a0       ?dtor$0@?0??erode@VImage@vips@@QEAA?AV12@V12@PEAVVOption@2@@Z@4HA 000000018002a2a0 f   VError.obj
 0001:000292a0       ?dtor$0@?0??dilate@VImage@vips@@QEAA?AV12@V12@PEAVVOption@2@@Z@4HA 000000018002a2a0 f   VError.obj
 0001:000292b0       ?dtor$0@?0??pow@VImage@vips@@QEAA?AV12@V?$vector@NV?$allocator@N@std@@@std@@PEAVVOption@2@@Z@4HA 000000018002a2b0 f   VError.obj
 0001:000292b0       ?dtor$0@?0??wop@VImage@vips@@QEAA?AV12@V?$vector@NV?$allocator@N@std@@@std@@PEAVVOption@2@@Z@4HA 000000018002a2b0 f   VError.obj
 0001:000292c0       ?dtor$0@?0??ifthenelse@VImage@vips@@QEAA?AV12@V?$vector@NV?$allocator@N@std@@@std@@V12@PEAVVOption@2@@Z@4HA 000000018002a2c0 f   VError.obj
 0001:000292cc       ?dtor$1@?0??ifthenelse@VImage@vips@@QEAA?AV12@V?$vector@NV?$allocator@N@std@@@std@@V12@PEAVVOption@2@@Z@4HA 000000018002a2cc f   VError.obj
 0001:000292d8       ?dtor$2@?0??ifthenelse@VImage@vips@@QEAA?AV12@V?$vector@NV?$allocator@N@std@@@std@@V12@PEAVVOption@2@@Z@4HA 000000018002a2d8 f   VError.obj
 0001:000292f0       ?dtor$0@?0??ifthenelse@VImage@vips@@QEAA?AV12@V12@V?$vector@NV?$allocator@N@std@@@std@@PEAVVOption@2@@Z@4HA 000000018002a2f0 f   VError.obj
 0001:000292fc       ?dtor$1@?0??ifthenelse@VImage@vips@@QEAA?AV12@V12@V?$vector@NV?$allocator@N@std@@@std@@PEAVVOption@2@@Z@4HA 000000018002a2fc f   VError.obj
 0001:00029310       ?dtor$0@?0??ifthenelse@VImage@vips@@QEAA?AV12@V?$vector@NV?$allocator@N@std@@@std@@0PEAVVOption@2@@Z@4HA 000000018002a310 f   VError.obj
 0001:0002931c       ?dtor$1@?0??ifthenelse@VImage@vips@@QEAA?AV12@V?$vector@NV?$allocator@N@std@@@std@@0PEAVVOption@2@@Z@4HA 000000018002a31c f   VError.obj
 0001:00029328       ?dtor$3@?0??ifthenelse@VImage@vips@@QEAA?AV12@V?$vector@NV?$allocator@N@std@@@std@@0PEAVVOption@2@@Z@4HA 000000018002a328 f   VError.obj
 0001:00029340       ?dtor$0@?0??ifthenelse@VImage@vips@@QEAA?AV12@NV12@PEAVVOption@2@@Z@4HA 000000018002a340 f   VError.obj
 0001:0002934c       ?dtor$1@?0??ifthenelse@VImage@vips@@QEAA?AV12@NV12@PEAVVOption@2@@Z@4HA 000000018002a34c f   VError.obj
 0001:00029360       ?dtor$0@?0??ifthenelse@VImage@vips@@QEAA?AV12@V12@NPEAVVOption@2@@Z@4HA 000000018002a360 f   VError.obj
 0001:00029370       ?dtor$0@?0???0?$list@PEAUPair@VOption@vips@@V?$allocator@PEAUPair@VOption@vips@@@std@@@std@@QEAA@AEBV01@@Z@4HA 000000018002a370 f   VError.obj
 0001:00029380       ?dtor$1@?0???$?6DU?$char_traits@D@std@@V?$allocator@D@1@@std@@YAAEAV?$basic_ostream@DU?$char_traits@D@std@@@0@AEAV10@AEBV?$basic_string@DU?$char_traits@D@std@@V?$allocator@D@2@@0@@Z@4HA 000000018002a380 f   VError.obj
 0001:0002938c       ?dtor$0@?0???$?6DU?$char_traits@D@std@@V?$allocator@D@1@@std@@YAAEAV?$basic_ostream@DU?$char_traits@D@std@@@0@AEAV10@AEBV?$basic_string@DU?$char_traits@D@std@@V?$allocator@D@2@@0@@Z@4HA 000000018002a38c f   VError.obj
 0001:000293a0       ?dtor$0@?0???0sentry@?$basic_ostream@DU?$char_traits@D@std@@@std@@QEAA@AEAV12@@Z@4HA 000000018002a3a0 f   VError.obj
 0001:000293b0       ?dtor$0@?0??flush@?$basic_ostream@DU?$char_traits@D@std@@@std@@QEAAAEAV12@XZ@4HA 000000018002a3b0 f   VError.obj
 0001:000293c0       ?dtor$0@?0??set@VOption@vips@@QEAAPEAV12@PEBDVVInterpolate@2@@Z@4HA 000000018002a3c0 f   VInterpolate.obj
 0001:000293c0       ?dtor$0@?0???Uvips@@YA?AVVImage@0@NV10@@Z@4HA 000000018002a3c0 f   VImage.obj
 0001:000293c0       ?dtor$0@?0???8vips@@YA?AVVImage@0@NV10@@Z@4HA 000000018002a3c0 f   VImage.obj
 0001:000293c0       ?dtor$0@?0???9vips@@YA?AVVImage@0@NV10@@Z@4HA 000000018002a3c0 f   VImage.obj
 0001:000293c0       ?dtor$0@?0??set@VOption@vips@@QEAAPEAV12@PEBDVVImage@2@@Z@4HA 000000018002a3c0 f   VImage.obj
 0001:000293c0       ?dtor$0@?0???Tvips@@YA?AVVImage@0@NV10@@Z@4HA 000000018002a3c0 f   VImage.obj
 0001:000293c0       ?dtor$0@?0???Ivips@@YA?AVVImage@0@NV10@@Z@4HA 000000018002a3c0 f   VImage.obj
 0001:000293c0       ?dtor$0@?0???Pvips@@YA?AVVImage@0@NV10@@Z@4HA 000000018002a3c0 f   VImage.obj
 0001:000293c0       ?dtor$0@?0???Mvips@@YA?AVVImage@0@NV10@@Z@4HA 000000018002a3c0 f   VImage.obj
 0001:000293c0       ?dtor$0@?0???Ovips@@YA?AVVImage@0@NV10@@Z@4HA 000000018002a3c0 f   VImage.obj
 0001:000293c0       ?dtor$0@?0???Nvips@@YA?AVVImage@0@NV10@@Z@4HA 000000018002a3c0 f   VImage.obj
 0001:000293d0       ?dtor$0@?0??invert@vips@@YA?AV?$vector@NV?$allocator@N@std@@@std@@V23@@Z@4HA 000000018002a3d0 f   VImage.obj
 0001:000293d0       ?dtor$0@?0??negate@vips@@YA?AV?$vector@NV?$allocator@N@std@@@std@@V23@@Z@4HA 000000018002a3d0 f   VImage.obj
 0001:000293e0       ?dtor$0@?0??set@VOption@vips@@QEAAPEAV12@PEBDV?$vector@NV?$allocator@N@std@@@std@@@Z@4HA 000000018002a3e0 f   VImage.obj
 0001:000293f0       ?dtor$0@?0??set@VOption@vips@@QEAAPEAV12@PEBDV?$vector@VVImage@vips@@V?$allocator@VVImage@vips@@@std@@@std@@@Z@4HA 000000018002a3f0 f   VImage.obj
 0001:00029400       ?dtor$0@?0??call_option_string@VImage@vips@@SAXPEBD0PEAVVOption@2@@Z@4HA 000000018002a400 f   VImage.obj
 0001:0002940c       ?dtor$2@?0??call_option_string@VImage@vips@@SAXPEBD0PEAVVOption@2@@Z@4HA 000000018002a40c f   VImage.obj
 0001:00029418       ?dtor$4@?0??call_option_string@VImage@vips@@SAXPEBD0PEAVVOption@2@@Z@4HA 000000018002a418 f   VImage.obj
 0001:00029430       ?dtor$0@?0??new_from_file@VImage@vips@@SA?AV12@PEBDPEAVVOption@2@@Z@4HA 000000018002a430 f   VImage.obj
 0001:00029430       ?dtor$0@?0??new_from_buffer@VImage@vips@@SA?AV12@PEAX_KPEBDPEAVVOption@2@@Z@4HA 000000018002a430 f   VImage.obj
 0001:00029456       ?dtor$1@?0??new_from_buffer@VImage@vips@@SA?AV12@PEAX_KPEBDPEAVVOption@2@@Z@4HA 000000018002a456 f   VImage.obj
 0001:00029456       ?dtor$1@?0??new_from_file@VImage@vips@@SA?AV12@PEBDPEAVVOption@2@@Z@4HA 000000018002a456 f   VImage.obj
 0001:00029470       ?dtor$0@?0??new_from_image@VImage@vips@@QEAA?AV12@V?$vector@NV?$allocator@N@std@@@std@@@Z@4HA 000000018002a470 f   VImage.obj
 0001:0002947c       ?dtor$1@?0??new_from_image@VImage@vips@@QEAA?AV12@V?$vector@NV?$allocator@N@std@@@std@@@Z@4HA 000000018002a47c f   VImage.obj
 0001:00029488       ?dtor$4@?0??new_from_image@VImage@vips@@QEAA?AV12@V?$vector@NV?$allocator@N@std@@@std@@@Z@4HA 000000018002a488 f   VImage.obj
 0001:00029494       ?dtor$6@?0??new_from_image@VImage@vips@@QEAA?AV12@V?$vector@NV?$allocator@N@std@@@std@@@Z@4HA 000000018002a494 f   VImage.obj
 0001:000294c0       ?dtor$0@?0??write@VImage@vips@@QEAA?AV12@V12@@Z@4HA 000000018002a4c0 f   VImage.obj
 0001:000294cc       ?dtor$2@?0??write@VImage@vips@@QEAA?AV12@V12@@Z@4HA 000000018002a4cc f   VImage.obj
 0001:000294e0       ?dtor$1@?0??write_to_buffer@VImage@vips@@QEAAXPEBDPEAPEAXPEA_KPEAVVOption@2@@Z@4HA 000000018002a4e0 f   VImage.obj
 0001:000294f0       ?dtor$0@?0??subtract@VImage@vips@@QEAA?AV12@V12@PEAVVOption@2@@Z@4HA 000000018002a4f0 f   VImage.obj
 0001:000294f0       ?dtor$0@?0??phasecor@VImage@vips@@QEAA?AV12@V12@PEAVVOption@2@@Z@4HA 000000018002a4f0 f   VImage.obj
 0001:000294f0       ?dtor$0@?0??compass@VImage@vips@@QEAA?AV12@V12@PEAVVOption@2@@Z@4HA 000000018002a4f0 f   VImage.obj
 0001:000294f0       ?dtor$0@?0??complexform@VImage@vips@@QEAA?AV12@V12@PEAVVOption@2@@Z@4HA 000000018002a4f0 f   VImage.obj
 0001:000294f0       ?dtor$0@?0??add@VImage@vips@@QEAA?AV12@V12@PEAVVOption@2@@Z@4HA 000000018002a4f0 f   VImage.obj
 0001:000294f0       ?dtor$0@?0??remainder@VImage@vips@@QEAA?AV12@V12@PEAVVOption@2@@Z@4HA 000000018002a4f0 f   VImage.obj
 0001:000294f0       ?dtor$0@?0??recomb@VImage@vips@@QEAA?AV12@V12@PEAVVOption@2@@Z@4HA 000000018002a4f0 f   VImage.obj
 0001:000294f0       ?dtor$0@?0??multiply@VImage@vips@@QEAA?AV12@V12@PEAVVOption@2@@Z@4HA 000000018002a4f0 f   VImage.obj
 0001:000294f0       ?dtor$0@?0??conv@VImage@vips@@QEAA?AV12@V12@PEAVVOption@2@@Z@4HA 000000018002a4f0 f   VImage.obj
 0001:000294f0       ?dtor$0@?0??maplut@VImage@vips@@QEAA?AV12@V12@PEAVVOption@2@@Z@4HA 000000018002a4f0 f   VImage.obj
 0001:000294f0       ?dtor$0@?0??mapim@VImage@vips@@QEAA?AV12@V12@PEAVVOption@2@@Z@4HA 000000018002a4f0 f   VImage.obj
 0001:000294f0       ?dtor$0@?0??spcor@VImage@vips@@QEAA?AV12@V12@PEAVVOption@2@@Z@4HA 000000018002a4f0 f   VImage.obj
 0001:000294f0       ?dtor$0@?0??conva@VImage@vips@@QEAA?AV12@V12@PEAVVOption@2@@Z@4HA 000000018002a4f0 f   VImage.obj
 0001:000294f0       ?dtor$0@?0??convasep@VImage@vips@@QEAA?AV12@V12@PEAVVOption@2@@Z@4HA 000000018002a4f0 f   VImage.obj
 0001:000294f0       ?dtor$0@?0??hist_match@VImage@vips@@QEAA?AV12@V12@PEAVVOption@2@@Z@4HA 000000018002a4f0 f   VImage.obj
 0001:000294f0       ?dtor$0@?0??hist_find_indexed@VImage@vips@@QEAA?AV12@V12@PEAVVOption@2@@Z@4HA 000000018002a4f0 f   VImage.obj
 0001:000294f0       ?dtor$0@?0??freqmult@VImage@vips@@QEAA?AV12@V12@PEAVVOption@2@@Z@4HA 000000018002a4f0 f   VImage.obj
 0001:000294f0       ?dtor$0@?0??fastcor@VImage@vips@@QEAA?AV12@V12@PEAVVOption@2@@Z@4HA 000000018002a4f0 f   VImage.obj
 0001:000294f0       ?dtor$0@?0??quadratic@VImage@vips@@QEAA?AV12@V12@PEAVVOption@2@@Z@4HA 000000018002a4f0 f   VImage.obj
 0001:000294f0       ?dtor$0@?0??convf@VImage@vips@@QEAA?AV12@V12@PEAVVOption@2@@Z@4HA 000000018002a4f0 f   VImage.obj
 0001:000294f0       ?dtor$0@?0??divide@VImage@vips@@QEAA?AV12@V12@PEAVVOption@2@@Z@4HA 000000018002a4f0 f   VImage.obj
 0001:000294f0       ?dtor$0@?0??convi@VImage@vips@@QEAA?AV12@V12@PEAVVOption@2@@Z@4HA 000000018002a4f0 f   VImage.obj
 0001:000294f0       ?dtor$0@?0??dECMC@VImage@vips@@QEAA?AV12@V12@PEAVVOption@2@@Z@4HA 000000018002a4f0 f   VImage.obj
 0001:000294f0       ?dtor$0@?0??dE76@VImage@vips@@QEAA?AV12@V12@PEAVVOption@2@@Z@4HA 000000018002a4f0 f   VImage.obj
 0001:000294f0       ?dtor$0@?0??dE00@VImage@vips@@QEAA?AV12@V12@PEAVVOption@2@@Z@4HA 000000018002a4f0 f   VImage.obj
 0001:000294f0       ?dtor$0@?0??convsep@VImage@vips@@QEAA?AV12@V12@PEAVVOption@2@@Z@4HA 000000018002a4f0 f   VImage.obj
 0001:000294fc       ?dtor$1@?0??subtract@VImage@vips@@QEAA?AV12@V12@PEAVVOption@2@@Z@4HA 000000018002a4fc f   VImage.obj
 0001:000294fc       ?dtor$1@?0??maplut@VImage@vips@@QEAA?AV12@V12@PEAVVOption@2@@Z@4HA 000000018002a4fc f   VImage.obj
 0001:000294fc       ?dtor$1@?0??mapim@VImage@vips@@QEAA?AV12@V12@PEAVVOption@2@@Z@4HA 000000018002a4fc f   VImage.obj
 0001:000294fc       ?dtor$1@?0??remainder@VImage@vips@@QEAA?AV12@V12@PEAVVOption@2@@Z@4HA 000000018002a4fc f   VImage.obj
 0001:000294fc       ?dtor$1@?0??divide@VImage@vips@@QEAA?AV12@V12@PEAVVOption@2@@Z@4HA 000000018002a4fc f   VImage.obj
 0001:000294fc       ?dtor$1@?0??dECMC@VImage@vips@@QEAA?AV12@V12@PEAVVOption@2@@Z@4HA 000000018002a4fc f   VImage.obj
 0001:000294fc       ?dtor$1@?0??dE76@VImage@vips@@QEAA?AV12@V12@PEAVVOption@2@@Z@4HA 000000018002a4fc f   VImage.obj
 0001:000294fc       ?dtor$1@?0??dE00@VImage@vips@@QEAA?AV12@V12@PEAVVOption@2@@Z@4HA 000000018002a4fc f   VImage.obj
 0001:000294fc       ?dtor$1@?0??convsep@VImage@vips@@QEAA?AV12@V12@PEAVVOption@2@@Z@4HA 000000018002a4fc f   VImage.obj
 0001:000294fc       ?dtor$1@?0??convi@VImage@vips@@QEAA?AV12@V12@PEAVVOption@2@@Z@4HA 000000018002a4fc f   VImage.obj
 0001:000294fc       ?dtor$1@?0??convf@VImage@vips@@QEAA?AV12@V12@PEAVVOption@2@@Z@4HA 000000018002a4fc f   VImage.obj
 0001:000294fc       ?dtor$1@?0??convasep@VImage@vips@@QEAA?AV12@V12@PEAVVOption@2@@Z@4HA 000000018002a4fc f   VImage.obj
 0001:000294fc       ?dtor$1@?0??conva@VImage@vips@@QEAA?AV12@V12@PEAVVOption@2@@Z@4HA 000000018002a4fc f   VImage.obj
 0001:000294fc       ?dtor$1@?0??conv@VImage@vips@@QEAA?AV12@V12@PEAVVOption@2@@Z@4HA 000000018002a4fc f   VImage.obj
 0001:000294fc       ?dtor$1@?0??complexform@VImage@vips@@QEAA?AV12@V12@PEAVVOption@2@@Z@4HA 000000018002a4fc f   VImage.obj
 0001:000294fc       ?dtor$1@?0??hist_match@VImage@vips@@QEAA?AV12@V12@PEAVVOption@2@@Z@4HA 000000018002a4fc f   VImage.obj
 0001:000294fc       ?dtor$1@?0??compass@VImage@vips@@QEAA?AV12@V12@PEAVVOption@2@@Z@4HA 000000018002a4fc f   VImage.obj
 0001:000294fc       ?dtor$1@?0??recomb@VImage@vips@@QEAA?AV12@V12@PEAVVOption@2@@Z@4HA 000000018002a4fc f   VImage.obj
 0001:000294fc       ?dtor$1@?0??hist_find_indexed@VImage@vips@@QEAA?AV12@V12@PEAVVOption@2@@Z@4HA 000000018002a4fc f   VImage.obj
 0001:000294fc       ?dtor$1@?0??freqmult@VImage@vips@@QEAA?AV12@V12@PEAVVOption@2@@Z@4HA 000000018002a4fc f   VImage.obj
 0001:000294fc       ?dtor$1@?0??quadratic@VImage@vips@@QEAA?AV12@V12@PEAVVOption@2@@Z@4HA 000000018002a4fc f   VImage.obj
 0001:000294fc       ?dtor$1@?0??phasecor@VImage@vips@@QEAA?AV12@V12@PEAVVOption@2@@Z@4HA 000000018002a4fc f   VImage.obj
 0001:000294fc       ?dtor$1@?0??multiply@VImage@vips@@QEAA?AV12@V12@PEAVVOption@2@@Z@4HA 000000018002a4fc f   VImage.obj
 0001:000294fc       ?dtor$1@?0??spcor@VImage@vips@@QEAA?AV12@V12@PEAVVOption@2@@Z@4HA 000000018002a4fc f   VImage.obj
 0001:000294fc       ?dtor$1@?0??add@VImage@vips@@QEAA?AV12@V12@PEAVVOption@2@@Z@4HA 000000018002a4fc f   VImage.obj
 0001:000294fc       ?dtor$1@?0??fastcor@VImage@vips@@QEAA?AV12@V12@PEAVVOption@2@@Z@4HA 000000018002a4fc f   VImage.obj
 0001:00029525       ?dtor$2@?0??dE00@VImage@vips@@QEAA?AV12@V12@PEAVVOption@2@@Z@4HA 000000018002a525 f   VImage.obj
 0001:00029525       ?dtor$2@?0??dE76@VImage@vips@@QEAA?AV12@V12@PEAVVOption@2@@Z@4HA 000000018002a525 f   VImage.obj
 0001:00029525       ?dtor$2@?0??dECMC@VImage@vips@@QEAA?AV12@V12@PEAVVOption@2@@Z@4HA 000000018002a525 f   VImage.obj
 0001:00029525       ?dtor$2@?0??divide@VImage@vips@@QEAA?AV12@V12@PEAVVOption@2@@Z@4HA 000000018002a525 f   VImage.obj
 0001:00029525       ?dtor$2@?0??fastcor@VImage@vips@@QEAA?AV12@V12@PEAVVOption@2@@Z@4HA 000000018002a525 f   VImage.obj
 0001:00029525       ?dtor$2@?0??freqmult@VImage@vips@@QEAA?AV12@V12@PEAVVOption@2@@Z@4HA 000000018002a525 f   VImage.obj
 0001:00029525       ?dtor$2@?0??convsep@VImage@vips@@QEAA?AV12@V12@PEAVVOption@2@@Z@4HA 000000018002a525 f   VImage.obj
 0001:00029525       ?dtor$2@?0??hist_find_indexed@VImage@vips@@QEAA?AV12@V12@PEAVVOption@2@@Z@4HA 000000018002a525 f   VImage.obj
 0001:00029525       ?dtor$2@?0??hist_match@VImage@vips@@QEAA?AV12@V12@PEAVVOption@2@@Z@4HA 000000018002a525 f   VImage.obj
 0001:00029525       ?dtor$2@?0??mapim@VImage@vips@@QEAA?AV12@V12@PEAVVOption@2@@Z@4HA 000000018002a525 f   VImage.obj
 0001:00029525       ?dtor$2@?0??convf@VImage@vips@@QEAA?AV12@V12@PEAVVOption@2@@Z@4HA 000000018002a525 f   VImage.obj
 0001:00029525       ?dtor$2@?0??maplut@VImage@vips@@QEAA?AV12@V12@PEAVVOption@2@@Z@4HA 000000018002a525 f   VImage.obj
 0001:00029525       ?dtor$2@?0??multiply@VImage@vips@@QEAA?AV12@V12@PEAVVOption@2@@Z@4HA 000000018002a525 f   VImage.obj
 0001:00029525       ?dtor$2@?0??phasecor@VImage@vips@@QEAA?AV12@V12@PEAVVOption@2@@Z@4HA 000000018002a525 f   VImage.obj
 0001:00029525       ?dtor$2@?0??convasep@VImage@vips@@QEAA?AV12@V12@PEAVVOption@2@@Z@4HA 000000018002a525 f   VImage.obj
 0001:00029525       ?dtor$2@?0??conva@VImage@vips@@QEAA?AV12@V12@PEAVVOption@2@@Z@4HA 000000018002a525 f   VImage.obj
 0001:00029525       ?dtor$2@?0??conv@VImage@vips@@QEAA?AV12@V12@PEAVVOption@2@@Z@4HA 000000018002a525 f   VImage.obj
 0001:00029525       ?dtor$2@?0??quadratic@VImage@vips@@QEAA?AV12@V12@PEAVVOption@2@@Z@4HA 000000018002a525 f   VImage.obj
 0001:00029525       ?dtor$2@?0??add@VImage@vips@@QEAA?AV12@V12@PEAVVOption@2@@Z@4HA 000000018002a525 f   VImage.obj
 0001:00029525       ?dtor$2@?0??complexform@VImage@vips@@QEAA?AV12@V12@PEAVVOption@2@@Z@4HA 000000018002a525 f   VImage.obj
 0001:00029525       ?dtor$2@?0??convi@VImage@vips@@QEAA?AV12@V12@PEAVVOption@2@@Z@4HA 000000018002a525 f   VImage.obj
 0001:00029525       ?dtor$2@?0??subtract@VImage@vips@@QEAA?AV12@V12@PEAVVOption@2@@Z@4HA 000000018002a525 f   VImage.obj
 0001:00029525       ?dtor$2@?0??recomb@VImage@vips@@QEAA?AV12@V12@PEAVVOption@2@@Z@4HA 000000018002a525 f   VImage.obj
 0001:00029525       ?dtor$2@?0??spcor@VImage@vips@@QEAA?AV12@V12@PEAVVOption@2@@Z@4HA 000000018002a525 f   VImage.obj
 0001:00029525       ?dtor$2@?0??compass@VImage@vips@@QEAA?AV12@V12@PEAVVOption@2@@Z@4HA 000000018002a525 f   VImage.obj
 0001:00029525       ?dtor$2@?0??remainder@VImage@vips@@QEAA?AV12@V12@PEAVVOption@2@@Z@4HA 000000018002a525 f   VImage.obj
 0001:00029540       ?dtor$0@?0??match@VImage@vips@@QEAA?AV12@V12@HHHHHHHHPEAVVOption@2@@Z@4HA 000000018002a540 f   VImage.obj
 0001:00029540       ?dtor$0@?0??complex2@VImage@vips@@QEAA?AV12@V12@W4VipsOperationComplex2@@PEAVVOption@2@@Z@4HA 000000018002a540 f   VImage.obj
 0001:00029540       ?dtor$0@?0??math2@VImage@vips@@QEAA?AV12@V12@W4VipsOperationMath2@@PEAVVOption@2@@Z@4HA 000000018002a540 f   VImage.obj
 0001:00029540       ?dtor$0@?0??relational@VImage@vips@@QEAA?AV12@V12@W4VipsOperationRelational@@PEAVVOption@2@@Z@4HA 000000018002a540 f   VImage.obj
 0001:00029540       ?dtor$0@?0??mosaic1@VImage@vips@@QEAA?AV12@V12@W4VipsDirection@@HHHHHHHHPEAVVOption@2@@Z@4HA 000000018002a540 f   VImage.obj
 0001:00029540       ?dtor$0@?0??insert@VImage@vips@@QEAA?AV12@V12@HHPEAVVOption@2@@Z@4HA 000000018002a540 f   VImage.obj
 0001:00029540       ?dtor$0@?0??morph@VImage@vips@@QEAA?AV12@V12@W4VipsOperationMorphology@@PEAVVOption@2@@Z@4HA 000000018002a540 f   VImage.obj
 0001:00029540       ?dtor$0@?0??join@VImage@vips@@QEAA?AV12@V12@W4VipsDirection@@PEAVVOption@2@@Z@4HA 000000018002a540 f   VImage.obj
 0001:00029540       ?dtor$0@?0??boolean@VImage@vips@@QEAA?AV12@V12@W4VipsOperationBoolean@@PEAVVOption@2@@Z@4HA 000000018002a540 f   VImage.obj
 0001:00029540       ?dtor$0@?0??merge@VImage@vips@@QEAA?AV12@V12@W4VipsDirection@@HHPEAVVOption@2@@Z@4HA 000000018002a540 f   VImage.obj
 0001:00029540       ?dtor$0@?0??mosaic@VImage@vips@@QEAA?AV12@V12@W4VipsDirection@@HHHHPEAVVOption@2@@Z@4HA 000000018002a540 f   VImage.obj
 0001:0002954c       ?dtor$1@?0??morph@VImage@vips@@QEAA?AV12@V12@W4VipsOperationMorphology@@PEAVVOption@2@@Z@4HA 000000018002a54c f   VImage.obj
 0001:0002954c       ?dtor$1@?0??mosaic@VImage@vips@@QEAA?AV12@V12@W4VipsDirection@@HHHHPEAVVOption@2@@Z@4HA 000000018002a54c f   VImage.obj
 0001:0002954c       ?dtor$1@?0??insert@VImage@vips@@QEAA?AV12@V12@HHPEAVVOption@2@@Z@4HA 000000018002a54c f   VImage.obj
 0001:0002954c       ?dtor$1@?0??math2@VImage@vips@@QEAA?AV12@V12@W4VipsOperationMath2@@PEAVVOption@2@@Z@4HA 000000018002a54c f   VImage.obj
 0001:0002954c       ?dtor$1@?0??relational@VImage@vips@@QEAA?AV12@V12@W4VipsOperationRelational@@PEAVVOption@2@@Z@4HA 000000018002a54c f   VImage.obj
 0001:0002954c       ?dtor$1@?0??boolean@VImage@vips@@QEAA?AV12@V12@W4VipsOperationBoolean@@PEAVVOption@2@@Z@4HA 000000018002a54c f   VImage.obj
 0001:0002954c       ?dtor$1@?0??mosaic1@VImage@vips@@QEAA?AV12@V12@W4VipsDirection@@HHHHHHHHPEAVVOption@2@@Z@4HA 000000018002a54c f   VImage.obj
 0001:0002954c       ?dtor$1@?0??complex2@VImage@vips@@QEAA?AV12@V12@W4VipsOperationComplex2@@PEAVVOption@2@@Z@4HA 000000018002a54c f   VImage.obj
 0001:0002954c       ?dtor$1@?0??match@VImage@vips@@QEAA?AV12@V12@HHHHHHHHPEAVVOption@2@@Z@4HA 000000018002a54c f   VImage.obj
 0001:0002954c       ?dtor$1@?0??join@VImage@vips@@QEAA?AV12@V12@W4VipsDirection@@PEAVVOption@2@@Z@4HA 000000018002a54c f   VImage.obj
 0001:0002954c       ?dtor$1@?0??merge@VImage@vips@@QEAA?AV12@V12@W4VipsDirection@@HHPEAVVOption@2@@Z@4HA 000000018002a54c f   VImage.obj
 0001:00029575       ?dtor$2@?0??insert@VImage@vips@@QEAA?AV12@V12@HHPEAVVOption@2@@Z@4HA 000000018002a575 f   VImage.obj
 0001:00029575       ?dtor$2@?0??join@VImage@vips@@QEAA?AV12@V12@W4VipsDirection@@PEAVVOption@2@@Z@4HA 000000018002a575 f   VImage.obj
 0001:00029575       ?dtor$2@?0??complex2@VImage@vips@@QEAA?AV12@V12@W4VipsOperationComplex2@@PEAVVOption@2@@Z@4HA 000000018002a575 f   VImage.obj
 0001:00029575       ?dtor$2@?0??math2@VImage@vips@@QEAA?AV12@V12@W4VipsOperationMath2@@PEAVVOption@2@@Z@4HA 000000018002a575 f   VImage.obj
 0001:00029575       ?dtor$2@?0??merge@VImage@vips@@QEAA?AV12@V12@W4VipsDirection@@HHPEAVVOption@2@@Z@4HA 000000018002a575 f   VImage.obj
 0001:00029575       ?dtor$2@?0??morph@VImage@vips@@QEAA?AV12@V12@W4VipsOperationMorphology@@PEAVVOption@2@@Z@4HA 000000018002a575 f   VImage.obj
 0001:00029575       ?dtor$2@?0??mosaic1@VImage@vips@@QEAA?AV12@V12@W4VipsDirection@@HHHHHHHHPEAVVOption@2@@Z@4HA 000000018002a575 f   VImage.obj
 0001:00029575       ?dtor$2@?0??mosaic@VImage@vips@@QEAA?AV12@V12@W4VipsDirection@@HHHHPEAVVOption@2@@Z@4HA 000000018002a575 f   VImage.obj
 0001:00029575       ?dtor$2@?0??boolean@VImage@vips@@QEAA?AV12@V12@W4VipsOperationBoolean@@PEAVVOption@2@@Z@4HA 000000018002a575 f   VImage.obj
 0001:00029575       ?dtor$2@?0??relational@VImage@vips@@QEAA?AV12@V12@W4VipsOperationRelational@@PEAVVOption@2@@Z@4HA 000000018002a575 f   VImage.obj
 0001:00029575       ?dtor$2@?0??match@VImage@vips@@QEAA?AV12@V12@HHHHHHHHPEAVVOption@2@@Z@4HA 000000018002a575 f   VImage.obj
 0001:00029590       ?dtor$0@?0??arrayjoin@VImage@vips@@SA?AV12@V?$vector@VVImage@vips@@V?$allocator@VVImage@vips@@@std@@@std@@PEAVVOption@2@@Z@4HA 000000018002a590 f   VImage.obj
 0001:00029590       ?dtor$0@?0??sum@VImage@vips@@SA?AV12@V?$vector@VVImage@vips@@V?$allocator@VVImage@vips@@@std@@@std@@PEAVVOption@2@@Z@4HA 000000018002a590 f   VImage.obj
 0001:00029590       ?dtor$0@?0??bandjoin@VImage@vips@@SA?AV12@V?$vector@VVImage@vips@@V?$allocator@VVImage@vips@@@std@@@std@@PEAVVOption@2@@Z@4HA 000000018002a590 f   VImage.obj
 0001:00029590       ?dtor$0@?0??bandrank@VImage@vips@@SA?AV12@V?$vector@VVImage@vips@@V?$allocator@VVImage@vips@@@std@@@std@@PEAVVOption@2@@Z@4HA 000000018002a590 f   VImage.obj
 0001:0002959c       ?dtor$1@?0??bandjoin@VImage@vips@@SA?AV12@V?$vector@VVImage@vips@@V?$allocator@VVImage@vips@@@std@@@std@@PEAVVOption@2@@Z@4HA 000000018002a59c f   VImage.obj
 0001:0002959c       ?dtor$1@?0??arrayjoin@VImage@vips@@SA?AV12@V?$vector@VVImage@vips@@V?$allocator@VVImage@vips@@@std@@@std@@PEAVVOption@2@@Z@4HA 000000018002a59c f   VImage.obj
 0001:0002959c       ?dtor$1@?0??bandrank@VImage@vips@@SA?AV12@V?$vector@VVImage@vips@@V?$allocator@VVImage@vips@@@std@@@std@@PEAVVOption@2@@Z@4HA 000000018002a59c f   VImage.obj
 0001:0002959c       ?dtor$1@?0??sum@VImage@vips@@SA?AV12@V?$vector@VVImage@vips@@V?$allocator@VVImage@vips@@@std@@@std@@PEAVVOption@2@@Z@4HA 000000018002a59c f   VImage.obj
 0001:000295d0       ?dtor$0@?0??sign@VImage@vips@@QEAA?AV12@PEAVVOption@2@@Z@4HA 000000018002a5d0 f   VImage.obj
 0001:000295d0       ?dtor$0@?0??similarity@VImage@vips@@QEAA?AV12@PEAVVOption@2@@Z@4HA 000000018002a5d0 f   VImage.obj
 0001:000295d0       ?dtor$0@?0??bandmean@VImage@vips@@QEAA?AV12@PEAVVOption@2@@Z@4HA 000000018002a5d0 f   VImage.obj
 0001:000295d0       ?dtor$0@?0??hist_find@VImage@vips@@QEAA?AV12@PEAVVOption@2@@Z@4HA 000000018002a5d0 f   VImage.obj
 0001:000295d0       ?dtor$0@?0??sharpen@VImage@vips@@QEAA?AV12@PEAVVOption@2@@Z@4HA 000000018002a5d0 f   VImage.obj
 0001:000295d0       ?dtor$0@?0??bandunfold@VImage@vips@@QEAA?AV12@PEAVVOption@2@@Z@4HA 000000018002a5d0 f   VImage.obj
 0001:000295d0       ?dtor$0@?0??hist_equal@VImage@vips@@QEAA?AV12@PEAVVOption@2@@Z@4HA 000000018002a5d0 f   VImage.obj
 0001:000295d0       ?dtor$0@?0??sequential@VImage@vips@@QEAA?AV12@PEAVVOption@2@@Z@4HA 000000018002a5d0 f   VImage.obj
 0001:000295d0       ?dtor$0@?0??scale@VImage@vips@@QEAA?AV12@PEAVVOption@2@@Z@4HA 000000018002a5d0 f   VImage.obj
 0001:000295d0       ?dtor$0@?0??scRGB2sRGB@VImage@vips@@QEAA?AV12@PEAVVOption@2@@Z@4HA 000000018002a5d0 f   VImage.obj
 0001:000295d0       ?dtor$0@?0??hist_find_ndim@VImage@vips@@QEAA?AV12@PEAVVOption@2@@Z@4HA 000000018002a5d0 f   VImage.obj
 0001:000295d0       ?dtor$0@?0??scRGB2XYZ@VImage@vips@@QEAA?AV12@PEAVVOption@2@@Z@4HA 000000018002a5d0 f   VImage.obj
 0001:000295d0       ?dtor$0@?0??hist_cum@VImage@vips@@QEAA?AV12@PEAVVOption@2@@Z@4HA 000000018002a5d0 f   VImage.obj
 0001:000295d0       ?dtor$0@?0??sRGB2scRGB@VImage@vips@@QEAA?AV12@PEAVVOption@2@@Z@4HA 000000018002a5d0 f   VImage.obj
 0001:000295d0       ?dtor$0@?0??sRGB2HSV@VImage@vips@@QEAA?AV12@PEAVVOption@2@@Z@4HA 000000018002a5d0 f   VImage.obj
 0001:000295d0       ?dtor$0@?0??bandfold@VImage@vips@@QEAA?AV12@PEAVVOption@2@@Z@4HA 000000018002a5d0 f   VImage.obj
 0001:000295d0       ?dtor$0@?0??autorot@VImage@vips@@QEAA?AV12@PEAVVOption@2@@Z@4HA 000000018002a5d0 f   VImage.obj
 0001:000295d0       ?dtor$0@?0??rot45@VImage@vips@@QEAA?AV12@PEAVVOption@2@@Z@4HA 000000018002a5d0 f   VImage.obj
 0001:000295d0       ?dtor$0@?0??globalbalance@VImage@vips@@QEAA?AV12@PEAVVOption@2@@Z@4HA 000000018002a5d0 f   VImage.obj
 0001:000295d0       ?dtor$0@?0??abs@VImage@vips@@QEAA?AV12@PEAVVOption@2@@Z@4HA 000000018002a5d0 f   VImage.obj
 0001:000295d0       ?dtor$0@?0??Yxy2XYZ@VImage@vips@@QEAA?AV12@PEAVVOption@2@@Z@4HA 000000018002a5d0 f   VImage.obj
 0001:000295d0       ?dtor$0@?0??XYZ2scRGB@VImage@vips@@QEAA?AV12@PEAVVOption@2@@Z@4HA 000000018002a5d0 f   VImage.obj
 0001:000295d0       ?dtor$0@?0??wrap@VImage@vips@@QEAA?AV12@PEAVVOption@2@@Z@4HA 000000018002a5d0 f   VImage.obj
 0001:000295d0       ?dtor$0@?0??XYZ2Yxy@VImage@vips@@QEAA?AV12@PEAVVOption@2@@Z@4HA 000000018002a5d0 f   VImage.obj
 0001:000295d0       ?dtor$0@?0??XYZ2Lab@VImage@vips@@QEAA?AV12@PEAVVOption@2@@Z@4HA 000000018002a5d0 f   VImage.obj
 0001:000295d0       ?dtor$0@?0??LabS2LabQ@VImage@vips@@QEAA?AV12@PEAVVOption@2@@Z@4HA 000000018002a5d0 f   VImage.obj
 0001:000295d0       ?dtor$0@?0??gamma@VImage@vips@@QEAA?AV12@PEAVVOption@2@@Z@4HA 000000018002a5d0 f   VImage.obj
 0001:000295d0       ?dtor$0@?0??LabS2Lab@VImage@vips@@QEAA?AV12@PEAVVOption@2@@Z@4HA 000000018002a5d0 f   VImage.obj
 0001:000295d0       ?dtor$0@?0??LabQ2sRGB@VImage@vips@@QEAA?AV12@PEAVVOption@2@@Z@4HA 000000018002a5d0 f   VImage.obj
 0001:000295d0       ?dtor$0@?0??LabQ2LabS@VImage@vips@@QEAA?AV12@PEAVVOption@2@@Z@4HA 000000018002a5d0 f   VImage.obj
 0001:000295d0       ?dtor$0@?0??rad2float@VImage@vips@@QEAA?AV12@PEAVVOption@2@@Z@4HA 000000018002a5d0 f   VImage.obj
 0001:000295d0       ?dtor$0@?0??fwfft@VImage@vips@@QEAA?AV12@PEAVVOption@2@@Z@4HA 000000018002a5d0 f   VImage.obj
 0001:000295d0       ?dtor$0@?0??LabQ2Lab@VImage@vips@@QEAA?AV12@PEAVVOption@2@@Z@4HA 000000018002a5d0 f   VImage.obj
 0001:000295d0       ?dtor$0@?0??Lab2XYZ@VImage@vips@@QEAA?AV12@PEAVVOption@2@@Z@4HA 000000018002a5d0 f   VImage.obj
 0001:000295d0       ?dtor$0@?0??Lab2LabS@VImage@vips@@QEAA?AV12@PEAVVOption@2@@Z@4HA 000000018002a5d0 f   VImage.obj
 0001:000295d0       ?dtor$0@?0??premultiply@VImage@vips@@QEAA?AV12@PEAVVOption@2@@Z@4HA 000000018002a5d0 f   VImage.obj
 0001:000295d0       ?dtor$0@?0??Lab2LabQ@VImage@vips@@QEAA?AV12@PEAVVOption@2@@Z@4HA 000000018002a5d0 f   VImage.obj
 0001:000295d0       ?dtor$0@?0??Lab2LCh@VImage@vips@@QEAA?AV12@PEAVVOption@2@@Z@4HA 000000018002a5d0 f   VImage.obj
 0001:000295d0       ?dtor$0@?0??LCh2Lab@VImage@vips@@QEAA?AV12@PEAVVOption@2@@Z@4HA 000000018002a5d0 f   VImage.obj
 0001:000295d0       ?dtor$0@?0??float2rad@VImage@vips@@QEAA?AV12@PEAVVOption@2@@Z@4HA 000000018002a5d0 f   VImage.obj
 0001:000295d0       ?dtor$0@?0??LCh2CMC@VImage@vips@@QEAA?AV12@PEAVVOption@2@@Z@4HA 000000018002a5d0 f   VImage.obj
 0001:000295d0       ?dtor$0@?0??HSV2sRGB@VImage@vips@@QEAA?AV12@PEAVVOption@2@@Z@4HA 000000018002a5d0 f   VImage.obj
 0001:000295d0       ?dtor$0@?0??CMC2LCh@VImage@vips@@QEAA?AV12@PEAVVOption@2@@Z@4HA 000000018002a5d0 f   VImage.obj
 0001:000295d0       ?dtor$0@?0??unpremultiply@VImage@vips@@QEAA?AV12@PEAVVOption@2@@Z@4HA 000000018002a5d0 f   VImage.obj
 0001:000295d0       ?dtor$0@?0??flatten@VImage@vips@@QEAA?AV12@PEAVVOption@2@@Z@4HA 000000018002a5d0 f   VImage.obj
 0001:000295d0       ?dtor$0@?0??invert@VImage@vips@@QEAA?AV12@PEAVVOption@2@@Z@4HA 000000018002a5d0 f   VImage.obj
 0001:000295d0       ?dtor$0@?0??buildlut@VImage@vips@@QEAA?AV12@PEAVVOption@2@@Z@4HA 000000018002a5d0 f   VImage.obj
 0001:000295d0       ?dtor$0@?0??spectrum@VImage@vips@@QEAA?AV12@PEAVVOption@2@@Z@4HA 000000018002a5d0 f   VImage.obj
 0001:000295d0       ?dtor$0@?0??hist_norm@VImage@vips@@QEAA?AV12@PEAVVOption@2@@Z@4HA 000000018002a5d0 f   VImage.obj
 0001:000295d0       ?dtor$0@?0??hough_circle@VImage@vips@@QEAA?AV12@PEAVVOption@2@@Z@4HA 000000018002a5d0 f   VImage.obj
 0001:000295d0       ?dtor$0@?0??hist_plot@VImage@vips@@QEAA?AV12@PEAVVOption@2@@Z@4HA 000000018002a5d0 f   VImage.obj
 0001:000295d0       ?dtor$0@?0??byteswap@VImage@vips@@QEAA?AV12@PEAVVOption@2@@Z@4HA 000000018002a5d0 f   VImage.obj
 0001:000295d0       ?dtor$0@?0??msb@VImage@vips@@QEAA?AV12@PEAVVOption@2@@Z@4HA 000000018002a5d0 f   VImage.obj
 0001:000295d0       ?dtor$0@?0??tilecache@VImage@vips@@QEAA?AV12@PEAVVOption@2@@Z@4HA 000000018002a5d0 f   VImage.obj
 0001:000295d0       ?dtor$0@?0??invertlut@VImage@vips@@QEAA?AV12@PEAVVOption@2@@Z@4HA 000000018002a5d0 f   VImage.obj
 0001:000295d0       ?dtor$0@?0??falsecolour@VImage@vips@@QEAA?AV12@PEAVVOption@2@@Z@4HA 000000018002a5d0 f   VImage.obj
 0001:000295d0       ?dtor$0@?0??cache@VImage@vips@@QEAA?AV12@PEAVVOption@2@@Z@4HA 000000018002a5d0 f   VImage.obj
 0001:000295d0       ?dtor$0@?0??stats@VImage@vips@@QEAA?AV12@PEAVVOption@2@@Z@4HA 000000018002a5d0 f   VImage.obj
 0001:000295d0       ?dtor$0@?0??invfft@VImage@vips@@QEAA?AV12@PEAVVOption@2@@Z@4HA 000000018002a5d0 f   VImage.obj
 0001:000295d0       ?dtor$0@?0??hough_line@VImage@vips@@QEAA?AV12@PEAVVOption@2@@Z@4HA 000000018002a5d0 f   VImage.obj
 0001:000295d0       ?dtor$0@?0??icc_export@VImage@vips@@QEAA?AV12@PEAVVOption@2@@Z@4HA 000000018002a5d0 f   VImage.obj
 0001:000295d0       ?dtor$0@?0??labelregions@VImage@vips@@QEAA?AV12@PEAVVOption@2@@Z@4HA 000000018002a5d0 f   VImage.obj
 0001:000295d0       ?dtor$0@?0??linecache@VImage@vips@@QEAA?AV12@PEAVVOption@2@@Z@4HA 000000018002a5d0 f   VImage.obj
 0001:000295d0       ?dtor$0@?0??copy@VImage@vips@@QEAA?AV12@PEAVVOption@2@@Z@4HA 000000018002a5d0 f   VImage.obj
 0001:000295d0       ?dtor$0@?0??icc_import@VImage@vips@@QEAA?AV12@PEAVVOption@2@@Z@4HA 000000018002a5d0 f   VImage.obj
 0001:000295d0       ?dtor$0@?0??scRGB2BW@VImage@vips@@QEAA?AV12@PEAVVOption@2@@Z@4HA 000000018002a5d0 f   VImage.obj
 0001:00029600       ?dtor$0@?0??linear@VImage@vips@@QEAA?AV12@V?$vector@NV?$allocator@N@std@@@std@@0PEAVVOption@2@@Z@4HA 000000018002a600 f   VImage.obj
 0001:0002960c       ?dtor$1@?0??linear@VImage@vips@@QEAA?AV12@V?$vector@NV?$allocator@N@std@@@std@@0PEAVVOption@2@@Z@4HA 000000018002a60c f   VImage.obj
 0001:00029618       ?dtor$2@?0??linear@VImage@vips@@QEAA?AV12@V?$vector@NV?$allocator@N@std@@@std@@0PEAVVOption@2@@Z@4HA 000000018002a618 f   VImage.obj
 0001:00029641       ?dtor$3@?0??linear@VImage@vips@@QEAA?AV12@V?$vector@NV?$allocator@N@std@@@std@@0PEAVVOption@2@@Z@4HA 000000018002a641 f   VImage.obj
 0001:0002964d       ?dtor$4@?0??linear@VImage@vips@@QEAA?AV12@V?$vector@NV?$allocator@N@std@@@std@@0PEAVVOption@2@@Z@4HA 000000018002a64d f   VImage.obj
 0001:00029660       ?dtor$0@?0??flip@VImage@vips@@QEAA?AV12@W4VipsDirection@@PEAVVOption@2@@Z@4HA 000000018002a660 f   VImage.obj
 0001:00029660       ?dtor$0@?0??zoom@VImage@vips@@QEAA?AV12@HHPEAVVOption@2@@Z@4HA 000000018002a660 f   VImage.obj
 0001:00029660       ?dtor$0@?0??embed@VImage@vips@@QEAA?AV12@HHHHPEAVVOption@2@@Z@4HA 000000018002a660 f   VImage.obj
 0001:00029660       ?dtor$0@?0??grid@VImage@vips@@QEAA?AV12@HHHPEAVVOption@2@@Z@4HA 000000018002a660 f   VImage.obj
 0001:00029660       ?dtor$0@?0??gaussblur@VImage@vips@@QEAA?AV12@NPEAVVOption@2@@Z@4HA 000000018002a660 f   VImage.obj
 0001:00029660       ?dtor$0@?0??complexget@VImage@vips@@QEAA?AV12@W4VipsOperationComplexget@@PEAVVOption@2@@Z@4HA 000000018002a660 f   VImage.obj
 0001:00029660       ?dtor$0@?0??reduceh@VImage@vips@@QEAA?AV12@NPEAVVOption@2@@Z@4HA 000000018002a660 f   VImage.obj
 0001:00029660       ?dtor$0@?0??complex@VImage@vips@@QEAA?AV12@W4VipsOperationComplex@@PEAVVOption@2@@Z@4HA 000000018002a660 f   VImage.obj
 0001:00029660       ?dtor$0@?0??subsample@VImage@vips@@QEAA?AV12@HHPEAVVOption@2@@Z@4HA 000000018002a660 f   VImage.obj
 0001:00029660       ?dtor$0@?0??colourspace@VImage@vips@@QEAA?AV12@W4VipsInterpretation@@PEAVVOption@2@@Z@4HA 000000018002a660 f   VImage.obj
 0001:00029660       ?dtor$0@?0??cast@VImage@vips@@QEAA?AV12@W4VipsBandFormat@@PEAVVOption@2@@Z@4HA 000000018002a660 f   VImage.obj
 0001:00029660       ?dtor$0@?0??math@VImage@vips@@QEAA?AV12@W4VipsOperationMath@@PEAVVOption@2@@Z@4HA 000000018002a660 f   VImage.obj
 0001:00029660       ?dtor$0@?0??extract_area@VImage@vips@@QEAA?AV12@HHHHPEAVVOption@2@@Z@4HA 000000018002a660 f   VImage.obj
 0001:00029660       ?dtor$0@?0??stdif@VImage@vips@@QEAA?AV12@HHPEAVVOption@2@@Z@4HA 000000018002a660 f   VImage.obj
 0001:00029660       ?dtor$0@?0??extract_band@VImage@vips@@QEAA?AV12@HPEAVVOption@2@@Z@4HA 000000018002a660 f   VImage.obj
 0001:00029660       ?dtor$0@?0??smartcrop@VImage@vips@@QEAA?AV12@HHPEAVVOption@2@@Z@4HA 000000018002a660 f   VImage.obj
 0001:00029660       ?dtor$0@?0??icc_transform@VImage@vips@@QEAA?AV12@PEADPEAVVOption@2@@Z@4HA 000000018002a660 f   VImage.obj
 0001:00029660       ?dtor$0@?0??measure@VImage@vips@@QEAA?AV12@HHPEAVVOption@2@@Z@4HA 000000018002a660 f   VImage.obj
 0001:00029660       ?dtor$0@?0??shrinkv@VImage@vips@@QEAA?AV12@HPEAVVOption@2@@Z@4HA 000000018002a660 f   VImage.obj
 0001:00029660       ?dtor$0@?0??hist_local@VImage@vips@@QEAA?AV12@HHPEAVVOption@2@@Z@4HA 000000018002a660 f   VImage.obj
 0001:00029660       ?dtor$0@?0??shrinkh@VImage@vips@@QEAA?AV12@HPEAVVOption@2@@Z@4HA 000000018002a660 f   VImage.obj
 0001:00029660       ?dtor$0@?0??round@VImage@vips@@QEAA?AV12@W4VipsOperationRound@@PEAVVOption@2@@Z@4HA 000000018002a660 f   VImage.obj
 0001:00029660       ?dtor$0@?0??bandbool@VImage@vips@@QEAA?AV12@W4VipsOperationBoolean@@PEAVVOption@2@@Z@4HA 000000018002a660 f   VImage.obj
 0001:00029660       ?dtor$0@?0??rot@VImage@vips@@QEAA?AV12@W4VipsAngle@@PEAVVOption@2@@Z@4HA 000000018002a660 f   VImage.obj
 0001:00029660       ?dtor$0@?0??resize@VImage@vips@@QEAA?AV12@NPEAVVOption@2@@Z@4HA 000000018002a660 f   VImage.obj
 0001:00029660       ?dtor$0@?0??project@VImage@vips@@QEAA?AV12@PEAV12@PEAVVOption@2@@Z@4HA 000000018002a660 f   VImage.obj
 0001:00029660       ?dtor$0@?0??replicate@VImage@vips@@QEAA?AV12@HHPEAVVOption@2@@Z@4HA 000000018002a660 f   VImage.obj
 0001:00029660       ?dtor$0@?0??profile@VImage@vips@@QEAA?AV12@PEAV12@PEAVVOption@2@@Z@4HA 000000018002a660 f   VImage.obj
 0001:00029660       ?dtor$0@?0??reducev@VImage@vips@@QEAA?AV12@NPEAVVOption@2@@Z@4HA 000000018002a660 f   VImage.obj
 0001:00029660       ?dtor$0@?0??rank@VImage@vips@@QEAA?AV12@HHHPEAVVOption@2@@Z@4HA 000000018002a660 f   VImage.obj
 0001:00029690       ?dtor$0@?0??math2_const@VImage@vips@@QEAA?AV12@W4VipsOperationMath2@@V?$vector@NV?$allocator@N@std@@@std@@PEAVVOption@2@@Z@4HA 000000018002a690 f   VImage.obj
 0001:00029690       ?dtor$0@?0??boolean_const@VImage@vips@@QEAA?AV12@W4VipsOperationBoolean@@V?$vector@NV?$allocator@N@std@@@std@@PEAVVOption@2@@Z@4HA 000000018002a690 f   VImage.obj
 0001:00029690       ?dtor$0@?0??relational_const@VImage@vips@@QEAA?AV12@W4VipsOperationRelational@@V?$vector@NV?$allocator@N@std@@@std@@PEAVVOption@2@@Z@4HA 000000018002a690 f   VImage.obj
 0001:0002969c       ?dtor$1@?0??boolean_const@VImage@vips@@QEAA?AV12@W4VipsOperationBoolean@@V?$vector@NV?$allocator@N@std@@@std@@PEAVVOption@2@@Z@4HA 000000018002a69c f   VImage.obj
 0001:0002969c       ?dtor$1@?0??math2_const@VImage@vips@@QEAA?AV12@W4VipsOperationMath2@@V?$vector@NV?$allocator@N@std@@@std@@PEAVVOption@2@@Z@4HA 000000018002a69c f   VImage.obj
 0001:0002969c       ?dtor$1@?0??relational_const@VImage@vips@@QEAA?AV12@W4VipsOperationRelational@@V?$vector@NV?$allocator@N@std@@@std@@PEAVVOption@2@@Z@4HA 000000018002a69c f   VImage.obj
 0001:000296c5       ?dtor$2@?0??boolean_const@VImage@vips@@QEAA?AV12@W4VipsOperationBoolean@@V?$vector@NV?$allocator@N@std@@@std@@PEAVVOption@2@@Z@4HA 000000018002a6c5 f   VImage.obj
 0001:000296c5       ?dtor$2@?0??math2_const@VImage@vips@@QEAA?AV12@W4VipsOperationMath2@@V?$vector@NV?$allocator@N@std@@@std@@PEAVVOption@2@@Z@4HA 000000018002a6c5 f   VImage.obj
 0001:000296c5       ?dtor$2@?0??relational_const@VImage@vips@@QEAA?AV12@W4VipsOperationRelational@@V?$vector@NV?$allocator@N@std@@@std@@PEAVVOption@2@@Z@4HA 000000018002a6c5 f   VImage.obj
 0001:000296e0       ?dtor$0@?0??remainder_const@VImage@vips@@QEAA?AV12@V?$vector@NV?$allocator@N@std@@@std@@PEAVVOption@2@@Z@4HA 000000018002a6e0 f   VImage.obj
 0001:000296e0       ?dtor$0@?0??affine@VImage@vips@@QEAA?AV12@V?$vector@NV?$allocator@N@std@@@std@@PEAVVOption@2@@Z@4HA 000000018002a6e0 f   VImage.obj
 0001:000296e0       ?dtor$0@?0??bandjoin_const@VImage@vips@@QEAA?AV12@V?$vector@NV?$allocator@N@std@@@std@@PEAVVOption@2@@Z@4HA 000000018002a6e0 f   VImage.obj
 0001:000296ec       ?dtor$1@?0??bandjoin_const@VImage@vips@@QEAA?AV12@V?$vector@NV?$allocator@N@std@@@std@@PEAVVOption@2@@Z@4HA 000000018002a6ec f   VImage.obj
 0001:000296ec       ?dtor$1@?0??remainder_const@VImage@vips@@QEAA?AV12@V?$vector@NV?$allocator@N@std@@@std@@PEAVVOption@2@@Z@4HA 000000018002a6ec f   VImage.obj
 0001:000296ec       ?dtor$1@?0??affine@VImage@vips@@QEAA?AV12@V?$vector@NV?$allocator@N@std@@@std@@PEAVVOption@2@@Z@4HA 000000018002a6ec f   VImage.obj
 0001:00029715       ?dtor$2@?0??remainder_const@VImage@vips@@QEAA?AV12@V?$vector@NV?$allocator@N@std@@@std@@PEAVVOption@2@@Z@4HA 000000018002a715 f   VImage.obj
 0001:00029715       ?dtor$2@?0??bandjoin_const@VImage@vips@@QEAA?AV12@V?$vector@NV?$allocator@N@std@@@std@@PEAVVOption@2@@Z@4HA 000000018002a715 f   VImage.obj
 0001:00029715       ?dtor$2@?0??affine@VImage@vips@@QEAA?AV12@V?$vector@NV?$allocator@N@std@@@std@@PEAVVOption@2@@Z@4HA 000000018002a715 f   VImage.obj
 0001:00029730       ?dtor$0@?0??getpoint@VImage@vips@@QEAA?AV?$vector@NV?$allocator@N@std@@@std@@HHPEAVVOption@2@@Z@4HA 000000018002a730 f   VImage.obj
 0001:00029760       ?dtor$0@?0??ifthenelse@VImage@vips@@QEAA?AV12@V12@0PEAVVOption@2@@Z@4HA 000000018002a760 f   VImage.obj
 0001:0002976c       ?dtor$1@?0??ifthenelse@VImage@vips@@QEAA?AV12@V12@0PEAVVOption@2@@Z@4HA 000000018002a76c f   VImage.obj
 0001:00029778       ?dtor$2@?0??ifthenelse@VImage@vips@@QEAA?AV12@V12@0PEAVVOption@2@@Z@4HA 000000018002a778 f   VImage.obj
 0001:000297a1       ?dtor$3@?0??ifthenelse@VImage@vips@@QEAA?AV12@V12@0PEAVVOption@2@@Z@4HA 000000018002a7a1 f   VImage.obj
 0001:000297ad       ?dtor$4@?0??ifthenelse@VImage@vips@@QEAA?AV12@V12@0PEAVVOption@2@@Z@4HA 000000018002a7ad f   VImage.obj
 0001:000297c0       ?dtor$0@?0??sines@VImage@vips@@SA?AV12@HHPEAVVOption@2@@Z@4HA 000000018002a7c0 f   VImage.obj
 0001:000297c0       ?dtor$0@?0??black@VImage@vips@@SA?AV12@HHPEAVVOption@2@@Z@4HA 000000018002a7c0 f   VImage.obj
 0001:000297c0       ?dtor$0@?0??jpegload@VImage@vips@@SA?AV12@PEADPEAVVOption@2@@Z@4HA 000000018002a7c0 f   VImage.obj
 0001:000297c0       ?dtor$0@?0??csvload@VImage@vips@@SA?AV12@PEADPEAVVOption@2@@Z@4HA 000000018002a7c0 f   VImage.obj
 0001:000297c0       ?dtor$0@?0??matrixload@VImage@vips@@SA?AV12@PEADPEAVVOption@2@@Z@4HA 000000018002a7c0 f   VImage.obj
 0001:000297c0       ?dtor$0@?0??jpegload_buffer@VImage@vips@@SA?AV12@PEAU_VipsBlob@@PEAVVOption@2@@Z@4HA 000000018002a7c0 f   VImage.obj
 0001:000297c0       ?dtor$0@?0??pdfload@VImage@vips@@SA?AV12@PEADPEAVVOption@2@@Z@4HA 000000018002a7c0 f   VImage.obj
 0001:000297c0       ?dtor$0@?0??pdfload_buffer@VImage@vips@@SA?AV12@PEAU_VipsBlob@@PEAVVOption@2@@Z@4HA 000000018002a7c0 f   VImage.obj
 0001:000297c0       ?dtor$0@?0??gifload_buffer@VImage@vips@@SA?AV12@PEAU_VipsBlob@@PEAVVOption@2@@Z@4HA 000000018002a7c0 f   VImage.obj
 0001:000297c0       ?dtor$0@?0??openexrload@VImage@vips@@SA?AV12@PEADPEAVVOption@2@@Z@4HA 000000018002a7c0 f   VImage.obj
 0001:000297c0       ?dtor$0@?0??perlin@VImage@vips@@SA?AV12@HHPEAVVOption@2@@Z@4HA 000000018002a7c0 f   VImage.obj
 0001:000297c0       ?dtor$0@?0??magickload_buffer@VImage@vips@@SA?AV12@PEAU_VipsBlob@@PEAVVOption@2@@Z@4HA 000000018002a7c0 f   VImage.obj
 0001:000297c0       ?dtor$0@?0??pngload@VImage@vips@@SA?AV12@PEADPEAVVOption@2@@Z@4HA 000000018002a7c0 f   VImage.obj
 0001:000297c0       ?dtor$0@?0??gaussnoise@VImage@vips@@SA?AV12@HHPEAVVOption@2@@Z@4HA 000000018002a7c0 f   VImage.obj
 0001:000297c0       ?dtor$0@?0??xyz@VImage@vips@@SA?AV12@HHPEAVVOption@2@@Z@4HA 000000018002a7c0 f   VImage.obj
 0001:000297c0       ?dtor$0@?0??pngload_buffer@VImage@vips@@SA?AV12@PEAU_VipsBlob@@PEAVVOption@2@@Z@4HA 000000018002a7c0 f   VImage.obj
 0001:000297c0       ?dtor$0@?0??svgload@VImage@vips@@SA?AV12@PEADPEAVVOption@2@@Z@4HA 000000018002a7c0 f   VImage.obj
 0001:000297c0       ?dtor$0@?0??ppmload@VImage@vips@@SA?AV12@PEADPEAVVOption@2@@Z@4HA 000000018002a7c0 f   VImage.obj
 0001:000297c0       ?dtor$0@?0??svgload_buffer@VImage@vips@@SA?AV12@PEAU_VipsBlob@@PEAVVOption@2@@Z@4HA 000000018002a7c0 f   VImage.obj
 0001:000297c0       ?dtor$0@?0??openslideload@VImage@vips@@SA?AV12@PEADPEAVVOption@2@@Z@4HA 000000018002a7c0 f   VImage.obj
 0001:000297c0       ?dtor$0@?0??text@VImage@vips@@SA?AV12@PEADPEAVVOption@2@@Z@4HA 000000018002a7c0 f   VImage.obj
 0001:000297c0       ?dtor$0@?0??thumbnail@VImage@vips@@SA?AV12@PEADHPEAVVOption@2@@Z@4HA 000000018002a7c0 f   VImage.obj
 0001:000297c0       ?dtor$0@?0??grey@VImage@vips@@SA?AV12@HHPEAVVOption@2@@Z@4HA 000000018002a7c0 f   VImage.obj
 0001:000297c0       ?dtor$0@?0??magickload@VImage@vips@@SA?AV12@PEADPEAVVOption@2@@Z@4HA 000000018002a7c0 f   VImage.obj
 0001:000297c0       ?dtor$0@?0??zone@VImage@vips@@SA?AV12@HHPEAVVOption@2@@Z@4HA 000000018002a7c0 f   VImage.obj
 0001:000297c0       ?dtor$0@?0??thumbnail_buffer@VImage@vips@@SA?AV12@PEAU_VipsBlob@@HPEAVVOption@2@@Z@4HA 000000018002a7c0 f   VImage.obj
 0001:000297c0       ?dtor$0@?0??tiffload@VImage@vips@@SA?AV12@PEADPEAVVOption@2@@Z@4HA 000000018002a7c0 f   VImage.obj
 0001:000297c0       ?dtor$0@?0??worley@VImage@vips@@SA?AV12@HHPEAVVOption@2@@Z@4HA 000000018002a7c0 f   VImage.obj
 0001:000297c0       ?dtor$0@?0??webpload_buffer@VImage@vips@@SA?AV12@PEAU_VipsBlob@@PEAVVOption@2@@Z@4HA 000000018002a7c0 f   VImage.obj
 0001:000297c0       ?dtor$0@?0??identity@VImage@vips@@SA?AV12@PEAVVOption@2@@Z@4HA 000000018002a7c0 f   VImage.obj
 0001:000297c0       ?dtor$0@?0??webpload@VImage@vips@@SA?AV12@PEADPEAVVOption@2@@Z@4HA 000000018002a7c0 f   VImage.obj
 0001:000297c0       ?dtor$0@?0??vipsload@VImage@vips@@SA?AV12@PEADPEAVVOption@2@@Z@4HA 000000018002a7c0 f   VImage.obj
 0001:000297c0       ?dtor$0@?0??gifload@VImage@vips@@SA?AV12@PEADPEAVVOption@2@@Z@4HA 000000018002a7c0 f   VImage.obj
 0001:000297c0       ?dtor$0@?0??rawload@VImage@vips@@SA?AV12@PEADHHHPEAVVOption@2@@Z@4HA 000000018002a7c0 f   VImage.obj
 0001:000297c0       ?dtor$0@?0??matload@VImage@vips@@SA?AV12@PEADPEAVVOption@2@@Z@4HA 000000018002a7c0 f   VImage.obj
 0001:000297c0       ?dtor$0@?0??radload@VImage@vips@@SA?AV12@PEADPEAVVOption@2@@Z@4HA 000000018002a7c0 f   VImage.obj
 0001:000297c0       ?dtor$0@?0??eye@VImage@vips@@SA?AV12@HHPEAVVOption@2@@Z@4HA 000000018002a7c0 f   VImage.obj
 0001:000297c0       ?dtor$0@?0??analyzeload@VImage@vips@@SA?AV12@PEADPEAVVOption@2@@Z@4HA 000000018002a7c0 f   VImage.obj
 0001:000297c0       ?dtor$0@?0??tiffload_buffer@VImage@vips@@SA?AV12@PEAU_VipsBlob@@PEAVVOption@2@@Z@4HA 000000018002a7c0 f   VImage.obj
 0001:000297c0       ?dtor$0@?0??fitsload@VImage@vips@@SA?AV12@PEADPEAVVOption@2@@Z@4HA 000000018002a7c0 f   VImage.obj
 0001:000297c0       ?dtor$0@?0??tonelut@VImage@vips@@SA?AV12@PEAVVOption@2@@Z@4HA 000000018002a7c0 f   VImage.obj
 0001:000297f0       ?dtor$0@?0??gaussmat@VImage@vips@@SA?AV12@NNPEAVVOption@2@@Z@4HA 000000018002a7f0 f   VImage.obj
 0001:000297f0       ?dtor$0@?0??logmat@VImage@vips@@SA?AV12@NNPEAVVOption@2@@Z@4HA 000000018002a7f0 f   VImage.obj
 0001:00029820       ?dtor$0@?0??mask_ideal@VImage@vips@@SA?AV12@HHNPEAVVOption@2@@Z@4HA 000000018002a820 f   VImage.obj
 0001:00029820       ?dtor$0@?0??mask_gaussian_ring@VImage@vips@@SA?AV12@HHNNNPEAVVOption@2@@Z@4HA 000000018002a820 f   VImage.obj
 0001:00029820       ?dtor$0@?0??mask_gaussian_band@VImage@vips@@SA?AV12@HHNNNNPEAVVOption@2@@Z@4HA 000000018002a820 f   VImage.obj
 0001:00029820       ?dtor$0@?0??mask_gaussian@VImage@vips@@SA?AV12@HHNNPEAVVOption@2@@Z@4HA 000000018002a820 f   VImage.obj
 0001:00029820       ?dtor$0@?0??fractsurf@VImage@vips@@SA?AV12@HHNPEAVVOption@2@@Z@4HA 000000018002a820 f   VImage.obj
 0001:00029820       ?dtor$0@?0??mask_ideal_band@VImage@vips@@SA?AV12@HHNNNPEAVVOption@2@@Z@4HA 000000018002a820 f   VImage.obj
 0001:00029820       ?dtor$0@?0??mask_fractal@VImage@vips@@SA?AV12@HHNPEAVVOption@2@@Z@4HA 000000018002a820 f   VImage.obj
 0001:00029820       ?dtor$0@?0??mask_butterworth_ring@VImage@vips@@SA?AV12@HHNNNNPEAVVOption@2@@Z@4HA 000000018002a820 f   VImage.obj
 0001:00029820       ?dtor$0@?0??mask_butterworth_band@VImage@vips@@SA?AV12@HHNNNNNPEAVVOption@2@@Z@4HA 000000018002a820 f   VImage.obj
 0001:00029820       ?dtor$0@?0??mask_butterworth@VImage@vips@@SA?AV12@HHNNNPEAVVOption@2@@Z@4HA 000000018002a820 f   VImage.obj
 0001:00029820       ?dtor$0@?0??mask_ideal_ring@VImage@vips@@SA?AV12@HHNNPEAVVOption@2@@Z@4HA 000000018002a820 f   VImage.obj
 0001:00029850       ?dtor$0@?0??shrink@VImage@vips@@QEAA?AV12@NNPEAVVOption@2@@Z@4HA 000000018002a850 f   VImage.obj
 0001:00029850       ?dtor$0@?0??reduce@VImage@vips@@QEAA?AV12@NNPEAVVOption@2@@Z@4HA 000000018002a850 f   VImage.obj
 0001:00029880       ?dtor$0@?0??draw_line@VImage@vips@@QEAAXV?$vector@NV?$allocator@N@std@@@std@@HHHHPEAVVOption@2@@Z@4HA 000000018002a880 f   VImage.obj
 0001:00029880       ?dtor$0@?0??draw_flood@VImage@vips@@QEAAXV?$vector@NV?$allocator@N@std@@@std@@HHPEAVVOption@2@@Z@4HA 000000018002a880 f   VImage.obj
 0001:00029880       ?dtor$0@?0??draw_circle@VImage@vips@@QEAAXV?$vector@NV?$allocator@N@std@@@std@@HHHPEAVVOption@2@@Z@4HA 000000018002a880 f   VImage.obj
 0001:00029880       ?dtor$0@?0??draw_rect@VImage@vips@@QEAAXV?$vector@NV?$allocator@N@std@@@std@@HHHHPEAVVOption@2@@Z@4HA 000000018002a880 f   VImage.obj
 0001:0002988c       ?dtor$1@?0??draw_line@VImage@vips@@QEAAXV?$vector@NV?$allocator@N@std@@@std@@HHHHPEAVVOption@2@@Z@4HA 000000018002a88c f   VImage.obj
 0001:0002988c       ?dtor$1@?0??draw_circle@VImage@vips@@QEAAXV?$vector@NV?$allocator@N@std@@@std@@HHHPEAVVOption@2@@Z@4HA 000000018002a88c f   VImage.obj
 0001:0002988c       ?dtor$1@?0??draw_flood@VImage@vips@@QEAAXV?$vector@NV?$allocator@N@std@@@std@@HHPEAVVOption@2@@Z@4HA 000000018002a88c f   VImage.obj
 0001:0002988c       ?dtor$1@?0??draw_rect@VImage@vips@@QEAAXV?$vector@NV?$allocator@N@std@@@std@@HHHHPEAVVOption@2@@Z@4HA 000000018002a88c f   VImage.obj
 0001:000298a0       ?dtor$0@?0??draw_mask@VImage@vips@@QEAAXV?$vector@NV?$allocator@N@std@@@std@@V12@HHPEAVVOption@2@@Z@4HA 000000018002a8a0 f   VImage.obj
 0001:000298ac       ?dtor$1@?0??draw_mask@VImage@vips@@QEAAXV?$vector@NV?$allocator@N@std@@@std@@V12@HHPEAVVOption@2@@Z@4HA 000000018002a8ac f   VImage.obj
 0001:000298b8       ?dtor$2@?0??draw_mask@VImage@vips@@QEAAXV?$vector@NV?$allocator@N@std@@@std@@V12@HHPEAVVOption@2@@Z@4HA 000000018002a8b8 f   VImage.obj
 0001:000298c4       ?dtor$3@?0??draw_mask@VImage@vips@@QEAAXV?$vector@NV?$allocator@N@std@@@std@@V12@HHPEAVVOption@2@@Z@4HA 000000018002a8c4 f   VImage.obj
 0001:000298d0       ?dtor$0@?0??draw_image@VImage@vips@@QEAAXV12@HHPEAVVOption@2@@Z@4HA 000000018002a8d0 f   VImage.obj
 0001:000298dc       ?dtor$1@?0??draw_image@VImage@vips@@QEAAXV12@HHPEAVVOption@2@@Z@4HA 000000018002a8dc f   VImage.obj
 0001:000298f0       ?dtor$0@?0??bandsplit@VImage@vips@@QEAA?AV?$vector@VVImage@vips@@V?$allocator@VVImage@vips@@@std@@@std@@PEAVVOption@2@@Z@4HA 000000018002a8f0 f   VImage.obj
 0001:00029916       ?dtor$1@?0??bandsplit@VImage@vips@@QEAA?AV?$vector@VVImage@vips@@V?$allocator@VVImage@vips@@@std@@@std@@PEAVVOption@2@@Z@4HA 000000018002a916 f   VImage.obj
 0001:00029930       ?dtor$0@?0??bandjoin@VImage@vips@@QEAA?AV12@V12@PEAVVOption@2@@Z@4HA 000000018002a930 f   VImage.obj
 0001:0002993c       ?dtor$3@?0??bandjoin@VImage@vips@@QEAA?AV12@V12@PEAVVOption@2@@Z@4HA 000000018002a93c f   VImage.obj
 0001:00029966       ?dtor$4@?0??bandjoin@VImage@vips@@QEAA?AV12@V12@PEAVVOption@2@@Z@4HA 000000018002a966 f   VImage.obj
 0001:00029972       ?dtor$6@?0??bandjoin@VImage@vips@@QEAA?AV12@V12@PEAVVOption@2@@Z@4HA 000000018002a972 f   VImage.obj
 0001:000299a0       ?dtor$0@?0???Kvips@@YA?AVVImage@0@V10@0@Z@4HA 000000018002a9a0 f   VImage.obj
 0001:000299a0       ?dtor$0@?0???9vips@@YA?AVVImage@0@V10@0@Z@4HA 000000018002a9a0 f   VImage.obj
 0001:000299a0       ?dtor$0@?0???Lvips@@YA?AVVImage@0@V10@0@Z@4HA 000000018002a9a0 f   VImage.obj
 0001:000299a0       ?dtor$0@?0???6vips@@YA?AVVImage@0@V10@0@Z@4HA 000000018002a9a0 f   VImage.obj
 0001:000299a0       ?dtor$0@?0???5vips@@YA?AVVImage@0@V10@0@Z@4HA 000000018002a9a0 f   VImage.obj
 0001:000299a0       ?dtor$0@?0???Mvips@@YA?AVVImage@0@V10@0@Z@4HA 000000018002a9a0 f   VImage.obj
 0001:000299a0       ?dtor$0@?0???Ivips@@YA?AVVImage@0@V10@0@Z@4HA 000000018002a9a0 f   VImage.obj
 0001:000299a0       ?dtor$0@?0???Nvips@@YA?AVVImage@0@V10@0@Z@4HA 000000018002a9a0 f   VImage.obj
 0001:000299a0       ?dtor$0@?0???Dvips@@YA?AVVImage@0@V10@0@Z@4HA 000000018002a9a0 f   VImage.obj
 0001:000299a0       ?dtor$0@?0???Hvips@@YA?AVVImage@0@V10@0@Z@4HA 000000018002a9a0 f   VImage.obj
 0001:000299a0       ?dtor$0@?0???Ovips@@YA?AVVImage@0@V10@0@Z@4HA 000000018002a9a0 f   VImage.obj
 0001:000299a0       ?dtor$0@?0???Gvips@@YA?AVVImage@0@V10@0@Z@4HA 000000018002a9a0 f   VImage.obj
 0001:000299a0       ?dtor$0@?0???8vips@@YA?AVVImage@0@V10@0@Z@4HA 000000018002a9a0 f   VImage.obj
 0001:000299a0       ?dtor$0@?0???Pvips@@YA?AVVImage@0@V10@0@Z@4HA 000000018002a9a0 f   VImage.obj
 0001:000299a0       ?dtor$0@?0???Tvips@@YA?AVVImage@0@V10@0@Z@4HA 000000018002a9a0 f   VImage.obj
 0001:000299a0       ?dtor$0@?0???Uvips@@YA?AVVImage@0@V10@0@Z@4HA 000000018002a9a0 f   VImage.obj
 0001:000299ac       ?dtor$1@?0???Dvips@@YA?AVVImage@0@V10@0@Z@4HA 000000018002a9ac f   VImage.obj
 0001:000299ac       ?dtor$1@?0???Uvips@@YA?AVVImage@0@V10@0@Z@4HA 000000018002a9ac f   VImage.obj
 0001:000299ac       ?dtor$1@?0???Tvips@@YA?AVVImage@0@V10@0@Z@4HA 000000018002a9ac f   VImage.obj
 0001:000299ac       ?dtor$1@?0???Pvips@@YA?AVVImage@0@V10@0@Z@4HA 000000018002a9ac f   VImage.obj
 0001:000299ac       ?dtor$1@?0???9vips@@YA?AVVImage@0@V10@0@Z@4HA 000000018002a9ac f   VImage.obj
 0001:000299ac       ?dtor$1@?0???Ovips@@YA?AVVImage@0@V10@0@Z@4HA 000000018002a9ac f   VImage.obj
 0001:000299ac       ?dtor$1@?0???Nvips@@YA?AVVImage@0@V10@0@Z@4HA 000000018002a9ac f   VImage.obj
 0001:000299ac       ?dtor$1@?0???8vips@@YA?AVVImage@0@V10@0@Z@4HA 000000018002a9ac f   VImage.obj
 0001:000299ac       ?dtor$1@?0???Mvips@@YA?AVVImage@0@V10@0@Z@4HA 000000018002a9ac f   VImage.obj
 0001:000299ac       ?dtor$1@?0???6vips@@YA?AVVImage@0@V10@0@Z@4HA 000000018002a9ac f   VImage.obj
 0001:000299ac       ?dtor$1@?0???5vips@@YA?AVVImage@0@V10@0@Z@4HA 000000018002a9ac f   VImage.obj
 0001:000299ac       ?dtor$1@?0???Gvips@@YA?AVVImage@0@V10@0@Z@4HA 000000018002a9ac f   VImage.obj
 0001:000299ac       ?dtor$1@?0???Lvips@@YA?AVVImage@0@V10@0@Z@4HA 000000018002a9ac f   VImage.obj
 0001:000299ac       ?dtor$1@?0???Hvips@@YA?AVVImage@0@V10@0@Z@4HA 000000018002a9ac f   VImage.obj
 0001:000299ac       ?dtor$1@?0???Kvips@@YA?AVVImage@0@V10@0@Z@4HA 000000018002a9ac f   VImage.obj
 0001:000299ac       ?dtor$1@?0???Ivips@@YA?AVVImage@0@V10@0@Z@4HA 000000018002a9ac f   VImage.obj
 0001:000299c0       ?dtor$0@?0???Gvips@@YA?AVVImage@0@NV10@@Z@4HA 000000018002a9c0 f   VImage.obj
 0001:000299c0       ?dtor$0@?0???Hvips@@YA?AVVImage@0@NV10@@Z@4HA 000000018002a9c0 f   VImage.obj
 0001:000299c0       ?dtor$0@?0???Dvips@@YA?AVVImage@0@NV10@@Z@4HA 000000018002a9c0 f   VImage.obj
 0001:000299d0       ?dtor$0@?0???Kvips@@YA?AVVImage@0@V10@N@Z@4HA 000000018002a9d0 f   VImage.obj
 0001:000299d0       ?dtor$0@?0???Hvips@@YA?AVVImage@0@V10@N@Z@4HA 000000018002a9d0 f   VImage.obj
 0001:000299d0       ?dtor$0@?0???Gvips@@YA?AVVImage@0@V10@N@Z@4HA 000000018002a9d0 f   VImage.obj
 0001:000299d0       ?dtor$0@?0???Dvips@@YA?AVVImage@0@V10@N@Z@4HA 000000018002a9d0 f   VImage.obj
 0001:000299d0       ?dtor$0@?0???Gvips@@YA?AVVImage@0@V10@@Z@4HA 000000018002a9d0 f   VImage.obj
 0001:000299e0       ?dtor$0@?0???Gvips@@YA?AVVImage@0@V?$vector@NV?$allocator@N@std@@@std@@V10@@Z@4HA 000000018002a9e0 f   VImage.obj
 0001:000299e0       ?dtor$0@?0???Dvips@@YA?AVVImage@0@V?$vector@NV?$allocator@N@std@@@std@@V10@@Z@4HA 000000018002a9e0 f   VImage.obj
 0001:000299e0       ?dtor$0@?0???Mvips@@YA?AVVImage@0@V?$vector@NV?$allocator@N@std@@@std@@V10@@Z@4HA 000000018002a9e0 f   VImage.obj
 0001:000299e0       ?dtor$0@?0???Hvips@@YA?AVVImage@0@V?$vector@NV?$allocator@N@std@@@std@@V10@@Z@4HA 000000018002a9e0 f   VImage.obj
 0001:000299e0       ?dtor$0@?0???8vips@@YA?AVVImage@0@V?$vector@NV?$allocator@N@std@@@std@@V10@@Z@4HA 000000018002a9e0 f   VImage.obj
 0001:000299e0       ?dtor$0@?0???Ovips@@YA?AVVImage@0@V?$vector@NV?$allocator@N@std@@@std@@V10@@Z@4HA 000000018002a9e0 f   VImage.obj
 0001:000299e0       ?dtor$0@?0???Tvips@@YA?AVVImage@0@V?$vector@NV?$allocator@N@std@@@std@@V10@@Z@4HA 000000018002a9e0 f   VImage.obj
 0001:000299e0       ?dtor$0@?0???Uvips@@YA?AVVImage@0@V?$vector@NV?$allocator@N@std@@@std@@V10@@Z@4HA 000000018002a9e0 f   VImage.obj
 0001:000299e0       ?dtor$0@?0???Ivips@@YA?AVVImage@0@V?$vector@NV?$allocator@N@std@@@std@@V10@@Z@4HA 000000018002a9e0 f   VImage.obj
 0001:000299e0       ?dtor$0@?0???9vips@@YA?AVVImage@0@V?$vector@NV?$allocator@N@std@@@std@@V10@@Z@4HA 000000018002a9e0 f   VImage.obj
 0001:000299e0       ?dtor$0@?0???Pvips@@YA?AVVImage@0@V?$vector@NV?$allocator@N@std@@@std@@V10@@Z@4HA 000000018002a9e0 f   VImage.obj
 0001:000299e0       ?dtor$0@?0???Nvips@@YA?AVVImage@0@V?$vector@NV?$allocator@N@std@@@std@@V10@@Z@4HA 000000018002a9e0 f   VImage.obj
 0001:000299ec       ?dtor$1@?0???Ovips@@YA?AVVImage@0@V?$vector@NV?$allocator@N@std@@@std@@V10@@Z@4HA 000000018002a9ec f   VImage.obj
 0001:000299ec       ?dtor$1@?0???Tvips@@YA?AVVImage@0@V?$vector@NV?$allocator@N@std@@@std@@V10@@Z@4HA 000000018002a9ec f   VImage.obj
 0001:000299ec       ?dtor$1@?0???8vips@@YA?AVVImage@0@V?$vector@NV?$allocator@N@std@@@std@@V10@@Z@4HA 000000018002a9ec f   VImage.obj
 0001:000299ec       ?dtor$1@?0???9vips@@YA?AVVImage@0@V?$vector@NV?$allocator@N@std@@@std@@V10@@Z@4HA 000000018002a9ec f   VImage.obj
 0001:000299ec       ?dtor$1@?0???Nvips@@YA?AVVImage@0@V?$vector@NV?$allocator@N@std@@@std@@V10@@Z@4HA 000000018002a9ec f   VImage.obj
 0001:000299ec       ?dtor$1@?0???Dvips@@YA?AVVImage@0@V?$vector@NV?$allocator@N@std@@@std@@V10@@Z@4HA 000000018002a9ec f   VImage.obj
 0001:000299ec       ?dtor$1@?0???Mvips@@YA?AVVImage@0@V?$vector@NV?$allocator@N@std@@@std@@V10@@Z@4HA 000000018002a9ec f   VImage.obj
 0001:000299ec       ?dtor$1@?0???Gvips@@YA?AVVImage@0@V?$vector@NV?$allocator@N@std@@@std@@V10@@Z@4HA 000000018002a9ec f   VImage.obj
 0001:000299ec       ?dtor$1@?0???Hvips@@YA?AVVImage@0@V?$vector@NV?$allocator@N@std@@@std@@V10@@Z@4HA 000000018002a9ec f   VImage.obj
 0001:000299ec       ?dtor$1@?0???Uvips@@YA?AVVImage@0@V?$vector@NV?$allocator@N@std@@@std@@V10@@Z@4HA 000000018002a9ec f   VImage.obj
 0001:000299ec       ?dtor$1@?0???Ivips@@YA?AVVImage@0@V?$vector@NV?$allocator@N@std@@@std@@V10@@Z@4HA 000000018002a9ec f   VImage.obj
 0001:000299ec       ?dtor$1@?0???Pvips@@YA?AVVImage@0@V?$vector@NV?$allocator@N@std@@@std@@V10@@Z@4HA 000000018002a9ec f   VImage.obj
 0001:00029a00       ?dtor$0@?0???Ovips@@YA?AVVImage@0@V10@V?$vector@NV?$allocator@N@std@@@std@@@Z@4HA 000000018002aa00 f   VImage.obj
 0001:00029a00       ?dtor$0@?0???Dvips@@YA?AVVImage@0@V10@V?$vector@NV?$allocator@N@std@@@std@@@Z@4HA 000000018002aa00 f   VImage.obj
 0001:00029a00       ?dtor$0@?0???Uvips@@YA?AVVImage@0@V10@V?$vector@NV?$allocator@N@std@@@std@@@Z@4HA 000000018002aa00 f   VImage.obj
 0001:00029a00       ?dtor$0@?0???Hvips@@YA?AVVImage@0@V10@V?$vector@NV?$allocator@N@std@@@std@@@Z@4HA 000000018002aa00 f   VImage.obj
 0001:00029a00       ?dtor$0@?0???Lvips@@YA?AVVImage@0@V10@V?$vector@NV?$allocator@N@std@@@std@@@Z@4HA 000000018002aa00 f   VImage.obj
 0001:00029a00       ?dtor$0@?0???Ivips@@YA?AVVImage@0@V10@V?$vector@NV?$allocator@N@std@@@std@@@Z@4HA 000000018002aa00 f   VImage.obj
 0001:00029a00       ?dtor$0@?0???9vips@@YA?AVVImage@0@V10@V?$vector@NV?$allocator@N@std@@@std@@@Z@4HA 000000018002aa00 f   VImage.obj
 0001:00029a00       ?dtor$0@?0???Pvips@@YA?AVVImage@0@V10@V?$vector@NV?$allocator@N@std@@@std@@@Z@4HA 000000018002aa00 f   VImage.obj
 0001:00029a00       ?dtor$0@?0???5vips@@YA?AVVImage@0@V10@V?$vector@NV?$allocator@N@std@@@std@@@Z@4HA 000000018002aa00 f   VImage.obj
 0001:00029a00       ?dtor$0@?0???Nvips@@YA?AVVImage@0@V10@V?$vector@NV?$allocator@N@std@@@std@@@Z@4HA 000000018002aa00 f   VImage.obj
 0001:00029a00       ?dtor$0@?0???8vips@@YA?AVVImage@0@V10@V?$vector@NV?$allocator@N@std@@@std@@@Z@4HA 000000018002aa00 f   VImage.obj
 0001:00029a00       ?dtor$0@?0???Tvips@@YA?AVVImage@0@V10@V?$vector@NV?$allocator@N@std@@@std@@@Z@4HA 000000018002aa00 f   VImage.obj
 0001:00029a00       ?dtor$0@?0???Mvips@@YA?AVVImage@0@V10@V?$vector@NV?$allocator@N@std@@@std@@@Z@4HA 000000018002aa00 f   VImage.obj
 0001:00029a00       ?dtor$0@?0???6vips@@YA?AVVImage@0@V10@V?$vector@NV?$allocator@N@std@@@std@@@Z@4HA 000000018002aa00 f   VImage.obj
 0001:00029a0c       ?dtor$1@?0???8vips@@YA?AVVImage@0@V10@V?$vector@NV?$allocator@N@std@@@std@@@Z@4HA 000000018002aa0c f   VImage.obj
 0001:00029a0c       ?dtor$1@?0???Nvips@@YA?AVVImage@0@V10@V?$vector@NV?$allocator@N@std@@@std@@@Z@4HA 000000018002aa0c f   VImage.obj
 0001:00029a0c       ?dtor$1@?0???Mvips@@YA?AVVImage@0@V10@V?$vector@NV?$allocator@N@std@@@std@@@Z@4HA 000000018002aa0c f   VImage.obj
 0001:00029a0c       ?dtor$1@?0???Ovips@@YA?AVVImage@0@V10@V?$vector@NV?$allocator@N@std@@@std@@@Z@4HA 000000018002aa0c f   VImage.obj
 0001:00029a0c       ?dtor$1@?0???Pvips@@YA?AVVImage@0@V10@V?$vector@NV?$allocator@N@std@@@std@@@Z@4HA 000000018002aa0c f   VImage.obj
 0001:00029a0c       ?dtor$1@?0???Lvips@@YA?AVVImage@0@V10@V?$vector@NV?$allocator@N@std@@@std@@@Z@4HA 000000018002aa0c f   VImage.obj
 0001:00029a0c       ?dtor$1@?0???Tvips@@YA?AVVImage@0@V10@V?$vector@NV?$allocator@N@std@@@std@@@Z@4HA 000000018002aa0c f   VImage.obj
 0001:00029a0c       ?dtor$1@?0???9vips@@YA?AVVImage@0@V10@V?$vector@NV?$allocator@N@std@@@std@@@Z@4HA 000000018002aa0c f   VImage.obj
 0001:00029a0c       ?dtor$1@?0???Ivips@@YA?AVVImage@0@V10@V?$vector@NV?$allocator@N@std@@@std@@@Z@4HA 000000018002aa0c f   VImage.obj
 0001:00029a0c       ?dtor$1@?0???5vips@@YA?AVVImage@0@V10@V?$vector@NV?$allocator@N@std@@@std@@@Z@4HA 000000018002aa0c f   VImage.obj
 0001:00029a0c       ?dtor$1@?0???6vips@@YA?AVVImage@0@V10@V?$vector@NV?$allocator@N@std@@@std@@@Z@4HA 000000018002aa0c f   VImage.obj
 0001:00029a0c       ?dtor$1@?0???Hvips@@YA?AVVImage@0@V10@V?$vector@NV?$allocator@N@std@@@std@@@Z@4HA 000000018002aa0c f   VImage.obj
 0001:00029a0c       ?dtor$1@?0???Dvips@@YA?AVVImage@0@V10@V?$vector@NV?$allocator@N@std@@@std@@@Z@4HA 000000018002aa0c f   VImage.obj
 0001:00029a0c       ?dtor$1@?0???Uvips@@YA?AVVImage@0@V10@V?$vector@NV?$allocator@N@std@@@std@@@Z@4HA 000000018002aa0c f   VImage.obj
 0001:00029a20       ?dtor$0@?0???Zvips@@YAAEAVVImage@0@AEAV10@V10@@Z@4HA 000000018002aa20 f   VImage.obj
 0001:00029a20       ?dtor$0@?0???_0vips@@YAAEAVVImage@0@AEAV10@V10@@Z@4HA 000000018002aa20 f   VImage.obj
 0001:00029a20       ?dtor$0@?0???_1vips@@YAAEAVVImage@0@AEAV10@V10@@Z@4HA 000000018002aa20 f   VImage.obj
 0001:00029a20       ?dtor$0@?0???_2vips@@YAAEAVVImage@0@AEAV10@V10@@Z@4HA 000000018002aa20 f   VImage.obj
 0001:00029a20       ?dtor$0@?0???_3vips@@YAAEAVVImage@0@AEAV10@V10@@Z@4HA 000000018002aa20 f   VImage.obj
 0001:00029a20       ?dtor$0@?0???_4vips@@YAAEAVVImage@0@AEAV10@V10@@Z@4HA 000000018002aa20 f   VImage.obj
 0001:00029a20       ?dtor$0@?0???_5vips@@YAAEAVVImage@0@AEAV10@V10@@Z@4HA 000000018002aa20 f   VImage.obj
 0001:00029a20       ?dtor$0@?0???_6vips@@YAAEAVVImage@0@AEAV10@V10@@Z@4HA 000000018002aa20 f   VImage.obj
 0001:00029a20       ?dtor$0@?0???Xvips@@YAAEAVVImage@0@AEAV10@V10@@Z@4HA 000000018002aa20 f   VImage.obj
 0001:00029a20       ?dtor$0@?0???Yvips@@YAAEAVVImage@0@AEAV10@V10@@Z@4HA 000000018002aa20 f   VImage.obj
 0001:00029a30       ?dtor$0@?0???_1vips@@YAAEAVVImage@0@AEAV10@V?$vector@NV?$allocator@N@std@@@std@@@Z@4HA 000000018002aa30 f   VImage.obj
 0001:00029a30       ?dtor$0@?0???Yvips@@YAAEAVVImage@0@AEAV10@V?$vector@NV?$allocator@N@std@@@std@@@Z@4HA 000000018002aa30 f   VImage.obj
 0001:00029a30       ?dtor$0@?0???_5vips@@YAAEAVVImage@0@AEAV10@V?$vector@NV?$allocator@N@std@@@std@@@Z@4HA 000000018002aa30 f   VImage.obj
 0001:00029a30       ?dtor$0@?0???_6vips@@YAAEAVVImage@0@AEAV10@V?$vector@NV?$allocator@N@std@@@std@@@Z@4HA 000000018002aa30 f   VImage.obj
 0001:00029a30       ?dtor$0@?0???Xvips@@YAAEAVVImage@0@AEAV10@V?$vector@NV?$allocator@N@std@@@std@@@Z@4HA 000000018002aa30 f   VImage.obj
 0001:00029a30       ?dtor$0@?0???_3vips@@YAAEAVVImage@0@AEAV10@V?$vector@NV?$allocator@N@std@@@std@@@Z@4HA 000000018002aa30 f   VImage.obj
 0001:00029a30       ?dtor$0@?0???_2vips@@YAAEAVVImage@0@AEAV10@V?$vector@NV?$allocator@N@std@@@std@@@Z@4HA 000000018002aa30 f   VImage.obj
 0001:00029a30       ?dtor$0@?0???Zvips@@YAAEAVVImage@0@AEAV10@V?$vector@NV?$allocator@N@std@@@std@@@Z@4HA 000000018002aa30 f   VImage.obj
 0001:00029a30       ?dtor$0@?0???_4vips@@YAAEAVVImage@0@AEAV10@V?$vector@NV?$allocator@N@std@@@std@@@Z@4HA 000000018002aa30 f   VImage.obj
 0001:00029a30       ?dtor$0@?0???_0vips@@YAAEAVVImage@0@AEAV10@V?$vector@NV?$allocator@N@std@@@std@@@Z@4HA 000000018002aa30 f   VImage.obj
 0001:00029a40       ?dtor$0@?0???Kvips@@YA?AVVImage@0@V10@V?$vector@NV?$allocator@N@std@@@std@@@Z@4HA 000000018002aa40 f   VImage.obj
 0001:00029a40       ?dtor$0@?0???Gvips@@YA?AVVImage@0@V10@V?$vector@NV?$allocator@N@std@@@std@@@Z@4HA 000000018002aa40 f   VImage.obj
 0001:00029a4c       ?dtor$1@?0???Gvips@@YA?AVVImage@0@V10@V?$vector@NV?$allocator@N@std@@@std@@@Z@4HA 000000018002aa4c f   VImage.obj
 0001:00029a4c       ?dtor$1@?0???Kvips@@YA?AVVImage@0@V10@V?$vector@NV?$allocator@N@std@@@std@@@Z@4HA 000000018002aa4c f   VImage.obj
 0001:00029a60       ?dtor$0@?0???Kvips@@YA?AVVImage@0@NV10@@Z@4HA 000000018002aa60 f   VImage.obj
 0001:00029a6c       ?dtor$1@?0???Kvips@@YA?AVVImage@0@NV10@@Z@4HA 000000018002aa6c f   VImage.obj
 0001:00029a80       ?dtor$0@?0???Kvips@@YA?AVVImage@0@V?$vector@NV?$allocator@N@std@@@std@@V10@@Z@4HA 000000018002aa80 f   VImage.obj
 0001:00029a8c       ?dtor$1@?0???Kvips@@YA?AVVImage@0@V?$vector@NV?$allocator@N@std@@@std@@V10@@Z@4HA 000000018002aa8c f   VImage.obj
 0001:00029a98       ?dtor$2@?0???Kvips@@YA?AVVImage@0@V?$vector@NV?$allocator@N@std@@@std@@V10@@Z@4HA 000000018002aa98 f   VImage.obj
 0001:00029aa4       ?dtor$3@?0???Kvips@@YA?AVVImage@0@V?$vector@NV?$allocator@N@std@@@std@@V10@@Z@4HA 000000018002aaa4 f   VImage.obj
 0001:00029ab0       ?dtor$0@?0???9vips@@YA?AVVImage@0@V10@N@Z@4HA 000000018002aab0 f   VImage.obj
 0001:00029ab0       ?dtor$0@?0???Ovips@@YA?AVVImage@0@V10@N@Z@4HA 000000018002aab0 f   VImage.obj
 0001:00029ab0       ?dtor$0@?0???Tvips@@YA?AVVImage@0@V10@N@Z@4HA 000000018002aab0 f   VImage.obj
 0001:00029ab0       ?dtor$0@?0???6vips@@YA?AVVImage@0@V10@N@Z@4HA 000000018002aab0 f   VImage.obj
 0001:00029ab0       ?dtor$0@?0???Nvips@@YA?AVVImage@0@V10@N@Z@4HA 000000018002aab0 f   VImage.obj
 0001:00029ab0       ?dtor$0@?0???Lvips@@YA?AVVImage@0@V10@N@Z@4HA 000000018002aab0 f   VImage.obj
 0001:00029ab0       ?dtor$0@?0???Ivips@@YA?AVVImage@0@V10@N@Z@4HA 000000018002aab0 f   VImage.obj
 0001:00029ab0       ?dtor$0@?0???8vips@@YA?AVVImage@0@V10@N@Z@4HA 000000018002aab0 f   VImage.obj
 0001:00029ab0       ?dtor$0@?0???Pvips@@YA?AVVImage@0@V10@N@Z@4HA 000000018002aab0 f   VImage.obj
 0001:00029ab0       ?dtor$0@?0???Uvips@@YA?AVVImage@0@V10@N@Z@4HA 000000018002aab0 f   VImage.obj
 0001:00029ab0       ?dtor$0@?0???5vips@@YA?AVVImage@0@V10@N@Z@4HA 000000018002aab0 f   VImage.obj
 0001:00029ab0       ?dtor$0@?0???Mvips@@YA?AVVImage@0@V10@N@Z@4HA 000000018002aab0 f   VImage.obj
 0001:00029abc       ?fin$0@?0???_M@YAXPEAX_K1P6AX0@Z@Z@4HA 000000018002aabc f   LIBCMT:ehvecdtr.obj
 0001:00029ae8       ?filt$0@?0??__ArrayUnwind@@YAXPEAX_K1P6AX0@Z@Z@4HA 000000018002aae8 f   LIBCMT:ehvecdtr.obj
 0001:00029b29       __scrt_is_nonwritable_in_current_image$filt$0 000000018002ab29 f   LIBCMT:utility.obj
 0001:00029b41       ?fin$0@?0??dllmain_crt_process_attach@@YAHQEAUHINSTANCE__@@QEAX@Z@4HA 000000018002ab41 f   LIBCMT:dll_dllmain.obj
 0001:00029b58       ?fin$0@?0??dllmain_crt_process_detach@@YAH_N@Z@4HA 000000018002ab58 f   LIBCMT:dll_dllmain.obj
 0001:00029b74       ?filt$0@?0??dllmain_dispatch@@YAHQEAUHINSTANCE__@@KQEAX@Z@4HA 000000018002ab74 f   LIBCMT:dll_dllmain.obj
 0001:00029baa       __CxxCallCatchBlock$filt$0 000000018002abaa f   libvcruntime:frame.obj
 0001:00029bcf       __CxxCallCatchBlock$fin$1  000000018002abcf f   libvcruntime:frame.obj
 0001:00029c47       __DestructExceptionObject$filt$0 000000018002ac47 f   libvcruntime:frame.obj
 0001:00029c5f       __FrameUnwindToState$filt$0 000000018002ac5f f   libvcruntime:frame.obj
 0001:00029c75       __FrameUnwindToState$fin$1 000000018002ac75 f   libvcruntime:frame.obj
 0001:00029c98       _CallSETranslator$filt$0   000000018002ac98 f   libvcruntime:trnsctrl.obj
 0001:00029ce4       _query_new_handler$fin$0   000000018002ace4 f   libucrt:new_handler.obj
 0001:00029cfa       ?filt$0@?0??common_exit@@YAXHW4_crt_exit_cleanup_mode@@W4_crt_exit_return_mode@@@Z@4HA 000000018002acfa f   libucrt:exit.obj
 0001:00029d15       ?fin$1@?0??common_exit@@YAXHW4_crt_exit_cleanup_mode@@W4_crt_exit_return_mode@@@Z@4HA 000000018002ad15 f   libucrt:exit.obj
 0001:00029d2e       ?fin$0@?0???$?RV<lambda_e24bbb7b643b32fcea6fa61b31d4c984>@@AEAV<lambda_275893d493268fdec8709772e3fcec0e>@@V<lambda_9d71df4d7cf3f480f8d633942495c3b0>@@@?$__crt_seh_guarded_call@H@@QEAAH$$QEAV<lambda_e24bbb7b643b32fcea6fa61b31d4c984>@@AEAV<lambda_275893d493268fdec8709772e3fcec0e>@@$$QEAV<lambda_9d71df4d7cf3f480f8d633942495c3b0>@@@Z@4HA 000000018002ad2e f   libucrt:onexit.obj
 0001:00029d4b       __acrt_update_thread_multibyte_data$fin$0 000000018002ad4b f   libucrt:mbctype.obj
 0001:00029d64       ?fin$0@?0???$?RV<lambda_46352004c1216016012b18bd6f87e700>@@AEAV<lambda_3bd07e1a1191394380780325891bf33f>@@V<lambda_334532d3f185bcaa59b5be82d7d22bff>@@@?$__crt_seh_guarded_call@X@@QEAAX$$QEAV<lambda_46352004c1216016012b18bd6f87e700>@@AEAV<lambda_3bd07e1a1191394380780325891bf33f>@@$$QEAV<lambda_334532d3f185bcaa59b5be82d7d22bff>@@@Z@4HA 000000018002ad64 f   libucrt:per_thread_data.obj
 0001:00029d64       ?fin$0@?0???$?RV<lambda_72d1df2b273a38828b1ce30cbf4cdab5>@@AEAV<lambda_876a65b173b8412d3a47c70a915b0cf4>@@V<lambda_41932305e351933ebe8f8be3ed8bb5dc>@@@?$__crt_seh_guarded_call@X@@QEAAX$$QEAV<lambda_72d1df2b273a38828b1ce30cbf4cdab5>@@AEAV<lambda_876a65b173b8412d3a47c70a915b0cf4>@@$$QEAV<lambda_41932305e351933ebe8f8be3ed8bb5dc>@@@Z@4HA 000000018002ad64 f   libucrt:per_thread_data.obj
 0001:00029d64       ?fin$0@?0???$?RV<lambda_fb3a7dec4e47f37f22dae91bb15c9095>@@AEAV<lambda_698284760c8add0bfb0756c19673e34b>@@V<lambda_dfb8eca1e75fef3034a8fb18dd509707>@@@?$__crt_seh_guarded_call@X@@QEAAX$$QEAV<lambda_fb3a7dec4e47f37f22dae91bb15c9095>@@AEAV<lambda_698284760c8add0bfb0756c19673e34b>@@$$QEAV<lambda_dfb8eca1e75fef3034a8fb18dd509707>@@@Z@4HA 000000018002ad64 f   libucrt:per_thread_data.obj
 0001:00029d64       ?fin$0@?0???$?RV<lambda_b8c45f8f788dd370798f47cfe8ac3a86>@@AEAV<lambda_4e60a939b0d047cfe11ddc22648dfba9>@@V<lambda_332c3edc96d0294ec56c57d38c1cdfd5>@@@?$__crt_seh_guarded_call@H@@QEAAH$$QEAV<lambda_b8c45f8f788dd370798f47cfe8ac3a86>@@AEAV<lambda_4e60a939b0d047cfe11ddc22648dfba9>@@$$QEAV<lambda_332c3edc96d0294ec56c57d38c1cdfd5>@@@Z@4HA 000000018002ad64 f   libucrt:onexit.obj
 0001:00029d64       ?fin$0@?0???$?RV<lambda_99476a1ad63dd22509b5d3e65b0ffc95>@@AEAV<lambda_ad1ced32f4ac17aa236e5ef05d6b3b7c>@@V<lambda_f7424dd8d45958661754dc4f2697e9c3>@@@?$__crt_seh_guarded_call@X@@QEAAX$$QEAV<lambda_99476a1ad63dd22509b5d3e65b0ffc95>@@AEAV<lambda_ad1ced32f4ac17aa236e5ef05d6b3b7c>@@$$QEAV<lambda_f7424dd8d45958661754dc4f2697e9c3>@@@Z@4HA 000000018002ad64 f   libucrt:mbctype.obj
 0001:00029d64       ?fin$0@?0???$?RV<lambda_c36588078e9f5dfd39652860aa6b3aaf>@@AEAV<lambda_ec61778202f4f5fc7e7711acc23c3bca>@@V<lambda_dc9d2797ccde5d239b4a0efae8ebd7db>@@@?$__crt_seh_guarded_call@P6AXH@Z@@QEAAP6AXH@Z$$QEAV<lambda_c36588078e9f5dfd39652860aa6b3aaf>@@AEAV<lambda_ec61778202f4f5fc7e7711acc23c3bca>@@$$QEAV<lambda_dc9d2797ccde5d239b4a0efae8ebd7db>@@@Z@4HA 000000018002ad64 f   libucrt:signal.obj
 0001:00029d64       ?fin$0@?0???$?RV<lambda_5e887d1dcbef67a5eb4283622ba103bf>@@AEAV<lambda_4466841279450cc726390878d4a41900>@@V<lambda_341c25c0346d94847f1f3c463c57e077>@@@?$__crt_seh_guarded_call@X@@QEAAX$$QEAV<lambda_5e887d1dcbef67a5eb4283622ba103bf>@@AEAV<lambda_4466841279450cc726390878d4a41900>@@$$QEAV<lambda_341c25c0346d94847f1f3c463c57e077>@@@Z@4HA 000000018002ad64 f   libucrt:per_thread_data.obj
 0001:00029d7e       raise$fin$0                000000018002ad7e f   libucrt:signal.obj
 0001:00029da2       __acrt_update_thread_locale_data$fin$0 000000018002ada2 f   libucrt:locale_refcounting.obj
 0001:00029da2       __acrt_uninitialize_locale$fin$0 000000018002ada2 f   libucrt:wsetlocale.obj
 0001:00029dbb       __acrt_lowio_ensure_fh_exists$fin$0 000000018002adbb f   libucrt:osfinfo.obj
 0001:00029dbb       __acrt_initialize_lowio$fin$0 000000018002adbb f   libucrt:ioinit.obj
 0001:00029dd4       common_flush_all$fin$0     000000018002add4 f   libucrt:fflush.obj
 0001:00029dee       common_flush_all$fin$1     000000018002adee f   libucrt:fflush.obj
 0001:00029e07       _fcloseall$fin$0           000000018002ae07 f   libucrt:closeall.obj
 0001:00029e20       _write$fin$0               000000018002ae20 f   libucrt:write.obj
 0001:00029e37       fclose$fin$0               000000018002ae37 f   libucrt:fclose.obj
 0001:00029e4f       ?fin$0@?0???$?RV<lambda_b521505b218e5242e90febf6bfebc422>@@AEAV<lambda_6978c1fb23f02e42e1d9e99668cc68aa>@@V<lambda_314360699dd331753a4119843814e9a7>@@@?$__crt_seh_guarded_call@H@@QEAAH$$QEAV<lambda_b521505b218e5242e90febf6bfebc422>@@AEAV<lambda_6978c1fb23f02e42e1d9e99668cc68aa>@@$$QEAV<lambda_314360699dd331753a4119843814e9a7>@@@Z@4HA 000000018002ae4f f   libucrt:commit.obj
 0001:00029e4f       ?fin$0@?0???$?RV<lambda_bfedae4ebbf01fab1bb6dcc6a9e276e0>@@AEAV<lambda_2fe9b910cf3cbf4a0ab98a02ba45b3ec>@@V<lambda_237c231691f317818eb88cc1d5d642d6>@@@?$__crt_seh_guarded_call@H@@QEAAH$$QEAV<lambda_bfedae4ebbf01fab1bb6dcc6a9e276e0>@@AEAV<lambda_2fe9b910cf3cbf4a0ab98a02ba45b3ec>@@$$QEAV<lambda_237c231691f317818eb88cc1d5d642d6>@@@Z@4HA 000000018002ae4f f   libucrt:close.obj
 0001:00029e69       _ctrlfp$filt$0             000000018002ae69 f   libucrt:fpctrl.obj
 0001:00029ea0       _IsNonwritableInCurrentImage$filt$0 000000018002aea0 f   LIBCMT:pesect.obj
 0002:00000248       .idata$5                   000000018002b248     libvips:ddcis00699.o
 0002:00000250       .idata$5                   000000018002b250     libvips:ddcis00881.o
 0002:00000258       .idata$5                   000000018002b258     libvips:ddcis00894.o
 0002:00000260       .idata$5                   000000018002b260     libvips:ddcis00900.o
 0002:00000268       .idata$5                   000000018002b268     libvips:ddcis00950.o
 0002:00000270       .idata$5                   000000018002b270     libvips:ddcis00951.o
 0002:00000278       .idata$5                   000000018002b278     libvips:ddcis01003.o
 0002:00000280       .idata$5                   000000018002b280     libvips:ddcis01200.o
 0002:00000288       .idata$5                   000000018002b288     libvips:ddcis01210.o
 0002:00000290       .idata$5                   000000018002b290     libvips:ddcis01211.o
 0002:00000298       .idata$5                   000000018002b298     libvips:ddcis01254.o
 0002:000002a0       .idata$5                   000000018002b2a0     libvips:ddcis01255.o
 0002:000002a8       .idata$5                   000000018002b2a8     libvips:ddcis01256.o
 0002:000002b0       .idata$5                   000000018002b2b0     libvips:ddcis01257.o
 0002:000002b8       .idata$5                   000000018002b2b8     libvips:ddcis01337.o
 0002:000002c0       .idata$5                   000000018002b2c0     libvips:ddcis01436.o
 0002:000002c8       .idata$5                   000000018002b2c8     libvips:ddcis01437.o
 0002:000002d0       .idata$5                   000000018002b2d0     libvips:ddcis01438.o
 0002:000002d8       .idata$5                   000000018002b2d8     libvips:ddcis01439.o
 0002:000002e0       .idata$5                   000000018002b2e0     libvips:ddcis01440.o
 0002:000002e8       .idata$5                   000000018002b2e8     libvips:ddcis01442.o
 0002:000002f0       .idata$5                   000000018002b2f0     libvips:ddcis01443.o
 0002:000002f8       .idata$5                   000000018002b2f8     libvips:ddcis01444.o
 0002:00000300       .idata$5                   000000018002b300     libvips:ddcis01446.o
 0002:00000308       .idata$5                   000000018002b308     libvips:ddcis01447.o
 0002:00000310       .idata$5                   000000018002b310     libvips:ddcis01451.o
 0002:00000318       .idata$5                   000000018002b318     libvips:ddcis01452.o
 0002:00000320       .idata$5                   000000018002b320     libvips:ddcis01453.o
 0002:00000328       .idata$5                   000000018002b328     libvips:ddcis01454.o
 0002:00000330       .idata$5                   000000018002b330     libvips:ddcis01455.o
 0002:00000338       .idata$5                   000000018002b338     libvips:ddcis01456.o
 0002:00000340       .idata$5                   000000018002b340     libvips:ddcis01457.o
 0002:00000348       .idata$5                   000000018002b348     libvips:ddcis01458.o
 0002:00000350       .idata$5                   000000018002b350     libvips:ddcis01460.o
 0002:00000358       .idata$5                   000000018002b358     libvips:ddcis01482.o
 0002:00000360       .idata$5                   000000018002b360     libvips:ddcis01484.o
 0002:00000368       .idata$5                   000000018002b368     libvips:ddcis01485.o
 0002:00000370       .idata$5                   000000018002b370     libvips:ddcis01487.o
 0002:00000378       .idata$5                   000000018002b378     libvips:ddcis01489.o
 0002:00000380       .idata$5                   000000018002b380     libvips:ddcis01502.o
 0002:00000388       .idata$5                   000000018002b388     libvips:ddcis01504.o
 0002:00000390       .idata$5                   000000018002b390     libvips:ddcis01505.o
 0002:00000398       .idata$5                   000000018002b398     libvips:ddcis01508.o
 0002:000003a0       .idata$5                   000000018002b3a0     libvips:ddcis01511.o
 0002:000003a8       .idata$5                   000000018002b3a8     libvips:ddcis01516.o
 0002:000003b0       .idata$5                   000000018002b3b0     libvips:ddcis01531.o
 0002:000003b8       .idata$5                   000000018002b3b8     libvips:ddcis01538.o
 0002:000003c0       .idata$5                   000000018002b3c0     libvips:ddcis01664.o
 0002:000003c8       .idata$5                   000000018002b3c8     libvips:ddcis01670.o
 0002:000003d0       .idata$5                   000000018002b3d0     libvips:ddcis01687.o
 0002:000003d8       .idata$5                   000000018002b3d8     libvips:ddcis01694.o
 0002:000003e0       .idata$5                   000000018002b3e0     libvips:ddcis01709.o
 0002:000003e8       .idata$5                   000000018002b3e8     libvips:ddcis01968.o
 0002:000003f0       .idata$5                   000000018002b3f0     libvips:ddcis01969.o
 0002:000003f8       .idata$5                   000000018002b3f8     libvips:ddcis01978.o
 0002:00000400       .idata$5                   000000018002b400     libvips:ddcis01979.o
 0002:00000410       .idata$5                   000000018002b410     libgobject-2.0:dhzhs00125.o
 0002:00000418       .idata$5                   000000018002b418     libgobject-2.0:dhzhs00138.o
 0002:00000420       .idata$5                   000000018002b420     libgobject-2.0:dhzhs00148.o
 0002:00000428       .idata$5                   000000018002b428     libgobject-2.0:dhzhs00155.o
 0002:00000430       .idata$5                   000000018002b430     libgobject-2.0:dhzhs00196.o
 0002:00000438       .idata$5                   000000018002b438     libgobject-2.0:dhzhs00271.o
 0002:00000440       .idata$5                   000000018002b440     libgobject-2.0:dhzhs00272.o
 0002:00000448       .idata$5                   000000018002b448     libgobject-2.0:dhzhs00353.o
 0002:00000450       .idata$5                   000000018002b450     libgobject-2.0:dhzhs00359.o
 0002:00000458       .idata$5                   000000018002b458     libgobject-2.0:dhzhs00362.o
 0002:00000460       .idata$5                   000000018002b460     libgobject-2.0:dhzhs00367.o
 0002:00000468       .idata$5                   000000018002b468     libgobject-2.0:dhzhs00370.o
 0002:00000470       .idata$5                   000000018002b470     libgobject-2.0:dhzhs00374.o
 0002:00000478       .idata$5                   000000018002b478     libgobject-2.0:dhzhs00381.o
 0002:00000480       .idata$5                   000000018002b480     libgobject-2.0:dhzhs00386.o
 0002:00000488       .idata$5                   000000018002b488     libgobject-2.0:dhzhs00387.o
 0002:00000490       .idata$5                   000000018002b490     libgobject-2.0:dhzhs00390.o
 0002:00000498       .idata$5                   000000018002b498     libgobject-2.0:dhzhs00391.o
 0002:000004a0       .idata$5                   000000018002b4a0     libgobject-2.0:dhzhs00396.o
 0002:000004a8       .idata$5                   000000018002b4a8     libgobject-2.0:dhzhs00399.o
 0002:000004b0       .idata$5                   000000018002b4b0     libgobject-2.0:dhzhs00407.o
 0002:000004b8       .idata$5                   000000018002b4b8     libgobject-2.0:dhzhs00422.o
 0002:000004c8       .idata$5                   000000018002b4c8     libglib-2.0:dxyhs00041.o
 0002:000004d0       .idata$5                   000000018002b4d0     libglib-2.0:dxyhs00617.o
 0002:00000508       ?__scrt_initialize_tss_var@@3P6AHXZEA 000000018002b508     LIBCMT:thread_safe_statics.obj
 0002:00000640       ?_Win_errtab@std@@3QBU_Win_errtab_t@1@B 000000018002b640     libcpmt:syserror.obj
 0002:00000890       ?_Sys_errtab@std@@3QBU_Sys_errtab_t@1@B 000000018002b890     libcpmt:syserror.obj
 0002:000014c8       GS_ExceptionPointers       000000018002c4c8     LIBCMT:gs_report.obj
 0002:00001540       ?ExceptionTemplate@?1??_CxxThrowException@@9@4UEHExceptionRecord@@B 000000018002c540     libvcruntime:throw.obj
 0002:00001580       ?ExceptionTemplate@?1??_UnwindNestedFrames@@9@4U_EXCEPTION_RECORD@@B 000000018002c580     libvcruntime:trnsctrl.obj
 0002:00001618       ?module_names@?A0x679b24ab@@3QBQEB_WB 000000018002c618     libvcruntime:winapi_downlevel.obj
 0002:000016e8       ?candidate_modules@?1??try_get_FlsAlloc@@YAP6AKP6AXPEAX@Z@ZXZ@4QBW4module_id@?A0x679b24ab@@B 000000018002c6e8     libvcruntime:winapi_downlevel.obj
 0002:00001700       ?candidate_modules@?1??try_get_FlsFree@@YAP6AHK@ZXZ@4QBW4module_id@?A0x679b24ab@@B 000000018002c700     libvcruntime:winapi_downlevel.obj
 0002:00001710       ?candidate_modules@?1??try_get_FlsGetValue@@YAP6APEAXK@ZXZ@4QBW4module_id@?A0x679b24ab@@B 000000018002c710     libvcruntime:winapi_downlevel.obj
 0002:00001728       ?candidate_modules@?1??try_get_FlsSetValue@@YAP6AHKPEAX@ZXZ@4QBW4module_id@?A0x679b24ab@@B 000000018002c728     libvcruntime:winapi_downlevel.obj
 0002:00001740       ?candidate_modules@?1??try_get_InitializeCriticalSectionEx@@YAP6AHPEAU_RTL_CRITICAL_SECTION@@KK@ZXZ@4QBW4module_id@?A0x679b24ab@@B 000000018002c740     libvcruntime:winapi_downlevel.obj
 0002:00001770       ?tokenTable@@3QBQEBDB      000000018002c770     libvcruntime:undname.obj
 0002:000017e0       ?nameTable@@3QBQEBDB       000000018002c7e0     libvcruntime:undname.obj
 0002:00001a68       ?rttiTable@@3QBQEBDB       000000018002ca68     libvcruntime:undname.obj
 0002:000021f0       __acrt_initializers        000000018002d1f0     libucrt:initialization.obj
 0002:000022e0       errtable                   000000018002d2e0     libucrt:errno.obj
 0002:00002ad0       module_names               000000018002dad0     libucrt:winapi_thunks.obj
 0002:00003000       ?candidate_modules@?1??try_get_FlsAlloc@@YAP6AKP6AXPEAX@Z@ZXZ@4QBW4module_id@?A0x63058377@@B 000000018002e000     libucrt:winapi_thunks.obj
 0002:00003008       ?candidate_modules@?1??try_get_FlsFree@@YAP6AHK@ZXZ@4QBW4module_id@?A0x63058377@@B 000000018002e008     libucrt:winapi_thunks.obj
 0002:00003010       ?candidate_modules@?1??try_get_FlsGetValue@@YAP6APEAXK@ZXZ@4QBW4module_id@?A0x63058377@@B 000000018002e010     libucrt:winapi_thunks.obj
 0002:00003018       ?candidate_modules@?1??try_get_FlsSetValue@@YAP6AHKPEAX@ZXZ@4QBW4module_id@?A0x63058377@@B 000000018002e018     libucrt:winapi_thunks.obj
 0002:00003020       ?candidate_modules@?1??try_get_GetCurrentPackageId@@YAP6AJPEAIPEAE@ZXZ@4QBW4module_id@?A0x63058377@@B 000000018002e020     libucrt:winapi_thunks.obj
 0002:00003040       ?candidate_modules@?1??try_get_InitializeCriticalSectionEx@@YAP6AHPEAU_RTL_CRITICAL_SECTION@@KK@ZXZ@4QBW4module_id@?A0x63058377@@B 000000018002e040     libucrt:winapi_thunks.obj
 0002:00003048       ?candidate_modules@?1??try_get_LCMapStringEx@@YAP6AHPEB_WK0HPEA_WHPEAU_nlsversioninfo@@PEAX_J@ZXZ@4QBW4module_id@?A0x63058377@@B 000000018002e048     libucrt:winapi_thunks.obj
 0002:00003060       ?candidate_modules@?1??try_get_LocaleNameToLCID@@YAP6AKPEB_WK@ZXZ@4QBW4module_id@?A0x63058377@@B 000000018002e060     libucrt:winapi_thunks.obj
 0002:00003080       _mb_locale_names           000000018002e080     libucrt:mbctype.obj
 0002:000036f0       LcidToLocaleNameTable      000000018002e6f0     libucrt:lcidtoname_downlevel.obj
 0002:00005150       LocaleNameToIndexTable     0000000180030150     libucrt:lcidtoname_downlevel.obj
 0002:000069f0       __real_ninf                00000001800319f0     libucrt:log10.obj
 0002:00006a00       __real_inf                 0000000180031a00     libucrt:log10.obj
 0002:00006a10       __real_neg_qnan            0000000180031a10     libucrt:log10.obj
 0002:00006a20       __real_qnanbit             0000000180031a20     libucrt:log10.obj
 0002:00006a30       __int_1023                 0000000180031a30     libucrt:log10.obj
 0002:00006a40       __mask_001                 0000000180031a40     libucrt:log10.obj
 0002:00006a50       __mask_mant                0000000180031a50     libucrt:log10.obj
 0002:00006a60       __mask_mant_top8           0000000180031a60     libucrt:log10.obj
 0002:00006a70       __mask_mant9               0000000180031a70     libucrt:log10.obj
 0002:00006a80       __real_log10_e             0000000180031a80     libucrt:log10.obj
 0002:00006a90       __real_log10_e_lead        0000000180031a90     libucrt:log10.obj
 0002:00006aa0       __real_log10_e_tail        0000000180031aa0     libucrt:log10.obj
 0002:00006ab0       __real_log10_2_lead        0000000180031ab0     libucrt:log10.obj
 0002:00006ac0       __real_log10_2_tail        0000000180031ac0     libucrt:log10.obj
 0002:00006ad0       __real_two                 0000000180031ad0     libucrt:log10.obj
 0002:00006ae0       __real_one                 0000000180031ae0     libucrt:log10.obj
 0002:00006af0       __real_half                0000000180031af0     libucrt:log10.obj
 0002:00006b00       __mask_100                 0000000180031b00     libucrt:log10.obj
 0002:00006b10       __real_1_over_512          0000000180031b10     libucrt:log10.obj
 0002:00006b20       __real_1_over_2            0000000180031b20     libucrt:log10.obj
 0002:00006b30       __real_1_over_3            0000000180031b30     libucrt:log10.obj
 0002:00006b40       __real_1_over_4            0000000180031b40     libucrt:log10.obj
 0002:00006b50       __real_1_over_5            0000000180031b50     libucrt:log10.obj
 0002:00006b60       __real_1_over_6            0000000180031b60     libucrt:log10.obj
 0002:00006b70       __real_neg_1023            0000000180031b70     libucrt:log10.obj
 0002:00006b80       __mask_2045                0000000180031b80     libucrt:log10.obj
 0002:00006b90       __real_threshold           0000000180031b90     libucrt:log10.obj
 0002:00006ba0       __real_near_one_lt         0000000180031ba0     libucrt:log10.obj
 0002:00006bb0       __real_near_one_gt         0000000180031bb0     libucrt:log10.obj
 0002:00006bc0       __real_min_norm            0000000180031bc0     libucrt:log10.obj
 0002:00006bd0       __real_notsign             0000000180031bd0     libucrt:log10.obj
 0002:00006be0       __real_ca1                 0000000180031be0     libucrt:log10.obj
 0002:00006bf0       __real_ca2                 0000000180031bf0     libucrt:log10.obj
 0002:00006c00       __real_ca3                 0000000180031c00     libucrt:log10.obj
 0002:00006c10       __real_ca4                 0000000180031c10     libucrt:log10.obj
 0002:00006c20       __mask_lower               0000000180031c20     libucrt:log10.obj
 0002:00006c30       __flag_x_zero              0000000180031c30     libucrt:log10.obj
 0002:00006c34       __flag_x_neg               0000000180031c34     libucrt:log10.obj
 0002:00006c38       __flag_x_nan               0000000180031c38     libucrt:log10.obj
 0002:00008490       __real@433fffffffffffff    0000000180033490     libucrt:fpsr.obj
 0002:00008498       __real@c33fffffffffffff    0000000180033498     libucrt:fpsr.obj
 0002:00009660       $cppxdata$?flush@?$basic_ostream@DU?$char_traits@D@std@@@std@@QEAAAEAV12@XZ 0000000180034660     VError.obj
 0002:00009688       $cppxdata$??0sentry@?$basic_ostream@DU?$char_traits@D@std@@@std@@QEAA@AEAV12@@Z 0000000180034688     VError.obj
 0002:000096b0       $cppxdata$??$?6DU?$char_traits@D@std@@V?$allocator@D@1@@std@@YAAEAV?$basic_ostream@DU?$char_traits@D@std@@@0@AEAV10@AEBV?$basic_string@DU?$char_traits@D@std@@V?$allocator@D@2@@0@@Z 00000001800346b0     VError.obj
 0002:000096d8       $cppxdata$??0?$list@PEAUPair@VOption@vips@@V?$allocator@PEAUPair@VOption@vips@@@std@@@std@@QEAA@AEBV01@@Z 00000001800346d8     VError.obj
 0002:00009700       $cppxdata$?ifthenelse@VImage@vips@@QEAA?AV12@NNPEAVVOption@2@@Z 0000000180034700     VError.obj
 0002:00009728       $cppxdata$?ifthenelse@VImage@vips@@QEAA?AV12@V12@NPEAVVOption@2@@Z 0000000180034728     VError.obj
 0002:00009750       $cppxdata$?ifthenelse@VImage@vips@@QEAA?AV12@NV12@PEAVVOption@2@@Z 0000000180034750     VError.obj
 0002:00009778       $cppxdata$?ifthenelse@VImage@vips@@QEAA?AV12@V?$vector@NV?$allocator@N@std@@@std@@0PEAVVOption@2@@Z 0000000180034778     VError.obj
 0002:000097a0       $cppxdata$?ifthenelse@VImage@vips@@QEAA?AV12@V12@V?$vector@NV?$allocator@N@std@@@std@@PEAVVOption@2@@Z 00000001800347a0     VError.obj
 0002:000097c8       $cppxdata$?ifthenelse@VImage@vips@@QEAA?AV12@V?$vector@NV?$allocator@N@std@@@std@@V12@PEAVVOption@2@@Z 00000001800347c8     VError.obj
 0002:000097f0       $cppxdata$?wop@VImage@vips@@QEAA?AV12@V?$vector@NV?$allocator@N@std@@@std@@PEAVVOption@2@@Z 00000001800347f0     VError.obj
 0002:00009818       $cppxdata$?wop@VImage@vips@@QEAA?AV12@V12@PEAVVOption@2@@Z 0000000180034818     VError.obj
 0002:00009840       $cppxdata$?pow@VImage@vips@@QEAA?AV12@V?$vector@NV?$allocator@N@std@@@std@@PEAVVOption@2@@Z 0000000180034840     VError.obj
 0002:00009868       $cppxdata$?pow@VImage@vips@@QEAA?AV12@V12@PEAVVOption@2@@Z 0000000180034868     VError.obj
 0002:00009890       $cppxdata$?erode@VImage@vips@@QEAA?AV12@V12@PEAVVOption@2@@Z 0000000180034890     VError.obj
 0002:000098b8       $cppxdata$?dilate@VImage@vips@@QEAA?AV12@V12@PEAVVOption@2@@Z 00000001800348b8     VError.obj
 0002:000098e0       $cppxdata$?bandjoin@VImage@vips@@QEAA?AV12@V?$vector@NV?$allocator@N@std@@@std@@PEAVVOption@2@@Z 00000001800348e0     VError.obj
 0002:00009908       $cppxdata$?linear@VImage@vips@@QEAA?AV12@NV?$vector@NV?$allocator@N@std@@@std@@PEAVVOption@2@@Z 0000000180034908     VError.obj
 0002:00009930       $cppxdata$?linear@VImage@vips@@QEAA?AV12@V?$vector@NV?$allocator@N@std@@@std@@NPEAVVOption@2@@Z 0000000180034930     VError.obj
 0002:00009958       $cppxdata$?linear@VImage@vips@@QEAA?AV12@NNPEAVVOption@2@@Z 0000000180034958     VError.obj
 0002:00009980       $cppxdata$?write_to_memory@VImage@vips@@QEAAPEAXPEA_K@Z 0000000180034980     VError.obj
 0002:000099a8       $cppxdata$?new_matrix@VImage@vips@@SA?AV12@HHPEANH@Z 00000001800349a8     VError.obj
 0002:000099d0       $cppxdata$?new_from_memory@VImage@vips@@SA?AV12@PEAX_KHHHW4VipsBandFormat@@@Z 00000001800349d0     VError.obj
 0002:000099f8       $cppxdata$?new_temp_file@VImage@vips@@SA?AV12@PEBD@Z 00000001800349f8     VError.obj
 0002:00009a20       $cppxdata$?option@VImage@vips@@SAPEAVVOption@2@XZ 0000000180034a20     VError.obj
 0002:00009a48       $cppxdata$?get_blob@VImage@vips@@QEAAPEBXPEBDPEA_K@Z 0000000180034a48     VError.obj
 0002:00009a70       $cppxdata$?get_string@VImage@vips@@QEAAPEBDPEBD@Z 0000000180034a70     VError.obj
 0002:00009a98       $cppxdata$?get_double@VImage@vips@@QEAANPEBD@Z 0000000180034a98     VError.obj
 0002:00009ac0       $cppxdata$?get_int@VImage@vips@@QEAAHPEBD@Z 0000000180034ac0     VError.obj
 0002:00009ae8       $cppxdata$??_EVOption@vips@@UEAAPEAXI@Z 0000000180034ae8     VError.obj
 0002:00009b10       $cppxdata$??0VError@vips@@QEAA@AEBV01@@Z 0000000180034b10     VError.obj
 0002:00009b38       $cppxdata$??0VError@vips@@QEAA@XZ 0000000180034b38     VError.obj
 0002:00009b60       $cppxdata$??0VError@vips@@QEAA@V?$basic_string@DU?$char_traits@D@std@@V?$allocator@D@2@@std@@@Z 0000000180034b60     VError.obj
 0002:00009b88       $cppxdata$?clear@ios_base@std@@QEAAXH_N@Z 0000000180034b88     VError.obj
 0002:00009bb0       $cppxdata$?_Makestr@_System_error@std@@CA?AV?$basic_string@DU?$char_traits@D@std@@V?$allocator@D@2@@2@Verror_code@2@V32@@Z 0000000180034bb0     VError.obj
 0002:00009c00       $cppxdata$?set@VOption@vips@@QEAAPEAV12@PEBDVVInterpolate@2@@Z 0000000180034c00     VInterpolate.obj
 0002:00009c28       $cppxdata$?new_from_name@VInterpolate@vips@@SA?AV12@PEBDPEAVVOption@2@@Z 0000000180034c28     VInterpolate.obj
 0002:00009c50       $cppxdata$??5vips@@YA?AVVImage@0@V10@V?$vector@NV?$allocator@N@std@@@std@@@Z 0000000180034c50     VImage.obj
 0002:00009c78       $cppxdata$??5vips@@YA?AVVImage@0@V10@N@Z 0000000180034c78     VImage.obj
 0002:00009ca0       $cppxdata$??5vips@@YA?AVVImage@0@V10@0@Z 0000000180034ca0     VImage.obj
 0002:00009cc8       $cppxdata$??_3vips@@YAAEAVVImage@0@AEAV10@V?$vector@NV?$allocator@N@std@@@std@@@Z 0000000180034cc8     VImage.obj
 0002:00009cc8       $cppxdata$??_2vips@@YAAEAVVImage@0@AEAV10@V?$vector@NV?$allocator@N@std@@@std@@@Z 0000000180034cc8     VImage.obj
 0002:00009cf0       $cppxdata$??_2vips@@YAAEAVVImage@0@AEAV10@V10@@Z 0000000180034cf0     VImage.obj
 0002:00009cf0       $cppxdata$??_3vips@@YAAEAVVImage@0@AEAV10@V10@@Z 0000000180034cf0     VImage.obj
 0002:00009d18       $cppxdata$??6vips@@YA?AVVImage@0@V10@V?$vector@NV?$allocator@N@std@@@std@@@Z 0000000180034d18     VImage.obj
 0002:00009d40       $cppxdata$??6vips@@YA?AVVImage@0@V10@N@Z 0000000180034d40     VImage.obj
 0002:00009d68       $cppxdata$??6vips@@YA?AVVImage@0@V10@0@Z 0000000180034d68     VImage.obj
 0002:00009d90       $cppxdata$??_6vips@@YAAEAVVImage@0@AEAV10@V?$vector@NV?$allocator@N@std@@@std@@@Z 0000000180034d90     VImage.obj
 0002:00009db8       $cppxdata$??_6vips@@YAAEAVVImage@0@AEAV10@V10@@Z 0000000180034db8     VImage.obj
 0002:00009de0       $cppxdata$??Tvips@@YA?AVVImage@0@V10@V?$vector@NV?$allocator@N@std@@@std@@@Z 0000000180034de0     VImage.obj
 0002:00009e08       $cppxdata$??Tvips@@YA?AVVImage@0@V?$vector@NV?$allocator@N@std@@@std@@V10@@Z 0000000180034e08     VImage.obj
 0002:00009e30       $cppxdata$??Tvips@@YA?AVVImage@0@V10@N@Z 0000000180034e30     VImage.obj
 0002:00009e58       $cppxdata$??Tvips@@YA?AVVImage@0@NV10@@Z 0000000180034e58     VImage.obj
 0002:00009e80       $cppxdata$??Tvips@@YA?AVVImage@0@V10@0@Z 0000000180034e80     VImage.obj
 0002:00009ea8       $cppxdata$??_5vips@@YAAEAVVImage@0@AEAV10@V?$vector@NV?$allocator@N@std@@@std@@@Z 0000000180034ea8     VImage.obj
 0002:00009ed0       $cppxdata$??_5vips@@YAAEAVVImage@0@AEAV10@V10@@Z 0000000180034ed0     VImage.obj
 0002:00009ef8       $cppxdata$??Uvips@@YA?AVVImage@0@V10@V?$vector@NV?$allocator@N@std@@@std@@@Z 0000000180034ef8     VImage.obj
 0002:00009f20       $cppxdata$??Uvips@@YA?AVVImage@0@V?$vector@NV?$allocator@N@std@@@std@@V10@@Z 0000000180034f20     VImage.obj
 0002:00009f48       $cppxdata$??Uvips@@YA?AVVImage@0@V10@N@Z 0000000180034f48     VImage.obj
 0002:00009f70       $cppxdata$??Uvips@@YA?AVVImage@0@NV10@@Z 0000000180034f70     VImage.obj
 0002:00009f98       $cppxdata$??Uvips@@YA?AVVImage@0@V10@0@Z 0000000180034f98     VImage.obj
 0002:00009fc0       $cppxdata$??_4vips@@YAAEAVVImage@0@AEAV10@V?$vector@NV?$allocator@N@std@@@std@@@Z 0000000180034fc0     VImage.obj
 0002:00009fe8       $cppxdata$??_4vips@@YAAEAVVImage@0@AEAV10@V10@@Z 0000000180034fe8     VImage.obj
 0002:0000a010       $cppxdata$??Ivips@@YA?AVVImage@0@V10@V?$vector@NV?$allocator@N@std@@@std@@@Z 0000000180035010     VImage.obj
 0002:0000a038       $cppxdata$??Ivips@@YA?AVVImage@0@V?$vector@NV?$allocator@N@std@@@std@@V10@@Z 0000000180035038     VImage.obj
 0002:0000a060       $cppxdata$??Ivips@@YA?AVVImage@0@V10@N@Z 0000000180035060     VImage.obj
 0002:0000a088       $cppxdata$??Ivips@@YA?AVVImage@0@NV10@@Z 0000000180035088     VImage.obj
 0002:0000a0b0       $cppxdata$??Ivips@@YA?AVVImage@0@V10@0@Z 00000001800350b0     VImage.obj
 0002:0000a0d8       $cppxdata$??9vips@@YA?AVVImage@0@V10@V?$vector@NV?$allocator@N@std@@@std@@@Z 00000001800350d8     VImage.obj
 0002:0000a100       $cppxdata$??9vips@@YA?AVVImage@0@V?$vector@NV?$allocator@N@std@@@std@@V10@@Z 0000000180035100     VImage.obj
 0002:0000a128       $cppxdata$??9vips@@YA?AVVImage@0@V10@N@Z 0000000180035128     VImage.obj
 0002:0000a150       $cppxdata$??9vips@@YA?AVVImage@0@NV10@@Z 0000000180035150     VImage.obj
 0002:0000a178       $cppxdata$??9vips@@YA?AVVImage@0@V10@0@Z 0000000180035178     VImage.obj
 0002:0000a1a0       $cppxdata$??8vips@@YA?AVVImage@0@V10@V?$vector@NV?$allocator@N@std@@@std@@@Z 00000001800351a0     VImage.obj
 0002:0000a1c8       $cppxdata$??8vips@@YA?AVVImage@0@V?$vector@NV?$allocator@N@std@@@std@@V10@@Z 00000001800351c8     VImage.obj
 0002:0000a1f0       $cppxdata$??8vips@@YA?AVVImage@0@V10@N@Z 00000001800351f0     VImage.obj
 0002:0000a218       $cppxdata$??8vips@@YA?AVVImage@0@NV10@@Z 0000000180035218     VImage.obj
 0002:0000a240       $cppxdata$??8vips@@YA?AVVImage@0@V10@0@Z 0000000180035240     VImage.obj
 0002:0000a268       $cppxdata$??Pvips@@YA?AVVImage@0@V10@V?$vector@NV?$allocator@N@std@@@std@@@Z 0000000180035268     VImage.obj
 0002:0000a290       $cppxdata$??Pvips@@YA?AVVImage@0@V?$vector@NV?$allocator@N@std@@@std@@V10@@Z 0000000180035290     VImage.obj
 0002:0000a2b8       $cppxdata$??Pvips@@YA?AVVImage@0@V10@N@Z 00000001800352b8     VImage.obj
 0002:0000a2e0       $cppxdata$??Pvips@@YA?AVVImage@0@NV10@@Z 00000001800352e0     VImage.obj
 0002:0000a308       $cppxdata$??Pvips@@YA?AVVImage@0@V10@0@Z 0000000180035308     VImage.obj
 0002:0000a330       $cppxdata$??Ovips@@YA?AVVImage@0@V10@V?$vector@NV?$allocator@N@std@@@std@@@Z 0000000180035330     VImage.obj
 0002:0000a358       $cppxdata$??Ovips@@YA?AVVImage@0@V?$vector@NV?$allocator@N@std@@@std@@V10@@Z 0000000180035358     VImage.obj
 0002:0000a380       $cppxdata$??Ovips@@YA?AVVImage@0@V10@N@Z 0000000180035380     VImage.obj
 0002:0000a3a8       $cppxdata$??Ovips@@YA?AVVImage@0@NV10@@Z 00000001800353a8     VImage.obj
 0002:0000a3d0       $cppxdata$??Ovips@@YA?AVVImage@0@V10@0@Z 00000001800353d0     VImage.obj
 0002:0000a3f8       $cppxdata$??Nvips@@YA?AVVImage@0@V10@V?$vector@NV?$allocator@N@std@@@std@@@Z 00000001800353f8     VImage.obj
 0002:0000a420       $cppxdata$??Nvips@@YA?AVVImage@0@V?$vector@NV?$allocator@N@std@@@std@@V10@@Z 0000000180035420     VImage.obj
 0002:0000a448       $cppxdata$??Nvips@@YA?AVVImage@0@V10@N@Z 0000000180035448     VImage.obj
 0002:0000a470       $cppxdata$??Nvips@@YA?AVVImage@0@NV10@@Z 0000000180035470     VImage.obj
 0002:0000a498       $cppxdata$??Nvips@@YA?AVVImage@0@V10@0@Z 0000000180035498     VImage.obj
 0002:0000a4c0       $cppxdata$??Mvips@@YA?AVVImage@0@V10@V?$vector@NV?$allocator@N@std@@@std@@@Z 00000001800354c0     VImage.obj
 0002:0000a4e8       $cppxdata$??Mvips@@YA?AVVImage@0@V?$vector@NV?$allocator@N@std@@@std@@V10@@Z 00000001800354e8     VImage.obj
 0002:0000a510       $cppxdata$??Mvips@@YA?AVVImage@0@V10@N@Z 0000000180035510     VImage.obj
 0002:0000a538       $cppxdata$??Mvips@@YA?AVVImage@0@NV10@@Z 0000000180035538     VImage.obj
 0002:0000a560       $cppxdata$??Mvips@@YA?AVVImage@0@V10@0@Z 0000000180035560     VImage.obj
 0002:0000a588       $cppxdata$??_1vips@@YAAEAVVImage@0@AEAV10@V?$vector@NV?$allocator@N@std@@@std@@@Z 0000000180035588     VImage.obj
 0002:0000a5b0       $cppxdata$??_1vips@@YAAEAVVImage@0@AEAV10@V10@@Z 00000001800355b0     VImage.obj
 0002:0000a5d8       $cppxdata$??Lvips@@YA?AVVImage@0@V10@V?$vector@NV?$allocator@N@std@@@std@@@Z 00000001800355d8     VImage.obj
 0002:0000a600       $cppxdata$??Lvips@@YA?AVVImage@0@V10@N@Z 0000000180035600     VImage.obj
 0002:0000a628       $cppxdata$??Lvips@@YA?AVVImage@0@V10@0@Z 0000000180035628     VImage.obj
 0002:0000a650       $cppxdata$??_0vips@@YAAEAVVImage@0@AEAV10@V?$vector@NV?$allocator@N@std@@@std@@@Z 0000000180035650     VImage.obj
 0002:0000a678       $cppxdata$??_0vips@@YAAEAVVImage@0@AEAV10@V10@@Z 0000000180035678     VImage.obj
 0002:0000a6a0       $cppxdata$??Kvips@@YA?AVVImage@0@V10@V?$vector@NV?$allocator@N@std@@@std@@@Z 00000001800356a0     VImage.obj
 0002:0000a6c8       $cppxdata$??Kvips@@YA?AVVImage@0@V?$vector@NV?$allocator@N@std@@@std@@V10@@Z 00000001800356c8     VImage.obj
 0002:0000a6f0       $cppxdata$??Kvips@@YA?AVVImage@0@V10@N@Z 00000001800356f0     VImage.obj
 0002:0000a718       $cppxdata$??Kvips@@YA?AVVImage@0@NV10@@Z 0000000180035718     VImage.obj
 0002:0000a740       $cppxdata$??Kvips@@YA?AVVImage@0@V10@0@Z 0000000180035740     VImage.obj
 0002:0000a768       $cppxdata$??Xvips@@YAAEAVVImage@0@AEAV10@V?$vector@NV?$allocator@N@std@@@std@@@Z 0000000180035768     VImage.obj
 0002:0000a790       $cppxdata$??Xvips@@YAAEAVVImage@0@AEAV10@V10@@Z 0000000180035790     VImage.obj
 0002:0000a7b8       $cppxdata$??Dvips@@YA?AVVImage@0@V10@V?$vector@NV?$allocator@N@std@@@std@@@Z 00000001800357b8     VImage.obj
 0002:0000a7e0       $cppxdata$??Dvips@@YA?AVVImage@0@V?$vector@NV?$allocator@N@std@@@std@@V10@@Z 00000001800357e0     VImage.obj
 0002:0000a808       $cppxdata$??Dvips@@YA?AVVImage@0@V10@N@Z 0000000180035808     VImage.obj
 0002:0000a830       $cppxdata$??Dvips@@YA?AVVImage@0@NV10@@Z 0000000180035830     VImage.obj
 0002:0000a858       $cppxdata$??Dvips@@YA?AVVImage@0@V10@0@Z 0000000180035858     VImage.obj
 0002:0000a880       $cppxdata$??Gvips@@YA?AVVImage@0@V10@@Z 0000000180035880     VImage.obj
 0002:0000a8a8       $cppxdata$??Zvips@@YAAEAVVImage@0@AEAV10@V?$vector@NV?$allocator@N@std@@@std@@@Z 00000001800358a8     VImage.obj
 0002:0000a8d0       $cppxdata$??Zvips@@YAAEAVVImage@0@AEAV10@V10@@Z 00000001800358d0     VImage.obj
 0002:0000a8f8       $cppxdata$??Gvips@@YA?AVVImage@0@V10@V?$vector@NV?$allocator@N@std@@@std@@@Z 00000001800358f8     VImage.obj
 0002:0000a920       $cppxdata$??Gvips@@YA?AVVImage@0@V?$vector@NV?$allocator@N@std@@@std@@V10@@Z 0000000180035920     VImage.obj
 0002:0000a948       $cppxdata$??Gvips@@YA?AVVImage@0@V10@N@Z 0000000180035948     VImage.obj
 0002:0000a970       $cppxdata$??Gvips@@YA?AVVImage@0@NV10@@Z 0000000180035970     VImage.obj
 0002:0000a998       $cppxdata$??Gvips@@YA?AVVImage@0@V10@0@Z 0000000180035998     VImage.obj
 0002:0000a9c0       $cppxdata$??Yvips@@YAAEAVVImage@0@AEAV10@V?$vector@NV?$allocator@N@std@@@std@@@Z 00000001800359c0     VImage.obj
 0002:0000a9e8       $cppxdata$??Yvips@@YAAEAVVImage@0@AEAV10@V10@@Z 00000001800359e8     VImage.obj
 0002:0000aa10       $cppxdata$??Hvips@@YA?AVVImage@0@V10@V?$vector@NV?$allocator@N@std@@@std@@@Z 0000000180035a10     VImage.obj
 0002:0000aa38       $cppxdata$??Hvips@@YA?AVVImage@0@V?$vector@NV?$allocator@N@std@@@std@@V10@@Z 0000000180035a38     VImage.obj
 0002:0000aa60       $cppxdata$??Hvips@@YA?AVVImage@0@V10@N@Z 0000000180035a60     VImage.obj
 0002:0000aa88       $cppxdata$??Hvips@@YA?AVVImage@0@NV10@@Z 0000000180035a88     VImage.obj
 0002:0000aab0       $cppxdata$??Hvips@@YA?AVVImage@0@V10@0@Z 0000000180035ab0     VImage.obj
 0002:0000aad8       $cppxdata$?bandsplit@VImage@vips@@QEAA?AV?$vector@VVImage@vips@@V?$allocator@VVImage@vips@@@std@@@std@@PEAVVOption@2@@Z 0000000180035ad8     VImage.obj
 0002:0000ab00       $cppxdata$?globalbalance@VImage@vips@@QEAA?AV12@PEAVVOption@2@@Z 0000000180035b00     VImage.obj
 0002:0000ab28       $cppxdata$?match@VImage@vips@@QEAA?AV12@V12@HHHHHHHHPEAVVOption@2@@Z 0000000180035b28     VImage.obj
 0002:0000ab50       $cppxdata$?mosaic1@VImage@vips@@QEAA?AV12@V12@W4VipsDirection@@HHHHHHHHPEAVVOption@2@@Z 0000000180035b50     VImage.obj
 0002:0000ab78       $cppxdata$?mosaic@VImage@vips@@QEAA?AV12@V12@W4VipsDirection@@HHHHPEAVVOption@2@@Z 0000000180035b78     VImage.obj
 0002:0000aba0       $cppxdata$?merge@VImage@vips@@QEAA?AV12@V12@W4VipsDirection@@HHPEAVVOption@2@@Z 0000000180035ba0     VImage.obj
 0002:0000abc8       $cppxdata$?draw_image@VImage@vips@@QEAAXV12@HHPEAVVOption@2@@Z 0000000180035bc8     VImage.obj
 0002:0000abf0       $cppxdata$?draw_flood@VImage@vips@@QEAAXV?$vector@NV?$allocator@N@std@@@std@@HHPEAVVOption@2@@Z 0000000180035bf0     VImage.obj
 0002:0000ac18       $cppxdata$?draw_circle@VImage@vips@@QEAAXV?$vector@NV?$allocator@N@std@@@std@@HHHPEAVVOption@2@@Z 0000000180035c18     VImage.obj
 0002:0000ac40       $cppxdata$?draw_line@VImage@vips@@QEAAXV?$vector@NV?$allocator@N@std@@@std@@HHHHPEAVVOption@2@@Z 0000000180035c40     VImage.obj
 0002:0000ac68       $cppxdata$?draw_mask@VImage@vips@@QEAAXV?$vector@NV?$allocator@N@std@@@std@@V12@HHPEAVVOption@2@@Z 0000000180035c68     VImage.obj
 0002:0000ac90       $cppxdata$?draw_rect@VImage@vips@@QEAAXV?$vector@NV?$allocator@N@std@@@std@@HHHHPEAVVOption@2@@Z 0000000180035c90     VImage.obj
 0002:0000acb8       $cppxdata$?labelregions@VImage@vips@@QEAA?AV12@PEAVVOption@2@@Z 0000000180035cb8     VImage.obj
 0002:0000ace0       $cppxdata$?phasecor@VImage@vips@@QEAA?AV12@V12@PEAVVOption@2@@Z 0000000180035ce0     VImage.obj
 0002:0000ad08       $cppxdata$?spectrum@VImage@vips@@QEAA?AV12@PEAVVOption@2@@Z 0000000180035d08     VImage.obj
 0002:0000ad30       $cppxdata$?freqmult@VImage@vips@@QEAA?AV12@V12@PEAVVOption@2@@Z 0000000180035d30     VImage.obj
 0002:0000ad58       $cppxdata$?invfft@VImage@vips@@QEAA?AV12@PEAVVOption@2@@Z 0000000180035d58     VImage.obj
 0002:0000ad80       $cppxdata$?fwfft@VImage@vips@@QEAA?AV12@PEAVVOption@2@@Z 0000000180035d80     VImage.obj
 0002:0000ada8       $cppxdata$?gaussblur@VImage@vips@@QEAA?AV12@NPEAVVOption@2@@Z 0000000180035da8     VImage.obj
 0002:0000add0       $cppxdata$?sharpen@VImage@vips@@QEAA?AV12@PEAVVOption@2@@Z 0000000180035dd0     VImage.obj
 0002:0000adf8       $cppxdata$?spcor@VImage@vips@@QEAA?AV12@V12@PEAVVOption@2@@Z 0000000180035df8     VImage.obj
 0002:0000ae20       $cppxdata$?fastcor@VImage@vips@@QEAA?AV12@V12@PEAVVOption@2@@Z 0000000180035e20     VImage.obj
 0002:0000ae48       $cppxdata$?convasep@VImage@vips@@QEAA?AV12@V12@PEAVVOption@2@@Z 0000000180035e48     VImage.obj
 0002:0000ae70       $cppxdata$?convsep@VImage@vips@@QEAA?AV12@V12@PEAVVOption@2@@Z 0000000180035e70     VImage.obj
 0002:0000ae98       $cppxdata$?compass@VImage@vips@@QEAA?AV12@V12@PEAVVOption@2@@Z 0000000180035e98     VImage.obj
 0002:0000aec0       $cppxdata$?convi@VImage@vips@@QEAA?AV12@V12@PEAVVOption@2@@Z 0000000180035ec0     VImage.obj
 0002:0000aee8       $cppxdata$?convf@VImage@vips@@QEAA?AV12@V12@PEAVVOption@2@@Z 0000000180035ee8     VImage.obj
 0002:0000af10       $cppxdata$?conva@VImage@vips@@QEAA?AV12@V12@PEAVVOption@2@@Z 0000000180035f10     VImage.obj
 0002:0000af38       $cppxdata$?conv@VImage@vips@@QEAA?AV12@V12@PEAVVOption@2@@Z 0000000180035f38     VImage.obj
 0002:0000af60       $cppxdata$?hist_local@VImage@vips@@QEAA?AV12@HHPEAVVOption@2@@Z 0000000180035f60     VImage.obj
 0002:0000af88       $cppxdata$?hist_plot@VImage@vips@@QEAA?AV12@PEAVVOption@2@@Z 0000000180035f88     VImage.obj
 0002:0000afb0       $cppxdata$?hist_equal@VImage@vips@@QEAA?AV12@PEAVVOption@2@@Z 0000000180035fb0     VImage.obj
 0002:0000afd8       $cppxdata$?hist_norm@VImage@vips@@QEAA?AV12@PEAVVOption@2@@Z 0000000180035fd8     VImage.obj
 0002:0000b000       $cppxdata$?hist_match@VImage@vips@@QEAA?AV12@V12@PEAVVOption@2@@Z 0000000180036000     VImage.obj
 0002:0000b028       $cppxdata$?hist_cum@VImage@vips@@QEAA?AV12@PEAVVOption@2@@Z 0000000180036028     VImage.obj
 0002:0000b050       $cppxdata$?stdif@VImage@vips@@QEAA?AV12@HHPEAVVOption@2@@Z 0000000180036050     VImage.obj
 0002:0000b078       $cppxdata$?maplut@VImage@vips@@QEAA?AV12@V12@PEAVVOption@2@@Z 0000000180036078     VImage.obj
 0002:0000b0a0       $cppxdata$?scRGB2sRGB@VImage@vips@@QEAA?AV12@PEAVVOption@2@@Z 00000001800360a0     VImage.obj
 0002:0000b0c8       $cppxdata$?scRGB2BW@VImage@vips@@QEAA?AV12@PEAVVOption@2@@Z 00000001800360c8     VImage.obj
 0002:0000b0f0       $cppxdata$?sRGB2scRGB@VImage@vips@@QEAA?AV12@PEAVVOption@2@@Z 00000001800360f0     VImage.obj
 0002:0000b118       $cppxdata$?dECMC@VImage@vips@@QEAA?AV12@V12@PEAVVOption@2@@Z 0000000180036118     VImage.obj
 0002:0000b140       $cppxdata$?dE00@VImage@vips@@QEAA?AV12@V12@PEAVVOption@2@@Z 0000000180036140     VImage.obj
 0002:0000b168       $cppxdata$?dE76@VImage@vips@@QEAA?AV12@V12@PEAVVOption@2@@Z 0000000180036168     VImage.obj
 0002:0000b190       $cppxdata$?icc_transform@VImage@vips@@QEAA?AV12@PEADPEAVVOption@2@@Z 0000000180036190     VImage.obj
 0002:0000b1b8       $cppxdata$?icc_export@VImage@vips@@QEAA?AV12@PEAVVOption@2@@Z 00000001800361b8     VImage.obj
 0002:0000b1e0       $cppxdata$?icc_import@VImage@vips@@QEAA?AV12@PEAVVOption@2@@Z 00000001800361e0     VImage.obj
 0002:0000b208       $cppxdata$?HSV2sRGB@VImage@vips@@QEAA?AV12@PEAVVOption@2@@Z 0000000180036208     VImage.obj
 0002:0000b230       $cppxdata$?sRGB2HSV@VImage@vips@@QEAA?AV12@PEAVVOption@2@@Z 0000000180036230     VImage.obj
 0002:0000b258       $cppxdata$?LabQ2sRGB@VImage@vips@@QEAA?AV12@PEAVVOption@2@@Z 0000000180036258     VImage.obj
 0002:0000b280       $cppxdata$?float2rad@VImage@vips@@QEAA?AV12@PEAVVOption@2@@Z 0000000180036280     VImage.obj
 0002:0000b2a8       $cppxdata$?rad2float@VImage@vips@@QEAA?AV12@PEAVVOption@2@@Z 00000001800362a8     VImage.obj
 0002:0000b2d0       $cppxdata$?Lab2LabS@VImage@vips@@QEAA?AV12@PEAVVOption@2@@Z 00000001800362d0     VImage.obj
 0002:0000b2f8       $cppxdata$?LabS2Lab@VImage@vips@@QEAA?AV12@PEAVVOption@2@@Z 00000001800362f8     VImage.obj
 0002:0000b320       $cppxdata$?LabS2LabQ@VImage@vips@@QEAA?AV12@PEAVVOption@2@@Z 0000000180036320     VImage.obj
 0002:0000b348       $cppxdata$?LabQ2LabS@VImage@vips@@QEAA?AV12@PEAVVOption@2@@Z 0000000180036348     VImage.obj
 0002:0000b370       $cppxdata$?Lab2LabQ@VImage@vips@@QEAA?AV12@PEAVVOption@2@@Z 0000000180036370     VImage.obj
 0002:0000b398       $cppxdata$?LabQ2Lab@VImage@vips@@QEAA?AV12@PEAVVOption@2@@Z 0000000180036398     VImage.obj
 0002:0000b3c0       $cppxdata$?XYZ2scRGB@VImage@vips@@QEAA?AV12@PEAVVOption@2@@Z 00000001800363c0     VImage.obj
 0002:0000b3e8       $cppxdata$?scRGB2XYZ@VImage@vips@@QEAA?AV12@PEAVVOption@2@@Z 00000001800363e8     VImage.obj
 0002:0000b410       $cppxdata$?Yxy2XYZ@VImage@vips@@QEAA?AV12@PEAVVOption@2@@Z 0000000180036410     VImage.obj
 0002:0000b438       $cppxdata$?XYZ2Yxy@VImage@vips@@QEAA?AV12@PEAVVOption@2@@Z 0000000180036438     VImage.obj
 0002:0000b460       $cppxdata$?CMC2LCh@VImage@vips@@QEAA?AV12@PEAVVOption@2@@Z 0000000180036460     VImage.obj
 0002:0000b488       $cppxdata$?LCh2CMC@VImage@vips@@QEAA?AV12@PEAVVOption@2@@Z 0000000180036488     VImage.obj
 0002:0000b4b0       $cppxdata$?LCh2Lab@VImage@vips@@QEAA?AV12@PEAVVOption@2@@Z 00000001800364b0     VImage.obj
 0002:0000b4d8       $cppxdata$?Lab2LCh@VImage@vips@@QEAA?AV12@PEAVVOption@2@@Z 00000001800364d8     VImage.obj
 0002:0000b500       $cppxdata$?XYZ2Lab@VImage@vips@@QEAA?AV12@PEAVVOption@2@@Z 0000000180036500     VImage.obj
 0002:0000b528       $cppxdata$?Lab2XYZ@VImage@vips@@QEAA?AV12@PEAVVOption@2@@Z 0000000180036528     VImage.obj
 0002:0000b550       $cppxdata$?colourspace@VImage@vips@@QEAA?AV12@W4VipsInterpretation@@PEAVVOption@2@@Z 0000000180036550     VImage.obj
 0002:0000b578       $cppxdata$?resize@VImage@vips@@QEAA?AV12@NPEAVVOption@2@@Z 0000000180036578     VImage.obj
 0002:0000b5a0       $cppxdata$?similarity@VImage@vips@@QEAA?AV12@PEAVVOption@2@@Z 00000001800365a0     VImage.obj
 0002:0000b5c8       $cppxdata$?affine@VImage@vips@@QEAA?AV12@V?$vector@NV?$allocator@N@std@@@std@@PEAVVOption@2@@Z 00000001800365c8     VImage.obj
 0002:0000b5f0       $cppxdata$?quadratic@VImage@vips@@QEAA?AV12@V12@PEAVVOption@2@@Z 00000001800365f0     VImage.obj
 0002:0000b618       $cppxdata$?reduce@VImage@vips@@QEAA?AV12@NNPEAVVOption@2@@Z 0000000180036618     VImage.obj
 0002:0000b640       $cppxdata$?reducev@VImage@vips@@QEAA?AV12@NPEAVVOption@2@@Z 0000000180036640     VImage.obj
 0002:0000b668       $cppxdata$?reduceh@VImage@vips@@QEAA?AV12@NPEAVVOption@2@@Z 0000000180036668     VImage.obj
 0002:0000b690       $cppxdata$?shrinkv@VImage@vips@@QEAA?AV12@HPEAVVOption@2@@Z 0000000180036690     VImage.obj
 0002:0000b6b8       $cppxdata$?shrinkh@VImage@vips@@QEAA?AV12@HPEAVVOption@2@@Z 00000001800366b8     VImage.obj
 0002:0000b6e0       $cppxdata$?shrink@VImage@vips@@QEAA?AV12@NNPEAVVOption@2@@Z 00000001800366e0     VImage.obj
 0002:0000b708       $cppxdata$?mapim@VImage@vips@@QEAA?AV12@V12@PEAVVOption@2@@Z 0000000180036708     VImage.obj
 0002:0000b730       $cppxdata$?thumbnail_buffer@VImage@vips@@SA?AV12@PEAU_VipsBlob@@HPEAVVOption@2@@Z 0000000180036730     VImage.obj
 0002:0000b758       $cppxdata$?thumbnail@VImage@vips@@SA?AV12@PEADHPEAVVOption@2@@Z 0000000180036758     VImage.obj
 0002:0000b780       $cppxdata$?openexrload@VImage@vips@@SA?AV12@PEADPEAVVOption@2@@Z 0000000180036780     VImage.obj
 0002:0000b7a8       $cppxdata$?fitsload@VImage@vips@@SA?AV12@PEADPEAVVOption@2@@Z 00000001800367a8     VImage.obj
 0002:0000b7d0       $cppxdata$?magickload_buffer@VImage@vips@@SA?AV12@PEAU_VipsBlob@@PEAVVOption@2@@Z 00000001800367d0     VImage.obj
 0002:0000b7f8       $cppxdata$?magickload@VImage@vips@@SA?AV12@PEADPEAVVOption@2@@Z 00000001800367f8     VImage.obj
 0002:0000b820       $cppxdata$?openslideload@VImage@vips@@SA?AV12@PEADPEAVVOption@2@@Z 0000000180036820     VImage.obj
 0002:0000b848       $cppxdata$?tiffload_buffer@VImage@vips@@SA?AV12@PEAU_VipsBlob@@PEAVVOption@2@@Z 0000000180036848     VImage.obj
 0002:0000b870       $cppxdata$?tiffload@VImage@vips@@SA?AV12@PEADPEAVVOption@2@@Z 0000000180036870     VImage.obj
 0002:0000b898       $cppxdata$?webpload_buffer@VImage@vips@@SA?AV12@PEAU_VipsBlob@@PEAVVOption@2@@Z 0000000180036898     VImage.obj
 0002:0000b8c0       $cppxdata$?webpload@VImage@vips@@SA?AV12@PEADPEAVVOption@2@@Z 00000001800368c0     VImage.obj
 0002:0000b8e8       $cppxdata$?jpegload_buffer@VImage@vips@@SA?AV12@PEAU_VipsBlob@@PEAVVOption@2@@Z 00000001800368e8     VImage.obj
 0002:0000b910       $cppxdata$?jpegload@VImage@vips@@SA?AV12@PEADPEAVVOption@2@@Z 0000000180036910     VImage.obj
 0002:0000b938       $cppxdata$?matload@VImage@vips@@SA?AV12@PEADPEAVVOption@2@@Z 0000000180036938     VImage.obj
 0002:0000b960       $cppxdata$?pngload_buffer@VImage@vips@@SA?AV12@PEAU_VipsBlob@@PEAVVOption@2@@Z 0000000180036960     VImage.obj
 0002:0000b988       $cppxdata$?pngload@VImage@vips@@SA?AV12@PEADPEAVVOption@2@@Z 0000000180036988     VImage.obj
 0002:0000b9b0       $cppxdata$?gifload_buffer@VImage@vips@@SA?AV12@PEAU_VipsBlob@@PEAVVOption@2@@Z 00000001800369b0     VImage.obj
 0002:0000b9d8       $cppxdata$?gifload@VImage@vips@@SA?AV12@PEADPEAVVOption@2@@Z 00000001800369d8     VImage.obj
 0002:0000ba00       $cppxdata$?svgload_buffer@VImage@vips@@SA?AV12@PEAU_VipsBlob@@PEAVVOption@2@@Z 0000000180036a00     VImage.obj
 0002:0000ba28       $cppxdata$?svgload@VImage@vips@@SA?AV12@PEADPEAVVOption@2@@Z 0000000180036a28     VImage.obj
 0002:0000ba50       $cppxdata$?pdfload_buffer@VImage@vips@@SA?AV12@PEAU_VipsBlob@@PEAVVOption@2@@Z 0000000180036a50     VImage.obj
 0002:0000ba78       $cppxdata$?pdfload@VImage@vips@@SA?AV12@PEADPEAVVOption@2@@Z 0000000180036a78     VImage.obj
 0002:0000baa0       $cppxdata$?radload@VImage@vips@@SA?AV12@PEADPEAVVOption@2@@Z 0000000180036aa0     VImage.obj
 0002:0000bac8       $cppxdata$?ppmload@VImage@vips@@SA?AV12@PEADPEAVVOption@2@@Z 0000000180036ac8     VImage.obj
 0002:0000baf0       $cppxdata$?analyzeload@VImage@vips@@SA?AV12@PEADPEAVVOption@2@@Z 0000000180036af0     VImage.obj
 0002:0000bb18       $cppxdata$?vipsload@VImage@vips@@SA?AV12@PEADPEAVVOption@2@@Z 0000000180036b18     VImage.obj
 0002:0000bb40       $cppxdata$?rawload@VImage@vips@@SA?AV12@PEADHHHPEAVVOption@2@@Z 0000000180036b40     VImage.obj
 0002:0000bb68       $cppxdata$?matrixload@VImage@vips@@SA?AV12@PEADPEAVVOption@2@@Z 0000000180036b68     VImage.obj
 0002:0000bb90       $cppxdata$?csvload@VImage@vips@@SA?AV12@PEADPEAVVOption@2@@Z 0000000180036b90     VImage.obj
 0002:0000bbb8       $cppxdata$?perlin@VImage@vips@@SA?AV12@HHPEAVVOption@2@@Z 0000000180036bb8     VImage.obj
 0002:0000bbe0       $cppxdata$?worley@VImage@vips@@SA?AV12@HHPEAVVOption@2@@Z 0000000180036be0     VImage.obj
 0002:0000bc08       $cppxdata$?fractsurf@VImage@vips@@SA?AV12@HHNPEAVVOption@2@@Z 0000000180036c08     VImage.obj
 0002:0000bc30       $cppxdata$?identity@VImage@vips@@SA?AV12@PEAVVOption@2@@Z 0000000180036c30     VImage.obj
 0002:0000bc58       $cppxdata$?tonelut@VImage@vips@@SA?AV12@PEAVVOption@2@@Z 0000000180036c58     VImage.obj
 0002:0000bc80       $cppxdata$?invertlut@VImage@vips@@QEAA?AV12@PEAVVOption@2@@Z 0000000180036c80     VImage.obj
 0002:0000bca8       $cppxdata$?buildlut@VImage@vips@@QEAA?AV12@PEAVVOption@2@@Z 0000000180036ca8     VImage.obj
 0002:0000bcd0       $cppxdata$?mask_fractal@VImage@vips@@SA?AV12@HHNPEAVVOption@2@@Z 0000000180036cd0     VImage.obj
 0002:0000bcf8       $cppxdata$?mask_gaussian_band@VImage@vips@@SA?AV12@HHNNNNPEAVVOption@2@@Z 0000000180036cf8     VImage.obj
 0002:0000bd20       $cppxdata$?mask_gaussian_ring@VImage@vips@@SA?AV12@HHNNNPEAVVOption@2@@Z 0000000180036d20     VImage.obj
 0002:0000bd48       $cppxdata$?mask_gaussian@VImage@vips@@SA?AV12@HHNNPEAVVOption@2@@Z 0000000180036d48     VImage.obj
 0002:0000bd70       $cppxdata$?mask_butterworth_band@VImage@vips@@SA?AV12@HHNNNNNPEAVVOption@2@@Z 0000000180036d70     VImage.obj
 0002:0000bd98       $cppxdata$?mask_butterworth_ring@VImage@vips@@SA?AV12@HHNNNNPEAVVOption@2@@Z 0000000180036d98     VImage.obj
 0002:0000bdc0       $cppxdata$?mask_butterworth@VImage@vips@@SA?AV12@HHNNNPEAVVOption@2@@Z 0000000180036dc0     VImage.obj
 0002:0000bde8       $cppxdata$?mask_ideal_band@VImage@vips@@SA?AV12@HHNNNPEAVVOption@2@@Z 0000000180036de8     VImage.obj
 0002:0000be10       $cppxdata$?mask_ideal_ring@VImage@vips@@SA?AV12@HHNNPEAVVOption@2@@Z 0000000180036e10     VImage.obj
 0002:0000be38       $cppxdata$?mask_ideal@VImage@vips@@SA?AV12@HHNPEAVVOption@2@@Z 0000000180036e38     VImage.obj
 0002:0000be60       $cppxdata$?sines@VImage@vips@@SA?AV12@HHPEAVVOption@2@@Z 0000000180036e60     VImage.obj
 0002:0000be88       $cppxdata$?zone@VImage@vips@@SA?AV12@HHPEAVVOption@2@@Z 0000000180036e88     VImage.obj
 0002:0000beb0       $cppxdata$?grey@VImage@vips@@SA?AV12@HHPEAVVOption@2@@Z 0000000180036eb0     VImage.obj
 0002:0000bed8       $cppxdata$?eye@VImage@vips@@SA?AV12@HHPEAVVOption@2@@Z 0000000180036ed8     VImage.obj
 0002:0000bf00       $cppxdata$?logmat@VImage@vips@@SA?AV12@NNPEAVVOption@2@@Z 0000000180036f00     VImage.obj
 0002:0000bf28       $cppxdata$?gaussmat@VImage@vips@@SA?AV12@NNPEAVVOption@2@@Z 0000000180036f28     VImage.obj
 0002:0000bf50       $cppxdata$?xyz@VImage@vips@@SA?AV12@HHPEAVVOption@2@@Z 0000000180036f50     VImage.obj
 0002:0000bf78       $cppxdata$?text@VImage@vips@@SA?AV12@PEADPEAVVOption@2@@Z 0000000180036f78     VImage.obj
 0002:0000bfa0       $cppxdata$?gaussnoise@VImage@vips@@SA?AV12@HHPEAVVOption@2@@Z 0000000180036fa0     VImage.obj
 0002:0000bfc8       $cppxdata$?black@VImage@vips@@SA?AV12@HHPEAVVOption@2@@Z 0000000180036fc8     VImage.obj
 0002:0000bff0       $cppxdata$?gamma@VImage@vips@@QEAA?AV12@PEAVVOption@2@@Z 0000000180036ff0     VImage.obj
 0002:0000c018       $cppxdata$?falsecolour@VImage@vips@@QEAA?AV12@PEAVVOption@2@@Z 0000000180037018     VImage.obj
 0002:0000c040       $cppxdata$?byteswap@VImage@vips@@QEAA?AV12@PEAVVOption@2@@Z 0000000180037040     VImage.obj
 0002:0000c068       $cppxdata$?msb@VImage@vips@@QEAA?AV12@PEAVVOption@2@@Z 0000000180037068     VImage.obj
 0002:0000c090       $cppxdata$?subsample@VImage@vips@@QEAA?AV12@HHPEAVVOption@2@@Z 0000000180037090     VImage.obj
 0002:0000c0b8       $cppxdata$?zoom@VImage@vips@@QEAA?AV12@HHPEAVVOption@2@@Z 00000001800370b8     VImage.obj
 0002:0000c0e0       $cppxdata$?wrap@VImage@vips@@QEAA?AV12@PEAVVOption@2@@Z 00000001800370e0     VImage.obj
 0002:0000c108       $cppxdata$?scale@VImage@vips@@QEAA?AV12@PEAVVOption@2@@Z 0000000180037108     VImage.obj
 0002:0000c130       $cppxdata$?grid@VImage@vips@@QEAA?AV12@HHHPEAVVOption@2@@Z 0000000180037130     VImage.obj
 0002:0000c158       $cppxdata$?unpremultiply@VImage@vips@@QEAA?AV12@PEAVVOption@2@@Z 0000000180037158     VImage.obj
 0002:0000c180       $cppxdata$?premultiply@VImage@vips@@QEAA?AV12@PEAVVOption@2@@Z 0000000180037180     VImage.obj
 0002:0000c1a8       $cppxdata$?flatten@VImage@vips@@QEAA?AV12@PEAVVOption@2@@Z 00000001800371a8     VImage.obj
 0002:0000c1d0       $cppxdata$?bandunfold@VImage@vips@@QEAA?AV12@PEAVVOption@2@@Z 00000001800371d0     VImage.obj
 0002:0000c1f8       $cppxdata$?bandfold@VImage@vips@@QEAA?AV12@PEAVVOption@2@@Z 00000001800371f8     VImage.obj
 0002:0000c220       $cppxdata$?recomb@VImage@vips@@QEAA?AV12@V12@PEAVVOption@2@@Z 0000000180037220     VImage.obj
 0002:0000c248       $cppxdata$?autorot@VImage@vips@@QEAA?AV12@PEAVVOption@2@@Z 0000000180037248     VImage.obj
 0002:0000c270       $cppxdata$?rot45@VImage@vips@@QEAA?AV12@PEAVVOption@2@@Z 0000000180037270     VImage.obj
 0002:0000c298       $cppxdata$?cast@VImage@vips@@QEAA?AV12@W4VipsBandFormat@@PEAVVOption@2@@Z 0000000180037298     VImage.obj
 0002:0000c2c0       $cppxdata$?replicate@VImage@vips@@QEAA?AV12@HHPEAVVOption@2@@Z 00000001800372c0     VImage.obj
 0002:0000c2e8       $cppxdata$?bandbool@VImage@vips@@QEAA?AV12@W4VipsOperationBoolean@@PEAVVOption@2@@Z 00000001800372e8     VImage.obj
 0002:0000c310       $cppxdata$?bandmean@VImage@vips@@QEAA?AV12@PEAVVOption@2@@Z 0000000180037310     VImage.obj
 0002:0000c338       $cppxdata$?bandrank@VImage@vips@@SA?AV12@V?$vector@VVImage@vips@@V?$allocator@VVImage@vips@@@std@@@std@@PEAVVOption@2@@Z 0000000180037338     VImage.obj
 0002:0000c360       $cppxdata$?bandjoin_const@VImage@vips@@QEAA?AV12@V?$vector@NV?$allocator@N@std@@@std@@PEAVVOption@2@@Z 0000000180037360     VImage.obj
 0002:0000c388       $cppxdata$?bandjoin@VImage@vips@@SA?AV12@V?$vector@VVImage@vips@@V?$allocator@VVImage@vips@@@std@@@std@@PEAVVOption@2@@Z 0000000180037388     VImage.obj
 0002:0000c3b0       $cppxdata$?extract_band@VImage@vips@@QEAA?AV12@HPEAVVOption@2@@Z 00000001800373b0     VImage.obj
 0002:0000c3d8       $cppxdata$?smartcrop@VImage@vips@@QEAA?AV12@HHPEAVVOption@2@@Z 00000001800373d8     VImage.obj
 0002:0000c400       $cppxdata$?extract_area@VImage@vips@@QEAA?AV12@HHHHPEAVVOption@2@@Z 0000000180037400     VImage.obj
 0002:0000c428       $cppxdata$?arrayjoin@VImage@vips@@SA?AV12@V?$vector@VVImage@vips@@V?$allocator@VVImage@vips@@@std@@@std@@PEAVVOption@2@@Z 0000000180037428     VImage.obj
 0002:0000c450       $cppxdata$?join@VImage@vips@@QEAA?AV12@V12@W4VipsDirection@@PEAVVOption@2@@Z 0000000180037450     VImage.obj
 0002:0000c478       $cppxdata$?insert@VImage@vips@@QEAA?AV12@V12@HHPEAVVOption@2@@Z 0000000180037478     VImage.obj
 0002:0000c4a0       $cppxdata$?embed@VImage@vips@@QEAA?AV12@HHHHPEAVVOption@2@@Z 00000001800374a0     VImage.obj
 0002:0000c4c8       $cppxdata$?cache@VImage@vips@@QEAA?AV12@PEAVVOption@2@@Z 00000001800374c8     VImage.obj
 0002:0000c4f0       $cppxdata$?sequential@VImage@vips@@QEAA?AV12@PEAVVOption@2@@Z 00000001800374f0     VImage.obj
 0002:0000c518       $cppxdata$?linecache@VImage@vips@@QEAA?AV12@PEAVVOption@2@@Z 0000000180037518     VImage.obj
 0002:0000c540       $cppxdata$?tilecache@VImage@vips@@QEAA?AV12@PEAVVOption@2@@Z 0000000180037540     VImage.obj
 0002:0000c568       $cppxdata$?copy@VImage@vips@@QEAA?AV12@PEAVVOption@2@@Z 0000000180037568     VImage.obj
 0002:0000c590       $cppxdata$?getpoint@VImage@vips@@QEAA?AV?$vector@NV?$allocator@N@std@@@std@@HHPEAVVOption@2@@Z 0000000180037590     VImage.obj
 0002:0000c5b8       $cppxdata$?measure@VImage@vips@@QEAA?AV12@HHPEAVVOption@2@@Z 00000001800375b8     VImage.obj
 0002:0000c5e0       $cppxdata$?profile@VImage@vips@@QEAA?AV12@PEAV12@PEAVVOption@2@@Z 00000001800375e0     VImage.obj
 0002:0000c608       $cppxdata$?project@VImage@vips@@QEAA?AV12@PEAV12@PEAVVOption@2@@Z 0000000180037608     VImage.obj
 0002:0000c630       $cppxdata$?hough_circle@VImage@vips@@QEAA?AV12@PEAVVOption@2@@Z 0000000180037630     VImage.obj
 0002:0000c658       $cppxdata$?hough_line@VImage@vips@@QEAA?AV12@PEAVVOption@2@@Z 0000000180037658     VImage.obj
 0002:0000c680       $cppxdata$?hist_find_indexed@VImage@vips@@QEAA?AV12@V12@PEAVVOption@2@@Z 0000000180037680     VImage.obj
 0002:0000c6a8       $cppxdata$?hist_find_ndim@VImage@vips@@QEAA?AV12@PEAVVOption@2@@Z 00000001800376a8     VImage.obj
 0002:0000c6d0       $cppxdata$?hist_find@VImage@vips@@QEAA?AV12@PEAVVOption@2@@Z 00000001800376d0     VImage.obj
 0002:0000c6f8       $cppxdata$?stats@VImage@vips@@QEAA?AV12@PEAVVOption@2@@Z 00000001800376f8     VImage.obj
 0002:0000c720       $cppxdata$?boolean_const@VImage@vips@@QEAA?AV12@W4VipsOperationBoolean@@V?$vector@NV?$allocator@N@std@@@std@@PEAVVOption@2@@Z 0000000180037720     VImage.obj
 0002:0000c748       $cppxdata$?remainder_const@VImage@vips@@QEAA?AV12@V?$vector@NV?$allocator@N@std@@@std@@PEAVVOption@2@@Z 0000000180037748     VImage.obj
 0002:0000c770       $cppxdata$?relational_const@VImage@vips@@QEAA?AV12@W4VipsOperationRelational@@V?$vector@NV?$allocator@N@std@@@std@@PEAVVOption@2@@Z 0000000180037770     VImage.obj
 0002:0000c798       $cppxdata$?sign@VImage@vips@@QEAA?AV12@PEAVVOption@2@@Z 0000000180037798     VImage.obj
 0002:0000c7c0       $cppxdata$?abs@VImage@vips@@QEAA?AV12@PEAVVOption@2@@Z 00000001800377c0     VImage.obj
 0002:0000c7e8       $cppxdata$?invert@VImage@vips@@QEAA?AV12@PEAVVOption@2@@Z 00000001800377e8     VImage.obj
 0002:0000c810       $cppxdata$?sum@VImage@vips@@SA?AV12@V?$vector@VVImage@vips@@V?$allocator@VVImage@vips@@@std@@@std@@PEAVVOption@2@@Z 0000000180037810     VImage.obj
 0002:0000c838       $cppxdata$?complexform@VImage@vips@@QEAA?AV12@V12@PEAVVOption@2@@Z 0000000180037838     VImage.obj
 0002:0000c860       $cppxdata$?complex2@VImage@vips@@QEAA?AV12@V12@W4VipsOperationComplex2@@PEAVVOption@2@@Z 0000000180037860     VImage.obj
 0002:0000c888       $cppxdata$?boolean@VImage@vips@@QEAA?AV12@V12@W4VipsOperationBoolean@@PEAVVOption@2@@Z 0000000180037888     VImage.obj
 0002:0000c8b0       $cppxdata$?remainder@VImage@vips@@QEAA?AV12@V12@PEAVVOption@2@@Z 00000001800378b0     VImage.obj
 0002:0000c8d8       $cppxdata$?relational@VImage@vips@@QEAA?AV12@V12@W4VipsOperationRelational@@PEAVVOption@2@@Z 00000001800378d8     VImage.obj
 0002:0000c900       $cppxdata$?divide@VImage@vips@@QEAA?AV12@V12@PEAVVOption@2@@Z 0000000180037900     VImage.obj
 0002:0000c928       $cppxdata$?multiply@VImage@vips@@QEAA?AV12@V12@PEAVVOption@2@@Z 0000000180037928     VImage.obj
 0002:0000c950       $cppxdata$?subtract@VImage@vips@@QEAA?AV12@V12@PEAVVOption@2@@Z 0000000180037950     VImage.obj
 0002:0000c978       $cppxdata$?add@VImage@vips@@QEAA?AV12@V12@PEAVVOption@2@@Z 0000000180037978     VImage.obj
 0002:0000c9a0       $cppxdata$?write_to_buffer@VImage@vips@@QEAAXPEBDPEAPEAXPEA_KPEAVVOption@2@@Z 00000001800379a0     VImage.obj
 0002:0000c9c8       $cppxdata$?write_to_file@VImage@vips@@QEAAXPEBDPEAVVOption@2@@Z 00000001800379c8     VImage.obj
 0002:0000c9f0       $cppxdata$?write@VImage@vips@@QEAA?AV12@V12@@Z 00000001800379f0     VImage.obj
 0002:0000ca18       $cppxdata$?new_from_buffer@VImage@vips@@SA?AV12@PEAX_KPEBDPEAVVOption@2@@Z 0000000180037a18     VImage.obj
 0002:0000ca40       $cppxdata$?new_from_file@VImage@vips@@SA?AV12@PEBDPEAVVOption@2@@Z 0000000180037a40     VImage.obj
 0002:0000ca68       $cppxdata$?call_option_string@VImage@vips@@SAXPEBD0PEAVVOption@2@@Z 0000000180037a68     VImage.obj
 0002:0000ca90       $cppxdata$?set@VOption@vips@@QEAAPEAV12@PEBDV?$vector@VVImage@vips@@V?$allocator@VVImage@vips@@@std@@@std@@@Z 0000000180037a90     VImage.obj
 0002:0000cab8       $cppxdata$?set@VOption@vips@@QEAAPEAV12@PEBDV?$vector@NV?$allocator@N@std@@@std@@@Z 0000000180037ab8     VImage.obj
 0002:0000cae0       $cppxdata$?set@VOption@vips@@QEAAPEAV12@PEBDVVImage@2@@Z 0000000180037ae0     VImage.obj
 0002:0000cb08       $cppxdata$?invert@vips@@YA?AV?$vector@NV?$allocator@N@std@@@std@@V23@@Z 0000000180037b08     VImage.obj
 0002:0000cb30       $cppxdata$?negate@vips@@YA?AV?$vector@NV?$allocator@N@std@@@std@@V23@@Z 0000000180037b30     VImage.obj
 0002:0000cb58       $cppxdata$?rank@VImage@vips@@QEAA?AV12@HHHPEAVVOption@2@@Z 0000000180037b58     VImage.obj
 0002:0000cb80       $cppxdata$?morph@VImage@vips@@QEAA?AV12@V12@W4VipsOperationMorphology@@PEAVVOption@2@@Z 0000000180037b80     VImage.obj
 0002:0000cba8       $cppxdata$?ifthenelse@VImage@vips@@QEAA?AV12@V12@0PEAVVOption@2@@Z 0000000180037ba8     VImage.obj
 0002:0000cbd0       $cppxdata$?rot@VImage@vips@@QEAA?AV12@W4VipsAngle@@PEAVVOption@2@@Z 0000000180037bd0     VImage.obj
 0002:0000cbf8       $cppxdata$?bandjoin@VImage@vips@@QEAA?AV12@V12@PEAVVOption@2@@Z 0000000180037bf8     VImage.obj
 0002:0000cc20       $cppxdata$?flip@VImage@vips@@QEAA?AV12@W4VipsDirection@@PEAVVOption@2@@Z 0000000180037c20     VImage.obj
 0002:0000cc48       $cppxdata$?complexget@VImage@vips@@QEAA?AV12@W4VipsOperationComplexget@@PEAVVOption@2@@Z 0000000180037c48     VImage.obj
 0002:0000cc70       $cppxdata$?complex@VImage@vips@@QEAA?AV12@W4VipsOperationComplex@@PEAVVOption@2@@Z 0000000180037c70     VImage.obj
 0002:0000cc98       $cppxdata$?math2_const@VImage@vips@@QEAA?AV12@W4VipsOperationMath2@@V?$vector@NV?$allocator@N@std@@@std@@PEAVVOption@2@@Z 0000000180037c98     VImage.obj
 0002:0000ccc0       $cppxdata$?round@VImage@vips@@QEAA?AV12@W4VipsOperationRound@@PEAVVOption@2@@Z 0000000180037cc0     VImage.obj
 0002:0000cce8       $cppxdata$?math@VImage@vips@@QEAA?AV12@W4VipsOperationMath@@PEAVVOption@2@@Z 0000000180037ce8     VImage.obj
 0002:0000cd10       $cppxdata$?linear@VImage@vips@@QEAA?AV12@V?$vector@NV?$allocator@N@std@@@std@@0PEAVVOption@2@@Z 0000000180037d10     VImage.obj
 0002:0000cd38       $cppxdata$?math2@VImage@vips@@QEAA?AV12@V12@W4VipsOperationMath2@@PEAVVOption@2@@Z 0000000180037d38     VImage.obj
 0002:0000cd60       $cppxdata$?new_from_image@VImage@vips@@QEAA?AV12@V?$vector@NV?$allocator@N@std@@@std@@@Z 0000000180037d60     VImage.obj
 0002:0000d770       $unwind$??AVImage@vips@@QEAA?AV01@H@Z 0000000180038770     VImage.obj
 0002:0000d770       $unwind$?fliphor@VImage@vips@@QEAA?AV12@PEAVVOption@2@@Z 0000000180038770     VError.obj
 0002:0000d770       $unwind$??1VImage@vips@@QEAA@XZ 0000000180038770     VError.obj
 0002:0000d770       $unwind$?flipver@VImage@vips@@QEAA?AV12@PEAVVOption@2@@Z 0000000180038770     VError.obj
 0002:0000d770       $unwind$?rot90@VImage@vips@@QEAA?AV12@PEAVVOption@2@@Z 0000000180038770     VError.obj
 0002:0000d770       $unwind$?rot180@VImage@vips@@QEAA?AV12@PEAVVOption@2@@Z 0000000180038770     VError.obj
 0002:0000d770       $unwind$?rot270@VImage@vips@@QEAA?AV12@PEAVVOption@2@@Z 0000000180038770     VError.obj
 0002:0000d770       $unwind$?get_interpolate@VInterpolate@vips@@QEAAPEAU_VipsInterpolate@@XZ 0000000180038770     VError.obj
 0002:0000d770       $unwind$?floor@VImage@vips@@QEAA?AV12@PEAVVOption@2@@Z 0000000180038770     VError.obj
 0002:0000d770       $unwind$?ceil@VImage@vips@@QEAA?AV12@PEAVVOption@2@@Z 0000000180038770     VError.obj
 0002:0000d770       $unwind$?data@VImage@vips@@QEAAPEBXXZ 0000000180038770     VError.obj
 0002:0000d770       $unwind$?rint@VImage@vips@@QEAA?AV12@PEAVVOption@2@@Z 0000000180038770     VError.obj
 0002:0000d770       $unwind$?filename@VImage@vips@@QEAAPEBDXZ 0000000180038770     VError.obj
 0002:0000d770       $unwind$?real@VImage@vips@@QEAA?AV12@PEAVVOption@2@@Z 0000000180038770     VError.obj
 0002:0000d770       $unwind$?yoffset@VImage@vips@@QEAANXZ 0000000180038770     VError.obj
 0002:0000d770       $unwind$?xoffset@VImage@vips@@QEAANXZ 0000000180038770     VError.obj
 0002:0000d770       $unwind$?_Raise@exception@stdext@@QEBAXXZ 0000000180038770     VError.obj
 0002:0000d770       $unwind$?yres@VImage@vips@@QEAANXZ 0000000180038770     VError.obj
 0002:0000d770       $unwind$?xres@VImage@vips@@QEAANXZ 0000000180038770     VError.obj
 0002:0000d770       $unwind$?guess_interpretation@VImage@vips@@QEAA?AW4VipsInterpretation@@XZ 0000000180038770     VError.obj
 0002:0000d770       $unwind$?interpretation@VImage@vips@@QEAA?AW4VipsInterpretation@@XZ 0000000180038770     VError.obj
 0002:0000d770       $unwind$?coding@VImage@vips@@QEAA?AW4VipsCoding@@XZ 0000000180038770     VError.obj
 0002:0000d770       $unwind$?format@VImage@vips@@QEAA?AW4VipsBandFormat@@XZ 0000000180038770     VError.obj
 0002:0000d770       $unwind$?message@error_code@std@@QEBA?AV?$basic_string@DU?$char_traits@D@std@@V?$allocator@D@2@@2@XZ 0000000180038770     VError.obj
 0002:0000d770       $unwind$?equivalent@error_category@std@@UEBA_NHAEBVerror_condition@2@@Z 0000000180038770     VError.obj
 0002:0000d770       $unwind$?imag@VImage@vips@@QEAA?AV12@PEAVVOption@2@@Z 0000000180038770     VError.obj
 0002:0000d770       $unwind$?bands@VImage@vips@@QEAAHXZ 0000000180038770     VError.obj
 0002:0000d770       $unwind$?height@VImage@vips@@QEAAHXZ 0000000180038770     VError.obj
 0002:0000d770       $unwind$??0out_of_range@std@@QEAA@PEBD@Z 0000000180038770     libcpmt:xthrow.obj
 0002:0000d770       $unwind$?width@VImage@vips@@QEAAHXZ 0000000180038770     VError.obj
 0002:0000d770       $unwind$?get_image@VImage@vips@@QEAAPEAU_VipsImage@@XZ 0000000180038770     VError.obj
 0002:0000d770       $unwind$?polar@VImage@vips@@QEAA?AV12@PEAVVOption@2@@Z 0000000180038770     VError.obj
 0002:0000d770       $unwind$?rect@VImage@vips@@QEAA?AV12@PEAVVOption@2@@Z 0000000180038770     VError.obj
 0002:0000d770       $unwind$?message@_Iostream_error_category@std@@UEBA?AV?$basic_string@DU?$char_traits@D@std@@V?$allocator@D@2@@2@H@Z 0000000180038770     VError.obj
 0002:0000d770       $unwind$?conj@VImage@vips@@QEAA?AV12@PEAVVOption@2@@Z 0000000180038770     VError.obj
 0002:0000d770       $unwind$??1VInterpolate@vips@@QEAA@XZ 0000000180038770     VError.obj
 0002:0000d770       $unwind$?sin@VImage@vips@@QEAA?AV12@PEAVVOption@2@@Z 0000000180038770     VError.obj
 0002:0000d770       $unwind$?to_vector@vips@@YA?AV?$vector@NV?$allocator@N@std@@@std@@N@Z 0000000180038770     VImage.obj
 0002:0000d770       $unwind$?cos@VImage@vips@@QEAA?AV12@PEAVVOption@2@@Z 0000000180038770     VError.obj
 0002:0000d770       $unwind$?tan@VImage@vips@@QEAA?AV12@PEAVVOption@2@@Z 0000000180038770     VError.obj
 0002:0000d770       $unwind$?asin@VImage@vips@@QEAA?AV12@PEAVVOption@2@@Z 0000000180038770     VError.obj
 0002:0000d770       $unwind$?acos@VImage@vips@@QEAA?AV12@PEAVVOption@2@@Z 0000000180038770     VError.obj
 0002:0000d770       $unwind$?atan@VImage@vips@@QEAA?AV12@PEAVVOption@2@@Z 0000000180038770     VError.obj
 0002:0000d770       $unwind$?log@VImage@vips@@QEAA?AV12@PEAVVOption@2@@Z 0000000180038770     VError.obj
 0002:0000d770       $unwind$?log10@VImage@vips@@QEAA?AV12@PEAVVOption@2@@Z 0000000180038770     VError.obj
 0002:0000d770       $unwind$?exp@VImage@vips@@QEAA?AV12@PEAVVOption@2@@Z 0000000180038770     VError.obj
 0002:0000d770       $unwind$?exp10@VImage@vips@@QEAA?AV12@PEAVVOption@2@@Z 0000000180038770     VError.obj
 0002:0000d770       $unwind$??0length_error@std@@QEAA@PEBD@Z 0000000180038770     libcpmt:xthrow.obj
 0002:0000d778       $unwind$??4VInterpolate@vips@@QEAAAEAV01@$$QEAV01@@Z 0000000180038778     VError.obj
 0002:0000d778       $unwind$??0logic_error@std@@QEAA@AEBV01@@Z 0000000180038778     libcpmt:xthrow.obj
 0002:0000d778       $unwind$_SetImageBase      0000000180038778     libvcruntime:trnsctrl.obj
 0002:0000d778       $unwind$??1VError@vips@@UEAA@XZ 0000000180038778     VError.obj
 0002:0000d778       $unwind$??4VInterpolate@vips@@QEAAAEAV01@AEBV01@@Z 0000000180038778     VError.obj
 0002:0000d778       $unwind$_SetThrowImageBase 0000000180038778     libvcruntime:trnsctrl.obj
 0002:0000d778       $unwind$?system@VImage@vips@@SAXPEADPEAVVOption@2@@Z 0000000180038778     VImage.obj
 0002:0000d778       $unwind$??0bad_alloc@std@@QEAA@AEBV01@@Z 0000000180038778     libcpmt:xthrow.obj
 0002:0000d778       $unwind$??4VError@vips@@QEAAAEAV01@AEBV01@@Z 0000000180038778     VError.obj
 0002:0000d778       $unwind$??_Gfailure@ios_base@std@@UEAAPEAXI@Z 0000000180038778     VError.obj
 0002:0000d778       $unwind$_CreateFrameInfo   0000000180038778     libvcruntime:trnsctrl.obj
 0002:0000d778       $unwind$__acrt_uninitialize_locks 0000000180038778     libucrt:locks.obj
 0002:0000d778       $unwind$??1?$basic_string@DU?$char_traits@D@std@@V?$allocator@D@2@@std@@QEAA@XZ 0000000180038778     VError.obj
 0002:0000d778       $unwind$_IsExceptionObjectToBeDestroyed 0000000180038778     libvcruntime:trnsctrl.obj
 0002:0000d778       $unwind$__acrt_uninitialize_winapi_thunks 0000000180038778     libucrt:winapi_thunks.obj
 0002:0000d778       $unwind$??_G_Iostream_error_category@std@@UEAAPEAXI@Z 0000000180038778     VError.obj
 0002:0000d778       $unwind$__vcrt_initialize_locks 0000000180038778     libvcruntime:locks.obj
 0002:0000d778       $unwind$??0VOption@vips@@QEAA@AEBV01@@Z 0000000180038778     VError.obj
 0002:0000d778       $unwind$??4VOption@vips@@QEAAAEAV01@AEBV01@@Z 0000000180038778     VError.obj
 0002:0000d778       $unwind$__raise_securityfailure 0000000180038778     LIBCMT:gs_report.obj
 0002:0000d778       $unwind$_calloc_base       0000000180038778     libucrt:calloc_base.obj
 0002:0000d778       $unwind$??0VImage@vips@@QEAA@PEAU_VipsImage@@W4VSteal@1@@Z 0000000180038778     VError.obj
 0002:0000d778       $unwind$_onexit            0000000180038778     LIBCMT:utility.obj
 0002:0000d778       $unwind$_clrfp             0000000180038778     libucrt:fpctrl.obj
 0002:0000d778       $unwind$?__StateFromIp@@YAHPEBU_s_FuncInfo@@PEAU_xDISPATCHER_CONTEXT@@_J@Z 0000000180038778     libvcruntime:ehstate.obj
 0002:0000d778       $unwind$??_G_System_error@std@@UEAAPEAXI@Z 0000000180038778     VError.obj
 0002:0000d778       $unwind$__acrt_allocate_buffer_for_argv 0000000180038778     libucrt:argv_parsing.obj
 0002:0000d778       $unwind$__acrt_initialize_locks 0000000180038778     libucrt:locks.obj
 0002:0000d778       $unwind$??0out_of_range@std@@QEAA@AEBV01@@Z 0000000180038778     libcpmt:xthrow.obj
 0002:0000d778       $unwind$__std_type_info_destroy_list 0000000180038778     libvcruntime:std_type_info.obj
 0002:0000d778       $unwind$??4VImage@vips@@QEAAAEAV01@$$QEAV01@@Z 0000000180038778     VError.obj
 0002:0000d778       $unwind$??_Gerror_category@std@@UEAAPEAXI@Z 0000000180038778     VError.obj
 0002:0000d778       $unwind$??_Gruntime_error@std@@UEAAPEAXI@Z 0000000180038778     VError.obj
 0002:0000d778       $unwind$_set_statfp        0000000180038778     libucrt:fpctrl.obj
 0002:0000d778       $unwind$__scrt_release_startup_lock 0000000180038778     LIBCMT:utility.obj
 0002:0000d778       $unwind$??_Gexception@stdext@@UEAAPEAXI@Z 0000000180038778     VError.obj
 0002:0000d778       $unwind$__std_exception_destroy 0000000180038778     libvcruntime:std_exception.obj
 0002:0000d778       $unwind$?__GetUnwindTryBlock@@YAHPEA_KPEAU_xDISPATCHER_CONTEXT@@PEBU_s_FuncInfo@@@Z 0000000180038778     libvcruntime:ehstate.obj
 0002:0000d778       $unwind$?exit_or_terminate_process@@YAXI@Z 0000000180038778     libucrt:exit.obj
 0002:0000d778       $unwind$__scrt_initialize_crt 0000000180038778     LIBCMT:utility.obj
 0002:0000d778       $unwind$uninitialize_allocated_memory 0000000180038778     libucrt:initialization.obj
 0002:0000d778       $unwind$__scrt_uninitialize_crt 0000000180038778     LIBCMT:utility.obj
 0002:0000d778       $unwind$??0exception@std@@QEAA@AEBV01@@Z 0000000180038778     libcpmt:xthrow.obj
 0002:0000d778       $unwind$??4VImage@vips@@QEAAAEAV01@AEBV01@@Z 0000000180038778     VError.obj
 0002:0000d778       $unwind$??1?$vector@VVImage@vips@@V?$allocator@VVImage@vips@@@std@@@std@@QEAA@XZ 0000000180038778     VImage.obj
 0002:0000d778       $unwind$_malloc_base       0000000180038778     libucrt:malloc_base.obj
 0002:0000d778       $unwind$__vcrt_uninitialize_locks 0000000180038778     libvcruntime:locks.obj
 0002:0000d778       $unwind$_Init_thread_footer 0000000180038778     LIBCMT:thread_safe_statics.obj
 0002:0000d778       $unwind$??0bad_array_new_length@std@@QEAA@AEBV01@@Z 0000000180038778     LIBCMT:throw_bad_alloc.obj
 0002:0000d778       $unwind$_purecall          0000000180038778     libvcruntime:purevirt.obj
 0002:0000d778       $unwind$??_Gtype_info@@UEAAPEAXI@Z 0000000180038778     LIBCMT:std_type_info_static.obj
 0002:0000d778       $unwind$__acrt_freeptd     0000000180038778     libucrt:per_thread_data.obj
 0002:0000d778       $unwind$??0bad_exception@std@@QEAA@AEBV01@@Z 0000000180038778     libvcruntime:frame.obj
 0002:0000d778       $unwind$strcpy_s           0000000180038778     libucrt:strcpy_s.obj
 0002:0000d778       $unwind$__acrt_stdio_free_buffer_nolock 0000000180038778     libucrt:_freebuf.obj
 0002:0000d778       $unwind$__acrt_uninitialize_stdio 0000000180038778     libucrt:_file.obj
 0002:0000d778       $unwind$_Init_thread_header 0000000180038778     LIBCMT:thread_safe_statics.obj
 0002:0000d778       $unwind$initialize_pointers 0000000180038778     libucrt:initialization.obj
 0002:0000d778       $unwind$??0VInterpolate@vips@@QEAA@PEAU_VipsInterpolate@@W4VSteal@1@@Z 0000000180038778     VError.obj
 0002:0000d778       $unwind$_Init_thread_notify 0000000180038778     LIBCMT:thread_safe_statics.obj
 0002:0000d778       $unwind$__acrt_update_multibyte_info 0000000180038778     libucrt:locale_update.obj
 0002:0000d778       $unwind$??0length_error@std@@QEAA@AEBV01@@Z 0000000180038778     libcpmt:xthrow.obj
 0002:0000d778       $unwind$__acrt_update_locale_info 0000000180038778     libucrt:locale_update.obj
 0002:0000d778       $unwind$__vcrt_freeptd     0000000180038778     libvcruntime:per_thread_data.obj
 0002:0000d778       $unwind$??1?$vector@NV?$allocator@N@std@@@std@@QEAA@XZ 0000000180038778     VError.obj
 0002:0000d778       $unwind$_fflush_nolock     0000000180038778     libucrt:fflush.obj
 0002:0000d778       $unwind$??2@YAPEAX_K@Z     0000000180038778     LIBCMT:new_scalar.obj
 0002:0000d780       $unwind$?_Doraise@runtime_error@std@@MEBAXXZ 0000000180038780     VError.obj
 0002:0000d780       $unwind$_log10_special     0000000180038780     libucrt:log_special.obj
 0002:0000d780       $unwind$_invalid_parameter_noinfo 0000000180038780     libucrt:invalid_parameter.obj
 0002:0000d780       $unwind$?_Doraise@failure@ios_base@std@@MEBAXXZ 0000000180038780     VError.obj
 0002:0000d780       $unwind$_invalid_parameter_noinfo_noreturn 0000000180038780     libucrt:invalid_parameter.obj
 0002:0000d788       $unwind$?_Makestr@_System_error@std@@CA?AV?$basic_string@DU?$char_traits@D@std@@V?$allocator@D@2@@2@Verror_code@2@V32@@Z 0000000180038788     VError.obj
 0002:0000d7a0       $stateUnwindMap$?_Makestr@_System_error@std@@CA?AV?$basic_string@DU?$char_traits@D@std@@V?$allocator@D@2@@2@Verror_code@2@V32@@Z 00000001800387a0     VError.obj
 0002:0000d7b0       $ip2state$?_Makestr@_System_error@std@@CA?AV?$basic_string@DU?$char_traits@D@std@@V?$allocator@D@2@@2@Verror_code@2@V32@@Z 00000001800387b0     VError.obj
 0002:0000d7d8       $unwind$??0VInterpolate@vips@@QEAA@AEBV01@@Z 00000001800387d8     VError.obj
 0002:0000d7d8       $unwind$?new_matrix@VImage@vips@@SA?AV12@HH@Z 00000001800387d8     VImage.obj
 0002:0000d7d8       $unwind$?message@_Generic_error_category@std@@UEBA?AV?$basic_string@DU?$char_traits@D@std@@V?$allocator@D@2@@2@H@Z 00000001800387d8     VError.obj
 0002:0000d7d8       $unwind$??0VImage@vips@@QEAA@AEBV01@@Z 00000001800387d8     VError.obj
 0002:0000d7d8       $unwind$??0VInterpolate@vips@@QEAA@$$QEAV01@@Z 00000001800387d8     VError.obj
 0002:0000d7d8       $unwind$??0VImage@vips@@QEAA@$$QEAV01@@Z 00000001800387d8     VError.obj
 0002:0000d7d8       $unwind$?new_memory@VImage@vips@@SA?AV12@XZ 00000001800387d8     VError.obj
 0002:0000d7d8       $unwind$?get_typeof@VImage@vips@@QEAA_KPEBD@Z 00000001800387d8     VError.obj
 0002:0000d7e4       $unwind$?clear@ios_base@std@@QEAAXH_N@Z 00000001800387e4     VError.obj
 0002:0000d804       $stateUnwindMap$?clear@ios_base@std@@QEAAXH_N@Z 0000000180038804     VError.obj
 0002:0000d840       $ip2state$?clear@ios_base@std@@QEAAXH_N@Z 0000000180038840     VError.obj
 0002:0000d8a8       $unwind$??0VError@vips@@QEAA@V?$basic_string@DU?$char_traits@D@std@@V?$allocator@D@2@@std@@@Z 00000001800388a8     VError.obj
 0002:0000d8c0       $stateUnwindMap$??0VError@vips@@QEAA@V?$basic_string@DU?$char_traits@D@std@@V?$allocator@D@2@@std@@@Z 00000001800388c0     VError.obj
 0002:0000d8d0       $ip2state$??0VError@vips@@QEAA@V?$basic_string@DU?$char_traits@D@std@@V?$allocator@D@2@@std@@@Z 00000001800388d0     VError.obj
 0002:0000d8f0       $unwind$??0VError@vips@@QEAA@XZ 00000001800388f0     VError.obj
 0002:0000d900       $stateUnwindMap$??0VError@vips@@QEAA@XZ 0000000180038900     VError.obj
 0002:0000d900       $stateUnwindMap$??0VError@vips@@QEAA@AEBV01@@Z 0000000180038900     VError.obj
 0002:0000d908       $ip2state$??0VError@vips@@QEAA@XZ 0000000180038908     VError.obj
 0002:0000d920       $unwind$??0VError@vips@@QEAA@AEBV01@@Z 0000000180038920     VError.obj
 0002:0000d930       $ip2state$??0VError@vips@@QEAA@AEBV01@@Z 0000000180038930     VError.obj
 0002:0000d948       $unwind$??_EVError@vips@@UEAAPEAXI@Z 0000000180038948     VError.obj
 0002:0000d954       $chain$0$??_EVError@vips@@UEAAPEAXI@Z 0000000180038954     VError.obj
 0002:0000d968       $chain$1$??_EVError@vips@@UEAAPEAXI@Z 0000000180038968     VError.obj
 0002:0000d978       $unwind$??0?$vector@VVImage@vips@@V?$allocator@VVImage@vips@@@std@@@std@@QEAA@AEBV01@@Z 0000000180038978     VImage.obj
 0002:0000d978       $unwind$?set@VImage@vips@@QEAAXPEBD0@Z 0000000180038978     VError.obj
 0002:0000d978       $unwind$??0VObject@vips@@QEAA@PEAU_VipsObject@@W4VSteal@1@@Z 0000000180038978     VError.obj
 0002:0000d978       $unwind$??4VObject@vips@@QEAAAEAV01@AEBV01@@Z 0000000180038978     VError.obj
 0002:0000d978       $unwind$?set@VImage@vips@@QEAAXPEBDH@Z 0000000180038978     VError.obj
 0002:0000d978       $unwind$?push_back@?$vector@VVImage@vips@@V?$allocator@VVImage@vips@@@std@@@std@@QEAAX$$QEAVVImage@vips@@@Z 0000000180038978     VImage.obj
 0002:0000d988       $unwind$__acrt_is_packaged_app 0000000180038988     libucrt:winapi_thunks.obj
 0002:0000d988       $unwind$??0VOption@vips@@QEAA@XZ 0000000180038988     VError.obj
 0002:0000d988       $unwind$??1VOption@vips@@UEAA@XZ 0000000180038988     VImage.obj
 0002:0000d994       $unwind$??_EVOption@vips@@UEAAPEAXI@Z 0000000180038994     VError.obj
 0002:0000d9b0       $ip2state$??_EVOption@vips@@UEAAPEAXI@Z 00000001800389b0     VError.obj
 0002:0000d9b8       $unwind$?set@VImage@vips@@QEAAXPEBDN@Z 00000001800389b8     VError.obj
 0002:0000d9c8       $unwind$?set@VImage@vips@@QEAAXPEBDP6AHPEAX1@Z1_K@Z 00000001800389c8     VError.obj
 0002:0000d9dc       $unwind$?get_int@VImage@vips@@QEAAHPEBD@Z 00000001800389dc     VError.obj
 0002:0000d9f4       $stateUnwindMap$?write_to_file@VImage@vips@@QEAAXPEBDPEAVVOption@2@@Z 00000001800389f4     VImage.obj
 0002:0000d9f4       $stateUnwindMap$?get_int@VImage@vips@@QEAAHPEBD@Z 00000001800389f4     VError.obj
 0002:0000d9f4       $stateUnwindMap$?new_matrix@VImage@vips@@SA?AV12@HHPEANH@Z 00000001800389f4     VError.obj
 0002:0000d9f4       $stateUnwindMap$?get_string@VImage@vips@@QEAAPEBDPEBD@Z 00000001800389f4     VError.obj
 0002:0000d9f4       $stateUnwindMap$?get_blob@VImage@vips@@QEAAPEBXPEBDPEA_K@Z 00000001800389f4     VError.obj
 0002:0000d9f4       $stateUnwindMap$?new_from_memory@VImage@vips@@SA?AV12@PEAX_KHHHW4VipsBandFormat@@@Z 00000001800389f4     VError.obj
 0002:0000d9f4       $stateUnwindMap$?get_double@VImage@vips@@QEAANPEBD@Z 00000001800389f4     VError.obj
 0002:0000d9f4       $stateUnwindMap$?new_from_name@VInterpolate@vips@@SA?AV12@PEBDPEAVVOption@2@@Z 00000001800389f4     VInterpolate.obj
 0002:0000d9f4       $stateUnwindMap$?new_temp_file@VImage@vips@@SA?AV12@PEBD@Z 00000001800389f4     VError.obj
 0002:0000da00       $ip2state$?get_int@VImage@vips@@QEAAHPEBD@Z 0000000180038a00     VError.obj
 0002:0000da18       $unwind$?get_double@VImage@vips@@QEAANPEBD@Z 0000000180038a18     VError.obj
 0002:0000da30       $ip2state$?get_double@VImage@vips@@QEAANPEBD@Z 0000000180038a30     VError.obj
 0002:0000da48       $unwind$?get_string@VImage@vips@@QEAAPEBDPEBD@Z 0000000180038a48     VError.obj
 0002:0000da60       $ip2state$?get_string@VImage@vips@@QEAAPEBDPEBD@Z 0000000180038a60     VError.obj
 0002:0000da78       $unwind$?get_blob@VImage@vips@@QEAAPEBXPEBDPEA_K@Z 0000000180038a78     VError.obj
 0002:0000da90       $ip2state$?get_blob@VImage@vips@@QEAAPEBXPEBDPEA_K@Z 0000000180038a90     VError.obj
 0002:0000daa8       $unwind$?option@VImage@vips@@SAPEAVVOption@2@XZ 0000000180038aa8     VError.obj
 0002:0000dabc       $stateUnwindMap$?option@VImage@vips@@SAPEAVVOption@2@XZ 0000000180038abc     VError.obj
 0002:0000dac8       $ip2state$?option@VImage@vips@@SAPEAVVOption@2@XZ 0000000180038ac8     VError.obj
 0002:0000dae0       $unwind$?dtor$1@?0??match@VImage@vips@@QEAA?AV12@V12@HHHHHHHHPEAVVOption@2@@Z@4HA 0000000180038ae0     VImage.obj
 0002:0000dae0       $unwind$?dtor$0@?0??scRGB2XYZ@VImage@vips@@QEAA?AV12@PEAVVOption@2@@Z@4HA 0000000180038ae0     VImage.obj
 0002:0000dae0       $unwind$?dtor$0@?0??hist_find@VImage@vips@@QEAA?AV12@PEAVVOption@2@@Z@4HA 0000000180038ae0     VImage.obj
 0002:0000dae0       $unwind$_write$fin$0       0000000180038ae0     libucrt:write.obj
 0002:0000dae0       $unwind$?fin$0@?0???$?RV<lambda_99476a1ad63dd22509b5d3e65b0ffc95>@@AEAV<lambda_ad1ced32f4ac17aa236e5ef05d6b3b7c>@@V<lambda_f7424dd8d45958661754dc4f2697e9c3>@@@?$__crt_seh_guarded_call@X@@QEAAX$$QEAV<lambda_99476a1ad63dd22509b5d3e65b0ffc95>@@AEAV<lambda_ad1ced32f4ac17aa236e5ef05d6b3b7c>@@$$QEAV<lambda_f7424dd8d45958661754dc4f2697e9c3>@@@Z@4HA 0000000180038ae0     libucrt:mbctype.obj
 0002:0000dae0       $unwind$?dtor$1@?0??boolean@VImage@vips@@QEAA?AV12@V12@W4VipsOperationBoolean@@PEAVVOption@2@@Z@4HA 0000000180038ae0     VImage.obj
 0002:0000dae0       $unwind$?dtor$0@?0??LabQ2Lab@VImage@vips@@QEAA?AV12@PEAVVOption@2@@Z@4HA 0000000180038ae0     VImage.obj
 0002:0000dae0       $unwind$?dtor$1@?0??mosaic1@VImage@vips@@QEAA?AV12@V12@W4VipsDirection@@HHHHHHHHPEAVVOption@2@@Z@4HA 0000000180038ae0     VImage.obj
 0002:0000dae0       $unwind$__acrt_update_thread_multibyte_data$fin$0 0000000180038ae0     libucrt:mbctype.obj
 0002:0000dae0       $unwind$?dtor$1@?0??relational_const@VImage@vips@@QEAA?AV12@W4VipsOperationRelational@@V?$vector@NV?$allocator@N@std@@@std@@PEAVVOption@2@@Z@4HA 0000000180038ae0     VImage.obj
 0002:0000dae0       $unwind$__acrt_lowio_ensure_fh_exists$fin$0 0000000180038ae0     libucrt:osfinfo.obj
 0002:0000dae0       $unwind$?dtor$0@?0??pngload_buffer@VImage@vips@@SA?AV12@PEAU_VipsBlob@@PEAVVOption@2@@Z@4HA 0000000180038ae0     VImage.obj
 0002:0000dae0       $unwind$?dtor$1@?0??remainder_const@VImage@vips@@QEAA?AV12@V?$vector@NV?$allocator@N@std@@@std@@PEAVVOption@2@@Z@4HA 0000000180038ae0     VImage.obj
 0002:0000dae0       $unwind$?dtor$0@?0??icc_transform@VImage@vips@@QEAA?AV12@PEADPEAVVOption@2@@Z@4HA 0000000180038ae0     VImage.obj
 0002:0000dae0       $unwind$?dtor$1@?0??mosaic@VImage@vips@@QEAA?AV12@V12@W4VipsDirection@@HHHHPEAVVOption@2@@Z@4HA 0000000180038ae0     VImage.obj
 0002:0000dae0       $unwind$?dtor$1@?0??multiply@VImage@vips@@QEAA?AV12@V12@PEAVVOption@2@@Z@4HA 0000000180038ae0     VImage.obj
 0002:0000dae0       $unwind$?dtor$0@?0??globalbalance@VImage@vips@@QEAA?AV12@PEAVVOption@2@@Z@4HA 0000000180038ae0     VImage.obj
 0002:0000dae0       $unwind$?dtor$0@?0??autorot@VImage@vips@@QEAA?AV12@PEAVVOption@2@@Z@4HA 0000000180038ae0     VImage.obj
 0002:0000dae0       $unwind$?dtor$1@?0??mapim@VImage@vips@@QEAA?AV12@V12@PEAVVOption@2@@Z@4HA 0000000180038ae0     VImage.obj
 0002:0000dae0       $unwind$?dtor$0@?0??analyzeload@VImage@vips@@SA?AV12@PEADPEAVVOption@2@@Z@4HA 0000000180038ae0     VImage.obj
 0002:0000dae0       $unwind$?dtor$0@?0??LabQ2sRGB@VImage@vips@@QEAA?AV12@PEAVVOption@2@@Z@4HA 0000000180038ae0     VImage.obj
 0002:0000dae0       $unwind$?dtor$1@?0??merge@VImage@vips@@QEAA?AV12@V12@W4VipsDirection@@HHPEAVVOption@2@@Z@4HA 0000000180038ae0     VImage.obj
 0002:0000dae0       $unwind$?dtor$0@?0??embed@VImage@vips@@QEAA?AV12@HHHHPEAVVOption@2@@Z@4HA 0000000180038ae0     VImage.obj
 0002:0000dae0       $unwind$?dtor$0@?0??rot45@VImage@vips@@QEAA?AV12@PEAVVOption@2@@Z@4HA 0000000180038ae0     VImage.obj
 0002:0000dae0       $unwind$?dtor$0@?0??hist_find_ndim@VImage@vips@@QEAA?AV12@PEAVVOption@2@@Z@4HA 0000000180038ae0     VImage.obj
 0002:0000dae0       $unwind$?dtor$0@?0??Yxy2XYZ@VImage@vips@@QEAA?AV12@PEAVVOption@2@@Z@4HA 0000000180038ae0     VImage.obj
 0002:0000dae0       $unwind$?dtor$0@?0??bandsplit@VImage@vips@@QEAA?AV?$vector@VVImage@vips@@V?$allocator@VVImage@vips@@@std@@@std@@PEAVVOption@2@@Z@4HA 0000000180038ae0     VImage.obj
 0002:0000dae0       $unwind$?dtor$0@?0??icc_export@VImage@vips@@QEAA?AV12@PEAVVOption@2@@Z@4HA 0000000180038ae0     VImage.obj
 0002:0000dae0       $unwind$?dtor$0@?0??cast@VImage@vips@@QEAA?AV12@W4VipsBandFormat@@PEAVVOption@2@@Z@4HA 0000000180038ae0     VImage.obj
 0002:0000dae0       $unwind$?fin$0@?0???$?RV<lambda_bfedae4ebbf01fab1bb6dcc6a9e276e0>@@AEAV<lambda_2fe9b910cf3cbf4a0ab98a02ba45b3ec>@@V<lambda_237c231691f317818eb88cc1d5d642d6>@@@?$__crt_seh_guarded_call@H@@QEAAH$$QEAV<lambda_bfedae4ebbf01fab1bb6dcc6a9e276e0>@@AEAV<lambda_2fe9b910cf3cbf4a0ab98a02ba45b3ec>@@$$QEAV<lambda_237c231691f317818eb88cc1d5d642d6>@@@Z@4HA 0000000180038ae0     libucrt:close.obj
 0002:0000dae0       $unwind$?dtor$1@?0??insert@VImage@vips@@QEAA?AV12@V12@HHPEAVVOption@2@@Z@4HA 0000000180038ae0     VImage.obj
 0002:0000dae0       $unwind$?dtor$1@?0??boolean_const@VImage@vips@@QEAA?AV12@W4VipsOperationBoolean@@V?$vector@NV?$allocator@N@std@@@std@@PEAVVOption@2@@Z@4HA 0000000180038ae0     VImage.obj
 0002:0000dae0       $unwind$?dtor$0@?0??XYZ2scRGB@VImage@vips@@QEAA?AV12@PEAVVOption@2@@Z@4HA 0000000180038ae0     VImage.obj
 0002:0000dae0       $unwind$?dtor$0@?0??thumbnail_buffer@VImage@vips@@SA?AV12@PEAU_VipsBlob@@HPEAVVOption@2@@Z@4HA 0000000180038ae0     VImage.obj
 0002:0000dae0       $unwind$?dtor$1@?0??dE76@VImage@vips@@QEAA?AV12@V12@PEAVVOption@2@@Z@4HA 0000000180038ae0     VImage.obj
 0002:0000dae0       $unwind$?dtor$1@?0??subtract@VImage@vips@@QEAA?AV12@V12@PEAVVOption@2@@Z@4HA 0000000180038ae0     VImage.obj
 0002:0000dae0       $unwind$?dtor$1@?0??recomb@VImage@vips@@QEAA?AV12@V12@PEAVVOption@2@@Z@4HA 0000000180038ae0     VImage.obj
 0002:0000dae0       $unwind$__acrt_update_thread_locale_data$fin$0 0000000180038ae0     libucrt:locale_refcounting.obj
 0002:0000dae0       $unwind$?dtor$1@?0??complexform@VImage@vips@@QEAA?AV12@V12@PEAVVOption@2@@Z@4HA 0000000180038ae0     VImage.obj
 0002:0000dae0       $unwind$?dtor$0@?0??bandmean@VImage@vips@@QEAA?AV12@PEAVVOption@2@@Z@4HA 0000000180038ae0     VImage.obj
 0002:0000dae0       $unwind$_query_new_handler$fin$0 0000000180038ae0     libucrt:new_handler.obj
 0002:0000dae0       $unwind$?dtor$1@?0??dE00@VImage@vips@@QEAA?AV12@V12@PEAVVOption@2@@Z@4HA 0000000180038ae0     VImage.obj
 0002:0000dae0       $unwind$?dtor$0@?0??bandfold@VImage@vips@@QEAA?AV12@PEAVVOption@2@@Z@4HA 0000000180038ae0     VImage.obj
 0002:0000dae0       $unwind$?dtor$0@?0??thumbnail@VImage@vips@@SA?AV12@PEADHPEAVVOption@2@@Z@4HA 0000000180038ae0     VImage.obj
 0002:0000dae0       $unwind$?dtor$0@?0??shrinkv@VImage@vips@@QEAA?AV12@HPEAVVOption@2@@Z@4HA 0000000180038ae0     VImage.obj
 0002:0000dae0       $unwind$?dtor$1@?0??add@VImage@vips@@QEAA?AV12@V12@PEAVVOption@2@@Z@4HA 0000000180038ae0     VImage.obj
 0002:0000dae0       $unwind$?dtor$1@?0??divide@VImage@vips@@QEAA?AV12@V12@PEAVVOption@2@@Z@4HA 0000000180038ae0     VImage.obj
 0002:0000dae0       $unwind$?dtor$0@?0??shrink@VImage@vips@@QEAA?AV12@NNPEAVVOption@2@@Z@4HA 0000000180038ae0     VImage.obj
 0002:0000dae0       $unwind$?dtor$1@?0??dECMC@VImage@vips@@QEAA?AV12@V12@PEAVVOption@2@@Z@4HA 0000000180038ae0     VImage.obj
 0002:0000dae0       $unwind$?fin$0@?0???$?RV<lambda_c36588078e9f5dfd39652860aa6b3aaf>@@AEAV<lambda_ec61778202f4f5fc7e7711acc23c3bca>@@V<lambda_dc9d2797ccde5d239b4a0efae8ebd7db>@@@?$__crt_seh_guarded_call@P6AXH@Z@@QEAAP6AXH@Z$$QEAV<lambda_c36588078e9f5dfd39652860aa6b3aaf>@@AEAV<lambda_ec61778202f4f5fc7e7711acc23c3bca>@@$$QEAV<lambda_dc9d2797ccde5d239b4a0efae8ebd7db>@@@Z@4HA 0000000180038ae0     libucrt:signal.obj
 0002:0000dae0       $unwind$?dtor$0@?0??complexget@VImage@vips@@QEAA?AV12@W4VipsOperationComplexget@@PEAVVOption@2@@Z@4HA 0000000180038ae0     VImage.obj
 0002:0000dae0       $unwind$?dtor$0@?0??bandunfold@VImage@vips@@QEAA?AV12@PEAVVOption@2@@Z@4HA 0000000180038ae0     VImage.obj
 0002:0000dae0       $unwind$?dtor$0@?0??rad2float@VImage@vips@@QEAA?AV12@PEAVVOption@2@@Z@4HA 0000000180038ae0     VImage.obj
 0002:0000dae0       $unwind$raise$fin$0        0000000180038ae0     libucrt:signal.obj
 0002:0000dae0       $unwind$?dtor$0@?0??flatten@VImage@vips@@QEAA?AV12@PEAVVOption@2@@Z@4HA 0000000180038ae0     VImage.obj
 0002:0000dae0       $unwind$?dtor$0@?0??icc_import@VImage@vips@@QEAA?AV12@PEAVVOption@2@@Z@4HA 0000000180038ae0     VImage.obj
 0002:0000dae0       $unwind$?fin$0@?0???_M@YAXPEAX_K1P6AX0@Z@Z@4HA 0000000180038ae0     LIBCMT:ehvecdtr.obj
 0002:0000dae0       $unwind$?dtor$0@?0??extract_band@VImage@vips@@QEAA?AV12@HPEAVVOption@2@@Z@4HA 0000000180038ae0     VImage.obj
 0002:0000dae0       $unwind$?dtor$0@?0??vipsload@VImage@vips@@SA?AV12@PEADPEAVVOption@2@@Z@4HA 0000000180038ae0     VImage.obj
 0002:0000dae0       $unwind$?dtor$6@?0??new_from_image@VImage@vips@@QEAA?AV12@V?$vector@NV?$allocator@N@std@@@std@@@Z@4HA 0000000180038ae0     VImage.obj
 0002:0000dae0       $unwind$?dtor$0@?0??labelregions@VImage@vips@@QEAA?AV12@PEAVVOption@2@@Z@4HA 0000000180038ae0     VImage.obj
 0002:0000dae0       $unwind$?dtor$0@?0??matload@VImage@vips@@SA?AV12@PEADPEAVVOption@2@@Z@4HA 0000000180038ae0     VImage.obj
 0002:0000dae0       $unwind$__acrt_initialize_lowio$fin$0 0000000180038ae0     libucrt:ioinit.obj
 0002:0000dae0       $unwind$?dtor$0@?0??stats@VImage@vips@@QEAA?AV12@PEAVVOption@2@@Z@4HA 0000000180038ae0     VImage.obj
 0002:0000dae0       $unwind$?dtor$0@?0??rawload@VImage@vips@@SA?AV12@PEADHHHPEAVVOption@2@@Z@4HA 0000000180038ae0     VImage.obj
 0002:0000dae0       $unwind$?dtor$0@?0??replicate@VImage@vips@@QEAA?AV12@HHPEAVVOption@2@@Z@4HA 0000000180038ae0     VImage.obj
 0002:0000dae0       $unwind$?dtor$0@?0??sRGB2scRGB@VImage@vips@@QEAA?AV12@PEAVVOption@2@@Z@4HA 0000000180038ae0     VImage.obj
 0002:0000dae0       $unwind$?dtor$1@?0??hist_find_indexed@VImage@vips@@QEAA?AV12@V12@PEAVVOption@2@@Z@4HA 0000000180038ae0     VImage.obj
 0002:0000dae0       $unwind$?dtor$0@?0??sign@VImage@vips@@QEAA?AV12@PEAVVOption@2@@Z@4HA 0000000180038ae0     VImage.obj
 0002:0000dae0       $unwind$?dtor$1@?0??phasecor@VImage@vips@@QEAA?AV12@V12@PEAVVOption@2@@Z@4HA 0000000180038ae0     VImage.obj
 0002:0000dae0       $unwind$?dtor$0@?0??matrixload@VImage@vips@@SA?AV12@PEADPEAVVOption@2@@Z@4HA 0000000180038ae0     VImage.obj
 0002:0000dae0       $unwind$?dtor$1@?0??relational@VImage@vips@@QEAA?AV12@V12@W4VipsOperationRelational@@PEAVVOption@2@@Z@4HA 0000000180038ae0     VImage.obj
 0002:0000dae0       $unwind$?dtor$0@?0??svgload@VImage@vips@@SA?AV12@PEADPEAVVOption@2@@Z@4HA 0000000180038ae0     VImage.obj
 0002:0000dae0       $unwind$?dtor$0@?0??resize@VImage@vips@@QEAA?AV12@NPEAVVOption@2@@Z@4HA 0000000180038ae0     VImage.obj
 0002:0000dae0       $unwind$?dtor$0@?0??jpegload@VImage@vips@@SA?AV12@PEADPEAVVOption@2@@Z@4HA 0000000180038ae0     VImage.obj
 0002:0000dae0       $unwind$?dtor$2@?0??linear@VImage@vips@@QEAA?AV12@V?$vector@NV?$allocator@N@std@@@std@@0PEAVVOption@2@@Z@4HA 0000000180038ae0     VImage.obj
 0002:0000dae0       $unwind$?dtor$0@?0??spectrum@VImage@vips@@QEAA?AV12@PEAVVOption@2@@Z@4HA 0000000180038ae0     VImage.obj
 0002:0000dae0       $unwind$?dtor$0@?0??csvload@VImage@vips@@SA?AV12@PEADPEAVVOption@2@@Z@4HA 0000000180038ae0     VImage.obj
 0002:0000dae0       $unwind$?dtor$0@?0??Lab2LabQ@VImage@vips@@QEAA?AV12@PEAVVOption@2@@Z@4HA 0000000180038ae0     VImage.obj
 0002:0000dae0       $unwind$?dtor$0@?0??shrinkh@VImage@vips@@QEAA?AV12@HPEAVVOption@2@@Z@4HA 0000000180038ae0     VImage.obj
 0002:0000dae0       $unwind$?dtor$0@?0??premultiply@VImage@vips@@QEAA?AV12@PEAVVOption@2@@Z@4HA 0000000180038ae0     VImage.obj
 0002:0000dae0       $unwind$?dtor$0@?0??perlin@VImage@vips@@SA?AV12@HHPEAVVOption@2@@Z@4HA 0000000180038ae0     VImage.obj
 0002:0000dae0       $unwind$?dtor$0@?0??similarity@VImage@vips@@QEAA?AV12@PEAVVOption@2@@Z@4HA 0000000180038ae0     VImage.obj
 0002:0000dae0       $unwind$?dtor$1@?0??freqmult@VImage@vips@@QEAA?AV12@V12@PEAVVOption@2@@Z@4HA 0000000180038ae0     VImage.obj
 0002:0000dae0       $unwind$?dtor$0@?0??math@VImage@vips@@QEAA?AV12@W4VipsOperationMath@@PEAVVOption@2@@Z@4HA 0000000180038ae0     VImage.obj
 0002:0000dae0       $unwind$?dtor$0@?0??worley@VImage@vips@@SA?AV12@HHPEAVVOption@2@@Z@4HA 0000000180038ae0     VImage.obj
 0002:0000dae0       $unwind$?dtor$0@?0??HSV2sRGB@VImage@vips@@QEAA?AV12@PEAVVOption@2@@Z@4HA 0000000180038ae0     VImage.obj
 0002:0000dae0       $unwind$?dtor$1@?0??bandrank@VImage@vips@@SA?AV12@V?$vector@VVImage@vips@@V?$allocator@VVImage@vips@@@std@@@std@@PEAVVOption@2@@Z@4HA 0000000180038ae0     VImage.obj
 0002:0000dae0       $unwind$?dtor$0@?0??jpegload_buffer@VImage@vips@@SA?AV12@PEAU_VipsBlob@@PEAVVOption@2@@Z@4HA 0000000180038ae0     VImage.obj
 0002:0000dae0       $unwind$?dtor$1@?0??join@VImage@vips@@QEAA?AV12@V12@W4VipsDirection@@PEAVVOption@2@@Z@4HA 0000000180038ae0     VImage.obj
 0002:0000dae0       $unwind$?dtor$0@?0??invfft@VImage@vips@@QEAA?AV12@PEAVVOption@2@@Z@4HA 0000000180038ae0     VImage.obj
 0002:0000dae0       $unwind$?dtor$0@?0??round@VImage@vips@@QEAA?AV12@W4VipsOperationRound@@PEAVVOption@2@@Z@4HA 0000000180038ae0     VImage.obj
 0002:0000dae0       $unwind$?dtor$0@?0??fractsurf@VImage@vips@@SA?AV12@HHNPEAVVOption@2@@Z@4HA 0000000180038ae0     VImage.obj
 0002:0000dae0       $unwind$?fin$1@?0??common_exit@@YAXHW4_crt_exit_cleanup_mode@@W4_crt_exit_return_mode@@@Z@4HA 0000000180038ae0     libucrt:exit.obj
 0002:0000dae0       $unwind$?fin$0@?0???$?RV<lambda_b521505b218e5242e90febf6bfebc422>@@AEAV<lambda_6978c1fb23f02e42e1d9e99668cc68aa>@@V<lambda_314360699dd331753a4119843814e9a7>@@@?$__crt_seh_guarded_call@H@@QEAAH$$QEAV<lambda_b521505b218e5242e90febf6bfebc422>@@AEAV<lambda_6978c1fb23f02e42e1d9e99668cc68aa>@@$$QEAV<lambda_314360699dd331753a4119843814e9a7>@@@Z@4HA 0000000180038ae0     libucrt:commit.obj
 0002:0000dae0       $unwind$?filt$0@?0??common_exit@@YAXHW4_crt_exit_cleanup_mode@@W4_crt_exit_return_mode@@@Z@4HA 0000000180038ae0     libucrt:exit.obj
 0002:0000dae0       $unwind$?dtor$1@?0??math2_const@VImage@vips@@QEAA?AV12@W4VipsOperationMath2@@V?$vector@NV?$allocator@N@std@@@std@@PEAVVOption@2@@Z@4HA 0000000180038ae0     VImage.obj
 0002:0000dae0       $unwind$?dtor$0@?0??fwfft@VImage@vips@@QEAA?AV12@PEAVVOption@2@@Z@4HA 0000000180038ae0     VImage.obj
 0002:0000dae0       $unwind$?dtor$0@?0??radload@VImage@vips@@SA?AV12@PEADPEAVVOption@2@@Z@4HA 0000000180038ae0     VImage.obj
 0002:0000dae0       $unwind$?dtor$0@?0??complex@VImage@vips@@QEAA?AV12@W4VipsOperationComplex@@PEAVVOption@2@@Z@4HA 0000000180038ae0     VImage.obj
 0002:0000dae0       $unwind$?dtor$0@?0??identity@VImage@vips@@SA?AV12@PEAVVOption@2@@Z@4HA 0000000180038ae0     VImage.obj
 0002:0000dae0       $unwind$?dtor$0@?0??bandbool@VImage@vips@@QEAA?AV12@W4VipsOperationBoolean@@PEAVVOption@2@@Z@4HA 0000000180038ae0     VImage.obj
 0002:0000dae0       $unwind$?dtor$1@?0??affine@VImage@vips@@QEAA?AV12@V?$vector@NV?$allocator@N@std@@@std@@PEAVVOption@2@@Z@4HA 0000000180038ae0     VImage.obj
 0002:0000dae0       $unwind$?dtor$0@?0??XYZ2Yxy@VImage@vips@@QEAA?AV12@PEAVVOption@2@@Z@4HA 0000000180038ae0     VImage.obj
 0002:0000dae0       $unwind$?dtor$0@?0??gaussblur@VImage@vips@@QEAA?AV12@NPEAVVOption@2@@Z@4HA 0000000180038ae0     VImage.obj
 0002:0000dae0       $unwind$?dtor$0@?0??reduceh@VImage@vips@@QEAA?AV12@NPEAVVOption@2@@Z@4HA 0000000180038ae0     VImage.obj
 0002:0000dae0       $unwind$?dtor$0@?0??webpload@VImage@vips@@SA?AV12@PEADPEAVVOption@2@@Z@4HA 0000000180038ae0     VImage.obj
 0002:0000dae0       $unwind$?dtor$0@?0??pdfload@VImage@vips@@SA?AV12@PEADPEAVVOption@2@@Z@4HA 0000000180038ae0     VImage.obj
 0002:0000dae0       $unwind$?dtor$0@?0??unpremultiply@VImage@vips@@QEAA?AV12@PEAVVOption@2@@Z@4HA 0000000180038ae0     VImage.obj
 0002:0000dae0       $unwind$?dtor$0@?0??tonelut@VImage@vips@@SA?AV12@PEAVVOption@2@@Z@4HA 0000000180038ae0     VImage.obj
 0002:0000dae0       $unwind$?dtor$0@?0??flip@VImage@vips@@QEAA?AV12@W4VipsDirection@@PEAVVOption@2@@Z@4HA 0000000180038ae0     VImage.obj
 0002:0000dae0       $unwind$?dtor$0@?0??sharpen@VImage@vips@@QEAA?AV12@PEAVVOption@2@@Z@4HA 0000000180038ae0     VImage.obj
 0002:0000dae0       $unwind$__DestructExceptionObject$filt$0 0000000180038ae0     libvcruntime:frame.obj
 0002:0000dae0       $unwind$__acrt_uninitialize_locale$fin$0 0000000180038ae0     libucrt:wsetlocale.obj
 0002:0000dae0       $unwind$?dtor$6@?0??bandjoin@VImage@vips@@QEAA?AV12@V12@PEAVVOption@2@@Z@4HA 0000000180038ae0     VImage.obj
 0002:0000dae0       $unwind$?dtor$0@?0??abs@VImage@vips@@QEAA?AV12@PEAVVOption@2@@Z@4HA 0000000180038ae0     VImage.obj
 0002:0000dae0       $unwind$?dtor$0@?0??invertlut@VImage@vips@@QEAA?AV12@PEAVVOption@2@@Z@4HA 0000000180038ae0     VImage.obj
 0002:0000dae0       $unwind$?dtor$3@?0??bandjoin@VImage@vips@@QEAA?AV12@V12@PEAVVOption@2@@Z@4HA 0000000180038ae0     VImage.obj
 0002:0000dae0       $unwind$?dtor$1@?0??spcor@VImage@vips@@QEAA?AV12@V12@PEAVVOption@2@@Z@4HA 0000000180038ae0     VImage.obj
 0002:0000dae0       $unwind$?dtor$1@?0??bandjoin_const@VImage@vips@@QEAA?AV12@V?$vector@NV?$allocator@N@std@@@std@@PEAVVOption@2@@Z@4HA 0000000180038ae0     VImage.obj
 0002:0000dae0       $unwind$?dtor$0@?0??rot@VImage@vips@@QEAA?AV12@W4VipsAngle@@PEAVVOption@2@@Z@4HA 0000000180038ae0     VImage.obj
 0002:0000dae0       $unwind$?filt$0@?0??__ArrayUnwind@@YAXPEAX_K1P6AX0@Z@Z@4HA 0000000180038ae0     LIBCMT:ehvecdtr.obj
 0002:0000dae0       $unwind$?dtor$0@?0??scRGB2BW@VImage@vips@@QEAA?AV12@PEAVVOption@2@@Z@4HA 0000000180038ae0     VImage.obj
 0002:0000dae0       $unwind$?dtor$0@?0??webpload_buffer@VImage@vips@@SA?AV12@PEAU_VipsBlob@@PEAVVOption@2@@Z@4HA 0000000180038ae0     VImage.obj
 0002:0000dae0       $unwind$?fin$0@?0???$?RV<lambda_e24bbb7b643b32fcea6fa61b31d4c984>@@AEAV<lambda_275893d493268fdec8709772e3fcec0e>@@V<lambda_9d71df4d7cf3f480f8d633942495c3b0>@@@?$__crt_seh_guarded_call@H@@QEAAH$$QEAV<lambda_e24bbb7b643b32fcea6fa61b31d4c984>@@AEAV<lambda_275893d493268fdec8709772e3fcec0e>@@$$QEAV<lambda_9d71df4d7cf3f480f8d633942495c3b0>@@@Z@4HA 0000000180038ae0     libucrt:onexit.obj
 0002:0000dae0       $unwind$?dtor$1@?0??fastcor@VImage@vips@@QEAA?AV12@V12@PEAVVOption@2@@Z@4HA 0000000180038ae0     VImage.obj
 0002:0000dae0       $unwind$?dtor$2@?0??ifthenelse@VImage@vips@@QEAA?AV12@V12@0PEAVVOption@2@@Z@4HA 0000000180038ae0     VImage.obj
 0002:0000dae0       $unwind$?fin$0@?0???$?RV<lambda_b8c45f8f788dd370798f47cfe8ac3a86>@@AEAV<lambda_4e60a939b0d047cfe11ddc22648dfba9>@@V<lambda_332c3edc96d0294ec56c57d38c1cdfd5>@@@?$__crt_seh_guarded_call@H@@QEAAH$$QEAV<lambda_b8c45f8f788dd370798f47cfe8ac3a86>@@AEAV<lambda_4e60a939b0d047cfe11ddc22648dfba9>@@$$QEAV<lambda_332c3edc96d0294ec56c57d38c1cdfd5>@@@Z@4HA 0000000180038ae0     libucrt:onexit.obj
 0002:0000dae0       $unwind$?dtor$1@?0??morph@VImage@vips@@QEAA?AV12@V12@W4VipsOperationMorphology@@PEAVVOption@2@@Z@4HA 0000000180038ae0     VImage.obj
 0002:0000dae0       $unwind$?dtor$0@?0??LabQ2LabS@VImage@vips@@QEAA?AV12@PEAVVOption@2@@Z@4HA 0000000180038ae0     VImage.obj
 0002:0000dae0       $unwind$?dtor$0@?0??buildlut@VImage@vips@@QEAA?AV12@PEAVVOption@2@@Z@4HA 0000000180038ae0     VImage.obj
 0002:0000dae0       $unwind$_fcloseall$fin$0   0000000180038ae0     libucrt:closeall.obj
 0002:0000dae0       $unwind$?dtor$1@?0??convasep@VImage@vips@@QEAA?AV12@V12@PEAVVOption@2@@Z@4HA 0000000180038ae0     VImage.obj
 0002:0000dae0       $unwind$?dtor$0@?0??hough_line@VImage@vips@@QEAA?AV12@PEAVVOption@2@@Z@4HA 0000000180038ae0     VImage.obj
 0002:0000dae0       $unwind$?dtor$0@?0??rank@VImage@vips@@QEAA?AV12@HHHPEAVVOption@2@@Z@4HA 0000000180038ae0     VImage.obj
 0002:0000dae0       $unwind$?dtor$1@?0??arrayjoin@VImage@vips@@SA?AV12@V?$vector@VVImage@vips@@V?$allocator@VVImage@vips@@@std@@@std@@PEAVVOption@2@@Z@4HA 0000000180038ae0     VImage.obj
 0002:0000dae0       $unwind$fclose$fin$0       0000000180038ae0     libucrt:fclose.obj
 0002:0000dae0       $unwind$?dtor$0@?0??mask_fractal@VImage@vips@@SA?AV12@HHNPEAVVOption@2@@Z@4HA 0000000180038ae0     VImage.obj
 0002:0000dae0       $unwind$common_flush_all$fin$1 0000000180038ae0     libucrt:fflush.obj
 0002:0000dae0       $unwind$?dtor$1@?0??convsep@VImage@vips@@QEAA?AV12@V12@PEAVVOption@2@@Z@4HA 0000000180038ae0     VImage.obj
 0002:0000dae0       $unwind$__FrameUnwindToState$fin$1 0000000180038ae0     libvcruntime:frame.obj
 0002:0000dae0       $unwind$?dtor$0@?0??tiffload@VImage@vips@@SA?AV12@PEADPEAVVOption@2@@Z@4HA 0000000180038ae0     VImage.obj
 0002:0000dae0       $unwind$?dtor$0@?0??reducev@VImage@vips@@QEAA?AV12@NPEAVVOption@2@@Z@4HA 0000000180038ae0     VImage.obj
 0002:0000dae0       $unwind$common_flush_all$fin$0 0000000180038ae0     libucrt:fflush.obj
 0002:0000dae0       $unwind$?dtor$0@?0??mask_gaussian_band@VImage@vips@@SA?AV12@HHNNNNPEAVVOption@2@@Z@4HA 0000000180038ae0     VImage.obj
 0002:0000dae0       $unwind$__FrameUnwindToState$filt$0 0000000180038ae0     libvcruntime:frame.obj
 0002:0000dae0       $unwind$?dtor$1@?0??compass@VImage@vips@@QEAA?AV12@V12@PEAVVOption@2@@Z@4HA 0000000180038ae0     VImage.obj
 0002:0000dae0       $unwind$?dtor$0@?0??mask_gaussian_ring@VImage@vips@@SA?AV12@HHNNNPEAVVOption@2@@Z@4HA 0000000180038ae0     VImage.obj
 0002:0000dae0       $unwind$?dtor$0@?0??cache@VImage@vips@@QEAA?AV12@PEAVVOption@2@@Z@4HA 0000000180038ae0     VImage.obj
 0002:0000dae0       $unwind$?dtor$0@?0??mask_gaussian@VImage@vips@@SA?AV12@HHNNPEAVVOption@2@@Z@4HA 0000000180038ae0     VImage.obj
 0002:0000dae0       $unwind$?dtor$0@?0??gifload@VImage@vips@@SA?AV12@PEADPEAVVOption@2@@Z@4HA 0000000180038ae0     VImage.obj
 0002:0000dae0       $unwind$?dtor$0@?0??tiffload_buffer@VImage@vips@@SA?AV12@PEAU_VipsBlob@@PEAVVOption@2@@Z@4HA 0000000180038ae0     VImage.obj
 0002:0000dae0       $unwind$?dtor$0@?0??CMC2LCh@VImage@vips@@QEAA?AV12@PEAVVOption@2@@Z@4HA 0000000180038ae0     VImage.obj
 0002:0000dae0       $unwind$?dtor$1@?0??convi@VImage@vips@@QEAA?AV12@V12@PEAVVOption@2@@Z@4HA 0000000180038ae0     VImage.obj
 0002:0000dae0       $unwind$?dtor$0@?0??mask_butterworth_band@VImage@vips@@SA?AV12@HHNNNNNPEAVVOption@2@@Z@4HA 0000000180038ae0     VImage.obj
 0002:0000dae0       $unwind$?dtor$0@?0??hough_circle@VImage@vips@@QEAA?AV12@PEAVVOption@2@@Z@4HA 0000000180038ae0     VImage.obj
 0002:0000dae0       $unwind$__CxxCallCatchBlock$filt$0 0000000180038ae0     libvcruntime:frame.obj
 0002:0000dae0       $unwind$?dtor$0@?0??colourspace@VImage@vips@@QEAA?AV12@W4VipsInterpretation@@PEAVVOption@2@@Z@4HA 0000000180038ae0     VImage.obj
 0002:0000dae0       $unwind$?dtor$0@?0??mask_butterworth_ring@VImage@vips@@SA?AV12@HHNNNNPEAVVOption@2@@Z@4HA 0000000180038ae0     VImage.obj
 0002:0000dae0       $unwind$?dtor$0@?0??invert@VImage@vips@@QEAA?AV12@PEAVVOption@2@@Z@4HA 0000000180038ae0     VImage.obj
 0002:0000dae0       $unwind$?dtor$1@?0??convf@VImage@vips@@QEAA?AV12@V12@PEAVVOption@2@@Z@4HA 0000000180038ae0     VImage.obj
 0002:0000dae0       $unwind$?dtor$0@?0??openslideload@VImage@vips@@SA?AV12@PEADPEAVVOption@2@@Z@4HA 0000000180038ae0     VImage.obj
 0002:0000dae0       $unwind$?dtor$0@?0??sequential@VImage@vips@@QEAA?AV12@PEAVVOption@2@@Z@4HA 0000000180038ae0     VImage.obj
 0002:0000dae0       $unwind$?dtor$0@?0??mask_butterworth@VImage@vips@@SA?AV12@HHNNNPEAVVOption@2@@Z@4HA 0000000180038ae0     VImage.obj
 0002:0000dae0       $unwind$?dtor$1@?0??bandjoin@VImage@vips@@SA?AV12@V?$vector@VVImage@vips@@V?$allocator@VVImage@vips@@@std@@@std@@PEAVVOption@2@@Z@4HA 0000000180038ae0     VImage.obj
 0002:0000dae0       $unwind$?dtor$0@?0??LabS2LabQ@VImage@vips@@QEAA?AV12@PEAVVOption@2@@Z@4HA 0000000180038ae0     VImage.obj
 0002:0000dae0       $unwind$?dtor$1@?0??quadratic@VImage@vips@@QEAA?AV12@V12@PEAVVOption@2@@Z@4HA 0000000180038ae0     VImage.obj
 0002:0000dae0       $unwind$?dtor$1@?0??conva@VImage@vips@@QEAA?AV12@V12@PEAVVOption@2@@Z@4HA 0000000180038ae0     VImage.obj
 0002:0000dae0       $unwind$?dtor$0@?0??mask_ideal_band@VImage@vips@@SA?AV12@HHNNNPEAVVOption@2@@Z@4HA 0000000180038ae0     VImage.obj
 0002:0000dae0       $unwind$?dtor$0@?0??extract_area@VImage@vips@@QEAA?AV12@HHHHPEAVVOption@2@@Z@4HA 0000000180038ae0     VImage.obj
 0002:0000dae0       $unwind$?dtor$0@?0??mask_ideal_ring@VImage@vips@@SA?AV12@HHNNPEAVVOption@2@@Z@4HA 0000000180038ae0     VImage.obj
 0002:0000dae0       $unwind$?dtor$0@?0??project@VImage@vips@@QEAA?AV12@PEAV12@PEAVVOption@2@@Z@4HA 0000000180038ae0     VImage.obj
 0002:0000dae0       $unwind$?dtor$0@?0??magickload@VImage@vips@@SA?AV12@PEADPEAVVOption@2@@Z@4HA 0000000180038ae0     VImage.obj
 0002:0000dae0       $unwind$?dtor$0@?0??LCh2CMC@VImage@vips@@QEAA?AV12@PEAVVOption@2@@Z@4HA 0000000180038ae0     VImage.obj
 0002:0000dae0       $unwind$?dtor$1@?0??conv@VImage@vips@@QEAA?AV12@V12@PEAVVOption@2@@Z@4HA 0000000180038ae0     VImage.obj
 0002:0000dae0       $unwind$?dtor$0@?0??mask_ideal@VImage@vips@@SA?AV12@HHNPEAVVOption@2@@Z@4HA 0000000180038ae0     VImage.obj
 0002:0000dae0       $unwind$?dtor$1@?0??remainder@VImage@vips@@QEAA?AV12@V12@PEAVVOption@2@@Z@4HA 0000000180038ae0     VImage.obj
 0002:0000dae0       $unwind$?dtor$1@?0??math2@VImage@vips@@QEAA?AV12@V12@W4VipsOperationMath2@@PEAVVOption@2@@Z@4HA 0000000180038ae0     VImage.obj
 0002:0000dae0       $unwind$?dtor$0@?0??LabS2Lab@VImage@vips@@QEAA?AV12@PEAVVOption@2@@Z@4HA 0000000180038ae0     VImage.obj
 0002:0000dae0       $unwind$?dtor$0@?0??sines@VImage@vips@@SA?AV12@HHPEAVVOption@2@@Z@4HA 0000000180038ae0     VImage.obj
 0002:0000dae0       $unwind$?dtor$0@?0??profile@VImage@vips@@QEAA?AV12@PEAV12@PEAVVOption@2@@Z@4HA 0000000180038ae0     VImage.obj
 0002:0000dae0       $unwind$?dtor$1@?0??sum@VImage@vips@@SA?AV12@V?$vector@VVImage@vips@@V?$allocator@VVImage@vips@@@std@@@std@@PEAVVOption@2@@Z@4HA 0000000180038ae0     VImage.obj
 0002:0000dae0       $unwind$_IsNonwritableInCurrentImage$filt$0 0000000180038ae0     LIBCMT:pesect.obj
 0002:0000dae0       $unwind$?dtor$0@?0??magickload_buffer@VImage@vips@@SA?AV12@PEAU_VipsBlob@@PEAVVOption@2@@Z@4HA 0000000180038ae0     VImage.obj
 0002:0000dae0       $unwind$?dtor$0@?0??zone@VImage@vips@@SA?AV12@HHPEAVVOption@2@@Z@4HA 0000000180038ae0     VImage.obj
 0002:0000dae0       $unwind$?dtor$0@?0??hist_local@VImage@vips@@QEAA?AV12@HHPEAVVOption@2@@Z@4HA 0000000180038ae0     VImage.obj
 0002:0000dae0       $unwind$?dtor$0@?0??linecache@VImage@vips@@QEAA?AV12@PEAVVOption@2@@Z@4HA 0000000180038ae0     VImage.obj
 0002:0000dae0       $unwind$?dtor$0@?0??LCh2Lab@VImage@vips@@QEAA?AV12@PEAVVOption@2@@Z@4HA 0000000180038ae0     VImage.obj
 0002:0000dae0       $unwind$?dtor$0@?0??grey@VImage@vips@@SA?AV12@HHPEAVVOption@2@@Z@4HA 0000000180038ae0     VImage.obj
 0002:0000dae0       $unwind$?fin$0@?0???$?RV<lambda_72d1df2b273a38828b1ce30cbf4cdab5>@@AEAV<lambda_876a65b173b8412d3a47c70a915b0cf4>@@V<lambda_41932305e351933ebe8f8be3ed8bb5dc>@@@?$__crt_seh_guarded_call@X@@QEAAX$$QEAV<lambda_72d1df2b273a38828b1ce30cbf4cdab5>@@AEAV<lambda_876a65b173b8412d3a47c70a915b0cf4>@@$$QEAV<lambda_41932305e351933ebe8f8be3ed8bb5dc>@@@Z@4HA 0000000180038ae0     libucrt:per_thread_data.obj
 0002:0000dae0       $unwind$?dtor$0@?0??pngload@VImage@vips@@SA?AV12@PEADPEAVVOption@2@@Z@4HA 0000000180038ae0     VImage.obj
 0002:0000dae0       $unwind$?dtor$0@?0??eye@VImage@vips@@SA?AV12@HHPEAVVOption@2@@Z@4HA 0000000180038ae0     VImage.obj
 0002:0000dae0       $unwind$?dtor$0@?0??hist_plot@VImage@vips@@QEAA?AV12@PEAVVOption@2@@Z@4HA 0000000180038ae0     VImage.obj
 0002:0000dae0       $unwind$?dtor$0@?0??fitsload@VImage@vips@@SA?AV12@PEADPEAVVOption@2@@Z@4HA 0000000180038ae0     VImage.obj
 0002:0000dae0       $unwind$?dtor$0@?0??float2rad@VImage@vips@@QEAA?AV12@PEAVVOption@2@@Z@4HA 0000000180038ae0     VImage.obj
 0002:0000dae0       $unwind$?dtor$0@?0??smartcrop@VImage@vips@@QEAA?AV12@HHPEAVVOption@2@@Z@4HA 0000000180038ae0     VImage.obj
 0002:0000dae0       $unwind$?dtor$0@?0??measure@VImage@vips@@QEAA?AV12@HHPEAVVOption@2@@Z@4HA 0000000180038ae0     VImage.obj
 0002:0000dae0       $unwind$?dtor$0@?0??logmat@VImage@vips@@SA?AV12@NNPEAVVOption@2@@Z@4HA 0000000180038ae0     VImage.obj
 0002:0000dae0       $unwind$_ctrlfp$filt$0     0000000180038ae0     libucrt:fpctrl.obj
 0002:0000dae0       $unwind$?dtor$0@?0??hist_equal@VImage@vips@@QEAA?AV12@PEAVVOption@2@@Z@4HA 0000000180038ae0     VImage.obj
 0002:0000dae0       $unwind$?dtor$0@?0??reduce@VImage@vips@@QEAA?AV12@NNPEAVVOption@2@@Z@4HA 0000000180038ae0     VImage.obj
 0002:0000dae0       $unwind$?dtor$0@?0??gaussmat@VImage@vips@@SA?AV12@NNPEAVVOption@2@@Z@4HA 0000000180038ae0     VImage.obj
 0002:0000dae0       $unwind$?dtor$0@?0??svgload_buffer@VImage@vips@@SA?AV12@PEAU_VipsBlob@@PEAVVOption@2@@Z@4HA 0000000180038ae0     VImage.obj
 0002:0000dae0       $unwind$?fin$0@?0???$?RV<lambda_5e887d1dcbef67a5eb4283622ba103bf>@@AEAV<lambda_4466841279450cc726390878d4a41900>@@V<lambda_341c25c0346d94847f1f3c463c57e077>@@@?$__crt_seh_guarded_call@X@@QEAAX$$QEAV<lambda_5e887d1dcbef67a5eb4283622ba103bf>@@AEAV<lambda_4466841279450cc726390878d4a41900>@@$$QEAV<lambda_341c25c0346d94847f1f3c463c57e077>@@@Z@4HA 0000000180038ae0     libucrt:per_thread_data.obj
 0002:0000dae0       $unwind$?dtor$0@?0??openexrload@VImage@vips@@SA?AV12@PEADPEAVVOption@2@@Z@4HA 0000000180038ae0     VImage.obj
 0002:0000dae0       $unwind$?dtor$0@?0??xyz@VImage@vips@@SA?AV12@HHPEAVVOption@2@@Z@4HA 0000000180038ae0     VImage.obj
 0002:0000dae0       $unwind$?dtor$0@?0??hist_norm@VImage@vips@@QEAA?AV12@PEAVVOption@2@@Z@4HA 0000000180038ae0     VImage.obj
 0002:0000dae0       $unwind$?dtor$0@?0??sRGB2HSV@VImage@vips@@QEAA?AV12@PEAVVOption@2@@Z@4HA 0000000180038ae0     VImage.obj
 0002:0000dae0       $unwind$?dtor$0@?0??text@VImage@vips@@SA?AV12@PEADPEAVVOption@2@@Z@4HA 0000000180038ae0     VImage.obj
 0002:0000dae0       $unwind$?dtor$0@?0??Lab2XYZ@VImage@vips@@QEAA?AV12@PEAVVOption@2@@Z@4HA 0000000180038ae0     VImage.obj
 0002:0000dae0       $unwind$?dtor$0@?0??pdfload_buffer@VImage@vips@@SA?AV12@PEAU_VipsBlob@@PEAVVOption@2@@Z@4HA 0000000180038ae0     VImage.obj
 0002:0000dae0       $unwind$?dtor$0@?0??gaussnoise@VImage@vips@@SA?AV12@HHPEAVVOption@2@@Z@4HA 0000000180038ae0     VImage.obj
 0002:0000dae0       $unwind$?dtor$0@?0??grid@VImage@vips@@QEAA?AV12@HHHPEAVVOption@2@@Z@4HA 0000000180038ae0     VImage.obj
 0002:0000dae0       $unwind$?dtor$1@?0??hist_match@VImage@vips@@QEAA?AV12@V12@PEAVVOption@2@@Z@4HA 0000000180038ae0     VImage.obj
 0002:0000dae0       $unwind$?dtor$0@?0??black@VImage@vips@@SA?AV12@HHPEAVVOption@2@@Z@4HA 0000000180038ae0     VImage.obj
 0002:0000dae0       $unwind$?dtor$0@?0??Lab2LCh@VImage@vips@@QEAA?AV12@PEAVVOption@2@@Z@4HA 0000000180038ae0     VImage.obj
 0002:0000dae0       $unwind$?dtor$0@?0??gamma@VImage@vips@@QEAA?AV12@PEAVVOption@2@@Z@4HA 0000000180038ae0     VImage.obj
 0002:0000dae0       $unwind$?fin$0@?0???$?RV<lambda_46352004c1216016012b18bd6f87e700>@@AEAV<lambda_3bd07e1a1191394380780325891bf33f>@@V<lambda_334532d3f185bcaa59b5be82d7d22bff>@@@?$__crt_seh_guarded_call@X@@QEAAX$$QEAV<lambda_46352004c1216016012b18bd6f87e700>@@AEAV<lambda_3bd07e1a1191394380780325891bf33f>@@$$QEAV<lambda_334532d3f185bcaa59b5be82d7d22bff>@@@Z@4HA 0000000180038ae0     libucrt:per_thread_data.obj
 0002:0000dae0       $unwind$?fin$0@?0??dllmain_crt_process_detach@@YAH_N@Z@4HA 0000000180038ae0     LIBCMT:dll_dllmain.obj
 0002:0000dae0       $unwind$?dtor$0@?0??getpoint@VImage@vips@@QEAA?AV?$vector@NV?$allocator@N@std@@@std@@HHPEAVVOption@2@@Z@4HA 0000000180038ae0     VImage.obj
 0002:0000dae0       $unwind$?dtor$0@?0??hist_cum@VImage@vips@@QEAA?AV12@PEAVVOption@2@@Z@4HA 0000000180038ae0     VImage.obj
 0002:0000dae0       $unwind$?dtor$0@?0??falsecolour@VImage@vips@@QEAA?AV12@PEAVVOption@2@@Z@4HA 0000000180038ae0     VImage.obj
 0002:0000dae0       $unwind$?dtor$0@?0??new_from_file@VImage@vips@@SA?AV12@PEBDPEAVVOption@2@@Z@4HA 0000000180038ae0     VImage.obj
 0002:0000dae0       $unwind$?fin$0@?0??dllmain_crt_process_attach@@YAHQEAUHINSTANCE__@@QEAX@Z@4HA 0000000180038ae0     LIBCMT:dll_dllmain.obj
 0002:0000dae0       $unwind$?dtor$1@?0??complex2@VImage@vips@@QEAA?AV12@V12@W4VipsOperationComplex2@@PEAVVOption@2@@Z@4HA 0000000180038ae0     VImage.obj
 0002:0000dae0       $unwind$?dtor$0@?0??byteswap@VImage@vips@@QEAA?AV12@PEAVVOption@2@@Z@4HA 0000000180038ae0     VImage.obj
 0002:0000dae0       $unwind$?dtor$0@?0??gifload_buffer@VImage@vips@@SA?AV12@PEAU_VipsBlob@@PEAVVOption@2@@Z@4HA 0000000180038ae0     VImage.obj
 0002:0000dae0       $unwind$?dtor$0@?0??stdif@VImage@vips@@QEAA?AV12@HHPEAVVOption@2@@Z@4HA 0000000180038ae0     VImage.obj
 0002:0000dae0       $unwind$?dtor$0@?0??copy@VImage@vips@@QEAA?AV12@PEAVVOption@2@@Z@4HA 0000000180038ae0     VImage.obj
 0002:0000dae0       $unwind$?dtor$0@?0??msb@VImage@vips@@QEAA?AV12@PEAVVOption@2@@Z@4HA 0000000180038ae0     VImage.obj
 0002:0000dae0       $unwind$?dtor$0@?0??new_from_buffer@VImage@vips@@SA?AV12@PEAX_KPEBDPEAVVOption@2@@Z@4HA 0000000180038ae0     VImage.obj
 0002:0000dae0       $unwind$?dtor$0@?0??scale@VImage@vips@@QEAA?AV12@PEAVVOption@2@@Z@4HA 0000000180038ae0     VImage.obj
 0002:0000dae0       $unwind$?dtor$0@?0??subsample@VImage@vips@@QEAA?AV12@HHPEAVVOption@2@@Z@4HA 0000000180038ae0     VImage.obj
 0002:0000dae0       $unwind$?fin$0@?0???$?RV<lambda_fb3a7dec4e47f37f22dae91bb15c9095>@@AEAV<lambda_698284760c8add0bfb0756c19673e34b>@@V<lambda_dfb8eca1e75fef3034a8fb18dd509707>@@@?$__crt_seh_guarded_call@X@@QEAAX$$QEAV<lambda_fb3a7dec4e47f37f22dae91bb15c9095>@@AEAV<lambda_698284760c8add0bfb0756c19673e34b>@@$$QEAV<lambda_dfb8eca1e75fef3034a8fb18dd509707>@@@Z@4HA 0000000180038ae0     libucrt:per_thread_data.obj
 0002:0000dae0       $unwind$?dtor$0@?0??Lab2LabS@VImage@vips@@QEAA?AV12@PEAVVOption@2@@Z@4HA 0000000180038ae0     VImage.obj
 0002:0000dae0       $unwind$?dtor$0@?0??tilecache@VImage@vips@@QEAA?AV12@PEAVVOption@2@@Z@4HA 0000000180038ae0     VImage.obj
 0002:0000dae0       $unwind$?dtor$1@?0??maplut@VImage@vips@@QEAA?AV12@V12@PEAVVOption@2@@Z@4HA 0000000180038ae0     VImage.obj
 0002:0000dae0       $unwind$?dtor$0@?0??zoom@VImage@vips@@QEAA?AV12@HHPEAVVOption@2@@Z@4HA 0000000180038ae0     VImage.obj
 0002:0000dae0       $unwind$?dtor$0@?0??option@VImage@vips@@SAPEAVVOption@2@XZ@4HA 0000000180038ae0     VError.obj
 0002:0000dae0       $unwind$?dtor$0@?0??XYZ2Lab@VImage@vips@@QEAA?AV12@PEAVVOption@2@@Z@4HA 0000000180038ae0     VImage.obj
 0002:0000dae0       $unwind$?dtor$0@?0??ppmload@VImage@vips@@SA?AV12@PEADPEAVVOption@2@@Z@4HA 0000000180038ae0     VImage.obj
 0002:0000dae0       $unwind$?dtor$0@?0??wrap@VImage@vips@@QEAA?AV12@PEAVVOption@2@@Z@4HA 0000000180038ae0     VImage.obj
 0002:0000dae0       $unwind$?dtor$0@?0??scRGB2sRGB@VImage@vips@@QEAA?AV12@PEAVVOption@2@@Z@4HA 0000000180038ae0     VImage.obj
 0002:0000dae8       $unwind$?new_temp_file@VImage@vips@@SA?AV12@PEBD@Z 0000000180038ae8     VError.obj
 0002:0000db08       $ip2state$?new_temp_file@VImage@vips@@SA?AV12@PEBD@Z 0000000180038b08     VError.obj
 0002:0000db20       $unwind$?new_from_memory@VImage@vips@@SA?AV12@PEAX_KHHHW4VipsBandFormat@@@Z 0000000180038b20     VError.obj
 0002:0000db40       $ip2state$?new_from_memory@VImage@vips@@SA?AV12@PEAX_KHHHW4VipsBandFormat@@@Z 0000000180038b40     VError.obj
 0002:0000db58       $unwind$?new_matrix@VImage@vips@@SA?AV12@HHPEANH@Z 0000000180038b58     VError.obj
 0002:0000db70       $ip2state$?new_matrix@VImage@vips@@SA?AV12@HHPEANH@Z 0000000180038b70     VError.obj
 0002:0000db88       $unwind$?write_to_memory@VImage@vips@@QEAAPEAXPEA_K@Z 0000000180038b88     VError.obj
 0002:0000dba0       $stateUnwindMap$?write_to_memory@VImage@vips@@QEAAPEAXPEA_K@Z 0000000180038ba0     VError.obj
 0002:0000dba8       $ip2state$?write_to_memory@VImage@vips@@QEAAPEAXPEA_K@Z 0000000180038ba8     VError.obj
 0002:0000dbc0       $unwind$?linear@VImage@vips@@QEAA?AV12@NNPEAVVOption@2@@Z 0000000180038bc0     VError.obj
 0002:0000dbe0       $stateUnwindMap$?linear@VImage@vips@@QEAA?AV12@NNPEAVVOption@2@@Z 0000000180038be0     VError.obj
 0002:0000dbe0       $stateUnwindMap$?ifthenelse@VImage@vips@@QEAA?AV12@NNPEAVVOption@2@@Z 0000000180038be0     VError.obj
 0002:0000dbe8       $ip2state$?linear@VImage@vips@@QEAA?AV12@NNPEAVVOption@2@@Z 0000000180038be8     VError.obj
 0002:0000dc00       $unwind$?linear@VImage@vips@@QEAA?AV12@V?$vector@NV?$allocator@N@std@@@std@@NPEAVVOption@2@@Z 0000000180038c00     VError.obj
 0002:0000dc1c       $stateUnwindMap$?linear@VImage@vips@@QEAA?AV12@V?$vector@NV?$allocator@N@std@@@std@@NPEAVVOption@2@@Z 0000000180038c1c     VError.obj
 0002:0000dc30       $ip2state$?linear@VImage@vips@@QEAA?AV12@V?$vector@NV?$allocator@N@std@@@std@@NPEAVVOption@2@@Z 0000000180038c30     VError.obj
 0002:0000dc58       $unwind$?linear@VImage@vips@@QEAA?AV12@NV?$vector@NV?$allocator@N@std@@@std@@PEAVVOption@2@@Z 0000000180038c58     VError.obj
 0002:0000dc7c       $stateUnwindMap$?linear@VImage@vips@@QEAA?AV12@NV?$vector@NV?$allocator@N@std@@@std@@PEAVVOption@2@@Z 0000000180038c7c     VError.obj
 0002:0000dc90       $ip2state$?linear@VImage@vips@@QEAA?AV12@NV?$vector@NV?$allocator@N@std@@@std@@PEAVVOption@2@@Z 0000000180038c90     VError.obj
 0002:0000dcb8       $unwind$?bandjoin@VImage@vips@@QEAA?AV12@NPEAVVOption@2@@Z 0000000180038cb8     VError.obj
 0002:0000dcc8       $unwind$?bandjoin@VImage@vips@@QEAA?AV12@V?$vector@NV?$allocator@N@std@@@std@@PEAVVOption@2@@Z 0000000180038cc8     VError.obj
 0002:0000dce4       $stateUnwindMap$?bandjoin@VImage@vips@@QEAA?AV12@V?$vector@NV?$allocator@N@std@@@std@@PEAVVOption@2@@Z 0000000180038ce4     VError.obj
 0002:0000dcf0       $ip2state$?bandjoin@VImage@vips@@QEAA?AV12@V?$vector@NV?$allocator@N@std@@@std@@PEAVVOption@2@@Z 0000000180038cf0     VError.obj
 0002:0000dd08       $unwind$?dilate@VImage@vips@@QEAA?AV12@V12@PEAVVOption@2@@Z 0000000180038d08     VError.obj
 0002:0000dd20       $stateUnwindMap$?dilate@VImage@vips@@QEAA?AV12@V12@PEAVVOption@2@@Z 0000000180038d20     VError.obj
 0002:0000dd20       $stateUnwindMap$?wop@VImage@vips@@QEAA?AV12@V12@PEAVVOption@2@@Z 0000000180038d20     VError.obj
 0002:0000dd20       $stateUnwindMap$?erode@VImage@vips@@QEAA?AV12@V12@PEAVVOption@2@@Z 0000000180038d20     VError.obj
 0002:0000dd20       $stateUnwindMap$?pow@VImage@vips@@QEAA?AV12@V12@PEAVVOption@2@@Z 0000000180038d20     VError.obj
 0002:0000dd28       $ip2state$?dilate@VImage@vips@@QEAA?AV12@V12@PEAVVOption@2@@Z 0000000180038d28     VError.obj
 0002:0000dd40       $unwind$?erode@VImage@vips@@QEAA?AV12@V12@PEAVVOption@2@@Z 0000000180038d40     VError.obj
 0002:0000dd58       $ip2state$?erode@VImage@vips@@QEAA?AV12@V12@PEAVVOption@2@@Z 0000000180038d58     VError.obj
 0002:0000dd70       $unwind$??RVImage@vips@@QEAA?AV?$vector@NV?$allocator@N@std@@@std@@HH@Z 0000000180038d70     VImage.obj
 0002:0000dd70       $unwind$_isleadbyte_l      0000000180038d70     libucrt:_wctype.obj
 0002:0000dd70       $unwind$?getSystemCP@@YAHH@Z 0000000180038d70     libucrt:mbctype.obj
 0002:0000dd70       $unwind$?median@VImage@vips@@QEAA?AV12@HPEAVVOption@2@@Z 0000000180038d70     VError.obj
 0002:0000dd78       $unwind$?pow@VImage@vips@@QEAA?AV12@V12@PEAVVOption@2@@Z 0000000180038d78     VError.obj
 0002:0000dd90       $ip2state$?pow@VImage@vips@@QEAA?AV12@V12@PEAVVOption@2@@Z 0000000180038d90     VError.obj
 0002:0000dda8       $unwind$?pow@VImage@vips@@QEAA?AV12@NPEAVVOption@2@@Z 0000000180038da8     VError.obj
 0002:0000dda8       $unwind$?wop@VImage@vips@@QEAA?AV12@NPEAVVOption@2@@Z 0000000180038da8     VError.obj
 0002:0000ddb8       $unwind$?pow@VImage@vips@@QEAA?AV12@V?$vector@NV?$allocator@N@std@@@std@@PEAVVOption@2@@Z 0000000180038db8     VError.obj
 0002:0000ddd4       $stateUnwindMap$?pow@VImage@vips@@QEAA?AV12@V?$vector@NV?$allocator@N@std@@@std@@PEAVVOption@2@@Z 0000000180038dd4     VError.obj
 0002:0000ddd4       $stateUnwindMap$?wop@VImage@vips@@QEAA?AV12@V?$vector@NV?$allocator@N@std@@@std@@PEAVVOption@2@@Z 0000000180038dd4     VError.obj
 0002:0000dde0       $ip2state$?pow@VImage@vips@@QEAA?AV12@V?$vector@NV?$allocator@N@std@@@std@@PEAVVOption@2@@Z 0000000180038de0     VError.obj
 0002:0000ddf8       $unwind$?wop@VImage@vips@@QEAA?AV12@V12@PEAVVOption@2@@Z 0000000180038df8     VError.obj
 0002:0000de10       $ip2state$?wop@VImage@vips@@QEAA?AV12@V12@PEAVVOption@2@@Z 0000000180038e10     VError.obj
 0002:0000de28       $unwind$?wop@VImage@vips@@QEAA?AV12@V?$vector@NV?$allocator@N@std@@@std@@PEAVVOption@2@@Z 0000000180038e28     VError.obj
 0002:0000de48       $ip2state$?wop@VImage@vips@@QEAA?AV12@V?$vector@NV?$allocator@N@std@@@std@@PEAVVOption@2@@Z 0000000180038e48     VError.obj
 0002:0000de60       $unwind$?ifthenelse@VImage@vips@@QEAA?AV12@V?$vector@NV?$allocator@N@std@@@std@@V12@PEAVVOption@2@@Z 0000000180038e60     VError.obj
 0002:0000de78       $stateUnwindMap$?ifthenelse@VImage@vips@@QEAA?AV12@V?$vector@NV?$allocator@N@std@@@std@@V12@PEAVVOption@2@@Z 0000000180038e78     VError.obj
 0002:0000de90       $ip2state$?ifthenelse@VImage@vips@@QEAA?AV12@V?$vector@NV?$allocator@N@std@@@std@@V12@PEAVVOption@2@@Z 0000000180038e90     VError.obj
 0002:0000dec0       $unwind$?ifthenelse@VImage@vips@@QEAA?AV12@V12@V?$vector@NV?$allocator@N@std@@@std@@PEAVVOption@2@@Z 0000000180038ec0     VError.obj
 0002:0000dedc       $stateUnwindMap$?ifthenelse@VImage@vips@@QEAA?AV12@V12@V?$vector@NV?$allocator@N@std@@@std@@PEAVVOption@2@@Z 0000000180038edc     VError.obj
 0002:0000def0       $ip2state$?ifthenelse@VImage@vips@@QEAA?AV12@V12@V?$vector@NV?$allocator@N@std@@@std@@PEAVVOption@2@@Z 0000000180038ef0     VError.obj
 0002:0000df10       $unwind$?ifthenelse@VImage@vips@@QEAA?AV12@V?$vector@NV?$allocator@N@std@@@std@@0PEAVVOption@2@@Z 0000000180038f10     VError.obj
 0002:0000df2c       $stateUnwindMap$?ifthenelse@VImage@vips@@QEAA?AV12@V?$vector@NV?$allocator@N@std@@@std@@0PEAVVOption@2@@Z 0000000180038f2c     VError.obj
 0002:0000df48       $ip2state$?ifthenelse@VImage@vips@@QEAA?AV12@V?$vector@NV?$allocator@N@std@@@std@@0PEAVVOption@2@@Z 0000000180038f48     VError.obj
 0002:0000df78       $unwind$?ifthenelse@VImage@vips@@QEAA?AV12@NV12@PEAVVOption@2@@Z 0000000180038f78     VError.obj
 0002:0000df94       $stateUnwindMap$?ifthenelse@VImage@vips@@QEAA?AV12@NV12@PEAVVOption@2@@Z 0000000180038f94     VError.obj
 0002:0000dfa8       $ip2state$?ifthenelse@VImage@vips@@QEAA?AV12@NV12@PEAVVOption@2@@Z 0000000180038fa8     VError.obj
 0002:0000dfd0       $unwind$?ifthenelse@VImage@vips@@QEAA?AV12@V12@NPEAVVOption@2@@Z 0000000180038fd0     VError.obj
 0002:0000dfe8       $stateUnwindMap$?ifthenelse@VImage@vips@@QEAA?AV12@V12@NPEAVVOption@2@@Z 0000000180038fe8     VError.obj
 0002:0000dff0       $ip2state$?ifthenelse@VImage@vips@@QEAA?AV12@V12@NPEAVVOption@2@@Z 0000000180038ff0     VError.obj
 0002:0000e008       $unwind$?ifthenelse@VImage@vips@@QEAA?AV12@NNPEAVVOption@2@@Z 0000000180039008     VError.obj
 0002:0000e028       $ip2state$?ifthenelse@VImage@vips@@QEAA?AV12@NNPEAVVOption@2@@Z 0000000180039028     VError.obj
 0002:0000e040       $unwind$??0?$list@PEAUPair@VOption@vips@@V?$allocator@PEAUPair@VOption@vips@@@std@@@std@@QEAA@AEBV01@@Z 0000000180039040     VError.obj
 0002:0000e05c       $stateUnwindMap$??0?$list@PEAUPair@VOption@vips@@V?$allocator@PEAUPair@VOption@vips@@@std@@@std@@QEAA@AEBV01@@Z 000000018003905c     VError.obj
 0002:0000e068       $ip2state$??0?$list@PEAUPair@VOption@vips@@V?$allocator@PEAUPair@VOption@vips@@@std@@@std@@QEAA@AEBV01@@Z 0000000180039068     VError.obj
 0002:0000e080       $unwind$??0?$vector@NV?$allocator@N@std@@@std@@QEAA@AEBV01@@Z 0000000180039080     VError.obj
 0002:0000e090       $chain$0$??0?$vector@NV?$allocator@N@std@@@std@@QEAA@AEBV01@@Z 0000000180039090     VError.obj
 0002:0000e0a4       $chain$1$??0?$vector@NV?$allocator@N@std@@@std@@QEAA@AEBV01@@Z 00000001800390a4     VError.obj
 0002:0000e0b4       $unwind$__vcrt_getptd_noexit 00000001800390b4     libvcruntime:per_thread_data.obj
 0002:0000e0b4       $unwind$?free_crt_array_internal@@YAXQEAPEBX_K@Z 00000001800390b4     libucrt:inittime.obj
 0002:0000e0b4       $unwind$__acrt_getptd_noexit 00000001800390b4     libucrt:per_thread_data.obj
 0002:0000e0b4       $unwind$_RTC_Terminate     00000001800390b4     LIBCMT:_initsect_.obj
 0002:0000e0b4       $unwind$__acrt_LocaleNameToLCID 00000001800390b4     libucrt:winapi_thunks.obj
 0002:0000e0b4       $unwind$?assign@?$basic_string@DU?$char_traits@D@std@@V?$allocator@D@2@@std@@QEAAAEAV12@PEBD_K@Z 00000001800390b4     VError.obj
 0002:0000e0b4       $unwind$_DllMainCRTStartup 00000001800390b4     LIBCMT:dll_dllmain.obj
 0002:0000e0b4       $unwind$??$common_lseek_nolock@_J@@YA_JH_JH@Z 00000001800390b4     libucrt:lseek.obj
 0002:0000e0b4       $unwind$??R<lambda_ad1ced32f4ac17aa236e5ef05d6b3b7c>@@QEBAXXZ 00000001800390b4     libucrt:mbctype.obj
 0002:0000e0b4       $unwind$_RTC_Initialize    00000001800390b4     LIBCMT:_initsect_.obj
 0002:0000e0b4       $unwind$?__scrt_initialize_thread_safe_statics@@YAHXZ 00000001800390b4     LIBCMT:thread_safe_statics.obj
 0002:0000e0b4       $unwind$__acrt_FlsSetValue 00000001800390b4     libucrt:winapi_thunks.obj
 0002:0000e0b4       $unwind$_initterm_e        00000001800390b4     libucrt:initterm.obj
 0002:0000e0b4       $unwind$__acrt_stdio_flush_nolock 00000001800390b4     libucrt:fflush.obj
 0002:0000e0b4       $unwind$_exception_enabled 00000001800390b4     libucrt:libm_error.obj
 0002:0000e0b4       $unwind$__acrt_execute_uninitializers 00000001800390b4     libucrt:shared_initialization.obj
 0002:0000e0b4       $unwind$__vcrt_FlsSetValue 00000001800390b4     libvcruntime:winapi_downlevel.obj
 0002:0000e0b4       $unwind$_Init_thread_wait  00000001800390b4     LIBCMT:thread_safe_statics.obj
 0002:0000e0c4       $unwind$_free_osfhnd       00000001800390c4     libucrt:osfinfo.obj
 0002:0000e0c4       $unwind$?assign@?$basic_string@DU?$char_traits@D@std@@V?$allocator@D@2@@std@@QEAAAEAV12@AEBV12@_K1@Z 00000001800390c4     VError.obj
 0002:0000e0c4       $unwind$??$_Insert@AEBQEAUPair@VOption@vips@@@?$list@PEAUPair@VOption@vips@@V?$allocator@PEAUPair@VOption@vips@@@std@@@std@@QEAAXV?$_List_unchecked_const_iterator@V?$_List_val@U?$_List_simple_types@PEAUPair@VOption@vips@@@std@@@std@@U_Iterator_base0@2@@1@AEBQEAUPair@VOption@vips@@@Z 00000001800390c4     VError.obj
 0002:0000e0c4       $unwind$__std_exception_copy 00000001800390c4     libvcruntime:std_exception.obj
 0002:0000e0c4       $unwind$?initialize_stdio_handles_nolock@@YAXXZ 00000001800390c4     libucrt:ioinit.obj
 0002:0000e0d8       $unwind$?append@?$basic_string@DU?$char_traits@D@std@@V?$allocator@D@2@@std@@QEAAAEAV12@PEBD_K@Z 00000001800390d8     VError.obj
 0002:0000e0e8       $chain$0$?append@?$basic_string@DU?$char_traits@D@std@@V?$allocator@D@2@@std@@QEAAAEAV12@PEBD_K@Z 00000001800390e8     VError.obj
 0002:0000e0fc       $chain$1$?append@?$basic_string@DU?$char_traits@D@std@@V?$allocator@D@2@@std@@QEAAAEAV12@PEBD_K@Z 00000001800390fc     VError.obj
 0002:0000e10c       $chain$2$?append@?$basic_string@DU?$char_traits@D@std@@V?$allocator@D@2@@std@@QEAAAEAV12@PEBD_K@Z 000000018003910c     VError.obj
 0002:0000e120       $unwind$?append@?$basic_string@DU?$char_traits@D@std@@V?$allocator@D@2@@std@@QEAAAEAV12@AEBV12@_K1@Z 0000000180039120     VError.obj
 0002:0000e134       $chain$0$?append@?$basic_string@DU?$char_traits@D@std@@V?$allocator@D@2@@std@@QEAAAEAV12@AEBV12@_K1@Z 0000000180039134     VError.obj
 0002:0000e148       $chain$1$?append@?$basic_string@DU?$char_traits@D@std@@V?$allocator@D@2@@std@@QEAAAEAV12@AEBV12@_K1@Z 0000000180039148     VError.obj
 0002:0000e158       $chain$2$?append@?$basic_string@DU?$char_traits@D@std@@V?$allocator@D@2@@std@@QEAAAEAV12@AEBV12@_K1@Z 0000000180039158     VError.obj
 0002:0000e16c       $unwind$?__SetUnwindTryBlock@@YAXPEA_KPEAU_xDISPATCHER_CONTEXT@@PEBU_s_FuncInfo@@H@Z 000000018003916c     libvcruntime:ehstate.obj
 0002:0000e16c       $unwind$_FindAndUnlinkFrame 000000018003916c     libvcruntime:trnsctrl.obj
 0002:0000e16c       $unwind$??$common_initialize_environment_nolock@D@@YAHXZ 000000018003916c     libucrt:environment_initialization.obj
 0002:0000e16c       $unwind$__vcrt_FlsGetValue 000000018003916c     libvcruntime:winapi_downlevel.obj
 0002:0000e16c       $unwind$__acrt_invoke_user_matherr 000000018003916c     libucrt:matherr.obj
 0002:0000e16c       $unwind$__vcrt_FlsFree     000000018003916c     libvcruntime:winapi_downlevel.obj
 0002:0000e16c       $unwind$?resize@?$vector@NV?$allocator@N@std@@@std@@QEAAX_K@Z 000000018003916c     VImage.obj
 0002:0000e16c       $unwind$?replace_current_thread_locale_nolock@@YAXQEAU__acrt_ptd@@QEAU__crt_locale_data@@@Z 000000018003916c     libucrt:per_thread_data.obj
 0002:0000e16c       $unwind$_realloc_base      000000018003916c     libucrt:realloc_base.obj
 0002:0000e16c       $unwind$??0?$vector@NV?$allocator@N@std@@@std@@QEAA@_K@Z 000000018003916c     VImage.obj
 0002:0000e16c       $unwind$??1sentry@?$basic_ostream@DU?$char_traits@D@std@@@std@@QEAA@XZ 000000018003916c     VError.obj
 0002:0000e16c       $unwind$strncpy_s          000000018003916c     libucrt:strncpy_s.obj
 0002:0000e16c       $unwind$??_Gout_of_range@std@@UEAAPEAXI@Z 000000018003916c     libcpmt:xthrow.obj
 0002:0000e16c       $unwind$??_Gbad_exception@std@@UEAAPEAXI@Z 000000018003916c     libvcruntime:frame.obj
 0002:0000e16c       $unwind$??_Gexception@std@@UEAAPEAXI@Z 000000018003916c     libcpmt:xthrow.obj
 0002:0000e16c       $unwind$??_Gbad_array_new_length@std@@UEAAPEAXI@Z 000000018003916c     LIBCMT:throw_bad_alloc.obj
 0002:0000e16c       $unwind$_fclose_nolock     000000018003916c     libucrt:fclose.obj
 0002:0000e16c       $unwind$?try_cor_exit_process@@YAXI@Z 000000018003916c     libucrt:exit.obj
 0002:0000e16c       $unwind$__acrt_getptd      000000018003916c     libucrt:per_thread_data.obj
 0002:0000e16c       $unwind$?ExFilterRethrow@@YAHPEAU_EXCEPTION_POINTERS@@PEAUEHExceptionRecord@@PEAH@Z 000000018003916c     libvcruntime:frame.obj
 0002:0000e16c       $unwind$__acrt_errno_map_os_error 000000018003916c     libucrt:errno.obj
 0002:0000e16c       $unwind$??_Glogic_error@std@@UEAAPEAXI@Z 000000018003916c     libcpmt:xthrow.obj
 0002:0000e16c       $unwind$??_Gbad_alloc@std@@UEAAPEAXI@Z 000000018003916c     libcpmt:xthrow.obj
 0002:0000e16c       $unwind$__vcrt_FlsAlloc    000000018003916c     libvcruntime:winapi_downlevel.obj
 0002:0000e16c       $unwind$_callnewh          000000018003916c     libucrt:new_handler.obj
 0002:0000e16c       $unwind$?_Assign_rv@?$basic_string@DU?$char_traits@D@std@@V?$allocator@D@2@@std@@QEAAX$$QEAV12@@Z 000000018003916c     VError.obj
 0002:0000e16c       $unwind$??_Glength_error@std@@UEAAPEAXI@Z 000000018003916c     libcpmt:xthrow.obj
 0002:0000e16c       $unwind$__acrt_uninitialize_lowio 000000018003916c     libucrt:ioinit.obj
 0002:0000e16c       $unwind$?erase@?$basic_string@DU?$char_traits@D@std@@V?$allocator@D@2@@std@@QEAAAEAV12@_K0@Z 000000018003916c     VError.obj
 0002:0000e16c       $unwind$_close_nolock      000000018003916c     libucrt:close.obj
 0002:0000e16c       $unwind$?maxpos@VImage@vips@@QEAA?AV?$complex@N@std@@PEAVVOption@2@@Z 000000018003916c     VImage.obj
 0002:0000e16c       $unwind$__acrt_FlsGetValue 000000018003916c     libucrt:winapi_thunks.obj
 0002:0000e16c       $unwind$__acrt_FlsFree     000000018003916c     libucrt:winapi_thunks.obj
 0002:0000e16c       $unwind$__acrt_FlsAlloc    000000018003916c     libucrt:winapi_thunks.obj
 0002:0000e16c       $unwind$_updatetlocinfoEx_nolock 000000018003916c     libucrt:locale_refcounting.obj
 0002:0000e16c       $unwind$?minpos@VImage@vips@@QEAA?AV?$complex@N@std@@PEAVVOption@2@@Z 000000018003916c     VImage.obj
 0002:0000e16c       $unwind$??0_LocaleUpdate@@QEAA@QEAU__crt_locale_pointers@@@Z 000000018003916c     libucrt:stricmp.obj
 0002:0000e178       $unwind$__acrt_DownlevelLocaleNameToLCID 0000000180039178     libucrt:lcidtoname_downlevel.obj
 0002:0000e178       $unwind$__pctype_func      0000000180039178     libucrt:ctype.obj
 0002:0000e178       $unwind$__vcrt_thread_detach 0000000180039178     libvcruntime:initialization.obj
 0002:0000e178       $unwind$__acrt_release_locale_ref 0000000180039178     libucrt:locale_refcounting.obj
 0002:0000e178       $unwind$__acrt_uninitialize_critical 0000000180039178     libucrt:initialization.obj
 0002:0000e178       $unwind$__vcrt_thread_attach 0000000180039178     libvcruntime:initialization.obj
 0002:0000e178       $unwind$__acrt_thread_attach 0000000180039178     libucrt:initialization.obj
 0002:0000e178       $unwind$?deallocate@?$_Wrap_alloc@V?$allocator@N@std@@@std@@QEAAXPEAN_K@Z 0000000180039178     VError.obj
 0002:0000e178       $unwind$_isatty            0000000180039178     libucrt:isatty.obj
 0002:0000e178       $unwind$__vcrt_uninitialize 0000000180039178     libvcruntime:initialization.obj
 0002:0000e178       $unwind$_get_osfhandle     0000000180039178     libucrt:osfinfo.obj
 0002:0000e178       $unwind$__vcrt_initialize  0000000180039178     libvcruntime:initialization.obj
 0002:0000e178       $unwind$__acrt_initialize_multibyte 0000000180039178     libucrt:mbctype.obj
 0002:0000e178       $unwind$__acrt_initialize_ptd 0000000180039178     libucrt:per_thread_data.obj
 0002:0000e178       $unwind$__acrt_uninitialize_ptd 0000000180039178     libucrt:per_thread_data.obj
 0002:0000e178       $unwind$__doserrno         0000000180039178     libucrt:errno.obj
 0002:0000e178       $unwind$_errno             0000000180039178     libucrt:errno.obj
 0002:0000e178       $unwind$__scrt_initialize_default_local_stdio_options 0000000180039178     LIBCMT:default_local_stdio_options.obj
 0002:0000e178       $unwind$_invoke_watson     0000000180039178     libucrt:invalid_parameter.obj
 0002:0000e178       $unwind$abort              0000000180039178     libucrt:abort.obj
 0002:0000e178       $unwind$__acrt_thread_detach 0000000180039178     libucrt:initialization.obj
 0002:0000e178       $unwind$__acrt_initialize_command_line 0000000180039178     libucrt:argv_data.obj
 0002:0000e178       $unwind$__acrt_initialize_heap 0000000180039178     libucrt:heap_handle.obj
 0002:0000e178       $unwind$__vcrt_initialize_ptd 0000000180039178     libvcruntime:per_thread_data.obj
 0002:0000e178       $unwind$__vcrt_uninitialize_ptd 0000000180039178     libvcruntime:per_thread_data.obj
 0002:0000e178       $unwind$__FrameUnwindFilter 0000000180039178     libvcruntime:frame.obj
 0002:0000e178       $unwind$_fileno            0000000180039178     libucrt:fileno.obj
 0002:0000e178       $unwind$?initialize_multibyte@@YAHXZ 0000000180039178     libucrt:multibyte_initializer.obj
 0002:0000e178       $unwind$__GSHandlerCheck   0000000180039178     LIBCMT:_gshandler_.obj
 0002:0000e178       $unwind$__scrt_dllmain_crt_thread_detach 0000000180039178     LIBCMT:utility.obj
 0002:0000e178       $unwind$__scrt_dllmain_crt_thread_attach 0000000180039178     LIBCMT:utility.obj
 0002:0000e178       $unwind$_set_errno_from_matherr 0000000180039178     libucrt:fpexcept.obj
 0002:0000e178       $unwind$?allocate@?$_Wrap_alloc@V?$allocator@VVImage@vips@@@std@@@std@@QEAAPEAVVImage@vips@@_K@Z 0000000180039178     VImage.obj
 0002:0000e178       $unwind$?deallocate@?$_Wrap_alloc@V?$allocator@VVImage@vips@@@std@@@std@@QEAAXPEAVVImage@vips@@_K@Z 0000000180039178     VImage.obj
 0002:0000e178       $unwind$initialize_c       0000000180039178     libucrt:initialization.obj
 0002:0000e178       $unwind$?_Reserve@?$vector@VVImage@vips@@V?$allocator@VVImage@vips@@@std@@@std@@IEAAX_K@Z 0000000180039178     VImage.obj
 0002:0000e178       $unwind$__scrt_dllmain_uninitialize_critical 0000000180039178     LIBCMT:utility.obj
 0002:0000e178       $unwind$__scrt_dllmain_uninitialize_c 0000000180039178     LIBCMT:utility.obj
 0002:0000e178       $unwind$?allocate@?$_Wrap_alloc@V?$allocator@N@std@@@std@@QEAAPEAN_K@Z 0000000180039178     VError.obj
 0002:0000e178       $unwind$__scrt_dllmain_after_initialize_c 0000000180039178     LIBCMT:utility.obj
 0002:0000e178       $unwind$__dcrt_terminate_console_output 0000000180039178     libucrt:initcon.obj
 0002:0000e178       $unwind$__scrt_dllmain_before_initialize_c 0000000180039178     LIBCMT:utility.obj
 0002:0000e178       $unwind$??$uninitialize_environment_internal@_W@@YAXAEAPEAPEA_W@Z 0000000180039178     libucrt:environment_initialization.obj
 0002:0000e178       $unwind$??$uninitialize_environment_internal@D@@YAXAEAPEAPEAD@Z 0000000180039178     libucrt:environment_initialization.obj
 0002:0000e178       $unwind$__vcrt_uninitialize_critical 0000000180039178     libvcruntime:initialization.obj
 0002:0000e178       $unwind$__dcrt_uninitialize_environments_nolock 0000000180039178     libucrt:environment_initialization.obj
 0002:0000e178       $unwind$_statfp            0000000180039178     libucrt:fpctrl.obj
 0002:0000e178       $unwind$_msize             0000000180039178     libucrt:msize.obj
 0002:0000e178       $unwind$uninitialize_environment 0000000180039178     libucrt:initialization.obj
 0002:0000e178       $unwind$_GetThrowImageBase 0000000180039178     libvcruntime:trnsctrl.obj
 0002:0000e178       $unwind$_GetImageBase      0000000180039178     libvcruntime:trnsctrl.obj
 0002:0000e178       $unwind$__scrt_acquire_startup_lock 0000000180039178     LIBCMT:utility.obj
 0002:0000e178       $unwind$?__GetCurrentState@@YAHPEA_KPEAU_xDISPATCHER_CONTEXT@@PEBU_s_FuncInfo@@@Z 0000000180039178     libvcruntime:ehstate.obj
 0002:0000e178       $unwind$__vcrt_getptd      0000000180039178     libvcruntime:per_thread_data.obj
 0002:0000e178       $unwind$atexit             0000000180039178     LIBCMT:utility.obj
 0002:0000e178       $unwind$?dllmain_crt_dispatch@@YAHQEAUHINSTANCE__@@KQEAX@Z 0000000180039178     LIBCMT:dll_dllmain.obj
 0002:0000e178       $unwind$?__scrt_uninitialize_thread_safe_statics@@YAXXZ 0000000180039178     LIBCMT:thread_safe_statics.obj
 0002:0000e178       $unwind$??$_Immortalize@V_Iostream_error_category@std@@@std@@YAAEAV_Iostream_error_category@0@XZ 0000000180039178     VError.obj
 0002:0000e178       $unwind$__vcrt_freefls     0000000180039178     libvcruntime:per_thread_data.obj
 0002:0000e178       $unwind$__report_rangecheckfailure 0000000180039178     LIBCMT:gs_report.obj
 0002:0000e180       $unwind$?_Copy@?$basic_string@DU?$char_traits@D@std@@V?$allocator@D@2@@std@@QEAAX_K0@Z 0000000180039180     VError.obj
 0002:0000e194       $unwind$??$?6DU?$char_traits@D@std@@V?$allocator@D@1@@std@@YAAEAV?$basic_ostream@DU?$char_traits@D@std@@@0@AEAV10@AEBV?$basic_string@DU?$char_traits@D@std@@V?$allocator@D@2@@0@@Z 0000000180039194     VError.obj
 0002:0000e1b4       $stateUnwindMap$??$?6DU?$char_traits@D@std@@V?$allocator@D@1@@std@@YAAEAV?$basic_ostream@DU?$char_traits@D@std@@@0@AEAV10@AEBV?$basic_string@DU?$char_traits@D@std@@V?$allocator@D@2@@0@@Z 00000001800391b4     VError.obj
 0002:0000e1c8       $ip2state$??$?6DU?$char_traits@D@std@@V?$allocator@D@1@@std@@YAAEAV?$basic_ostream@DU?$char_traits@D@std@@@0@AEAV10@AEBV?$basic_string@DU?$char_traits@D@std@@V?$allocator@D@2@@0@@Z 00000001800391c8     VError.obj
 0002:0000e1e8       $unwind$??$assign@V?$_List_const_iterator@V?$_List_val@U?$_List_simple_types@PEAUPair@VOption@vips@@@std@@@std@@@std@@@?$list@PEAUPair@VOption@vips@@V?$allocator@PEAUPair@VOption@vips@@@std@@@std@@QEAAXV?$_List_const_iterator@V?$_List_val@U?$_List_simple_types@PEAUPair@VOption@vips@@@std@@@std@@@1@0@Z 00000001800391e8     VError.obj
 0002:0000e1f8       $unwind$??0sentry@?$basic_ostream@DU?$char_traits@D@std@@@std@@QEAA@AEAV12@@Z 00000001800391f8     VError.obj
 0002:0000e20c       $stateUnwindMap$??0sentry@?$basic_ostream@DU?$char_traits@D@std@@@std@@QEAA@AEAV12@@Z 000000018003920c     VError.obj
 0002:0000e218       $ip2state$??0sentry@?$basic_ostream@DU?$char_traits@D@std@@@std@@QEAA@AEAV12@@Z 0000000180039218     VError.obj
 0002:0000e230       $unwind$?flush@?$basic_ostream@DU?$char_traits@D@std@@@std@@QEAAAEAV12@XZ 0000000180039230     VError.obj
 0002:0000e244       $stateUnwindMap$?flush@?$basic_ostream@DU?$char_traits@D@std@@@std@@QEAAAEAV12@XZ 0000000180039244     VError.obj
 0002:0000e250       $ip2state$?flush@?$basic_ostream@DU?$char_traits@D@std@@@std@@QEAAAEAV12@XZ 0000000180039250     VError.obj
 0002:0000e268       $unwind$?new_from_name@VInterpolate@vips@@SA?AV12@PEBDPEAVVOption@2@@Z 0000000180039268     VInterpolate.obj
 0002:0000e288       $ip2state$?new_from_name@VInterpolate@vips@@SA?AV12@PEBDPEAVVOption@2@@Z 0000000180039288     VInterpolate.obj
 0002:0000e2a0       $unwind$?set@VOption@vips@@QEAAPEAV12@PEBDVVInterpolate@2@@Z 00000001800392a0     VInterpolate.obj
 0002:0000e2bc       $stateUnwindMap$??Mvips@@YA?AVVImage@0@NV10@@Z 00000001800392bc     VImage.obj
 0002:0000e2bc       $stateUnwindMap$??Pvips@@YA?AVVImage@0@NV10@@Z 00000001800392bc     VImage.obj
 0002:0000e2bc       $stateUnwindMap$??Tvips@@YA?AVVImage@0@NV10@@Z 00000001800392bc     VImage.obj
 0002:0000e2bc       $stateUnwindMap$??Ivips@@YA?AVVImage@0@NV10@@Z 00000001800392bc     VImage.obj
 0002:0000e2bc       $stateUnwindMap$??Ovips@@YA?AVVImage@0@NV10@@Z 00000001800392bc     VImage.obj
 0002:0000e2bc       $stateUnwindMap$??Nvips@@YA?AVVImage@0@NV10@@Z 00000001800392bc     VImage.obj
 0002:0000e2bc       $stateUnwindMap$??9vips@@YA?AVVImage@0@NV10@@Z 00000001800392bc     VImage.obj
 0002:0000e2bc       $stateUnwindMap$?set@VOption@vips@@QEAAPEAV12@PEBDVVInterpolate@2@@Z 00000001800392bc     VInterpolate.obj
 0002:0000e2bc       $stateUnwindMap$??Uvips@@YA?AVVImage@0@NV10@@Z 00000001800392bc     VImage.obj
 0002:0000e2bc       $stateUnwindMap$??8vips@@YA?AVVImage@0@NV10@@Z 00000001800392bc     VImage.obj
 0002:0000e2bc       $stateUnwindMap$?set@VOption@vips@@QEAAPEAV12@PEBDVVImage@2@@Z 00000001800392bc     VImage.obj
 0002:0000e2c8       $ip2state$?set@VOption@vips@@QEAAPEAV12@PEBDVVInterpolate@2@@Z 00000001800392c8     VInterpolate.obj
 0002:0000e2e0       $unwind$?to_vectorv@vips@@YA?AV?$vector@NV?$allocator@N@std@@@std@@HZZ 00000001800392e0     VImage.obj
 0002:0000e2ec       $unwind$?to_vector@vips@@YA?AV?$vector@NV?$allocator@N@std@@@std@@HQEAN@Z 00000001800392ec     VImage.obj
 0002:0000e300       $chain$0$?to_vector@vips@@YA?AV?$vector@NV?$allocator@N@std@@@std@@HQEAN@Z 0000000180039300     VImage.obj
 0002:0000e314       $chain$1$?to_vector@vips@@YA?AV?$vector@NV?$allocator@N@std@@@std@@HQEAN@Z 0000000180039314     VImage.obj
 0002:0000e324       $unwind$?negate@vips@@YA?AV?$vector@NV?$allocator@N@std@@@std@@V23@@Z 0000000180039324     VImage.obj
 0002:0000e33c       $stateUnwindMap$?invert@vips@@YA?AV?$vector@NV?$allocator@N@std@@@std@@V23@@Z 000000018003933c     VImage.obj
 0002:0000e33c       $stateUnwindMap$?negate@vips@@YA?AV?$vector@NV?$allocator@N@std@@@std@@V23@@Z 000000018003933c     VImage.obj
 0002:0000e348       $ip2state$?negate@vips@@YA?AV?$vector@NV?$allocator@N@std@@@std@@V23@@Z 0000000180039348     VImage.obj
 0002:0000e360       $unwind$?invert@vips@@YA?AV?$vector@NV?$allocator@N@std@@@std@@V23@@Z 0000000180039360     VImage.obj
 0002:0000e378       $ip2state$?invert@vips@@YA?AV?$vector@NV?$allocator@N@std@@@std@@V23@@Z 0000000180039378     VImage.obj
 0002:0000e390       $chain$0$??1VOption@vips@@UEAA@XZ 0000000180039390     VImage.obj
 0002:0000e3a4       $chain$1$??1VOption@vips@@UEAA@XZ 00000001800393a4     VImage.obj
 0002:0000e3b4       $unwind$?set@VOption@vips@@QEAAPEAV12@PEBDPEAH@Z 00000001800393b4     VImage.obj
 0002:0000e3b4       $unwind$?set@VOption@vips@@QEAAPEAV12@PEBDH@Z 00000001800393b4     VImage.obj
 0002:0000e3b4       $unwind$?set@VOption@vips@@QEAAPEAV12@PEBDPEAU_VipsBlob@@@Z 00000001800393b4     VImage.obj
 0002:0000e3b4       $unwind$?set@VOption@vips@@QEAAPEAV12@PEBD_N@Z 00000001800393b4     VImage.obj
 0002:0000e3b4       $unwind$?set@VOption@vips@@QEAAPEAV12@PEBDPEAVVImage@2@@Z 00000001800393b4     VImage.obj
 0002:0000e3b4       $unwind$?set@VOption@vips@@QEAAPEAV12@PEBD0@Z 00000001800393b4     VImage.obj
 0002:0000e3b4       $unwind$?set@VOption@vips@@QEAAPEAV12@PEBDPEAN@Z 00000001800393b4     VImage.obj
 0002:0000e3b4       $unwind$?set@VOption@vips@@QEAAPEAV12@PEBDPEAV?$vector@NV?$allocator@N@std@@@std@@@Z 00000001800393b4     VImage.obj
 0002:0000e3b4       $unwind$?set@VOption@vips@@QEAAPEAV12@PEBDPEAPEAU_VipsBlob@@@Z 00000001800393b4     VImage.obj
 0002:0000e3b4       $unwind$?set@VOption@vips@@QEAAPEAV12@PEBDPEA_N@Z 00000001800393b4     VImage.obj
 0002:0000e3c8       $unwind$?set@VOption@vips@@QEAAPEAV12@PEBDN@Z 00000001800393c8     VImage.obj
 0002:0000e3e0       $unwind$?set@VOption@vips@@QEAAPEAV12@PEBDVVImage@2@@Z 00000001800393e0     VImage.obj
 0002:0000e400       $ip2state$?set@VOption@vips@@QEAAPEAV12@PEBDVVImage@2@@Z 0000000180039400     VImage.obj
 0002:0000e418       $unwind$?set@VOption@vips@@QEAAPEAV12@PEBDV?$vector@NV?$allocator@N@std@@@std@@@Z 0000000180039418     VImage.obj
 0002:0000e434       $stateUnwindMap$?set@VOption@vips@@QEAAPEAV12@PEBDV?$vector@NV?$allocator@N@std@@@std@@@Z 0000000180039434     VImage.obj
 0002:0000e440       $ip2state$?set@VOption@vips@@QEAAPEAV12@PEBDV?$vector@NV?$allocator@N@std@@@std@@@Z 0000000180039440     VImage.obj
 0002:0000e458       $unwind$?set@VOption@vips@@QEAAPEAV12@PEBDV?$vector@VVImage@vips@@V?$allocator@VVImage@vips@@@std@@@std@@@Z 0000000180039458     VImage.obj
 0002:0000e478       $stateUnwindMap$?set@VOption@vips@@QEAAPEAV12@PEBDV?$vector@VVImage@vips@@V?$allocator@VVImage@vips@@@std@@@std@@@Z 0000000180039478     VImage.obj
 0002:0000e480       $ip2state$?set@VOption@vips@@QEAAPEAV12@PEBDV?$vector@VVImage@vips@@V?$allocator@VVImage@vips@@@std@@@std@@@Z 0000000180039480     VImage.obj
 0002:0000e498       $unwind$?set_property@vips@@YAXPEAU_VipsObject@@PEBDPEBU_GValue@@@Z 0000000180039498     VImage.obj
 0002:0000e4b0       $unwind$?set_operation@VOption@vips@@QEAAXPEAU_VipsOperation@@@Z 00000001800394b0     VImage.obj
 0002:0000e4c0       $chain$1$?set_operation@VOption@vips@@QEAAXPEAU_VipsOperation@@@Z 00000001800394c0     VImage.obj
 0002:0000e4d8       $chain$2$?set_operation@VOption@vips@@QEAAXPEAU_VipsOperation@@@Z 00000001800394d8     VImage.obj
 0002:0000e4e8       $unwind$?get_operation@VOption@vips@@QEAAXPEAU_VipsOperation@@@Z 00000001800394e8     VImage.obj
 0002:0000e4f4       $chain$3$?get_operation@VOption@vips@@QEAAXPEAU_VipsOperation@@@Z 00000001800394f4     VImage.obj
 0002:0000e514       $chain$4$?get_operation@VOption@vips@@QEAAXPEAU_VipsOperation@@@Z 0000000180039514     VImage.obj
 0002:0000e524       $unwind$?call_option_string@VImage@vips@@SAXPEBD0PEAVVOption@2@@Z 0000000180039524     VImage.obj
 0002:0000e53c       $stateUnwindMap$?call_option_string@VImage@vips@@SAXPEBD0PEAVVOption@2@@Z 000000018003953c     VImage.obj
 0002:0000e558       $ip2state$?call_option_string@VImage@vips@@SAXPEBD0PEAVVOption@2@@Z 0000000180039558     VImage.obj
 0002:0000e590       $unwind$?new_from_file@VImage@vips@@SA?AV12@PEBDPEAVVOption@2@@Z 0000000180039590     VImage.obj
 0002:0000e5b0       $stateUnwindMap$?new_from_file@VImage@vips@@SA?AV12@PEBDPEAVVOption@2@@Z 00000001800395b0     VImage.obj
 0002:0000e5b0       $stateUnwindMap$?new_from_buffer@VImage@vips@@SA?AV12@PEAX_KPEBDPEAVVOption@2@@Z 00000001800395b0     VImage.obj
 0002:0000e5c0       $ip2state$?new_from_file@VImage@vips@@SA?AV12@PEBDPEAVVOption@2@@Z 00000001800395c0     VImage.obj
 0002:0000e5e0       $unwind$?new_from_buffer@VImage@vips@@SA?AV12@PEAX_KPEBDPEAVVOption@2@@Z 00000001800395e0     VImage.obj
 0002:0000e600       $ip2state$?new_from_buffer@VImage@vips@@SA?AV12@PEAX_KPEBDPEAVVOption@2@@Z 0000000180039600     VImage.obj
 0002:0000e620       $unwind$?new_from_image@VImage@vips@@QEAA?AV12@V?$vector@NV?$allocator@N@std@@@std@@@Z 0000000180039620     VImage.obj
 0002:0000e650       $stateUnwindMap$?new_from_image@VImage@vips@@QEAA?AV12@V?$vector@NV?$allocator@N@std@@@std@@@Z 0000000180039650     VImage.obj
 0002:0000e670       $ip2state$?new_from_image@VImage@vips@@QEAA?AV12@V?$vector@NV?$allocator@N@std@@@std@@@Z 0000000180039670     VImage.obj
 0002:0000e6b0       $unwind$_mbsdec_l          00000001800396b0     libucrt:mbsdec.obj
