 libvips-cpp

 Timestamp is 5a39620f (Tue Dec 19 22:01:35 2017)

 Preferred load address is 0000000180000000

 Start         Length     Name                   Class
 0001:00000000 00000280H .text                   CODE
 0001:00000280 00028ec0H .text$mn                CODE
 0001:00029140 00000020H .text$mn$00             CODE
 0001:00029160 00000d60H .text$x                 CODE
 0001:00029ec0 00000003H .text$yd                CODE
 0002:00000000 000004e0H .idata$5                DATA
 0002:000004e0 00000010H .00cfg                  DATA
 0002:000004f0 00000008H .CRT$XCA                DATA
 0002:000004f8 00000008H .CRT$XCZ                DATA
 0002:00000500 00000008H .CRT$XIA                DATA
 0002:00000508 00000020H .CRT$XIC                DATA
 0002:00000528 00000008H .CRT$XIZ                DATA
 0002:00000530 00000008H .CRT$XLA                DATA
 0002:00000538 00000008H .CRT$XLZ                DATA
 0002:00000540 00000008H .CRT$XPA                DATA
 0002:00000548 00000010H .CRT$XPX                DATA
 0002:00000558 00000008H .CRT$XPXA               DATA
 0002:00000560 00000008H .CRT$XPZ                DATA
 0002:00000568 00000008H .CRT$XTA                DATA
 0002:00000570 00000010H .CRT$XTZ                DATA
 0002:00000580 0000c908H .rdata                  DATA
 0002:0000ce88 00000028H .rdata$T                DATA
 0002:0000ceb0 00000484H .rdata$r                DATA
 0002:0000d334 00000414H .rdata$zzzdbg           DATA
 0002:0000d748 00000008H .rtc$IAA                DATA
 0002:0000d750 00000008H .rtc$IZZ                DATA
 0002:0000d758 00000008H .rtc$TAA                DATA
 0002:0000d760 00000010H .rtc$TZZ                DATA
 0002:0000d770 00005bd8H .xdata                  DATA
 0002:00013348 000002d8H .xdata$x                DATA
 0002:00013620 000075e0H .edata                  DATA
 0002:0001ac00 00000050H .idata$2                DATA
 0002:0001ac50 00000018H .idata$3                DATA
 0002:0001ac68 000004e0H .idata$4                DATA
 0002:0001b148 00000cd8H .idata$6                DATA
 0002:0001be20 0000017cH .idata$7                DATA
 0003:00000000 000008e0H .data                   DATA
 0003:000008e0 000001c0H .data$r                 DATA
 0003:00000aa0 00001214H .bss                    DATA
 0004:00000000 000029e8H .pdata                  DATA
 0005:00000000 00000080H .gfids$x                DATA
 0005:00000080 00000068H .gfids$y                DATA
 0006:00000000 00000004H .tls                    DATA
 0006:00000004 00000004H .tls$                   DATA
 0006:00000008 00000001H .tls$ZZZ                DATA
 0007:00000000 00000060H .rsrc$01                DATA
 0007:00000060 00000180H .rsrc$02                DATA

  Address         Publics by Value              Rva+Base               Lib:Object

 0000:00000000       __dynamic_value_reloc_table 0000000000000000     <absolute>
 0000:00000000       __guard_iat_count          0000000000000000     <absolute>
 0000:00000000       __guard_longjmp_count      0000000000000000     <absolute>
 0000:00000000       __guard_longjmp_table      0000000000000000     <absolute>
 0000:00000000       __guard_iat_table          0000000000000000     <absolute>
 0000:00000000       __guard_fids_count         0000000000000000     <absolute>
 0000:00000000       ___safe_se_handler_table   0000000000000000     <absolute>
 0000:00000000       ___safe_se_handler_count   0000000000000000     <absolute>
 0000:00000000       __guard_fids_table         0000000000000000     <absolute>
 0000:00000100       __guard_flags              0000000000000100     <absolute>
 0000:00000000       __ImageBase                0000000180000000     <linker-defined>
 0001:00000000       vips_image_set_int         0000000180001000     libvips:ddcis01505.o
 0001:00000008       vips_image_new_from_memory 0000000180001008     libvips:ddcis01482.o
 0001:00000010       vips_image_set_string      0000000180001010     libvips:ddcis01508.o
 0001:00000018       vips_image_set_blob        0000000180001018     libvips:ddcis01502.o
 0001:00000020       vips_object_get_type       0000000180001020     libvips:ddcis01670.o
 0001:00000028       vips_image_get_xoffset     0000000180001028     libvips:ddcis01455.o
 0001:00000030       vips_image_get_width       0000000180001030     libvips:ddcis01454.o
 0001:00000038       vips_image_get_yres        0000000180001038     libvips:ddcis01458.o
 0001:00000040       vips_image_get_height      0000000180001040     libvips:ddcis01444.o
 0001:00000048       vips_image_new_memory      0000000180001048     libvips:ddcis01487.o
 0001:00000050       vips_image_get_filename    0000000180001050     libvips:ddcis01442.o
 0001:00000058       vips_image_get_string      0000000180001058     libvips:ddcis01451.o
 0001:00000060       vips_image_get_data        0000000180001060     libvips:ddcis01439.o
 0001:00000068       vips_image_guess_interpretation 0000000180001068     libvips:ddcis01460.o
 0001:00000070       vips_image_get_format      0000000180001070     libvips:ddcis01443.o
 0001:00000078       vips_image_get_xres        0000000180001078     libvips:ddcis01456.o
 0001:00000080       vips_image_get_interpretation 0000000180001080     libvips:ddcis01447.o
 0001:00000088       vips_image_write_to_memory 0000000180001088     libvips:ddcis01516.o
 0001:00000090       vips_image_get_bands       0000000180001090     libvips:ddcis01436.o
 0001:00000098       vips_image_get_typeof      0000000180001098     libvips:ddcis01453.o
 0001:000000a0       vips_image_new_matrix_from_array 00000001800010a0     libvips:ddcis01485.o
 0001:000000a8       vips_image_get_coding      00000001800010a8     libvips:ddcis01438.o
 0001:000000b0       vips_error_buffer          00000001800010b0     libvips:ddcis01210.o
 0001:000000b8       vips_image_new_temp_file   00000001800010b8     libvips:ddcis01489.o
 0001:000000c0       vips_image_get_blob        00000001800010c0     libvips:ddcis01437.o
 0001:000000c8       vips_image_get_double      00000001800010c8     libvips:ddcis01440.o
 0001:000000d0       vips_image_set_double      00000001800010d0     libvips:ddcis01504.o
 0001:000000d8       vips_image_get_int         00000001800010d8     libvips:ddcis01446.o
 0001:000000e0       vips_image_get_yoffset     00000001800010e0     libvips:ddcis01457.o
 0001:000000e8       vips_interpolate_new       00000001800010e8     libvips:ddcis01538.o
 0001:000000f0       vips_interpolate_get_type  00000001800010f0     libvips:ddcis01531.o
 0001:000000f8       vips_value_set_array_image 00000001800010f8     libvips:ddcis01979.o
 0001:00000100       vips_value_set_array_double 0000000180001100     libvips:ddcis01978.o
 0001:00000108       vips_foreign_find_load_buffer 0000000180001108     libvips:ddcis01255.o
 0001:00000110       vips_operation_new         0000000180001110     libvips:ddcis01709.o
 0001:00000118       vips_array_image_get_type  0000000180001118     libvips:ddcis00900.o
 0001:00000120       vips__filename_split8      0000000180001120     libvips:ddcis00699.o
 0001:00000128       vips_blob_new              0000000180001128     libvips:ddcis00951.o
 0001:00000130       vips_cache_operation_buildp 0000000180001130     libvips:ddcis01003.o
 0001:00000138       vips_blob_get_type         0000000180001138     libvips:ddcis00950.o
 0001:00000140       vips_enum_from_nick        0000000180001140     libvips:ddcis01200.o
 0001:00000148       vips_array_double_get_type 0000000180001148     libvips:ddcis00894.o
 0001:00000150       vips_format_sizeof_unsafe  0000000180001150     libvips:ddcis01337.o
 0001:00000158       vips_value_get_array_double 0000000180001158     libvips:ddcis01968.o
 0001:00000160       vips_image_new_matrix      0000000180001160     libvips:ddcis01484.o
 0001:00000168       vips_image_get_type        0000000180001168     libvips:ddcis01452.o
 0001:00000170       vips_object_unref_outputs  0000000180001170     libvips:ddcis01694.o
 0001:00000178       vips_foreign_find_save     0000000180001178     libvips:ddcis01256.o
 0001:00000180       vips_error_clear           0000000180001180     libvips:ddcis01211.o
 0001:00000188       vips_object_set_from_string 0000000180001188     libvips:ddcis01687.o
 0001:00000190       vips_value_get_array_image 0000000180001190     libvips:ddcis01969.o
 0001:00000198       vips_image_write           0000000180001198     libvips:ddcis01511.o
 0001:000001a0       vips_area_unref            00000001800011a0     libvips:ddcis00881.o
 0001:000001a8       vips_foreign_find_save_buffer 00000001800011a8     libvips:ddcis01257.o
 0001:000001b0       vips_object_get_argument   00000001800011b0     libvips:ddcis01664.o
 0001:000001b8       vips_foreign_find_load     00000001800011b8     libvips:ddcis01254.o
 0001:000001c0       g_assertion_message_expr   00000001800011c0     libglib-2.0:dxyhs00041.o
 0001:000001c8       g_log                      00000001800011c8     libglib-2.0:dxyhs00617.o
 0001:000001d0       g_object_ref               00000001800011d0     libgobject-2.0:dhzhs00138.o
 0001:000001d8       g_object_unref             00000001800011d8     libgobject-2.0:dhzhs00155.o
 0001:000001e0       g_type_check_instance_is_a 00000001800011e0     libgobject-2.0:dhzhs00272.o
 0001:000001e8       g_value_init               00000001800011e8     libgobject-2.0:dhzhs00381.o
 0001:000001f0       g_value_set_object         00000001800011f0     libgobject-2.0:dhzhs00399.o
 0001:000001f8       g_value_set_boolean        00000001800011f8     libgobject-2.0:dhzhs00386.o
 0001:00000200       g_value_get_string         0000000180001200     libgobject-2.0:dhzhs00374.o
 0001:00000208       g_value_set_double         0000000180001208     libgobject-2.0:dhzhs00390.o
 0001:00000210       g_value_set_string         0000000180001210     libgobject-2.0:dhzhs00407.o
 0001:00000218       g_type_check_instance_cast 0000000180001218     libgobject-2.0:dhzhs00271.o
 0001:00000220       g_value_get_boolean        0000000180001220     libgobject-2.0:dhzhs00359.o
 0001:00000228       g_value_set_boxed          0000000180001228     libgobject-2.0:dhzhs00387.o
 0001:00000230       g_value_get_object         0000000180001230     libgobject-2.0:dhzhs00370.o
 0001:00000238       g_value_set_int            0000000180001238     libgobject-2.0:dhzhs00396.o
 0001:00000240       g_value_dup_boxed          0000000180001240     libgobject-2.0:dhzhs00353.o
 0001:00000248       g_value_get_int            0000000180001248     libgobject-2.0:dhzhs00367.o
 0001:00000250       g_value_set_enum           0000000180001250     libgobject-2.0:dhzhs00391.o
 0001:00000258       g_value_get_double         0000000180001258     libgobject-2.0:dhzhs00362.o
 0001:00000260       g_object_get_property      0000000180001260     libgobject-2.0:dhzhs00125.o
 0001:00000268       g_value_unset              0000000180001268     libgobject-2.0:dhzhs00422.o
 0001:00000270       g_object_set_property      0000000180001270     libgobject-2.0:dhzhs00148.o
 0001:00000280       ??0exception@stdext@@QEAA@AEBV01@@Z 0000000180001280 f i VError.obj
 0001:000002a0       ??1failure@ios_base@std@@UEAA@XZ 00000001800012a0 f i VError.obj
 0001:000002a0       ??1exception@stdext@@UEAA@XZ 00000001800012a0 f i VError.obj
 0001:000002b0       ?what@exception@stdext@@UEBAPEBDXZ 00000001800012b0 f i VError.obj
 0001:000002d0       ?_Raise@exception@stdext@@QEBAXXZ 00000001800012d0 f i VError.obj
 0001:00000310       _guard_check_icall_nop     0000000180001310 f i LIBCMT:guard_support.obj
 0001:00000310       ?_Doraise@exception@stdext@@MEBAXXZ 0000000180001310 f i VError.obj
 0001:00000310       __except_validate_context_record 0000000180001310 f i libvcruntime:jbcxrval.obj
 0001:00000320       ??_Gruntime_error@std@@UEAAPEAXI@Z 0000000180001320 f i VError.obj
 0001:00000320       ??_Gexception@stdext@@UEAAPEAXI@Z 0000000180001320 f i VError.obj
 0001:00000320       ??_Eexception@stdext@@UEAAPEAXI@Z 0000000180001320 f i * CIL library *:* CIL module *
 0001:00000320       ??_Eruntime_error@std@@UEAAPEAXI@Z 0000000180001320 f i * CIL library *:* CIL module *
 0001:00000350       ?_Doraise@runtime_error@std@@MEBAXXZ 0000000180001350 f i VError.obj
 0001:00000350       ?_Doraise@failure@ios_base@std@@MEBAXXZ 0000000180001350 f i VError.obj
 0001:00000370       ??_G_Iostream_error_category@std@@UEAAPEAXI@Z 0000000180001370 f i VError.obj
 0001:00000370       ??_Gerror_category@std@@UEAAPEAXI@Z 0000000180001370 f i VError.obj
 0001:00000370       ??_Eerror_category@std@@UEAAPEAXI@Z 0000000180001370 f i * CIL library *:* CIL module *
 0001:00000370       ??_E_Iostream_error_category@std@@UEAAPEAXI@Z 0000000180001370 f i * CIL library *:* CIL module *
 0001:000003a0       ?message@error_code@std@@QEBA?AV?$basic_string@DU?$char_traits@D@std@@V?$allocator@D@2@@2@XZ 00000001800013a0 f i VError.obj
 0001:000003d0       ?default_error_condition@error_category@std@@UEBA?AVerror_condition@2@H@Z 00000001800013d0 f i VError.obj
 0001:000003e0       ?equivalent@error_category@std@@UEBA_NHAEBVerror_condition@2@@Z 00000001800013e0 f i VError.obj
 0001:00000420       ?equivalent@error_category@std@@UEBA_NAEBVerror_code@2@H@Z 0000000180001420 f i VError.obj
 0001:00000440       ?_Makestr@_System_error@std@@CA?AV?$basic_string@DU?$char_traits@D@std@@V?$allocator@D@2@@2@Verror_code@2@V32@@Z 0000000180001440 f i VError.obj
 0001:00000550       ??_G_System_error@std@@UEAAPEAXI@Z 0000000180001550 f i VError.obj
 0001:00000550       ??_Efailure@ios_base@std@@UEAAPEAXI@Z 0000000180001550 f i * CIL library *:* CIL module *
 0001:00000550       ??_Gfailure@ios_base@std@@UEAAPEAXI@Z 0000000180001550 f i VError.obj
 0001:00000550       ??_E_System_error@std@@UEAAPEAXI@Z 0000000180001550 f i * CIL library *:* CIL module *
 0001:00000580       ?message@_Generic_error_category@std@@UEBA?AV?$basic_string@DU?$char_traits@D@std@@V?$allocator@D@2@@2@H@Z 0000000180001580 f i VError.obj
 0001:000005e0       ?name@_Iostream_error_category@std@@UEBAPEBDXZ 00000001800015e0 f i VError.obj
 0001:000005f0       ?message@_Iostream_error_category@std@@UEBA?AV?$basic_string@DU?$char_traits@D@std@@V?$allocator@D@2@@2@H@Z 00000001800015f0 f i VError.obj
 0001:00000640       ?clear@ios_base@std@@QEAAXH_N@Z 0000000180001640 f i VError.obj
 0001:00000ad0       ??0VError@vips@@QEAA@V?$basic_string@DU?$char_traits@D@std@@V?$allocator@D@2@@std@@@Z 0000000180001ad0 f i VError.obj
 0001:00000b60       ??0VError@vips@@QEAA@XZ    0000000180001b60 f i VError.obj
 0001:00000bd0       ??1VError@vips@@UEAA@XZ    0000000180001bd0 f i VError.obj
 0001:00000c00       ?what@VError@vips@@UEBAPEBDXZ 0000000180001c00 f i VError.obj
 0001:00000c10       ??0VError@vips@@QEAA@AEBV01@@Z 0000000180001c10 f i VError.obj
 0001:00000c80       ??4VError@vips@@QEAAAEAV01@AEBV01@@Z 0000000180001c80 f i VError.obj
 0001:00000cc0       ??_EVError@vips@@UEAAPEAXI@Z 0000000180001cc0 f i VError.obj
 0001:00000d60       ??0VObject@vips@@QEAA@PEAU_VipsObject@@W4VSteal@1@@Z 0000000180001d60 f i VError.obj
 0001:00000de0       ??4VObject@vips@@QEAAAEAV01@AEBV01@@Z 0000000180001de0 f i VError.obj
 0001:00000eb0       ??0VOption@vips@@QEAA@XZ   0000000180001eb0 f i VError.obj
 0001:00000f10       ??0VOption@vips@@QEAA@AEBV01@@Z 0000000180001f10 f i VError.obj
 0001:00000f40       ??4VOption@vips@@QEAAAEAV01@AEBV01@@Z 0000000180001f40 f i VError.obj
 0001:00000f70       ??_EVOption@vips@@UEAAPEAXI@Z 0000000180001f70 f i VError.obj
 0001:00001000       ??0VImage@vips@@QEAA@PEAU_VipsImage@@W4VSteal@1@@Z 0000000180002000 f i VError.obj
 0001:00001000       ??0VInterpolate@vips@@QEAA@PEAU_VipsInterpolate@@W4VSteal@1@@Z 0000000180002000 f i VError.obj
 0001:00001020       ??0VImage@vips@@QEAA@XZ    0000000180002020 f i VError.obj
 0001:00001030       ?get_interpolate@VInterpolate@vips@@QEAAPEAU_VipsInterpolate@@XZ 0000000180002030 f i VError.obj
 0001:00001030       ?get_image@VImage@vips@@QEAAPEAU_VipsImage@@XZ 0000000180002030 f i VError.obj
 0001:00001090       ?width@VImage@vips@@QEAAHXZ 0000000180002090 f i VError.obj
 0001:000010f0       ?height@VImage@vips@@QEAAHXZ 00000001800020f0 f i VError.obj
 0001:00001150       ?bands@VImage@vips@@QEAAHXZ 0000000180002150 f i VError.obj
 0001:000011b0       ?format@VImage@vips@@QEAA?AW4VipsBandFormat@@XZ 00000001800021b0 f i VError.obj
 0001:00001210       ?coding@VImage@vips@@QEAA?AW4VipsCoding@@XZ 0000000180002210 f i VError.obj
 0001:00001270       ?interpretation@VImage@vips@@QEAA?AW4VipsInterpretation@@XZ 0000000180002270 f i VError.obj
 0001:000012d0       ?guess_interpretation@VImage@vips@@QEAA?AW4VipsInterpretation@@XZ 00000001800022d0 f i VError.obj
 0001:00001330       ?xres@VImage@vips@@QEAANXZ 0000000180002330 f i VError.obj
 0001:00001390       ?yres@VImage@vips@@QEAANXZ 0000000180002390 f i VError.obj
 0001:000013f0       ?xoffset@VImage@vips@@QEAANXZ 00000001800023f0 f i VError.obj
 0001:00001450       ?yoffset@VImage@vips@@QEAANXZ 0000000180002450 f i VError.obj
 0001:000014b0       ?filename@VImage@vips@@QEAAPEBDXZ 00000001800024b0 f i VError.obj
 0001:00001510       ?data@VImage@vips@@QEAAPEBXXZ 0000000180002510 f i VError.obj
 0001:00001570       ?set@VImage@vips@@QEAAXPEBDH@Z 0000000180002570 f i VError.obj
 0001:000015f0       ?set@VImage@vips@@QEAAXPEBDN@Z 00000001800025f0 f i VError.obj
 0001:00001670       ?set@VImage@vips@@QEAAXPEBD0@Z 0000000180002670 f i VError.obj
 0001:000016f0       ?set@VImage@vips@@QEAAXPEBDP6AHPEAX1@Z1_K@Z 00000001800026f0 f i VError.obj
 0001:00001780       ?get_typeof@VImage@vips@@QEAA_KPEBD@Z 0000000180002780 f i VError.obj
 0001:000017f0       ?get_int@VImage@vips@@QEAAHPEBD@Z 00000001800027f0 f i VError.obj
 0001:00001900       ?get_double@VImage@vips@@QEAANPEBD@Z 0000000180002900 f i VError.obj
 0001:00001a10       ?get_string@VImage@vips@@QEAAPEBDPEBD@Z 0000000180002a10 f i VError.obj
 0001:00001b20       ?get_blob@VImage@vips@@QEAAPEBXPEBDPEA_K@Z 0000000180002b20 f i VError.obj
 0001:00001c30       ?option@VImage@vips@@SAPEAVVOption@2@XZ 0000000180002c30 f i VError.obj
 0001:00001ca0       ?new_memory@VImage@vips@@SA?AV12@XZ 0000000180002ca0 f i VError.obj
 0001:00001d10       ?new_temp_file@VImage@vips@@SA?AV12@PEBD@Z 0000000180002d10 f i VError.obj
 0001:00001e20       ?new_from_memory@VImage@vips@@SA?AV12@PEAX_KHHHW4VipsBandFormat@@@Z 0000000180002e20 f i VError.obj
 0001:00001f50       ?new_matrix@VImage@vips@@SA?AV12@HHPEANH@Z 0000000180002f50 f i VError.obj
 0001:00002070       ?write_to_memory@VImage@vips@@QEAAPEAXPEA_K@Z 0000000180003070 f i VError.obj
 0001:00002180       ?linear@VImage@vips@@QEAA?AV12@NNPEAVVOption@2@@Z 0000000180003180 f i VError.obj
 0001:00002220       ?linear@VImage@vips@@QEAA?AV12@V?$vector@NV?$allocator@N@std@@@std@@NPEAVVOption@2@@Z 0000000180003220 f i VError.obj
 0001:000022e0       ?linear@VImage@vips@@QEAA?AV12@NV?$vector@NV?$allocator@N@std@@@std@@PEAVVOption@2@@Z 00000001800032e0 f i VError.obj
 0001:000023b0       ?bandjoin@VImage@vips@@QEAA?AV12@NPEAVVOption@2@@Z 00000001800033b0 f i VError.obj
 0001:00002410       ?bandjoin@VImage@vips@@QEAA?AV12@V?$vector@NV?$allocator@N@std@@@std@@PEAVVOption@2@@Z 0000000180003410 f i VError.obj
 0001:000024c0       ?fliphor@VImage@vips@@QEAA?AV12@PEAVVOption@2@@Z 00000001800034c0 f i VError.obj
 0001:000024f0       ?flipver@VImage@vips@@QEAA?AV12@PEAVVOption@2@@Z 00000001800034f0 f i VError.obj
 0001:00002520       ?rot90@VImage@vips@@QEAA?AV12@PEAVVOption@2@@Z 0000000180003520 f i VError.obj
 0001:00002550       ?rot180@VImage@vips@@QEAA?AV12@PEAVVOption@2@@Z 0000000180003550 f i VError.obj
 0001:00002580       ?rot270@VImage@vips@@QEAA?AV12@PEAVVOption@2@@Z 0000000180003580 f i VError.obj
 0001:000025b0       ?dilate@VImage@vips@@QEAA?AV12@V12@PEAVVOption@2@@Z 00000001800035b0 f i VError.obj
 0001:000026b0       ?erode@VImage@vips@@QEAA?AV12@V12@PEAVVOption@2@@Z 00000001800036b0 f i VError.obj
 0001:000027b0       ?median@VImage@vips@@QEAA?AV12@HPEAVVOption@2@@Z 00000001800037b0 f i VError.obj
 0001:000027f0       ?floor@VImage@vips@@QEAA?AV12@PEAVVOption@2@@Z 00000001800037f0 f i VError.obj
 0001:00002820       ?ceil@VImage@vips@@QEAA?AV12@PEAVVOption@2@@Z 0000000180003820 f i VError.obj
 0001:00002850       ?rint@VImage@vips@@QEAA?AV12@PEAVVOption@2@@Z 0000000180003850 f i VError.obj
 0001:00002880       ?real@VImage@vips@@QEAA?AV12@PEAVVOption@2@@Z 0000000180003880 f i VError.obj
 0001:000028b0       ?imag@VImage@vips@@QEAA?AV12@PEAVVOption@2@@Z 00000001800038b0 f i VError.obj
 0001:000028e0       ?polar@VImage@vips@@QEAA?AV12@PEAVVOption@2@@Z 00000001800038e0 f i VError.obj
 0001:00002910       ?rect@VImage@vips@@QEAA?AV12@PEAVVOption@2@@Z 0000000180003910 f i VError.obj
 0001:00002940       ?conj@VImage@vips@@QEAA?AV12@PEAVVOption@2@@Z 0000000180003940 f i VError.obj
 0001:00002970       ?sin@VImage@vips@@QEAA?AV12@PEAVVOption@2@@Z 0000000180003970 f i VError.obj
 0001:000029a0       ?cos@VImage@vips@@QEAA?AV12@PEAVVOption@2@@Z 00000001800039a0 f i VError.obj
 0001:000029d0       ?tan@VImage@vips@@QEAA?AV12@PEAVVOption@2@@Z 00000001800039d0 f i VError.obj
 0001:00002a00       ?asin@VImage@vips@@QEAA?AV12@PEAVVOption@2@@Z 0000000180003a00 f i VError.obj
 0001:00002a30       ?acos@VImage@vips@@QEAA?AV12@PEAVVOption@2@@Z 0000000180003a30 f i VError.obj
 0001:00002a60       ?atan@VImage@vips@@QEAA?AV12@PEAVVOption@2@@Z 0000000180003a60 f i VError.obj
 0001:00002a90       ?log@VImage@vips@@QEAA?AV12@PEAVVOption@2@@Z 0000000180003a90 f i VError.obj
 0001:00002ac0       ?log10@VImage@vips@@QEAA?AV12@PEAVVOption@2@@Z 0000000180003ac0 f i VError.obj
 0001:00002af0       ?exp@VImage@vips@@QEAA?AV12@PEAVVOption@2@@Z 0000000180003af0 f i VError.obj
 0001:00002b20       ?exp10@VImage@vips@@QEAA?AV12@PEAVVOption@2@@Z 0000000180003b20 f i VError.obj
 0001:00002b50       ?pow@VImage@vips@@QEAA?AV12@V12@PEAVVOption@2@@Z 0000000180003b50 f i VError.obj
 0001:00002c50       ?pow@VImage@vips@@QEAA?AV12@NPEAVVOption@2@@Z 0000000180003c50 f i VError.obj
 0001:00002cb0       ?pow@VImage@vips@@QEAA?AV12@V?$vector@NV?$allocator@N@std@@@std@@PEAVVOption@2@@Z 0000000180003cb0 f i VError.obj
 0001:00002d50       ?wop@VImage@vips@@QEAA?AV12@V12@PEAVVOption@2@@Z 0000000180003d50 f i VError.obj
 0001:00002e50       ?wop@VImage@vips@@QEAA?AV12@NPEAVVOption@2@@Z 0000000180003e50 f i VError.obj
 0001:00002eb0       ?wop@VImage@vips@@QEAA?AV12@V?$vector@NV?$allocator@N@std@@@std@@PEAVVOption@2@@Z 0000000180003eb0 f i VError.obj
 0001:00002f50       ?ifthenelse@VImage@vips@@QEAA?AV12@V?$vector@NV?$allocator@N@std@@@std@@V12@PEAVVOption@2@@Z 0000000180003f50 f i VError.obj
 0001:000030a0       ?ifthenelse@VImage@vips@@QEAA?AV12@V12@V?$vector@NV?$allocator@N@std@@@std@@PEAVVOption@2@@Z 00000001800040a0 f i VError.obj
 0001:00003200       ?ifthenelse@VImage@vips@@QEAA?AV12@V?$vector@NV?$allocator@N@std@@@std@@0PEAVVOption@2@@Z 0000000180004200 f i VError.obj
 0001:00003310       ?ifthenelse@VImage@vips@@QEAA?AV12@NV12@PEAVVOption@2@@Z 0000000180004310 f i VError.obj
 0001:00003440       ?ifthenelse@VImage@vips@@QEAA?AV12@V12@NPEAVVOption@2@@Z 0000000180004440 f i VError.obj
 0001:00003560       ?ifthenelse@VImage@vips@@QEAA?AV12@NNPEAVVOption@2@@Z 0000000180004560 f i VError.obj
 0001:00003600       ??1VImage@vips@@QEAA@XZ    0000000180004600 f i VError.obj
 0001:00003600       ??1VInterpolate@vips@@QEAA@XZ 0000000180004600 f i VError.obj
 0001:00003670       ??0VImage@vips@@QEAA@AEBV01@@Z 0000000180004670 f i VError.obj
 0001:00003670       ??0VInterpolate@vips@@QEAA@$$QEAV01@@Z 0000000180004670 f i VError.obj
 0001:00003670       ??0VImage@vips@@QEAA@$$QEAV01@@Z 0000000180004670 f i VError.obj
 0001:00003670       ??0VInterpolate@vips@@QEAA@AEBV01@@Z 0000000180004670 f i VError.obj
 0001:000036e0       ??4VImage@vips@@QEAAAEAV01@$$QEAV01@@Z 00000001800046e0 f i VError.obj
 0001:000036e0       ??4VImage@vips@@QEAAAEAV01@AEBV01@@Z 00000001800046e0 f i VError.obj
 0001:000036e0       ??4VInterpolate@vips@@QEAAAEAV01@$$QEAV01@@Z 00000001800046e0 f i VError.obj
 0001:000036e0       ??4VInterpolate@vips@@QEAAAEAV01@AEBV01@@Z 00000001800046e0 f i VError.obj
 0001:00003700       ?ostream_print@VError@vips@@QEBAXAEAV?$basic_ostream@DU?$char_traits@D@std@@@std@@@Z 0000000180004700 f   VError.obj
 0001:00003710       ??0?$list@PEAUPair@VOption@vips@@V?$allocator@PEAUPair@VOption@vips@@@std@@@std@@QEAA@AEBV01@@Z 0000000180004710 f i VError.obj
 0001:000037a0       ??1?$vector@NV?$allocator@N@std@@@std@@QEAA@XZ 00000001800047a0 f i VError.obj
 0001:000037e0       ??0?$vector@NV?$allocator@N@std@@@std@@QEAA@AEBV01@@Z 00000001800047e0 f i VError.obj
 0001:00003890       ??1?$basic_string@DU?$char_traits@D@std@@V?$allocator@D@2@@std@@QEAA@XZ 0000000180004890 f i VError.obj
 0001:00003920       ??1?$_List_buy@PEAUPair@VOption@vips@@V?$allocator@PEAUPair@VOption@vips@@@std@@@std@@QEAA@XZ 0000000180004920 f i VError.obj
 0001:00003930       ?assign@?$basic_string@DU?$char_traits@D@std@@V?$allocator@D@2@@std@@QEAAAEAV12@PEBD_K@Z 0000000180004930 f i VError.obj
 0001:00003a60       ?assign@?$basic_string@DU?$char_traits@D@std@@V?$allocator@D@2@@std@@QEAAAEAV12@AEBV12@_K1@Z 0000000180004a60 f i VError.obj
 0001:00003b90       ?append@?$basic_string@DU?$char_traits@D@std@@V?$allocator@D@2@@std@@QEAAAEAV12@PEBD_K@Z 0000000180004b90 f i VError.obj
 0001:00003ce0       ?append@?$basic_string@DU?$char_traits@D@std@@V?$allocator@D@2@@std@@QEAAAEAV12@AEBV12@_K1@Z 0000000180004ce0 f i VError.obj
 0001:00003e10       ?_Assign_rv@?$basic_string@DU?$char_traits@D@std@@V?$allocator@D@2@@std@@QEAAX$$QEAV12@@Z 0000000180004e10 f i VError.obj
 0001:00003e90       ?deallocate@?$_Wrap_alloc@V?$allocator@N@std@@@std@@QEAAXPEAN_K@Z 0000000180004e90 f i VError.obj
 0001:00003e90       ?deallocate@?$_Wrap_alloc@V?$allocator@VVImage@vips@@@std@@@std@@QEAAXPEAVVImage@vips@@_K@Z 0000000180004e90 f i VImage.obj
 0001:00003f00       ?allocate@?$_Wrap_alloc@V?$allocator@VVImage@vips@@@std@@@std@@QEAAPEAVVImage@vips@@_K@Z 0000000180004f00 f i VImage.obj
 0001:00003f00       ?allocate@?$_Wrap_alloc@V?$allocator@N@std@@@std@@QEAAPEAN_K@Z 0000000180004f00 f i VError.obj
 0001:00003f70       ?erase@?$basic_string@DU?$char_traits@D@std@@V?$allocator@D@2@@std@@QEAAAEAV12@_K0@Z 0000000180004f70 f i VError.obj
 0001:00004010       ?_Copy@?$basic_string@DU?$char_traits@D@std@@V?$allocator@D@2@@std@@QEAAX_K0@Z 0000000180005010 f i VError.obj
 0001:00004190       ??$_Immortalize@V_Iostream_error_category@std@@@std@@YAAEAV_Iostream_error_category@0@XZ 0000000180005190 f i VError.obj
 0001:00004210       ??$?6DU?$char_traits@D@std@@V?$allocator@D@1@@std@@YAAEAV?$basic_ostream@DU?$char_traits@D@std@@@0@AEAV10@AEBV?$basic_string@DU?$char_traits@D@std@@V?$allocator@D@2@@0@@Z 0000000180005210 f i VError.obj
 0001:00004470       ??$assign@V?$_List_const_iterator@V?$_List_val@U?$_List_simple_types@PEAUPair@VOption@vips@@@std@@@std@@@std@@@?$list@PEAUPair@VOption@vips@@V?$allocator@PEAUPair@VOption@vips@@@std@@@std@@QEAAXV?$_List_const_iterator@V?$_List_val@U?$_List_simple_types@PEAUPair@VOption@vips@@@std@@@std@@@1@0@Z 0000000180005470 f i VError.obj
 0001:00004580       ??1sentry@?$basic_ostream@DU?$char_traits@D@std@@@std@@QEAA@XZ 0000000180005580 f i VError.obj
 0001:00004600       ??0sentry@?$basic_ostream@DU?$char_traits@D@std@@@std@@QEAA@AEAV12@@Z 0000000180005600 f i VError.obj
 0001:00004680       ??1_Sentry_base@?$basic_ostream@DU?$char_traits@D@std@@@std@@QEAA@XZ 0000000180005680 f i VError.obj
 0001:000046a0       ?flush@?$basic_ostream@DU?$char_traits@D@std@@@std@@QEAAAEAV12@XZ 00000001800056a0 f i VError.obj
 0001:00004790       ??$_Insert@AEBQEAUPair@VOption@vips@@@?$list@PEAUPair@VOption@vips@@V?$allocator@PEAUPair@VOption@vips@@@std@@@std@@QEAAXV?$_List_unchecked_const_iterator@V?$_List_val@U?$_List_simple_types@PEAUPair@VOption@vips@@@std@@@std@@U_Iterator_base0@2@@1@AEBQEAUPair@VOption@vips@@@Z 0000000180005790 f i VError.obj
 0001:00004840       ?new_from_name@VInterpolate@vips@@SA?AV12@PEBDPEAVVOption@2@@Z 0000000180005840 f   VInterpolate.obj
 0001:00004970       ?set@VOption@vips@@QEAAPEAV12@PEBDVVInterpolate@2@@Z 0000000180005970 f   VInterpolate.obj
 0001:00004af0       ?to_vectorv@vips@@YA?AV?$vector@NV?$allocator@N@std@@@std@@HZZ 0000000180005af0 f   VImage.obj
 0001:00004b60       ?to_vector@vips@@YA?AV?$vector@NV?$allocator@N@std@@@std@@N@Z 0000000180005b60 f   VImage.obj
 0001:00004b90       ?to_vector@vips@@YA?AV?$vector@NV?$allocator@N@std@@@std@@HQEAN@Z 0000000180005b90 f   VImage.obj
 0001:00004c80       ?negate@vips@@YA?AV?$vector@NV?$allocator@N@std@@@std@@V23@@Z 0000000180005c80 f   VImage.obj
 0001:00004da0       ?invert@vips@@YA?AV?$vector@NV?$allocator@N@std@@@std@@V23@@Z 0000000180005da0 f   VImage.obj
 0001:00004ec0       ??1VOption@vips@@UEAA@XZ   0000000180005ec0 f   VImage.obj
 0001:00004f70       ?set@VOption@vips@@QEAAPEAV12@PEBD_N@Z 0000000180005f70 f   VImage.obj
 0001:00005060       ?set@VOption@vips@@QEAAPEAV12@PEBDH@Z 0000000180006060 f   VImage.obj
 0001:00005150       ?set@VOption@vips@@QEAAPEAV12@PEBDN@Z 0000000180006150 f   VImage.obj
 0001:00005250       ?set@VOption@vips@@QEAAPEAV12@PEBD0@Z 0000000180006250 f   VImage.obj
 0001:00005340       ?set@VOption@vips@@QEAAPEAV12@PEBDVVImage@2@@Z 0000000180006340 f   VImage.obj
 0001:000054c0       ?set@VOption@vips@@QEAAPEAV12@PEBDV?$vector@NV?$allocator@N@std@@@std@@@Z 00000001800064c0 f   VImage.obj
 0001:00005690       ?set@VOption@vips@@QEAAPEAV12@PEBDV?$vector@VVImage@vips@@V?$allocator@VVImage@vips@@@std@@@std@@@Z 0000000180006690 f   VImage.obj
 0001:00005920       ?set@VOption@vips@@QEAAPEAV12@PEBDPEAU_VipsBlob@@@Z 0000000180006920 f   VImage.obj
 0001:00005a10       ?set@VOption@vips@@QEAAPEAV12@PEBDPEA_N@Z 0000000180006a10 f   VImage.obj
 0001:00005b00       ?set@VOption@vips@@QEAAPEAV12@PEBDPEAH@Z 0000000180006b00 f   VImage.obj
 0001:00005bf0       ?set@VOption@vips@@QEAAPEAV12@PEBDPEAN@Z 0000000180006bf0 f   VImage.obj
 0001:00005ce0       ?set@VOption@vips@@QEAAPEAV12@PEBDPEAVVImage@2@@Z 0000000180006ce0 f   VImage.obj
 0001:00005dd0       ?set@VOption@vips@@QEAAPEAV12@PEBDPEAV?$vector@NV?$allocator@N@std@@@std@@@Z 0000000180006dd0 f   VImage.obj
 0001:00005ec0       ?set@VOption@vips@@QEAAPEAV12@PEBDPEAPEAU_VipsBlob@@@Z 0000000180006ec0 f   VImage.obj
 0001:00006110       ?set_operation@VOption@vips@@QEAAXPEAU_VipsOperation@@@Z 0000000180007110 f   VImage.obj
 0001:00006190       ?get_operation@VOption@vips@@QEAAXPEAU_VipsOperation@@@Z 0000000180007190 f   VImage.obj
 0001:000063e0       ?call_option_string@VImage@vips@@SAXPEBD0PEAVVOption@2@@Z 00000001800073e0 f   VImage.obj
 0001:00006650       ?call@VImage@vips@@SAXPEBDPEAVVOption@2@@Z 0000000180007650 f   VImage.obj
 0001:00006660       ?new_from_file@VImage@vips@@SA?AV12@PEBDPEAVVOption@2@@Z 0000000180007660 f   VImage.obj
 0001:000067c0       ?new_from_buffer@VImage@vips@@SA?AV12@PEAX_KPEBDPEAVVOption@2@@Z 00000001800077c0 f   VImage.obj
 0001:00006920       ?new_from_image@VImage@vips@@QEAA?AV12@V?$vector@NV?$allocator@N@std@@@std@@@Z 0000000180007920 f   VImage.obj
 0001:00006ee0       ?new_from_image@VImage@vips@@QEAA?AV12@N@Z 0000000180007ee0 f   VImage.obj
 0001:00006f30       ?new_matrix@VImage@vips@@SA?AV12@HH@Z 0000000180007f30 f   VImage.obj
 0001:00006fa0       ?new_matrixv@VImage@vips@@SA?AV12@HHZZ 0000000180007fa0 f   VImage.obj
 0001:000070d0       ?write@VImage@vips@@QEAA?AV12@V12@@Z 00000001800080d0 f   VImage.obj
 0001:000072d0       ?write_to_file@VImage@vips@@QEAAXPEBDPEAVVOption@2@@Z 00000001800082d0 f   VImage.obj
 0001:00007460       ?write_to_buffer@VImage@vips@@QEAAXPEBDPEAPEAXPEA_KPEAVVOption@2@@Z 0000000180008460 f   VImage.obj
 0001:00007640       ?system@VImage@vips@@SAXPEADPEAVVOption@2@@Z 0000000180008640 f   VImage.obj
 0001:00007680       ?add@VImage@vips@@QEAA?AV12@V12@PEAVVOption@2@@Z 0000000180008680 f   VImage.obj
 0001:00007820       ?subtract@VImage@vips@@QEAA?AV12@V12@PEAVVOption@2@@Z 0000000180008820 f   VImage.obj
 0001:000079c0       ?multiply@VImage@vips@@QEAA?AV12@V12@PEAVVOption@2@@Z 00000001800089c0 f   VImage.obj
 0001:00007b60       ?divide@VImage@vips@@QEAA?AV12@V12@PEAVVOption@2@@Z 0000000180008b60 f   VImage.obj
 0001:00007d00       ?relational@VImage@vips@@QEAA?AV12@V12@W4VipsOperationRelational@@PEAVVOption@2@@Z 0000000180008d00 f   VImage.obj
 0001:00007ec0       ?remainder@VImage@vips@@QEAA?AV12@V12@PEAVVOption@2@@Z 0000000180008ec0 f   VImage.obj
 0001:00008060       ?boolean@VImage@vips@@QEAA?AV12@V12@W4VipsOperationBoolean@@PEAVVOption@2@@Z 0000000180009060 f   VImage.obj
 0001:00008220       ?math2@VImage@vips@@QEAA?AV12@V12@W4VipsOperationMath2@@PEAVVOption@2@@Z 0000000180009220 f   VImage.obj
 0001:000083e0       ?complex2@VImage@vips@@QEAA?AV12@V12@W4VipsOperationComplex2@@PEAVVOption@2@@Z 00000001800093e0 f   VImage.obj
 0001:000085a0       ?complexform@VImage@vips@@QEAA?AV12@V12@PEAVVOption@2@@Z 00000001800095a0 f   VImage.obj
 0001:00008740       ?sum@VImage@vips@@SA?AV12@V?$vector@VVImage@vips@@V?$allocator@VVImage@vips@@@std@@@std@@PEAVVOption@2@@Z 0000000180009740 f   VImage.obj
 0001:00008810       ?invert@VImage@vips@@QEAA?AV12@PEAVVOption@2@@Z 0000000180009810 f   VImage.obj
 0001:000088f0       ?linear@VImage@vips@@QEAA?AV12@V?$vector@NV?$allocator@N@std@@@std@@0PEAVVOption@2@@Z 00000001800098f0 f   VImage.obj
 0001:00008aa0       ?math@VImage@vips@@QEAA?AV12@W4VipsOperationMath@@PEAVVOption@2@@Z 0000000180009aa0 f   VImage.obj
 0001:00008b90       ?abs@VImage@vips@@QEAA?AV12@PEAVVOption@2@@Z 0000000180009b90 f   VImage.obj
 0001:00008c70       ?sign@VImage@vips@@QEAA?AV12@PEAVVOption@2@@Z 0000000180009c70 f   VImage.obj
 0001:00008d50       ?round@VImage@vips@@QEAA?AV12@W4VipsOperationRound@@PEAVVOption@2@@Z 0000000180009d50 f   VImage.obj
 0001:00008e40       ?relational_const@VImage@vips@@QEAA?AV12@W4VipsOperationRelational@@V?$vector@NV?$allocator@N@std@@@std@@PEAVVOption@2@@Z 0000000180009e40 f   VImage.obj
 0001:00008fa0       ?remainder_const@VImage@vips@@QEAA?AV12@V?$vector@NV?$allocator@N@std@@@std@@PEAVVOption@2@@Z 0000000180009fa0 f   VImage.obj
 0001:000090e0       ?boolean_const@VImage@vips@@QEAA?AV12@W4VipsOperationBoolean@@V?$vector@NV?$allocator@N@std@@@std@@PEAVVOption@2@@Z 000000018000a0e0 f   VImage.obj
 0001:00009240       ?math2_const@VImage@vips@@QEAA?AV12@W4VipsOperationMath2@@V?$vector@NV?$allocator@N@std@@@std@@PEAVVOption@2@@Z 000000018000a240 f   VImage.obj
 0001:000093a0       ?complex@VImage@vips@@QEAA?AV12@W4VipsOperationComplex@@PEAVVOption@2@@Z 000000018000a3a0 f   VImage.obj
 0001:00009490       ?complexget@VImage@vips@@QEAA?AV12@W4VipsOperationComplexget@@PEAVVOption@2@@Z 000000018000a490 f   VImage.obj
 0001:00009580       ?avg@VImage@vips@@QEAANPEAVVOption@2@@Z 000000018000a580 f   VImage.obj
 0001:00009640       ?min@VImage@vips@@QEAANPEAVVOption@2@@Z 000000018000a640 f   VImage.obj
 0001:00009700       ?max@VImage@vips@@QEAANPEAVVOption@2@@Z 000000018000a700 f   VImage.obj
 0001:000097c0       ?deviate@VImage@vips@@QEAANPEAVVOption@2@@Z 000000018000a7c0 f   VImage.obj
 0001:00009880       ?stats@VImage@vips@@QEAA?AV12@PEAVVOption@2@@Z 000000018000a880 f   VImage.obj
 0001:00009960       ?hist_find@VImage@vips@@QEAA?AV12@PEAVVOption@2@@Z 000000018000a960 f   VImage.obj
 0001:00009a40       ?hist_find_ndim@VImage@vips@@QEAA?AV12@PEAVVOption@2@@Z 000000018000aa40 f   VImage.obj
 0001:00009b20       ?hist_find_indexed@VImage@vips@@QEAA?AV12@V12@PEAVVOption@2@@Z 000000018000ab20 f   VImage.obj
 0001:00009cc0       ?hough_line@VImage@vips@@QEAA?AV12@PEAVVOption@2@@Z 000000018000acc0 f   VImage.obj
 0001:00009da0       ?hough_circle@VImage@vips@@QEAA?AV12@PEAVVOption@2@@Z 000000018000ada0 f   VImage.obj
 0001:00009e80       ?project@VImage@vips@@QEAA?AV12@PEAV12@PEAVVOption@2@@Z 000000018000ae80 f   VImage.obj
 0001:00009f70       ?profile@VImage@vips@@QEAA?AV12@PEAV12@PEAVVOption@2@@Z 000000018000af70 f   VImage.obj
 0001:0000a060       ?measure@VImage@vips@@QEAA?AV12@HHPEAVVOption@2@@Z 000000018000b060 f   VImage.obj
 0001:0000a180       ?getpoint@VImage@vips@@QEAA?AV?$vector@NV?$allocator@N@std@@@std@@HHPEAVVOption@2@@Z 000000018000b180 f   VImage.obj
 0001:0000a2a0       ?copy@VImage@vips@@QEAA?AV12@PEAVVOption@2@@Z 000000018000b2a0 f   VImage.obj
 0001:0000a380       ?tilecache@VImage@vips@@QEAA?AV12@PEAVVOption@2@@Z 000000018000b380 f   VImage.obj
 0001:0000a460       ?linecache@VImage@vips@@QEAA?AV12@PEAVVOption@2@@Z 000000018000b460 f   VImage.obj
 0001:0000a540       ?sequential@VImage@vips@@QEAA?AV12@PEAVVOption@2@@Z 000000018000b540 f   VImage.obj
 0001:0000a620       ?cache@VImage@vips@@QEAA?AV12@PEAVVOption@2@@Z 000000018000b620 f   VImage.obj
 0001:0000a700       ?embed@VImage@vips@@QEAA?AV12@HHHHPEAVVOption@2@@Z 000000018000b700 f   VImage.obj
 0001:0000a840       ?flip@VImage@vips@@QEAA?AV12@W4VipsDirection@@PEAVVOption@2@@Z 000000018000b840 f   VImage.obj
 0001:0000a930       ?insert@VImage@vips@@QEAA?AV12@V12@HHPEAVVOption@2@@Z 000000018000b930 f   VImage.obj
 0001:0000ab10       ?join@VImage@vips@@QEAA?AV12@V12@W4VipsDirection@@PEAVVOption@2@@Z 000000018000bb10 f   VImage.obj
 0001:0000acd0       ?arrayjoin@VImage@vips@@SA?AV12@V?$vector@VVImage@vips@@V?$allocator@VVImage@vips@@@std@@@std@@PEAVVOption@2@@Z 000000018000bcd0 f   VImage.obj
 0001:0000ada0       ?extract_area@VImage@vips@@QEAA?AV12@HHHHPEAVVOption@2@@Z 000000018000bda0 f   VImage.obj
 0001:0000aee0       ?smartcrop@VImage@vips@@QEAA?AV12@HHPEAVVOption@2@@Z 000000018000bee0 f   VImage.obj
 0001:0000b000       ?extract_band@VImage@vips@@QEAA?AV12@HPEAVVOption@2@@Z 000000018000c000 f   VImage.obj
 0001:0000b0f0       ?bandjoin@VImage@vips@@SA?AV12@V?$vector@VVImage@vips@@V?$allocator@VVImage@vips@@@std@@@std@@PEAVVOption@2@@Z 000000018000c0f0 f   VImage.obj
 0001:0000b1c0       ?bandjoin_const@VImage@vips@@QEAA?AV12@V?$vector@NV?$allocator@N@std@@@std@@PEAVVOption@2@@Z 000000018000c1c0 f   VImage.obj
 0001:0000b300       ?bandrank@VImage@vips@@SA?AV12@V?$vector@VVImage@vips@@V?$allocator@VVImage@vips@@@std@@@std@@PEAVVOption@2@@Z 000000018000c300 f   VImage.obj
 0001:0000b3d0       ?bandmean@VImage@vips@@QEAA?AV12@PEAVVOption@2@@Z 000000018000c3d0 f   VImage.obj
 0001:0000b4b0       ?bandbool@VImage@vips@@QEAA?AV12@W4VipsOperationBoolean@@PEAVVOption@2@@Z 000000018000c4b0 f   VImage.obj
 0001:0000b5a0       ?replicate@VImage@vips@@QEAA?AV12@HHPEAVVOption@2@@Z 000000018000c5a0 f   VImage.obj
 0001:0000b6c0       ?cast@VImage@vips@@QEAA?AV12@W4VipsBandFormat@@PEAVVOption@2@@Z 000000018000c6c0 f   VImage.obj
 0001:0000b7b0       ?rot@VImage@vips@@QEAA?AV12@W4VipsAngle@@PEAVVOption@2@@Z 000000018000c7b0 f   VImage.obj
 0001:0000b8a0       ?rot45@VImage@vips@@QEAA?AV12@PEAVVOption@2@@Z 000000018000c8a0 f   VImage.obj
 0001:0000b980       ?autorot@VImage@vips@@QEAA?AV12@PEAVVOption@2@@Z 000000018000c980 f   VImage.obj
 0001:0000ba60       ?ifthenelse@VImage@vips@@QEAA?AV12@V12@0PEAVVOption@2@@Z 000000018000ca60 f   VImage.obj
 0001:0000bcb0       ?recomb@VImage@vips@@QEAA?AV12@V12@PEAVVOption@2@@Z 000000018000ccb0 f   VImage.obj
 0001:0000be50       ?bandfold@VImage@vips@@QEAA?AV12@PEAVVOption@2@@Z 000000018000ce50 f   VImage.obj
 0001:0000bf30       ?bandunfold@VImage@vips@@QEAA?AV12@PEAVVOption@2@@Z 000000018000cf30 f   VImage.obj
 0001:0000c010       ?flatten@VImage@vips@@QEAA?AV12@PEAVVOption@2@@Z 000000018000d010 f   VImage.obj
 0001:0000c0f0       ?premultiply@VImage@vips@@QEAA?AV12@PEAVVOption@2@@Z 000000018000d0f0 f   VImage.obj
 0001:0000c1d0       ?unpremultiply@VImage@vips@@QEAA?AV12@PEAVVOption@2@@Z 000000018000d1d0 f   VImage.obj
 0001:0000c2b0       ?grid@VImage@vips@@QEAA?AV12@HHHPEAVVOption@2@@Z 000000018000d2b0 f   VImage.obj
 0001:0000c3e0       ?scale@VImage@vips@@QEAA?AV12@PEAVVOption@2@@Z 000000018000d3e0 f   VImage.obj
 0001:0000c4c0       ?wrap@VImage@vips@@QEAA?AV12@PEAVVOption@2@@Z 000000018000d4c0 f   VImage.obj
 0001:0000c5a0       ?zoom@VImage@vips@@QEAA?AV12@HHPEAVVOption@2@@Z 000000018000d5a0 f   VImage.obj
 0001:0000c6c0       ?subsample@VImage@vips@@QEAA?AV12@HHPEAVVOption@2@@Z 000000018000d6c0 f   VImage.obj
 0001:0000c7e0       ?msb@VImage@vips@@QEAA?AV12@PEAVVOption@2@@Z 000000018000d7e0 f   VImage.obj
 0001:0000c8c0       ?byteswap@VImage@vips@@QEAA?AV12@PEAVVOption@2@@Z 000000018000d8c0 f   VImage.obj
 0001:0000c9a0       ?falsecolour@VImage@vips@@QEAA?AV12@PEAVVOption@2@@Z 000000018000d9a0 f   VImage.obj
 0001:0000ca80       ?gamma@VImage@vips@@QEAA?AV12@PEAVVOption@2@@Z 000000018000da80 f   VImage.obj
 0001:0000cb60       ?black@VImage@vips@@SA?AV12@HHPEAVVOption@2@@Z 000000018000db60 f   VImage.obj
 0001:0000cc00       ?gaussnoise@VImage@vips@@SA?AV12@HHPEAVVOption@2@@Z 000000018000dc00 f   VImage.obj
 0001:0000cca0       ?text@VImage@vips@@SA?AV12@PEADPEAVVOption@2@@Z 000000018000dca0 f   VImage.obj
 0001:0000cd20       ?xyz@VImage@vips@@SA?AV12@HHPEAVVOption@2@@Z 000000018000dd20 f   VImage.obj
 0001:0000cdc0       ?gaussmat@VImage@vips@@SA?AV12@NNPEAVVOption@2@@Z 000000018000ddc0 f   VImage.obj
 0001:0000ce60       ?logmat@VImage@vips@@SA?AV12@NNPEAVVOption@2@@Z 000000018000de60 f   VImage.obj
 0001:0000cf00       ?eye@VImage@vips@@SA?AV12@HHPEAVVOption@2@@Z 000000018000df00 f   VImage.obj
 0001:0000cfa0       ?grey@VImage@vips@@SA?AV12@HHPEAVVOption@2@@Z 000000018000dfa0 f   VImage.obj
 0001:0000d040       ?zone@VImage@vips@@SA?AV12@HHPEAVVOption@2@@Z 000000018000e040 f   VImage.obj
 0001:0000d0e0       ?sines@VImage@vips@@SA?AV12@HHPEAVVOption@2@@Z 000000018000e0e0 f   VImage.obj
 0001:0000d180       ?mask_ideal@VImage@vips@@SA?AV12@HHNPEAVVOption@2@@Z 000000018000e180 f   VImage.obj
 0001:0000d240       ?mask_ideal_ring@VImage@vips@@SA?AV12@HHNNPEAVVOption@2@@Z 000000018000e240 f   VImage.obj
 0001:0000d320       ?mask_ideal_band@VImage@vips@@SA?AV12@HHNNNPEAVVOption@2@@Z 000000018000e320 f   VImage.obj
 0001:0000d410       ?mask_butterworth@VImage@vips@@SA?AV12@HHNNNPEAVVOption@2@@Z 000000018000e410 f   VImage.obj
 0001:0000d500       ?mask_butterworth_ring@VImage@vips@@SA?AV12@HHNNNNPEAVVOption@2@@Z 000000018000e500 f   VImage.obj
 0001:0000d610       ?mask_butterworth_band@VImage@vips@@SA?AV12@HHNNNNNPEAVVOption@2@@Z 000000018000e610 f   VImage.obj
 0001:0000d730       ?mask_gaussian@VImage@vips@@SA?AV12@HHNNPEAVVOption@2@@Z 000000018000e730 f   VImage.obj
 0001:0000d810       ?mask_gaussian_ring@VImage@vips@@SA?AV12@HHNNNPEAVVOption@2@@Z 000000018000e810 f   VImage.obj
 0001:0000d900       ?mask_gaussian_band@VImage@vips@@SA?AV12@HHNNNNPEAVVOption@2@@Z 000000018000e900 f   VImage.obj
 0001:0000da10       ?mask_fractal@VImage@vips@@SA?AV12@HHNPEAVVOption@2@@Z 000000018000ea10 f   VImage.obj
 0001:0000dad0       ?buildlut@VImage@vips@@QEAA?AV12@PEAVVOption@2@@Z 000000018000ead0 f   VImage.obj
 0001:0000dbb0       ?invertlut@VImage@vips@@QEAA?AV12@PEAVVOption@2@@Z 000000018000ebb0 f   VImage.obj
 0001:0000dc90       ?tonelut@VImage@vips@@SA?AV12@PEAVVOption@2@@Z 000000018000ec90 f   VImage.obj
 0001:0000dd00       ?identity@VImage@vips@@SA?AV12@PEAVVOption@2@@Z 000000018000ed00 f   VImage.obj
 0001:0000dd70       ?fractsurf@VImage@vips@@SA?AV12@HHNPEAVVOption@2@@Z 000000018000ed70 f   VImage.obj
 0001:0000de30       ?worley@VImage@vips@@SA?AV12@HHPEAVVOption@2@@Z 000000018000ee30 f   VImage.obj
 0001:0000ded0       ?perlin@VImage@vips@@SA?AV12@HHPEAVVOption@2@@Z 000000018000eed0 f   VImage.obj
 0001:0000df70       ?csvload@VImage@vips@@SA?AV12@PEADPEAVVOption@2@@Z 000000018000ef70 f   VImage.obj
 0001:0000dff0       ?matrixload@VImage@vips@@SA?AV12@PEADPEAVVOption@2@@Z 000000018000eff0 f   VImage.obj
 0001:0000e070       ?rawload@VImage@vips@@SA?AV12@PEADHHHPEAVVOption@2@@Z 000000018000f070 f   VImage.obj
 0001:0000e150       ?vipsload@VImage@vips@@SA?AV12@PEADPEAVVOption@2@@Z 000000018000f150 f   VImage.obj
 0001:0000e1d0       ?analyzeload@VImage@vips@@SA?AV12@PEADPEAVVOption@2@@Z 000000018000f1d0 f   VImage.obj
 0001:0000e250       ?ppmload@VImage@vips@@SA?AV12@PEADPEAVVOption@2@@Z 000000018000f250 f   VImage.obj
 0001:0000e2d0       ?radload@VImage@vips@@SA?AV12@PEADPEAVVOption@2@@Z 000000018000f2d0 f   VImage.obj
 0001:0000e350       ?pdfload@VImage@vips@@SA?AV12@PEADPEAVVOption@2@@Z 000000018000f350 f   VImage.obj
 0001:0000e3d0       ?pdfload_buffer@VImage@vips@@SA?AV12@PEAU_VipsBlob@@PEAVVOption@2@@Z 000000018000f3d0 f   VImage.obj
 0001:0000e450       ?svgload@VImage@vips@@SA?AV12@PEADPEAVVOption@2@@Z 000000018000f450 f   VImage.obj
 0001:0000e4d0       ?svgload_buffer@VImage@vips@@SA?AV12@PEAU_VipsBlob@@PEAVVOption@2@@Z 000000018000f4d0 f   VImage.obj
 0001:0000e550       ?gifload@VImage@vips@@SA?AV12@PEADPEAVVOption@2@@Z 000000018000f550 f   VImage.obj
 0001:0000e5d0       ?gifload_buffer@VImage@vips@@SA?AV12@PEAU_VipsBlob@@PEAVVOption@2@@Z 000000018000f5d0 f   VImage.obj
 0001:0000e650       ?pngload@VImage@vips@@SA?AV12@PEADPEAVVOption@2@@Z 000000018000f650 f   VImage.obj
 0001:0000e6d0       ?pngload_buffer@VImage@vips@@SA?AV12@PEAU_VipsBlob@@PEAVVOption@2@@Z 000000018000f6d0 f   VImage.obj
 0001:0000e750       ?matload@VImage@vips@@SA?AV12@PEADPEAVVOption@2@@Z 000000018000f750 f   VImage.obj
 0001:0000e7d0       ?jpegload@VImage@vips@@SA?AV12@PEADPEAVVOption@2@@Z 000000018000f7d0 f   VImage.obj
 0001:0000e850       ?jpegload_buffer@VImage@vips@@SA?AV12@PEAU_VipsBlob@@PEAVVOption@2@@Z 000000018000f850 f   VImage.obj
 0001:0000e8d0       ?webpload@VImage@vips@@SA?AV12@PEADPEAVVOption@2@@Z 000000018000f8d0 f   VImage.obj
 0001:0000e950       ?webpload_buffer@VImage@vips@@SA?AV12@PEAU_VipsBlob@@PEAVVOption@2@@Z 000000018000f950 f   VImage.obj
 0001:0000e9d0       ?tiffload@VImage@vips@@SA?AV12@PEADPEAVVOption@2@@Z 000000018000f9d0 f   VImage.obj
 0001:0000ea50       ?tiffload_buffer@VImage@vips@@SA?AV12@PEAU_VipsBlob@@PEAVVOption@2@@Z 000000018000fa50 f   VImage.obj
 0001:0000ead0       ?openslideload@VImage@vips@@SA?AV12@PEADPEAVVOption@2@@Z 000000018000fad0 f   VImage.obj
 0001:0000eb50       ?magickload@VImage@vips@@SA?AV12@PEADPEAVVOption@2@@Z 000000018000fb50 f   VImage.obj
 0001:0000ebd0       ?magickload_buffer@VImage@vips@@SA?AV12@PEAU_VipsBlob@@PEAVVOption@2@@Z 000000018000fbd0 f   VImage.obj
 0001:0000ec50       ?fitsload@VImage@vips@@SA?AV12@PEADPEAVVOption@2@@Z 000000018000fc50 f   VImage.obj
 0001:0000ecd0       ?openexrload@VImage@vips@@SA?AV12@PEADPEAVVOption@2@@Z 000000018000fcd0 f   VImage.obj
 0001:0000ed50       ?csvsave@VImage@vips@@QEAAXPEADPEAVVOption@2@@Z 000000018000fd50 f   VImage.obj
 0001:0000ee10       ?matrixsave@VImage@vips@@QEAAXPEADPEAVVOption@2@@Z 000000018000fe10 f   VImage.obj
 0001:0000eed0       ?matrixprint@VImage@vips@@QEAAXPEAVVOption@2@@Z 000000018000fed0 f   VImage.obj
 0001:0000ef70       ?rawsave@VImage@vips@@QEAAXPEADPEAVVOption@2@@Z 000000018000ff70 f   VImage.obj
 0001:0000f030       ?rawsave_fd@VImage@vips@@QEAAXHPEAVVOption@2@@Z 0000000180010030 f   VImage.obj
 0001:0000f0f0       ?vipssave@VImage@vips@@QEAAXPEADPEAVVOption@2@@Z 00000001800100f0 f   VImage.obj
 0001:0000f1b0       ?ppmsave@VImage@vips@@QEAAXPEADPEAVVOption@2@@Z 00000001800101b0 f   VImage.obj
 0001:0000f270       ?radsave@VImage@vips@@QEAAXPEADPEAVVOption@2@@Z 0000000180010270 f   VImage.obj
 0001:0000f330       ?radsave_buffer@VImage@vips@@QEAAPEAU_VipsBlob@@PEAVVOption@2@@Z 0000000180010330 f   VImage.obj
 0001:0000f3f0       ?dzsave@VImage@vips@@QEAAXPEADPEAVVOption@2@@Z 00000001800103f0 f   VImage.obj
 0001:0000f4b0       ?dzsave_buffer@VImage@vips@@QEAAPEAU_VipsBlob@@PEAVVOption@2@@Z 00000001800104b0 f   VImage.obj
 0001:0000f570       ?pngsave@VImage@vips@@QEAAXPEADPEAVVOption@2@@Z 0000000180010570 f   VImage.obj
 0001:0000f630       ?pngsave_buffer@VImage@vips@@QEAAPEAU_VipsBlob@@PEAVVOption@2@@Z 0000000180010630 f   VImage.obj
 0001:0000f6f0       ?jpegsave@VImage@vips@@QEAAXPEADPEAVVOption@2@@Z 00000001800106f0 f   VImage.obj
 0001:0000f7b0       ?jpegsave_buffer@VImage@vips@@QEAAPEAU_VipsBlob@@PEAVVOption@2@@Z 00000001800107b0 f   VImage.obj
 0001:0000f870       ?jpegsave_mime@VImage@vips@@QEAAXPEAVVOption@2@@Z 0000000180010870 f   VImage.obj
 0001:0000f910       ?webpsave@VImage@vips@@QEAAXPEADPEAVVOption@2@@Z 0000000180010910 f   VImage.obj
 0001:0000f9d0       ?webpsave_buffer@VImage@vips@@QEAAPEAU_VipsBlob@@PEAVVOption@2@@Z 00000001800109d0 f   VImage.obj
 0001:0000fa90       ?tiffsave@VImage@vips@@QEAAXPEADPEAVVOption@2@@Z 0000000180010a90 f   VImage.obj
 0001:0000fb50       ?tiffsave_buffer@VImage@vips@@QEAAPEAU_VipsBlob@@PEAVVOption@2@@Z 0000000180010b50 f   VImage.obj
 0001:0000fc10       ?fitssave@VImage@vips@@QEAAXPEADPEAVVOption@2@@Z 0000000180010c10 f   VImage.obj
 0001:0000fcd0       ?thumbnail@VImage@vips@@SA?AV12@PEADHPEAVVOption@2@@Z 0000000180010cd0 f   VImage.obj
 0001:0000fd70       ?thumbnail_buffer@VImage@vips@@SA?AV12@PEAU_VipsBlob@@HPEAVVOption@2@@Z 0000000180010d70 f   VImage.obj
 0001:0000fe10       ?mapim@VImage@vips@@QEAA?AV12@V12@PEAVVOption@2@@Z 0000000180010e10 f   VImage.obj
 0001:0000ffb0       ?shrink@VImage@vips@@QEAA?AV12@NNPEAVVOption@2@@Z 0000000180010fb0 f   VImage.obj
 0001:000100d0       ?shrinkh@VImage@vips@@QEAA?AV12@HPEAVVOption@2@@Z 00000001800110d0 f   VImage.obj
 0001:000101c0       ?shrinkv@VImage@vips@@QEAA?AV12@HPEAVVOption@2@@Z 00000001800111c0 f   VImage.obj
 0001:000102b0       ?reduceh@VImage@vips@@QEAA?AV12@NPEAVVOption@2@@Z 00000001800112b0 f   VImage.obj
 0001:000103b0       ?reducev@VImage@vips@@QEAA?AV12@NPEAVVOption@2@@Z 00000001800113b0 f   VImage.obj
 0001:000104b0       ?reduce@VImage@vips@@QEAA?AV12@NNPEAVVOption@2@@Z 00000001800114b0 f   VImage.obj
 0001:000105d0       ?quadratic@VImage@vips@@QEAA?AV12@V12@PEAVVOption@2@@Z 00000001800115d0 f   VImage.obj
 0001:00010770       ?affine@VImage@vips@@QEAA?AV12@V?$vector@NV?$allocator@N@std@@@std@@PEAVVOption@2@@Z 0000000180011770 f   VImage.obj
 0001:000108b0       ?similarity@VImage@vips@@QEAA?AV12@PEAVVOption@2@@Z 00000001800118b0 f   VImage.obj
 0001:00010990       ?resize@VImage@vips@@QEAA?AV12@NPEAVVOption@2@@Z 0000000180011990 f   VImage.obj
 0001:00010a90       ?colourspace@VImage@vips@@QEAA?AV12@W4VipsInterpretation@@PEAVVOption@2@@Z 0000000180011a90 f   VImage.obj
 0001:00010b80       ?Lab2XYZ@VImage@vips@@QEAA?AV12@PEAVVOption@2@@Z 0000000180011b80 f   VImage.obj
 0001:00010c60       ?XYZ2Lab@VImage@vips@@QEAA?AV12@PEAVVOption@2@@Z 0000000180011c60 f   VImage.obj
 0001:00010d40       ?Lab2LCh@VImage@vips@@QEAA?AV12@PEAVVOption@2@@Z 0000000180011d40 f   VImage.obj
 0001:00010e20       ?LCh2Lab@VImage@vips@@QEAA?AV12@PEAVVOption@2@@Z 0000000180011e20 f   VImage.obj
 0001:00010f00       ?LCh2CMC@VImage@vips@@QEAA?AV12@PEAVVOption@2@@Z 0000000180011f00 f   VImage.obj
 0001:00010fe0       ?CMC2LCh@VImage@vips@@QEAA?AV12@PEAVVOption@2@@Z 0000000180011fe0 f   VImage.obj
 0001:000110c0       ?XYZ2Yxy@VImage@vips@@QEAA?AV12@PEAVVOption@2@@Z 00000001800120c0 f   VImage.obj
 0001:000111a0       ?Yxy2XYZ@VImage@vips@@QEAA?AV12@PEAVVOption@2@@Z 00000001800121a0 f   VImage.obj
 0001:00011280       ?scRGB2XYZ@VImage@vips@@QEAA?AV12@PEAVVOption@2@@Z 0000000180012280 f   VImage.obj
 0001:00011360       ?XYZ2scRGB@VImage@vips@@QEAA?AV12@PEAVVOption@2@@Z 0000000180012360 f   VImage.obj
 0001:00011440       ?LabQ2Lab@VImage@vips@@QEAA?AV12@PEAVVOption@2@@Z 0000000180012440 f   VImage.obj
 0001:00011520       ?Lab2LabQ@VImage@vips@@QEAA?AV12@PEAVVOption@2@@Z 0000000180012520 f   VImage.obj
 0001:00011600       ?LabQ2LabS@VImage@vips@@QEAA?AV12@PEAVVOption@2@@Z 0000000180012600 f   VImage.obj
 0001:000116e0       ?LabS2LabQ@VImage@vips@@QEAA?AV12@PEAVVOption@2@@Z 00000001800126e0 f   VImage.obj
 0001:000117c0       ?LabS2Lab@VImage@vips@@QEAA?AV12@PEAVVOption@2@@Z 00000001800127c0 f   VImage.obj
 0001:000118a0       ?Lab2LabS@VImage@vips@@QEAA?AV12@PEAVVOption@2@@Z 00000001800128a0 f   VImage.obj
 0001:00011980       ?rad2float@VImage@vips@@QEAA?AV12@PEAVVOption@2@@Z 0000000180012980 f   VImage.obj
 0001:00011a60       ?float2rad@VImage@vips@@QEAA?AV12@PEAVVOption@2@@Z 0000000180012a60 f   VImage.obj
 0001:00011b40       ?LabQ2sRGB@VImage@vips@@QEAA?AV12@PEAVVOption@2@@Z 0000000180012b40 f   VImage.obj
 0001:00011c20       ?sRGB2HSV@VImage@vips@@QEAA?AV12@PEAVVOption@2@@Z 0000000180012c20 f   VImage.obj
 0001:00011d00       ?HSV2sRGB@VImage@vips@@QEAA?AV12@PEAVVOption@2@@Z 0000000180012d00 f   VImage.obj
 0001:00011de0       ?icc_import@VImage@vips@@QEAA?AV12@PEAVVOption@2@@Z 0000000180012de0 f   VImage.obj
 0001:00011ec0       ?icc_export@VImage@vips@@QEAA?AV12@PEAVVOption@2@@Z 0000000180012ec0 f   VImage.obj
 0001:00011fa0       ?icc_transform@VImage@vips@@QEAA?AV12@PEADPEAVVOption@2@@Z 0000000180012fa0 f   VImage.obj
 0001:00012090       ?dE76@VImage@vips@@QEAA?AV12@V12@PEAVVOption@2@@Z 0000000180013090 f   VImage.obj
 0001:00012230       ?dE00@VImage@vips@@QEAA?AV12@V12@PEAVVOption@2@@Z 0000000180013230 f   VImage.obj
 0001:000123d0       ?dECMC@VImage@vips@@QEAA?AV12@V12@PEAVVOption@2@@Z 00000001800133d0 f   VImage.obj
 0001:00012570       ?sRGB2scRGB@VImage@vips@@QEAA?AV12@PEAVVOption@2@@Z 0000000180013570 f   VImage.obj
 0001:00012650       ?scRGB2BW@VImage@vips@@QEAA?AV12@PEAVVOption@2@@Z 0000000180013650 f   VImage.obj
 0001:00012730       ?scRGB2sRGB@VImage@vips@@QEAA?AV12@PEAVVOption@2@@Z 0000000180013730 f   VImage.obj
 0001:00012810       ?maplut@VImage@vips@@QEAA?AV12@V12@PEAVVOption@2@@Z 0000000180013810 f   VImage.obj
 0001:000129b0       ?percent@VImage@vips@@QEAAHNPEAVVOption@2@@Z 00000001800139b0 f   VImage.obj
 0001:00012a90       ?stdif@VImage@vips@@QEAA?AV12@HHPEAVVOption@2@@Z 0000000180013a90 f   VImage.obj
 0001:00012bb0       ?hist_cum@VImage@vips@@QEAA?AV12@PEAVVOption@2@@Z 0000000180013bb0 f   VImage.obj
 0001:00012c90       ?hist_match@VImage@vips@@QEAA?AV12@V12@PEAVVOption@2@@Z 0000000180013c90 f   VImage.obj
 0001:00012e30       ?hist_norm@VImage@vips@@QEAA?AV12@PEAVVOption@2@@Z 0000000180013e30 f   VImage.obj
 0001:00012f10       ?hist_equal@VImage@vips@@QEAA?AV12@PEAVVOption@2@@Z 0000000180013f10 f   VImage.obj
 0001:00012ff0       ?hist_plot@VImage@vips@@QEAA?AV12@PEAVVOption@2@@Z 0000000180013ff0 f   VImage.obj
 0001:000130d0       ?hist_local@VImage@vips@@QEAA?AV12@HHPEAVVOption@2@@Z 00000001800140d0 f   VImage.obj
 0001:000131f0       ?hist_ismonotonic@VImage@vips@@QEAA_NPEAVVOption@2@@Z 00000001800141f0 f   VImage.obj
 0001:000132b0       ?hist_entropy@VImage@vips@@QEAANPEAVVOption@2@@Z 00000001800142b0 f   VImage.obj
 0001:00013370       ?conv@VImage@vips@@QEAA?AV12@V12@PEAVVOption@2@@Z 0000000180014370 f   VImage.obj
 0001:00013510       ?conva@VImage@vips@@QEAA?AV12@V12@PEAVVOption@2@@Z 0000000180014510 f   VImage.obj
 0001:000136b0       ?convf@VImage@vips@@QEAA?AV12@V12@PEAVVOption@2@@Z 00000001800146b0 f   VImage.obj
 0001:00013850       ?convi@VImage@vips@@QEAA?AV12@V12@PEAVVOption@2@@Z 0000000180014850 f   VImage.obj
 0001:000139f0       ?compass@VImage@vips@@QEAA?AV12@V12@PEAVVOption@2@@Z 00000001800149f0 f   VImage.obj
 0001:00013b90       ?convsep@VImage@vips@@QEAA?AV12@V12@PEAVVOption@2@@Z 0000000180014b90 f   VImage.obj
 0001:00013d30       ?convasep@VImage@vips@@QEAA?AV12@V12@PEAVVOption@2@@Z 0000000180014d30 f   VImage.obj
 0001:00013ed0       ?fastcor@VImage@vips@@QEAA?AV12@V12@PEAVVOption@2@@Z 0000000180014ed0 f   VImage.obj
 0001:00014070       ?spcor@VImage@vips@@QEAA?AV12@V12@PEAVVOption@2@@Z 0000000180015070 f   VImage.obj
 0001:00014210       ?sharpen@VImage@vips@@QEAA?AV12@PEAVVOption@2@@Z 0000000180015210 f   VImage.obj
 0001:000142f0       ?gaussblur@VImage@vips@@QEAA?AV12@NPEAVVOption@2@@Z 00000001800152f0 f   VImage.obj
 0001:000143f0       ?fwfft@VImage@vips@@QEAA?AV12@PEAVVOption@2@@Z 00000001800153f0 f   VImage.obj
 0001:000144d0       ?invfft@VImage@vips@@QEAA?AV12@PEAVVOption@2@@Z 00000001800154d0 f   VImage.obj
 0001:000145b0       ?freqmult@VImage@vips@@QEAA?AV12@V12@PEAVVOption@2@@Z 00000001800155b0 f   VImage.obj
 0001:00014750       ?spectrum@VImage@vips@@QEAA?AV12@PEAVVOption@2@@Z 0000000180015750 f   VImage.obj
 0001:00014830       ?phasecor@VImage@vips@@QEAA?AV12@V12@PEAVVOption@2@@Z 0000000180015830 f   VImage.obj
 0001:000149d0       ?morph@VImage@vips@@QEAA?AV12@V12@W4VipsOperationMorphology@@PEAVVOption@2@@Z 00000001800159d0 f   VImage.obj
 0001:00014b90       ?rank@VImage@vips@@QEAA?AV12@HHHPEAVVOption@2@@Z 0000000180015b90 f   VImage.obj
 0001:00014cc0       ?countlines@VImage@vips@@QEAANW4VipsDirection@@PEAVVOption@2@@Z 0000000180015cc0 f   VImage.obj
 0001:00014da0       ?labelregions@VImage@vips@@QEAA?AV12@PEAVVOption@2@@Z 0000000180015da0 f   VImage.obj
 0001:00014e80       ?draw_rect@VImage@vips@@QEAAXV?$vector@NV?$allocator@N@std@@@std@@HHHHPEAVVOption@2@@Z 0000000180015e80 f   VImage.obj
 0001:00015000       ?draw_mask@VImage@vips@@QEAAXV?$vector@NV?$allocator@N@std@@@std@@V12@HHPEAVVOption@2@@Z 0000000180016000 f   VImage.obj
 0001:00015200       ?draw_line@VImage@vips@@QEAAXV?$vector@NV?$allocator@N@std@@@std@@HHHHPEAVVOption@2@@Z 0000000180016200 f   VImage.obj
 0001:00015380       ?draw_circle@VImage@vips@@QEAAXV?$vector@NV?$allocator@N@std@@@std@@HHHPEAVVOption@2@@Z 0000000180016380 f   VImage.obj
 0001:000154e0       ?draw_flood@VImage@vips@@QEAAXV?$vector@NV?$allocator@N@std@@@std@@HHPEAVVOption@2@@Z 00000001800164e0 f   VImage.obj
 0001:00015630       ?draw_image@VImage@vips@@QEAAXV12@HHPEAVVOption@2@@Z 0000000180016630 f   VImage.obj
 0001:000157e0       ?draw_smudge@VImage@vips@@QEAAXHHHHPEAVVOption@2@@Z 00000001800167e0 f   VImage.obj
 0001:000158e0       ?merge@VImage@vips@@QEAA?AV12@V12@W4VipsDirection@@HHPEAVVOption@2@@Z 00000001800168e0 f   VImage.obj
 0001:00015ad0       ?mosaic@VImage@vips@@QEAA?AV12@V12@W4VipsDirection@@HHHHPEAVVOption@2@@Z 0000000180016ad0 f   VImage.obj
 0001:00015cf0       ?mosaic1@VImage@vips@@QEAA?AV12@V12@W4VipsDirection@@HHHHHHHHPEAVVOption@2@@Z 0000000180016cf0 f   VImage.obj
 0001:00015f70       ?match@VImage@vips@@QEAA?AV12@V12@HHHHHHHHPEAVVOption@2@@Z 0000000180016f70 f   VImage.obj
 0001:000161d0       ?globalbalance@VImage@vips@@QEAA?AV12@PEAVVOption@2@@Z 00000001800171d0 f   VImage.obj
 0001:000162b0       ?bandsplit@VImage@vips@@QEAA?AV?$vector@VVImage@vips@@V?$allocator@VVImage@vips@@@std@@@std@@PEAVVOption@2@@Z 00000001800172b0 f   VImage.obj
 0001:000163c0       ?bandjoin@VImage@vips@@QEAA?AV12@V12@PEAVVOption@2@@Z 00000001800173c0 f   VImage.obj
 0001:000165f0       ?minpos@VImage@vips@@QEAA?AV?$complex@N@std@@PEAVVOption@2@@Z 00000001800175f0 f   VImage.obj
 0001:00016670       ?maxpos@VImage@vips@@QEAA?AV?$complex@N@std@@PEAVVOption@2@@Z 0000000180017670 f   VImage.obj
 0001:000166f0       ??AVImage@vips@@QEAA?AV01@H@Z 00000001800176f0 f   VImage.obj
 0001:00016720       ??RVImage@vips@@QEAA?AV?$vector@NV?$allocator@N@std@@@std@@HH@Z 0000000180017720 f   VImage.obj
 0001:00016750       ??Hvips@@YA?AVVImage@0@V10@0@Z 0000000180017750 f   VImage.obj
 0001:00016890       ??Hvips@@YA?AVVImage@0@NV10@@Z 0000000180017890 f   VImage.obj
 0001:00016930       ??Hvips@@YA?AVVImage@0@V10@N@Z 0000000180017930 f   VImage.obj
 0001:000169d0       ??Hvips@@YA?AVVImage@0@V?$vector@NV?$allocator@N@std@@@std@@V10@@Z 00000001800179d0 f   VImage.obj
 0001:00016ab0       ??Hvips@@YA?AVVImage@0@V10@V?$vector@NV?$allocator@N@std@@@std@@@Z 0000000180017ab0 f   VImage.obj
 0001:00016b90       ??Yvips@@YAAEAVVImage@0@AEAV10@V10@@Z 0000000180017b90 f   VImage.obj
 0001:00016d00       ??Yvips@@YAAEAVVImage@0@AEAV10@N@Z 0000000180017d00 f   VImage.obj
 0001:00016de0       ??Yvips@@YAAEAVVImage@0@AEAV10@V?$vector@NV?$allocator@N@std@@@std@@@Z 0000000180017de0 f   VImage.obj
 0001:00016f10       ??Gvips@@YA?AVVImage@0@V10@0@Z 0000000180017f10 f   VImage.obj
 0001:00017050       ??Gvips@@YA?AVVImage@0@NV10@@Z 0000000180018050 f   VImage.obj
 0001:000170f0       ??Gvips@@YA?AVVImage@0@V10@N@Z 00000001800180f0 f   VImage.obj
 0001:000171a0       ??Gvips@@YA?AVVImage@0@V?$vector@NV?$allocator@N@std@@@std@@V10@@Z 00000001800181a0 f   VImage.obj
 0001:00017280       ??Gvips@@YA?AVVImage@0@V10@V?$vector@NV?$allocator@N@std@@@std@@@Z 0000000180018280 f   VImage.obj
 0001:00017370       ??Zvips@@YAAEAVVImage@0@AEAV10@V10@@Z 0000000180018370 f   VImage.obj
 0001:000174e0       ??Zvips@@YAAEAVVImage@0@AEAV10@N@Z 00000001800184e0 f   VImage.obj
 0001:000175c0       ??Zvips@@YAAEAVVImage@0@AEAV10@V?$vector@NV?$allocator@N@std@@@std@@@Z 00000001800185c0 f   VImage.obj
 0001:000176f0       ??Gvips@@YA?AVVImage@0@V10@@Z 00000001800186f0 f   VImage.obj
 0001:000177e0       ??Dvips@@YA?AVVImage@0@V10@0@Z 00000001800187e0 f   VImage.obj
 0001:00017920       ??Dvips@@YA?AVVImage@0@NV10@@Z 0000000180018920 f   VImage.obj
 0001:000179c0       ??Dvips@@YA?AVVImage@0@V10@N@Z 00000001800189c0 f   VImage.obj
 0001:00017a60       ??Dvips@@YA?AVVImage@0@V?$vector@NV?$allocator@N@std@@@std@@V10@@Z 0000000180018a60 f   VImage.obj
 0001:00017b40       ??Dvips@@YA?AVVImage@0@V10@V?$vector@NV?$allocator@N@std@@@std@@@Z 0000000180018b40 f   VImage.obj
 0001:00017c20       ??Xvips@@YAAEAVVImage@0@AEAV10@V10@@Z 0000000180018c20 f   VImage.obj
 0001:00017d90       ??Xvips@@YAAEAVVImage@0@AEAV10@N@Z 0000000180018d90 f   VImage.obj
 0001:00017e70       ??Xvips@@YAAEAVVImage@0@AEAV10@V?$vector@NV?$allocator@N@std@@@std@@@Z 0000000180018e70 f   VImage.obj
 0001:00017fa0       ??Kvips@@YA?AVVImage@0@V10@0@Z 0000000180018fa0 f   VImage.obj
 0001:000180e0       ??Kvips@@YA?AVVImage@0@NV10@@Z 00000001800190e0 f   VImage.obj
 0001:00018200       ??Kvips@@YA?AVVImage@0@V10@N@Z 0000000180019200 f   VImage.obj
 0001:000182b0       ??Kvips@@YA?AVVImage@0@V?$vector@NV?$allocator@N@std@@@std@@V10@@Z 00000001800192b0 f   VImage.obj
 0001:00018400       ??Kvips@@YA?AVVImage@0@V10@V?$vector@NV?$allocator@N@std@@@std@@@Z 0000000180019400 f   VImage.obj
 0001:000184f0       ??_0vips@@YAAEAVVImage@0@AEAV10@V10@@Z 00000001800194f0 f   VImage.obj
 0001:00018660       ??_0vips@@YAAEAVVImage@0@AEAV10@N@Z 0000000180019660 f   VImage.obj
 0001:00018740       ??_0vips@@YAAEAVVImage@0@AEAV10@V?$vector@NV?$allocator@N@std@@@std@@@Z 0000000180019740 f   VImage.obj
 0001:00018870       ??Lvips@@YA?AVVImage@0@V10@0@Z 0000000180019870 f   VImage.obj
 0001:000189b0       ??Lvips@@YA?AVVImage@0@V10@N@Z 00000001800199b0 f   VImage.obj
 0001:00018a60       ??Lvips@@YA?AVVImage@0@V10@V?$vector@NV?$allocator@N@std@@@std@@@Z 0000000180019a60 f   VImage.obj
 0001:00018b30       ??_1vips@@YAAEAVVImage@0@AEAV10@V10@@Z 0000000180019b30 f   VImage.obj
 0001:00018ca0       ??_1vips@@YAAEAVVImage@0@AEAV10@N@Z 0000000180019ca0 f   VImage.obj
 0001:00018d80       ??_1vips@@YAAEAVVImage@0@AEAV10@V?$vector@NV?$allocator@N@std@@@std@@@Z 0000000180019d80 f   VImage.obj
 0001:00018eb0       ??Mvips@@YA?AVVImage@0@V10@0@Z 0000000180019eb0 f   VImage.obj
 0001:00018ff0       ??Mvips@@YA?AVVImage@0@NV10@@Z 0000000180019ff0 f   VImage.obj
 0001:000190a0       ??Mvips@@YA?AVVImage@0@V10@N@Z 000000018001a0a0 f   VImage.obj
 0001:00019150       ??Mvips@@YA?AVVImage@0@V?$vector@NV?$allocator@N@std@@@std@@V10@@Z 000000018001a150 f   VImage.obj
 0001:00019230       ??Mvips@@YA?AVVImage@0@V10@V?$vector@NV?$allocator@N@std@@@std@@@Z 000000018001a230 f   VImage.obj
 0001:00019310       ??Nvips@@YA?AVVImage@0@V10@0@Z 000000018001a310 f   VImage.obj
 0001:00019450       ??Nvips@@YA?AVVImage@0@NV10@@Z 000000018001a450 f   VImage.obj
 0001:00019500       ??Nvips@@YA?AVVImage@0@V10@N@Z 000000018001a500 f   VImage.obj
 0001:000195b0       ??Nvips@@YA?AVVImage@0@V?$vector@NV?$allocator@N@std@@@std@@V10@@Z 000000018001a5b0 f   VImage.obj
 0001:00019690       ??Nvips@@YA?AVVImage@0@V10@V?$vector@NV?$allocator@N@std@@@std@@@Z 000000018001a690 f   VImage.obj
 0001:00019770       ??Ovips@@YA?AVVImage@0@V10@0@Z 000000018001a770 f   VImage.obj
 0001:000198b0       ??Ovips@@YA?AVVImage@0@NV10@@Z 000000018001a8b0 f   VImage.obj
 0001:00019960       ??Ovips@@YA?AVVImage@0@V10@N@Z 000000018001a960 f   VImage.obj
 0001:00019a10       ??Ovips@@YA?AVVImage@0@V?$vector@NV?$allocator@N@std@@@std@@V10@@Z 000000018001aa10 f   VImage.obj
 0001:00019af0       ??Ovips@@YA?AVVImage@0@V10@V?$vector@NV?$allocator@N@std@@@std@@@Z 000000018001aaf0 f   VImage.obj
 0001:00019bd0       ??Pvips@@YA?AVVImage@0@V10@0@Z 000000018001abd0 f   VImage.obj
 0001:00019d10       ??Pvips@@YA?AVVImage@0@NV10@@Z 000000018001ad10 f   VImage.obj
 0001:00019dc0       ??Pvips@@YA?AVVImage@0@V10@N@Z 000000018001adc0 f   VImage.obj
 0001:00019e70       ??Pvips@@YA?AVVImage@0@V?$vector@NV?$allocator@N@std@@@std@@V10@@Z 000000018001ae70 f   VImage.obj
 0001:00019f50       ??Pvips@@YA?AVVImage@0@V10@V?$vector@NV?$allocator@N@std@@@std@@@Z 000000018001af50 f   VImage.obj
 0001:0001a030       ??8vips@@YA?AVVImage@0@V10@0@Z 000000018001b030 f   VImage.obj
 0001:0001a170       ??8vips@@YA?AVVImage@0@NV10@@Z 000000018001b170 f   VImage.obj
 0001:0001a220       ??8vips@@YA?AVVImage@0@V10@N@Z 000000018001b220 f   VImage.obj
 0001:0001a2d0       ??8vips@@YA?AVVImage@0@V?$vector@NV?$allocator@N@std@@@std@@V10@@Z 000000018001b2d0 f   VImage.obj
 0001:0001a3b0       ??8vips@@YA?AVVImage@0@V10@V?$vector@NV?$allocator@N@std@@@std@@@Z 000000018001b3b0 f   VImage.obj
 0001:0001a490       ??9vips@@YA?AVVImage@0@V10@0@Z 000000018001b490 f   VImage.obj
 0001:0001a5d0       ??9vips@@YA?AVVImage@0@NV10@@Z 000000018001b5d0 f   VImage.obj
 0001:0001a680       ??9vips@@YA?AVVImage@0@V10@N@Z 000000018001b680 f   VImage.obj
 0001:0001a730       ??9vips@@YA?AVVImage@0@V?$vector@NV?$allocator@N@std@@@std@@V10@@Z 000000018001b730 f   VImage.obj
 0001:0001a810       ??9vips@@YA?AVVImage@0@V10@V?$vector@NV?$allocator@N@std@@@std@@@Z 000000018001b810 f   VImage.obj
 0001:0001a8f0       ??Ivips@@YA?AVVImage@0@V10@0@Z 000000018001b8f0 f   VImage.obj
 0001:0001aa30       ??Ivips@@YA?AVVImage@0@NV10@@Z 000000018001ba30 f   VImage.obj
 0001:0001aae0       ??Ivips@@YA?AVVImage@0@V10@N@Z 000000018001bae0 f   VImage.obj
 0001:0001ab90       ??Ivips@@YA?AVVImage@0@V?$vector@NV?$allocator@N@std@@@std@@V10@@Z 000000018001bb90 f   VImage.obj
 0001:0001ac70       ??Ivips@@YA?AVVImage@0@V10@V?$vector@NV?$allocator@N@std@@@std@@@Z 000000018001bc70 f   VImage.obj
 0001:0001ad50       ??_4vips@@YAAEAVVImage@0@AEAV10@V10@@Z 000000018001bd50 f   VImage.obj
 0001:0001aec0       ??_4vips@@YAAEAVVImage@0@AEAV10@N@Z 000000018001bec0 f   VImage.obj
 0001:0001afa0       ??_4vips@@YAAEAVVImage@0@AEAV10@V?$vector@NV?$allocator@N@std@@@std@@@Z 000000018001bfa0 f   VImage.obj
 0001:0001b0d0       ??Uvips@@YA?AVVImage@0@V10@0@Z 000000018001c0d0 f   VImage.obj
 0001:0001b210       ??Uvips@@YA?AVVImage@0@NV10@@Z 000000018001c210 f   VImage.obj
 0001:0001b2c0       ??Uvips@@YA?AVVImage@0@V10@N@Z 000000018001c2c0 f   VImage.obj
 0001:0001b370       ??Uvips@@YA?AVVImage@0@V?$vector@NV?$allocator@N@std@@@std@@V10@@Z 000000018001c370 f   VImage.obj
 0001:0001b450       ??Uvips@@YA?AVVImage@0@V10@V?$vector@NV?$allocator@N@std@@@std@@@Z 000000018001c450 f   VImage.obj
 0001:0001b530       ??_5vips@@YAAEAVVImage@0@AEAV10@V10@@Z 000000018001c530 f   VImage.obj
 0001:0001b6a0       ??_5vips@@YAAEAVVImage@0@AEAV10@N@Z 000000018001c6a0 f   VImage.obj
 0001:0001b780       ??_5vips@@YAAEAVVImage@0@AEAV10@V?$vector@NV?$allocator@N@std@@@std@@@Z 000000018001c780 f   VImage.obj
 0001:0001b8b0       ??Tvips@@YA?AVVImage@0@V10@0@Z 000000018001c8b0 f   VImage.obj
 0001:0001b9f0       ??Tvips@@YA?AVVImage@0@NV10@@Z 000000018001c9f0 f   VImage.obj
 0001:0001baa0       ??Tvips@@YA?AVVImage@0@V10@N@Z 000000018001caa0 f   VImage.obj
 0001:0001bb50       ??Tvips@@YA?AVVImage@0@V?$vector@NV?$allocator@N@std@@@std@@V10@@Z 000000018001cb50 f   VImage.obj
 0001:0001bc30       ??Tvips@@YA?AVVImage@0@V10@V?$vector@NV?$allocator@N@std@@@std@@@Z 000000018001cc30 f   VImage.obj
 0001:0001bd10       ??_6vips@@YAAEAVVImage@0@AEAV10@V10@@Z 000000018001cd10 f   VImage.obj
 0001:0001be80       ??_6vips@@YAAEAVVImage@0@AEAV10@N@Z 000000018001ce80 f   VImage.obj
 0001:0001bf60       ??_6vips@@YAAEAVVImage@0@AEAV10@V?$vector@NV?$allocator@N@std@@@std@@@Z 000000018001cf60 f   VImage.obj
 0001:0001c090       ??6vips@@YA?AVVImage@0@V10@0@Z 000000018001d090 f   VImage.obj
 0001:0001c1d0       ??6vips@@YA?AVVImage@0@V10@N@Z 000000018001d1d0 f   VImage.obj
 0001:0001c280       ??6vips@@YA?AVVImage@0@V10@V?$vector@NV?$allocator@N@std@@@std@@@Z 000000018001d280 f   VImage.obj
 0001:0001c360       ??_2vips@@YAAEAVVImage@0@AEAV10@V10@@Z 000000018001d360 f   VImage.obj
 0001:0001c360       ??_3vips@@YAAEAVVImage@0@AEAV10@V10@@Z 000000018001d360 f   VImage.obj
 0001:0001c4d0       ??_3vips@@YAAEAVVImage@0@AEAV10@N@Z 000000018001d4d0 f   VImage.obj
 0001:0001c4d0       ??_2vips@@YAAEAVVImage@0@AEAV10@N@Z 000000018001d4d0 f   VImage.obj
 0001:0001c5b0       ??_2vips@@YAAEAVVImage@0@AEAV10@V?$vector@NV?$allocator@N@std@@@std@@@Z 000000018001d5b0 f   VImage.obj
 0001:0001c5b0       ??_3vips@@YAAEAVVImage@0@AEAV10@V?$vector@NV?$allocator@N@std@@@std@@@Z 000000018001d5b0 f   VImage.obj
 0001:0001c6e0       ??5vips@@YA?AVVImage@0@V10@0@Z 000000018001d6e0 f   VImage.obj
 0001:0001c820       ??5vips@@YA?AVVImage@0@V10@N@Z 000000018001d820 f   VImage.obj
 0001:0001c8d0       ??5vips@@YA?AVVImage@0@V10@V?$vector@NV?$allocator@N@std@@@std@@@Z 000000018001d8d0 f   VImage.obj
 0001:0001c9b0       ??1?$vector@VVImage@vips@@V?$allocator@VVImage@vips@@@std@@@std@@QEAA@XZ 000000018001d9b0 f i VImage.obj
 0001:0001c9f0       ?push_back@?$vector@VVImage@vips@@V?$allocator@VVImage@vips@@@std@@@std@@QEAAX$$QEAVVImage@vips@@@Z 000000018001d9f0 f i VImage.obj
 0001:0001cb00       ??0?$vector@VVImage@vips@@V?$allocator@VVImage@vips@@@std@@@std@@QEAA@AEBV01@@Z 000000018001db00 f i VImage.obj
 0001:0001cba0       ?resize@?$vector@NV?$allocator@N@std@@@std@@QEAAX_K@Z 000000018001dba0 f i VImage.obj
 0001:0001cc90       ??0?$vector@NV?$allocator@N@std@@@std@@QEAA@_K@Z 000000018001dc90 f i VImage.obj
 0001:0001cd10       ?_Reserve@?$vector@VVImage@vips@@V?$allocator@VVImage@vips@@@std@@@std@@IEAAX_K@Z 000000018001dd10 f i VImage.obj
 0001:0001cda0       ?_Reallocate@?$vector@VVImage@vips@@V?$allocator@VVImage@vips@@@std@@@std@@IEAAX_K@Z 000000018001dda0 f i VImage.obj
 0001:0001ce90       ?_Reallocate@?$vector@NV?$allocator@N@std@@@std@@IEAAX_K@Z 000000018001de90 f i VImage.obj
 0001:0001cf70       ??$_Destroy_range1@V?$allocator@VVImage@vips@@@std@@PEAVVImage@vips@@@std@@YAXPEAVVImage@vips@@0AEAU?$_Wrap_alloc@V?$allocator@VVImage@vips@@@std@@@0@U?$integral_constant@_N$0A@@0@@Z 000000018001df70 f i VImage.obj
 0001:0001d000       ??$_Uninitialized_move_al_unchecked1@PEAVVImage@vips@@PEAV12@V?$allocator@VVImage@vips@@@std@@@std@@YAPEAVVImage@vips@@PEAV12@00AEAU?$_Wrap_alloc@V?$allocator@VVImage@vips@@@std@@@0@U_General_ptr_iterator_tag@0@U_Any_tag@0@@Z 000000018001e000 f i VImage.obj
 0001:0001d000       ??$_Uninitialized_copy_al_unchecked1@PEBVVImage@vips@@PEAV12@V?$allocator@VVImage@vips@@@std@@@std@@YAPEAVVImage@vips@@PEBV12@0PEAV12@AEAU?$_Wrap_alloc@V?$allocator@VVImage@vips@@@std@@@0@U_General_ptr_iterator_tag@0@U_Any_tag@0@@Z 000000018001e000 f i VImage.obj
 0001:0001d000       ??$_Uninitialized_copy_al_unchecked1@PEAVVImage@vips@@PEAV12@V?$allocator@VVImage@vips@@@std@@@std@@YAPEAVVImage@vips@@PEAV12@00AEAU?$_Wrap_alloc@V?$allocator@VVImage@vips@@@std@@@0@U_General_ptr_iterator_tag@0@U_Any_tag@0@@Z 000000018001e000 f i VImage.obj
 0001:0001d09c       ??0bad_alloc@std@@QEAA@AEBV01@@Z 000000018001e09c f i libcpmt:xthrow.obj
 0001:0001d0dc       ??0bad_alloc@std@@QEAA@XZ  000000018001e0dc f i libcpmt:xthrow.obj
 0001:0001d0fc       ??0exception@std@@QEAA@AEBV01@@Z 000000018001e0fc f i libcpmt:xthrow.obj
 0001:0001d134       ??0length_error@std@@QEAA@AEBV01@@Z 000000018001e134 f i libcpmt:xthrow.obj
 0001:0001d174       ??0length_error@std@@QEAA@PEBD@Z 000000018001e174 f i libcpmt:xthrow.obj
 0001:0001d1c0       ??0logic_error@std@@QEAA@AEBV01@@Z 000000018001e1c0 f i libcpmt:xthrow.obj
 0001:0001d200       ??0out_of_range@std@@QEAA@AEBV01@@Z 000000018001e200 f i libcpmt:xthrow.obj
 0001:0001d240       ??0out_of_range@std@@QEAA@PEBD@Z 000000018001e240 f i libcpmt:xthrow.obj
 0001:0001d28c       ??1bad_array_new_length@std@@UEAA@XZ 000000018001e28c f i LIBCMT:throw_bad_alloc.obj
 0001:0001d28c       ??1length_error@std@@UEAA@XZ 000000018001e28c f i libcpmt:xthrow.obj
 0001:0001d28c       ??1out_of_range@std@@UEAA@XZ 000000018001e28c f i libcpmt:xthrow.obj
 0001:0001d28c       ??1bad_alloc@std@@UEAA@XZ  000000018001e28c f i libcpmt:xthrow.obj
 0001:0001d28c       ??1bad_exception@std@@UEAA@XZ 000000018001e28c f i libvcruntime:frame.obj
 0001:0001d2a0       ??_Elogic_error@std@@UEAAPEAXI@Z 000000018001e2a0 f i libcpmt:xthrow.obj
 0001:0001d2a0       ??_Gbad_exception@std@@UEAAPEAXI@Z 000000018001e2a0 f i libvcruntime:frame.obj
 0001:0001d2a0       ??_Ebad_array_new_length@std@@UEAAPEAXI@Z 000000018001e2a0 f i LIBCMT:throw_bad_alloc.obj
 0001:0001d2a0       ??_Ebad_exception@std@@UEAAPEAXI@Z 000000018001e2a0 f i libvcruntime:frame.obj
 0001:0001d2a0       ??_Gbad_alloc@std@@UEAAPEAXI@Z 000000018001e2a0 f i libcpmt:xthrow.obj
 0001:0001d2a0       ??_Gexception@std@@UEAAPEAXI@Z 000000018001e2a0 f i libcpmt:xthrow.obj
 0001:0001d2a0       ??_Glogic_error@std@@UEAAPEAXI@Z 000000018001e2a0 f i libcpmt:xthrow.obj
 0001:0001d2a0       ??_Gbad_array_new_length@std@@UEAAPEAXI@Z 000000018001e2a0 f i LIBCMT:throw_bad_alloc.obj
 0001:0001d2a0       ??_Eout_of_range@std@@UEAAPEAXI@Z 000000018001e2a0 f i libcpmt:xthrow.obj
 0001:0001d2a0       ??_Glength_error@std@@UEAAPEAXI@Z 000000018001e2a0 f i libcpmt:xthrow.obj
 0001:0001d2a0       ??_Ebad_alloc@std@@UEAAPEAXI@Z 000000018001e2a0 f i libcpmt:xthrow.obj
 0001:0001d2a0       ??_Eexception@std@@UEAAPEAXI@Z 000000018001e2a0 f i libcpmt:xthrow.obj
 0001:0001d2a0       ??_Gout_of_range@std@@UEAAPEAXI@Z 000000018001e2a0 f i libcpmt:xthrow.obj
 0001:0001d2a0       ??_Elength_error@std@@UEAAPEAXI@Z 000000018001e2a0 f i libcpmt:xthrow.obj
 0001:0001d2e4       ?_Xlength_error@std@@YAXPEBD@Z 000000018001e2e4 f   libcpmt:xthrow.obj
 0001:0001d308       ?_Xout_of_range@std@@YAXPEBD@Z 000000018001e308 f   libcpmt:xthrow.obj
 0001:0001d32c       ?what@exception@std@@UEBAPEBDXZ 000000018001e32c f i libcpmt:xthrow.obj
 0001:0001d340       ?_Syserror_map@std@@YAPEBDH@Z 000000018001e340 f   libcpmt:syserror.obj
 0001:0001d380       __security_check_cookie    000000018001e380 f   LIBCMT:_amdsecgs_.obj
 0001:0001d3a4       ??_V@YAXPEAX_K@Z           000000018001e3a4 f   LIBCMT:delete_array_size.obj
 0001:0001d4f4       _Init_thread_footer        000000018001e4f4 f   LIBCMT:thread_safe_statics.obj
 0001:0001d554       _Init_thread_header        000000018001e554 f   LIBCMT:thread_safe_statics.obj
 0001:0001d5bc       _Init_thread_notify        000000018001e5bc f   LIBCMT:thread_safe_statics.obj
 0001:0001d618       _Init_thread_wait          000000018001e618 f   LIBCMT:thread_safe_statics.obj
 0001:0001d6b0       ??2@YAPEAX_K@Z             000000018001e6b0 f   LIBCMT:new_scalar.obj
 0001:0001d6ec       ??_M@YAXPEAX_K1P6AX0@Z@Z   000000018001e6ec f   LIBCMT:ehvecdtr.obj
 0001:0001d758       ?__ArrayUnwind@@YAXPEAX_K1P6AX0@Z@Z 000000018001e758 f   LIBCMT:ehvecdtr.obj
 0001:0001d7bc       __scrt_acquire_startup_lock 000000018001e7bc f   LIBCMT:utility.obj
 0001:0001d7f8       __scrt_dllmain_after_initialize_c 000000018001e7f8 f   LIBCMT:utility.obj
 0001:0001d82c       __scrt_dllmain_before_initialize_c 000000018001e82c f   LIBCMT:utility.obj
 0001:0001d844       __scrt_dllmain_crt_thread_attach 000000018001e844 f   LIBCMT:utility.obj
 0001:0001d86c       __scrt_dllmain_crt_thread_detach 000000018001e86c f   LIBCMT:utility.obj
 0001:0001d884       __scrt_dllmain_exception_filter 000000018001e884 f   LIBCMT:utility.obj
 0001:0001d8e8       __scrt_dllmain_uninitialize_c 000000018001e8e8 f   LIBCMT:utility.obj
 0001:0001d918       __scrt_dllmain_uninitialize_critical 000000018001e918 f   LIBCMT:utility.obj
 0001:0001d92c       __scrt_initialize_crt      000000018001e92c f   LIBCMT:utility.obj
 0001:0001d978       __scrt_initialize_onexit_tables 000000018001e978 f   LIBCMT:utility.obj
 0001:0001da44       __scrt_is_nonwritable_in_current_image 000000018001ea44 f   LIBCMT:utility.obj
 0001:0001dae0       __scrt_release_startup_lock 000000018001eae0 f   LIBCMT:utility.obj
 0001:0001db04       __scrt_uninitialize_crt    000000018001eb04 f   LIBCMT:utility.obj
 0001:0001db30       _onexit                    000000018001eb30 f   LIBCMT:utility.obj
 0001:0001db80       atexit                     000000018001eb80 f   LIBCMT:utility.obj
 0001:0001db98       ??3@YAXPEAX@Z              000000018001eb98 f   LIBCMT:delete_scalar.obj
 0001:0001dba0       ??_V@YAXPEAX@Z             000000018001eba0 f   LIBCMT:delete_array.obj
 0001:0001dba0       ??3@YAXPEAX_K@Z            000000018001eba0 f   LIBCMT:delete_scalar_size.obj
 0001:0001dba8       ??_Gtype_info@@UEAAPEAXI@Z 000000018001eba8 f i LIBCMT:std_type_info_static.obj
 0001:0001dba8       ??_Etype_info@@UEAAPEAXI@Z 000000018001eba8 f i LIBCMT:std_type_info_static.obj
 0001:0001df20       _DllMainCRTStartup         000000018001ef20 f   LIBCMT:dll_dllmain.obj
 0001:0001df60       __GSHandlerCheck           000000018001ef60 f   LIBCMT:_gshandler_.obj
 0001:0001df80       __GSHandlerCheckCommon     000000018001ef80 f   LIBCMT:_gshandler_.obj
 0001:0001dfdc       __raise_securityfailure    000000018001efdc f   LIBCMT:gs_report.obj
 0001:0001e010       __report_gsfailure         000000018001f010 f   LIBCMT:gs_report.obj
 0001:0001e0e4       __report_rangecheckfailure 000000018001f0e4 f   LIBCMT:gs_report.obj
 0001:0001e0f8       __report_securityfailure   000000018001f0f8 f   LIBCMT:gs_report.obj
 0001:0001e278       __crt_debugger_hook        000000018001f278 f   LIBCMT:utility_desktop.obj
 0001:0001e280       __scrt_fastfail            000000018001f280 f   LIBCMT:utility_desktop.obj
 0001:0001e3c8       _guard_check_icall         000000018001f3c8 f i LIBCMT:checkcfg.obj
 0001:0001e3d0       ??0bad_array_new_length@std@@QEAA@AEBV01@@Z 000000018001f3d0 f i LIBCMT:throw_bad_alloc.obj
 0001:0001e410       ??0bad_array_new_length@std@@QEAA@XZ 000000018001f410 f i LIBCMT:throw_bad_alloc.obj
 0001:0001e430       ?_Xbad_alloc@std@@YAXXZ    000000018001f430 f   libcpmt:xthrow.obj
 0001:0001e430       ?__scrt_throw_std_bad_alloc@@YAXXZ 000000018001f430 f   LIBCMT:throw_bad_alloc.obj
 0001:0001e450       ?__scrt_throw_std_bad_array_new_length@@YAXXZ 000000018001f450 f   LIBCMT:throw_bad_alloc.obj
 0001:0001e470       __isa_available_init       000000018001f470 f   LIBCMT:_cpu_disp_.obj
 0001:0001e638       __scrt_is_ucrt_dll_in_use  000000018001f638 f   LIBCMT:ucrt_detection.obj
 0001:0001e644       __security_init_cookie     000000018001f644 f   LIBCMT:gs_support.obj
 0001:0001e6f0       DllMain                    000000018001f6f0 f   LIBCMT:dll_dllmain_stub.obj
 0001:0001e6f0       _get_startup_argv_mode     000000018001f6f0 f   LIBCMT:argv_mode.obj
 0001:0001e6f8       ?__scrt_initialize_type_info@@YAXXZ 000000018001f6f8 f   LIBCMT:tncleanup.obj
 0001:0001e708       ?__scrt_uninitialize_type_info@@YAXXZ 000000018001f708 f   LIBCMT:tncleanup.obj
 0001:0001e714       __local_stdio_printf_options 000000018001f714 f i LIBCMT:default_local_stdio_options.obj
 0001:0001e71c       __local_stdio_scanf_options 000000018001f71c f i LIBCMT:default_local_stdio_options.obj
 0001:0001e724       __scrt_initialize_default_local_stdio_options 000000018001f724 f   LIBCMT:default_local_stdio_options.obj
 0001:0001e740       __scrt_get_dyn_tls_init_callback 000000018001f740 f   LIBCMT:dyn_tls_init.obj
 0001:0001e748       _RTC_Initialize            000000018001f748 f   LIBCMT:_initsect_.obj
 0001:0001e794       _RTC_Terminate             000000018001f794 f   LIBCMT:_initsect_.obj
 0001:0001e7f0       memcpy                     000000018001f7f0 f   libvcruntime:memcpy.obj
 0001:0001e7f0       memmove                    000000018001f7f0 f   libvcruntime:memcpy.obj
 0001:0001ec28       _purecall                  000000018001fc28 f   libvcruntime:purevirt.obj
 0001:0001ec64       __DestructExceptionObject  000000018001fc64 f   libvcruntime:frame.obj
 0001:0001ecec       ??0bad_exception@std@@QEAA@AEBV01@@Z 000000018001fcec f i libvcruntime:frame.obj
 0001:0001ed2c       ??0bad_exception@std@@QEAA@XZ 000000018001fd2c f i libvcruntime:frame.obj
 0001:0001f6a8       ?_CallMemberFunction0@@YAXPEAXP6AX0@Z@Z 00000001800206a8 f i libvcruntime:frame.obj
 0001:0001f6ac       ?_CallMemberFunction1@@YAXPEAXP6AX0@Z0@Z 00000001800206ac f i libvcruntime:frame.obj
 0001:0001f6b8       ?_CallMemberFunction2@@YAXPEAXP6AX0@Z0H@Z 00000001800206b8 f i libvcruntime:frame.obj
 0001:0001f6c8       __AdjustPointer            00000001800206c8 f   libvcruntime:frame.obj
 0001:0001f6ec       __BuildCatchObject         00000001800206ec f   libvcruntime:frame.obj
 0001:0001f7b0       __BuildCatchObjectHelper   00000001800207b0 f   libvcruntime:frame.obj
 0001:0001f990       __CxxCallCatchBlock        0000000180020990 f   libvcruntime:frame.obj
 0001:0001fb7c       __FrameUnwindFilter        0000000180020b7c f   libvcruntime:frame.obj
 0001:0001fbc8       __FrameUnwindToState       0000000180020bc8 f   libvcruntime:frame.obj
 0001:0001fd5c       __InternalCxxFrameHandler  0000000180020d5c f   libvcruntime:frame.obj
 0001:0001ffb4       __TypeMatch                0000000180020fb4 f   libvcruntime:frame.obj
 0001:000200f4       __std_exception_copy       00000001800210f4 f   libvcruntime:std_exception.obj
 0001:00020184       __std_exception_destroy    0000000180021184 f   libvcruntime:std_exception.obj
 0001:000201ac       _CxxThrowException         00000001800211ac f   libvcruntime:throw.obj
 0001:00020284       ?_ExecutionInCatch@@YAHPEAU_xDISPATCHER_CONTEXT@@PEBU_s_FuncInfo@@@Z 0000000180021284 f   libvcruntime:trnsctrl.obj
 0001:000202f8       ?_GetEstablisherFrame@@YAPEA_KPEA_KPEAU_xDISPATCHER_CONTEXT@@PEBU_s_FuncInfo@@0@Z 00000001800212f8 f   libvcruntime:trnsctrl.obj
 0001:000203c4       ?_GetRangeOfTrysToCheck@@YAPEBU_s_TryBlockMapEntry@@PEA_KPEBU_s_FuncInfo@@HHPEAI2PEAU_xDISPATCHER_CONTEXT@@@Z 00000001800213c4 f   libvcruntime:trnsctrl.obj
 0001:000204f0       ?__FrameUnwindToEmptyState@@YAXPEA_KPEAU_xDISPATCHER_CONTEXT@@PEBU_s_FuncInfo@@@Z 00000001800214f0 f   libvcruntime:trnsctrl.obj
 0001:00020584       ?__SehTransFilter@@YAHPEAU_EXCEPTION_POINTERS@@PEAUEHExceptionRecord@@PEA_KPEAU_CONTEXT@@PEAU_xDISPATCHER_CONTEXT@@PEBU_s_FuncInfo@@PEAH@Z 0000000180021584 f   libvcruntime:trnsctrl.obj
 0001:0002061c       _CallSETranslator          000000018002161c f   libvcruntime:trnsctrl.obj
 0001:00020674       _CreateFrameInfo           0000000180021674 f   libvcruntime:trnsctrl.obj
 0001:000206b0       _FindAndUnlinkFrame        00000001800216b0 f   libvcruntime:trnsctrl.obj
 0001:00020708       _GetImageBase              0000000180021708 f   libvcruntime:trnsctrl.obj
 0001:0002071c       _GetThrowImageBase         000000018002171c f   libvcruntime:trnsctrl.obj
 0001:00020730       _IsExceptionObjectToBeDestroyed 0000000180021730 f   libvcruntime:trnsctrl.obj
 0001:00020760       _SetImageBase              0000000180021760 f   libvcruntime:trnsctrl.obj
 0001:00020778       _SetThrowImageBase         0000000180021778 f   libvcruntime:trnsctrl.obj
 0001:00020790       _UnwindNestedFrames        0000000180021790 f   libvcruntime:trnsctrl.obj
 0001:000208b4       __CxxFrameHandler3         00000001800218b4 f   libvcruntime:trnsctrl.obj
 0001:00020afc       __vcrt_FlsAlloc            0000000180021afc f   libvcruntime:winapi_downlevel.obj
 0001:00020b50       __vcrt_FlsFree             0000000180021b50 f   libvcruntime:winapi_downlevel.obj
 0001:00020ba4       __vcrt_FlsGetValue         0000000180021ba4 f   libvcruntime:winapi_downlevel.obj
 0001:00020bf8       __vcrt_FlsSetValue         0000000180021bf8 f   libvcruntime:winapi_downlevel.obj
 0001:00020c60       __vcrt_InitializeCriticalSectionEx 0000000180021c60 f   libvcruntime:winapi_downlevel.obj
 0001:00020cd8       __vcrt_initialize_winapi_thunks 0000000180021cd8 f   libvcruntime:winapi_downlevel.obj
 0001:00020d24       __vcrt_uninitialize_winapi_thunks 0000000180021d24 f   libvcruntime:winapi_downlevel.obj
 0001:00020d64       __C_specific_handler       0000000180021d64 f   libvcruntime:_chandler_.obj
 0001:00020f60       __vcrt_initialize          0000000180021f60 f   libvcruntime:initialization.obj
 0001:00020f94       __vcrt_thread_attach       0000000180021f94 f   libvcruntime:initialization.obj
 0001:00020fa8       __vcrt_thread_detach       0000000180021fa8 f   libvcruntime:initialization.obj
 0001:00020fbc       __vcrt_uninitialize        0000000180021fbc f   libvcruntime:initialization.obj
 0001:00020fdc       __vcrt_uninitialize_critical 0000000180021fdc f   libvcruntime:initialization.obj
 0001:00021000       memset                     0000000180022000 f   libvcruntime:memset.obj
 0001:000211a0       __std_type_info_compare    00000001800221a0 f   libvcruntime:std_type_info.obj
 0001:000211c8       __std_type_info_destroy_list 00000001800221c8 f   libvcruntime:std_type_info.obj
 0001:000211f4       __vcrt_initialize_pure_virtual_call_handler 00000001800221f4 f   libvcruntime:purevirt_data.obj
 0001:00021218       __vcrt_freefls             0000000180022218 f   libvcruntime:per_thread_data.obj
 0001:00021238       __vcrt_freeptd             0000000180022238 f   libvcruntime:per_thread_data.obj
 0001:00021288       __vcrt_getptd              0000000180022288 f   libvcruntime:per_thread_data.obj
 0001:000212a4       __vcrt_getptd_noexit       00000001800222a4 f   libvcruntime:per_thread_data.obj
 0001:0002135c       __vcrt_initialize_ptd      000000018002235c f   libvcruntime:per_thread_data.obj
 0001:0002139c       __vcrt_uninitialize_ptd    000000018002239c f   libvcruntime:per_thread_data.obj
 0001:000213c0       ?__GetCurrentState@@YAHPEA_KPEAU_xDISPATCHER_CONTEXT@@PEBU_s_FuncInfo@@@Z 00000001800223c0 f   libvcruntime:ehstate.obj
 0001:000213e8       ?__GetUnwindTryBlock@@YAHPEA_KPEAU_xDISPATCHER_CONTEXT@@PEBU_s_FuncInfo@@@Z 00000001800223e8 f   libvcruntime:ehstate.obj
 0001:00021414       ?__SetState@@YAXPEA_KPEAU_xDISPATCHER_CONTEXT@@PEBU_s_FuncInfo@@H@Z 0000000180022414 f   libvcruntime:ehstate.obj
 0001:00021420       ?__SetUnwindTryBlock@@YAXPEA_KPEAU_xDISPATCHER_CONTEXT@@PEBU_s_FuncInfo@@H@Z 0000000180022420 f   libvcruntime:ehstate.obj
 0001:0002145c       ?__StateFromControlPc@@YAHPEBU_s_FuncInfo@@PEAU_xDISPATCHER_CONTEXT@@@Z 000000018002245c f   libvcruntime:ehstate.obj
 0001:00021464       ?__StateFromIp@@YAHPEBU_s_FuncInfo@@PEAU_xDISPATCHER_CONTEXT@@_J@Z 0000000180022464 f   libvcruntime:ehstate.obj
 0001:000214e0       _CallSettingFrame          00000001800224e0 f   libvcruntime:handlers.obj
 0001:00021530       _local_unwind              0000000180022530 f   libvcruntime:_jmpuwind_.obj
 0001:00021560       _NLG_Notify                0000000180022560 f   libvcruntime:_jmpuwind_.obj
 0001:00021580       __NLG_Dispatch2            0000000180022580 f   libvcruntime:_jmpuwind_.obj
 0001:00021590       __NLG_Return2              0000000180022590 f   libvcruntime:_jmpuwind_.obj
 0001:00021594       __vcrt_initialize_locks    0000000180022594 f   libvcruntime:locks.obj
 0001:000215dc       __vcrt_uninitialize_locks  00000001800225dc f   libvcruntime:locks.obj
 0001:00021614       __acrt_call_reportfault    0000000180022614 f   libucrt:invalid_parameter.obj
 0001:00021770       __acrt_initialize_invalid_parameter_handler 0000000180022770 f   libucrt:invalid_parameter.obj
 0001:00021778       _invalid_parameter         0000000180022778 f   libucrt:invalid_parameter.obj
 0001:00021820       _invalid_parameter_noinfo  0000000180022820 f   libucrt:invalid_parameter.obj
 0001:00021840       _invalid_parameter_noinfo_noreturn 0000000180022840 f   libucrt:invalid_parameter.obj
 0001:00021870       _invoke_watson             0000000180022870 f   libucrt:invalid_parameter.obj
 0001:000218b8       ??0_LocaleUpdate@@QEAA@QEAU__crt_locale_pointers@@@Z 00000001800228b8 f i libucrt:stricmp.obj
 0001:00021948       __acrt_initialize_new_handler 0000000180022948 f   libucrt:new_handler.obj
 0001:00021950       _callnewh                  0000000180022950 f   libucrt:new_handler.obj
 0001:00021990       _query_new_handler         0000000180022990 f   libucrt:new_handler.obj
 0001:000219c4       malloc                     00000001800229c4 f   libucrt:malloc.obj
 0001:000219cc       terminate                  00000001800229cc f   libucrt:terminate.obj
 0001:000219f4       _seh_filter_dll            00000001800229f4 f   libucrt:exception_filter.obj
 0001:00021a08       _seh_filter_exe            0000000180022a08 f   libucrt:exception_filter.obj
 0001:00021dc8       __acrt_initialize_thread_local_exit_callback 0000000180022dc8 f   libucrt:exit.obj
 0001:00021dd0       _cexit                     0000000180022dd0 f   libucrt:exit.obj
 0001:00021de0       _exit                      0000000180022de0 f   libucrt:exit.obj
 0001:00021dec       _is_c_termination_complete 0000000180022dec f   libucrt:exit.obj
 0001:00021fb0       __acrt_allocate_buffer_for_argv 0000000180022fb0 f   libucrt:argv_parsing.obj
 0001:00022014       _configure_narrow_argv     0000000180023014 f   libucrt:argv_parsing.obj
 0001:00022370       __dcrt_uninitialize_environments_nolock 0000000180023370 f   libucrt:environment_initialization.obj
 0001:000223a8       _initialize_narrow_environment 00000001800233a8 f   libucrt:environment_initialization.obj
 0001:000223b0       ??$?RV<lambda_b8c45f8f788dd370798f47cfe8ac3a86>@@AEAV<lambda_4e60a939b0d047cfe11ddc22648dfba9>@@V<lambda_332c3edc96d0294ec56c57d38c1cdfd5>@@@?$__crt_seh_guarded_call@H@@QEAAH$$QEAV<lambda_b8c45f8f788dd370798f47cfe8ac3a86>@@AEAV<lambda_4e60a939b0d047cfe11ddc22648dfba9>@@$$QEAV<lambda_332c3edc96d0294ec56c57d38c1cdfd5>@@@Z 00000001800233b0 f i libucrt:onexit.obj
 0001:000223ec       ??$?RV<lambda_e24bbb7b643b32fcea6fa61b31d4c984>@@AEAV<lambda_275893d493268fdec8709772e3fcec0e>@@V<lambda_9d71df4d7cf3f480f8d633942495c3b0>@@@?$__crt_seh_guarded_call@H@@QEAAH$$QEAV<lambda_e24bbb7b643b32fcea6fa61b31d4c984>@@AEAV<lambda_275893d493268fdec8709772e3fcec0e>@@$$QEAV<lambda_9d71df4d7cf3f480f8d633942495c3b0>@@@Z 00000001800233ec f i libucrt:onexit.obj
 0001:00022768       _crt_atexit                0000000180023768 f   libucrt:onexit.obj
 0001:00022778       _execute_onexit_table      0000000180023778 f   libucrt:onexit.obj
 0001:000227b4       _initialize_onexit_table   00000001800237b4 f   libucrt:onexit.obj
 0001:000227f4       _register_onexit_function  00000001800237f4 f   libucrt:onexit.obj
 0001:00022970       __acrt_uninitialize_command_line 0000000180023970 f   libucrt:argv_data.obj
 0001:00022974       __acrt_initialize          0000000180023974 f   libucrt:initialization.obj
 0001:00022988       __acrt_thread_attach       0000000180023988 f   libucrt:initialization.obj
 0001:0002299c       __acrt_thread_detach       000000018002399c f   libucrt:initialization.obj
 0001:000229ac       __acrt_uninitialize        00000001800239ac f   libucrt:initialization.obj
 0001:000229c0       __acrt_uninitialize_critical 00000001800239c0 f   libucrt:initialization.obj
 0001:000229d0       free                       00000001800239d0 f   libucrt:free.obj
 0001:000229d8       _initterm                  00000001800239d8 f   libucrt:initterm.obj
 0001:00022a50       _initterm_e                0000000180023a50 f   libucrt:initterm.obj
 0001:00022a9c       abort                      0000000180023a9c f   libucrt:abort.obj
 0001:00022af4       strcpy_s                   0000000180023af4 f   libucrt:strcpy_s.obj
 0001:00022b54       _free_base                 0000000180023b54 f   libucrt:free_base.obj
 0001:00022b94       _malloc_base               0000000180023b94 f   libucrt:malloc_base.obj
 0001:00022bf4       _calloc_base               0000000180023bf4 f   libucrt:calloc_base.obj
 0001:00022c6c       ??$?RV<lambda_46352004c1216016012b18bd6f87e700>@@AEAV<lambda_3bd07e1a1191394380780325891bf33f>@@V<lambda_334532d3f185bcaa59b5be82d7d22bff>@@@?$__crt_seh_guarded_call@X@@QEAAX$$QEAV<lambda_46352004c1216016012b18bd6f87e700>@@AEAV<lambda_3bd07e1a1191394380780325891bf33f>@@$$QEAV<lambda_334532d3f185bcaa59b5be82d7d22bff>@@@Z 0000000180023c6c f i libucrt:per_thread_data.obj
 0001:00022ccc       ??$?RV<lambda_5e887d1dcbef67a5eb4283622ba103bf>@@AEAV<lambda_4466841279450cc726390878d4a41900>@@V<lambda_341c25c0346d94847f1f3c463c57e077>@@@?$__crt_seh_guarded_call@X@@QEAAX$$QEAV<lambda_5e887d1dcbef67a5eb4283622ba103bf>@@AEAV<lambda_4466841279450cc726390878d4a41900>@@$$QEAV<lambda_341c25c0346d94847f1f3c463c57e077>@@@Z 0000000180023ccc f i libucrt:per_thread_data.obj
 0001:00022d14       ??$?RV<lambda_72d1df2b273a38828b1ce30cbf4cdab5>@@AEAV<lambda_876a65b173b8412d3a47c70a915b0cf4>@@V<lambda_41932305e351933ebe8f8be3ed8bb5dc>@@@?$__crt_seh_guarded_call@X@@QEAAX$$QEAV<lambda_72d1df2b273a38828b1ce30cbf4cdab5>@@AEAV<lambda_876a65b173b8412d3a47c70a915b0cf4>@@$$QEAV<lambda_41932305e351933ebe8f8be3ed8bb5dc>@@@Z 0000000180023d14 f i libucrt:per_thread_data.obj
 0001:00022d54       ??$?RV<lambda_fb3a7dec4e47f37f22dae91bb15c9095>@@AEAV<lambda_698284760c8add0bfb0756c19673e34b>@@V<lambda_dfb8eca1e75fef3034a8fb18dd509707>@@@?$__crt_seh_guarded_call@X@@QEAAX$$QEAV<lambda_fb3a7dec4e47f37f22dae91bb15c9095>@@AEAV<lambda_698284760c8add0bfb0756c19673e34b>@@$$QEAV<lambda_dfb8eca1e75fef3034a8fb18dd509707>@@@Z 0000000180023d54 f i libucrt:per_thread_data.obj
 0001:00022fe4       __acrt_freeptd             0000000180023fe4 f   libucrt:per_thread_data.obj
 0001:00023028       __acrt_getptd              0000000180024028 f   libucrt:per_thread_data.obj
 0001:000230bc       __acrt_getptd_noexit       00000001800240bc f   libucrt:per_thread_data.obj
 0001:0002315c       __acrt_initialize_ptd      000000018002415c f   libucrt:per_thread_data.obj
 0001:00023198       __acrt_uninitialize_ptd    0000000180024198 f   libucrt:per_thread_data.obj
 0001:000231bc       __acrt_errno_from_os_error 00000001800241bc f   libucrt:errno.obj
 0001:00023204       __acrt_errno_map_os_error  0000000180024204 f   libucrt:errno.obj
 0001:00023254       __doserrno                 0000000180024254 f   libucrt:errno.obj
 0001:00023274       _errno                     0000000180024274 f   libucrt:errno.obj
 0001:00023294       __acrt_update_locale_info  0000000180024294 f   libucrt:locale_update.obj
 0001:000232c8       __acrt_update_multibyte_info 00000001800242c8 f   libucrt:locale_update.obj
 0001:000232fc       __acrt_set_locale_changed  00000001800242fc f   libucrt:wsetlocale.obj
 0001:00023308       __acrt_uninitialize_locale 0000000180024308 f   libucrt:wsetlocale.obj
 0001:00023350       __acrt_initialize_locks    0000000180024350 f   libucrt:locks.obj
 0001:00023398       __acrt_lock                0000000180024398 f   libucrt:locks.obj
 0001:000233b4       __acrt_uninitialize_locks  00000001800243b4 f   libucrt:locks.obj
 0001:000233ec       __acrt_unlock              00000001800243ec f   libucrt:locks.obj
 0001:000235a8       __acrt_FlsAlloc            00000001800245a8 f   libucrt:winapi_thunks.obj
 0001:00023600       __acrt_FlsFree             0000000180024600 f   libucrt:winapi_thunks.obj
 0001:00023658       __acrt_FlsGetValue         0000000180024658 f   libucrt:winapi_thunks.obj
 0001:000236b0       __acrt_FlsSetValue         00000001800246b0 f   libucrt:winapi_thunks.obj
 0001:00023718       __acrt_InitializeCriticalSectionEx 0000000180024718 f   libucrt:winapi_thunks.obj
 0001:00023790       __acrt_LCMapStringEx       0000000180024790 f   libucrt:winapi_thunks.obj
 0001:00023880       __acrt_LocaleNameToLCID    0000000180024880 f   libucrt:winapi_thunks.obj
 0001:000238e8       __acrt_initialize_winapi_thunks 00000001800248e8 f   libucrt:winapi_thunks.obj
 0001:00023920       __acrt_is_packaged_app     0000000180024920 f   libucrt:winapi_thunks.obj
 0001:000239a8       __acrt_uninitialize_winapi_thunks 00000001800249a8 f   libucrt:winapi_thunks.obj
 0001:00023ec8       ?expand_if_necessary@?$argument_list@D@?A0xca0879c4@@AEAAHXZ 0000000180024ec8 f i libucrt:argv_wildcards.obj
 0001:00023f90       __acrt_expand_narrow_argv_wildcards 0000000180024f90 f   libucrt:argv_wildcards.obj
 0001:00023f98       ??$?RV<lambda_99476a1ad63dd22509b5d3e65b0ffc95>@@AEAV<lambda_ad1ced32f4ac17aa236e5ef05d6b3b7c>@@V<lambda_f7424dd8d45958661754dc4f2697e9c3>@@@?$__crt_seh_guarded_call@X@@QEAAX$$QEAV<lambda_99476a1ad63dd22509b5d3e65b0ffc95>@@AEAV<lambda_ad1ced32f4ac17aa236e5ef05d6b3b7c>@@$$QEAV<lambda_f7424dd8d45958661754dc4f2697e9c3>@@@Z 0000000180024f98 f i libucrt:mbctype.obj
 0001:00024694       __acrt_initialize_multibyte 0000000180025694 f   libucrt:mbctype.obj
 0001:000246bc       __acrt_update_thread_multibyte_data 00000001800256bc f   libucrt:mbctype.obj
 0001:0002477c       _setmbcp_nolock            000000018002577c f   libucrt:mbctype.obj
 0001:00024a9c       _ismbblead                 0000000180025a9c f   libucrt:ismbbyte.obj
 0001:00024ab0       __acrt_initialize_command_line 0000000180025ab0 f   libucrt:argv_data.obj
 0001:00024ad8       __dcrt_get_narrow_environment_from_os 0000000180025ad8 f   libucrt:get_environment_from_os.obj
 0001:00024bdc       _recalloc                  0000000180025bdc f   libucrt:recalloc.obj
 0001:00024be4       _recalloc_base             0000000180025be4 f   libucrt:recalloc.obj
 0001:00024c7c       __acrt_initialize_heap     0000000180025c7c f   libucrt:heap_handle.obj
 0001:00024c98       __acrt_uninitialize_heap   0000000180025c98 f   libucrt:heap_handle.obj
 0001:00024e8c       __acrt_initialize_lowio    0000000180025e8c f   libucrt:ioinit.obj
 0001:00024ec8       __acrt_uninitialize_lowio  0000000180025ec8 f   libucrt:ioinit.obj
 0001:00024f08       __acrt_execute_initializers 0000000180025f08 f   libucrt:shared_initialization.obj
 0001:00024f9c       __acrt_execute_uninitializers 0000000180025f9c f   libucrt:shared_initialization.obj
 0001:00024fec       ??$?RV<lambda_c36588078e9f5dfd39652860aa6b3aaf>@@AEAV<lambda_ec61778202f4f5fc7e7711acc23c3bca>@@V<lambda_dc9d2797ccde5d239b4a0efae8ebd7db>@@@?$__crt_seh_guarded_call@P6AXH@Z@@QEAAP6AXH@Z$$QEAV<lambda_c36588078e9f5dfd39652860aa6b3aaf>@@AEAV<lambda_ec61778202f4f5fc7e7711acc23c3bca>@@$$QEAV<lambda_dc9d2797ccde5d239b4a0efae8ebd7db>@@@Z 0000000180025fec f i libucrt:signal.obj
 0001:00025034       __acrt_get_sigabrt_handler 0000000180026034 f   libucrt:signal.obj
 0001:00025064       __acrt_initialize_signal_handlers 0000000180026064 f   libucrt:signal.obj
 0001:00025084       raise                      0000000180026084 f   libucrt:signal.obj
 0001:00025320       __acrt_has_user_matherr    0000000180026320 f   libucrt:matherr.obj
 0001:00025340       __acrt_initialize_user_matherr 0000000180026340 f   libucrt:matherr.obj
 0001:00025348       __acrt_invoke_user_matherr 0000000180026348 f   libucrt:matherr.obj
 0001:00025390       _query_new_mode            0000000180026390 f   libucrt:new_mode.obj
 0001:00025398       _mbtowc_l                  0000000180026398 f   libucrt:mbtowc.obj
 0001:000254e0       mbtowc                     00000001800264e0 f   libucrt:mbtowc.obj
 0001:000254e8       _fileno                    00000001800264e8 f   libucrt:fileno.obj
 0001:00025510       __acrt_initialize_stdio    0000000180026510 f   libucrt:_file.obj
 0001:00025630       __acrt_uninitialize_stdio  0000000180026630 f   libucrt:_file.obj
 0001:0002568c       _lock_file                 000000018002668c f   libucrt:_file.obj
 0001:00025698       _unlock_file               0000000180026698 f   libucrt:_file.obj
 0001:000256a4       __pctype_func              00000001800266a4 f   libucrt:ctype.obj
 0001:000256d4       __acrt_add_locale_ref      00000001800266d4 f   libucrt:locale_refcounting.obj
 0001:00025760       __acrt_free_locale         0000000180026760 f   libucrt:locale_refcounting.obj
 0001:000258d8       __acrt_locale_add_lc_time_reference 00000001800268d8 f   libucrt:locale_refcounting.obj
 0001:00025900       __acrt_locale_free_lc_time_if_unreferenced 0000000180026900 f   libucrt:locale_refcounting.obj
 0001:00025938       __acrt_locale_release_lc_time_reference 0000000180026938 f   libucrt:locale_refcounting.obj
 0001:00025960       __acrt_release_locale_ref  0000000180026960 f   libucrt:locale_refcounting.obj
 0001:00025a08       __acrt_update_thread_locale_data 0000000180026a08 f   libucrt:locale_refcounting.obj
 0001:00025a78       _updatetlocinfoEx_nolock   0000000180026a78 f   libucrt:locale_refcounting.obj
 0001:00025ae0       _isleadbyte_l              0000000180026ae0 f i libucrt:_wctype.obj
 0001:00025e7c       __acrt_LCMapStringA        0000000180026e7c f   libucrt:lcmapstringa.obj
 0001:00025f14       __acrt_locale_free_monetary 0000000180026f14 f   libucrt:initmon.obj
 0001:00026020       __acrt_locale_free_numeric 0000000180027020 f   libucrt:initnum.obj
 0001:000260e4       __acrt_locale_free_time    00000001800270e4 f   libucrt:inittime.obj
 0001:000261ec       __acrt_GetStringTypeA      00000001800271ec f   libucrt:getstringtypea.obj
 0001:00026468       __acrt_DownlevelLocaleNameToLCID 0000000180027468 f   libucrt:lcidtoname_downlevel.obj
 0001:00026570       qsort                      0000000180027570 f   libucrt:qsort.obj
 0001:000268a4       strncpy_s                  00000001800278a4 f   libucrt:strncpy_s.obj
 0001:00026978       strpbrk                    0000000180027978 f   libucrt:strpbrk.obj
 0001:00026a18       _mbsdec                    0000000180027a18 f   libucrt:mbsdec.obj
 0001:00026a20       _mbsdec_l                  0000000180027a20 f   libucrt:mbsdec.obj
 0001:00026ad0       _msize                     0000000180027ad0 f   libucrt:msize.obj
 0001:00026b0c       _realloc_base              0000000180027b0c f   libucrt:realloc_base.obj
 0001:00026b90       __acrt_lowio_create_handle_array 0000000180027b90 f   libucrt:osfinfo.obj
 0001:00026c28       __acrt_lowio_destroy_handle_array 0000000180027c28 f   libucrt:osfinfo.obj
 0001:00026c78       __acrt_lowio_ensure_fh_exists 0000000180027c78 f   libucrt:osfinfo.obj
 0001:00026d30       __acrt_lowio_lock_fh       0000000180027d30 f   libucrt:osfinfo.obj
 0001:00026d54       __acrt_lowio_unlock_fh     0000000180027d54 f   libucrt:osfinfo.obj
 0001:00026d78       _free_osfhnd               0000000180027d78 f   libucrt:osfinfo.obj
 0001:00026e34       _get_osfhandle             0000000180027e34 f   libucrt:osfinfo.obj
 0001:00026eac       _isatty                    0000000180027eac f   libucrt:isatty.obj
 0001:00026f0c       __acrt_stdio_flush_nolock  0000000180027f0c f   libucrt:fflush.obj
 0001:00026f84       _fflush_nolock             0000000180027f84 f   libucrt:fflush.obj
 0001:00026fd0       _flushall                  0000000180027fd0 f   libucrt:fflush.obj
 0001:000270c0       _fcloseall                 00000001800280c0 f   libucrt:closeall.obj
 0001:00027174       __acrt_stdio_free_buffer_nolock 0000000180028174 f   libucrt:_freebuf.obj
 0001:000271b4       __strncnt                  00000001800281b4 f   libucrt:strncnt.obj
 0001:000271cc       _query_app_type            00000001800281cc f   libucrt:report_runtime_error.obj
 0001:000271d4       ??$?RV<lambda_b521505b218e5242e90febf6bfebc422>@@AEAV<lambda_6978c1fb23f02e42e1d9e99668cc68aa>@@V<lambda_314360699dd331753a4119843814e9a7>@@@?$__crt_seh_guarded_call@H@@QEAAH$$QEAV<lambda_b521505b218e5242e90febf6bfebc422>@@AEAV<lambda_6978c1fb23f02e42e1d9e99668cc68aa>@@$$QEAV<lambda_314360699dd331753a4119843814e9a7>@@@Z 00000001800281d4 f i libucrt:commit.obj
 0001:00027260       _commit                    0000000180028260 f   libucrt:commit.obj
 0001:00027894       _write                     0000000180028894 f   libucrt:write.obj
 0001:00027980       _write_nolock              0000000180028980 f   libucrt:write.obj
 0001:00027c70       log10                      0000000180028c70 f   libucrt:log10.obj
 0001:000282b8       _lseeki64_nolock           00000001800292b8 f   libucrt:lseek.obj
 0001:000282c0       _fclose_nolock             00000001800292c0 f   libucrt:fclose.obj
 0001:00028344       fclose                     0000000180029344 f   libucrt:fclose.obj
 0001:000283b0       _putwch_nolock             00000001800293b0 f   libucrt:putwch.obj
 0001:00028530       _handle_error              0000000180029530 f   libucrt:libm_error.obj
 0001:00028660       __acrt_initialize_fma3     0000000180029660 f   libucrt:fma3_available.obj
 0001:000286d0       _log10_special             00000001800296d0 f   libucrt:log_special.obj
 0001:00028788       ??$?RV<lambda_bfedae4ebbf01fab1bb6dcc6a9e276e0>@@AEAV<lambda_2fe9b910cf3cbf4a0ab98a02ba45b3ec>@@V<lambda_237c231691f317818eb88cc1d5d642d6>@@@?$__crt_seh_guarded_call@H@@QEAAH$$QEAV<lambda_bfedae4ebbf01fab1bb6dcc6a9e276e0>@@AEAV<lambda_2fe9b910cf3cbf4a0ab98a02ba45b3ec>@@$$QEAV<lambda_237c231691f317818eb88cc1d5d642d6>@@@Z 0000000180029788 f i libucrt:close.obj
 0001:000287fc       _close                     00000001800297fc f   libucrt:close.obj
 0001:000288a0       _close_nolock              00000001800298a0 f   libucrt:close.obj
 0001:0002895c       ?__acrt_stdio_free_stream@@YAXV__crt_stdio_stream@@@Z 000000018002995c f   libucrt:stream.obj
 0001:000289a0       __dcrt_lowio_initialize_console_output 00000001800299a0 f   libucrt:initcon.obj
 0001:000289dc       __dcrt_terminate_console_output 00000001800299dc f   libucrt:initcon.obj
 0001:00028a10       _get_fpsr                  0000000180029a10 f   libucrt:fpsr.obj
 0001:00028a20       _set_fpsr                  0000000180029a20 f   libucrt:fpsr.obj
 0001:00028a2a       _fclrf                     0000000180029a2a f   libucrt:fpsr.obj
 0001:00028a3e       _frnd                      0000000180029a3e f   libucrt:fpsr.obj
 0001:00028a60       _raise_exc                 0000000180029a60 f   libucrt:fpexcept.obj
 0001:00028a88       _raise_exc_ex              0000000180029a88 f   libucrt:fpexcept.obj
 0001:00028d90       _set_errno_from_matherr    0000000180029d90 f   libucrt:fpexcept.obj
 0001:00028dc0       _clrfp                     0000000180029dc0 f   libucrt:fpctrl.obj
 0001:00028de0       _ctrlfp                    0000000180029de0 f   libucrt:fpctrl.obj
 0001:00028e5c       _set_statfp                0000000180029e5c f   libucrt:fpctrl.obj
 0001:00028e7c       _statfp                    0000000180029e7c f   libucrt:fpctrl.obj
 0001:00028e8e       IsProcessorFeaturePresent  0000000180029e8e f   kernel32:KERNEL32.dll
 0001:00028e94       RtlUnwindEx                0000000180029e94 f   kernel32:KERNEL32.dll
 0001:00028ea0       _FindPESection             0000000180029ea0 f   LIBCMT:pesect.obj
 0001:00028ef0       _IsNonwritableInCurrentImage 0000000180029ef0 f   LIBCMT:pesect.obj
 0001:00028f40       _ValidateImageBase         0000000180029f40 f   LIBCMT:pesect.obj
 0001:00028f80       __chkstk                   0000000180029f80 f   LIBCMT:_chkstk_.obj
 0001:00028f80       _alloca_probe              0000000180029f80 f   LIBCMT:_chkstk_.obj
 0001:00028ff0       memcmp                     0000000180029ff0 f   libvcruntime:memcmp.obj
 0001:000290b8       __GSHandlerCheck_EH        000000018002a0b8 f   LIBCMT:gshandlereh.obj
 0001:00029150       _guard_dispatch_icall_nop  000000018002a150 f   LIBCMT:_guard_dispatch_.obj
 0001:00029ec0       ??__F_Static@?1???$_Immortalize@V_Iostream_error_category@std@@@std@@YAAEAV_Iostream_error_category@0@XZ@YAXXZ 000000018002aec0 f i VError.obj
 0002:00000000       __imp_WriteConsoleW        000000018002b000     kernel32:KERNEL32.dll
 0002:00000008       __imp_SetFilePointerEx     000000018002b008     kernel32:KERNEL32.dll
 0002:00000010       __imp_GetConsoleMode       000000018002b010     kernel32:KERNEL32.dll
 0002:00000018       __imp_GetConsoleCP         000000018002b018     kernel32:KERNEL32.dll
 0002:00000020       __imp_FlushFileBuffers     000000018002b020     kernel32:KERNEL32.dll
 0002:00000028       __imp_WriteFile            000000018002b028     kernel32:KERNEL32.dll
 0002:00000030       __imp_SetStdHandle         000000018002b030     kernel32:KERNEL32.dll
 0002:00000038       __imp_HeapReAlloc          000000018002b038     kernel32:KERNEL32.dll
 0002:00000040       __imp_HeapSize             000000018002b040     kernel32:KERNEL32.dll
 0002:00000048       __imp_GetStringTypeW       000000018002b048     kernel32:KERNEL32.dll
 0002:00000050       __imp_GetFileType          000000018002b050     kernel32:KERNEL32.dll
 0002:00000058       __imp_GetStdHandle         000000018002b058     kernel32:KERNEL32.dll
 0002:00000060       __imp_GetProcessHeap       000000018002b060     kernel32:KERNEL32.dll
 0002:00000068       __imp_FreeEnvironmentStringsW 000000018002b068     kernel32:KERNEL32.dll
 0002:00000070       __imp_GetEnvironmentStringsW 000000018002b070     kernel32:KERNEL32.dll
 0002:00000078       __imp_GetCommandLineW      000000018002b078     kernel32:KERNEL32.dll
 0002:00000080       __imp_GetCommandLineA      000000018002b080     kernel32:KERNEL32.dll
 0002:00000088       __imp_GetCPInfo            000000018002b088     kernel32:KERNEL32.dll
 0002:00000090       __imp_GetOEMCP             000000018002b090     kernel32:KERNEL32.dll
 0002:00000098       __imp_IsValidCodePage      000000018002b098     kernel32:KERNEL32.dll
 0002:000000a0       __imp_FindNextFileA        000000018002b0a0     kernel32:KERNEL32.dll
 0002:000000a8       __imp_FindFirstFileExA     000000018002b0a8     kernel32:KERNEL32.dll
 0002:000000b0       __imp_FindClose            000000018002b0b0     kernel32:KERNEL32.dll
 0002:000000b8       __imp_LCMapStringW         000000018002b0b8     kernel32:KERNEL32.dll
 0002:000000c0       __imp_GetACP               000000018002b0c0     kernel32:KERNEL32.dll
 0002:000000c8       __imp_HeapAlloc            000000018002b0c8     kernel32:KERNEL32.dll
 0002:000000d0       __imp_HeapFree             000000018002b0d0     kernel32:KERNEL32.dll
 0002:000000d8       __imp_MultiByteToWideChar  000000018002b0d8     kernel32:KERNEL32.dll
 0002:000000e0       __imp_GetModuleFileNameA   000000018002b0e0     kernel32:KERNEL32.dll
 0002:000000e8       __imp_GetModuleHandleExW   000000018002b0e8     kernel32:KERNEL32.dll
 0002:000000f0       __imp_ExitProcess          000000018002b0f0     kernel32:KERNEL32.dll
 0002:000000f8       __imp_SetLastError         000000018002b0f8     kernel32:KERNEL32.dll
 0002:00000100       __imp_InterlockedFlushSList 000000018002b100     kernel32:KERNEL32.dll
 0002:00000108       __imp_LoadLibraryExW       000000018002b108     kernel32:KERNEL32.dll
 0002:00000110       __imp_FreeLibrary          000000018002b110     kernel32:KERNEL32.dll
 0002:00000118       __imp_TlsFree              000000018002b118     kernel32:KERNEL32.dll
 0002:00000120       __imp_TlsSetValue          000000018002b120     kernel32:KERNEL32.dll
 0002:00000128       __imp_TlsGetValue          000000018002b128     kernel32:KERNEL32.dll
 0002:00000130       __imp_TlsAlloc             000000018002b130     kernel32:KERNEL32.dll
 0002:00000138       __imp_InitializeCriticalSectionAndSpinCount 000000018002b138     kernel32:KERNEL32.dll
 0002:00000140       __imp_GetLastError         000000018002b140     kernel32:KERNEL32.dll
 0002:00000148       __imp_RtlUnwindEx          000000018002b148     kernel32:KERNEL32.dll
 0002:00000150       __imp_RaiseException       000000018002b150     kernel32:KERNEL32.dll
 0002:00000158       __imp_EncodePointer        000000018002b158     kernel32:KERNEL32.dll
 0002:00000160       __imp_RtlPcToFileHeader    000000018002b160     kernel32:KERNEL32.dll
 0002:00000168       __imp_InitializeSListHead  000000018002b168     kernel32:KERNEL32.dll
 0002:00000170       __imp_GetSystemTimeAsFileTime 000000018002b170     kernel32:KERNEL32.dll
 0002:00000178       __imp_GetCurrentThreadId   000000018002b178     kernel32:KERNEL32.dll
 0002:00000180       __imp_GetCurrentProcessId  000000018002b180     kernel32:KERNEL32.dll
 0002:00000188       __imp_QueryPerformanceCounter 000000018002b188     kernel32:KERNEL32.dll
 0002:00000190       __imp_GetStartupInfoW      000000018002b190     kernel32:KERNEL32.dll
 0002:00000198       __imp_IsDebuggerPresent    000000018002b198     kernel32:KERNEL32.dll
 0002:000001a0       __imp_IsProcessorFeaturePresent 000000018002b1a0     kernel32:KERNEL32.dll
 0002:000001a8       __imp_TerminateProcess     000000018002b1a8     kernel32:KERNEL32.dll
 0002:000001b0       __imp_GetCurrentProcess    000000018002b1b0     kernel32:KERNEL32.dll
 0002:000001b8       __imp_SetUnhandledExceptionFilter 000000018002b1b8     kernel32:KERNEL32.dll
 0002:000001c0       __imp_UnhandledExceptionFilter 000000018002b1c0     kernel32:KERNEL32.dll
 0002:000001c8       __imp_RtlVirtualUnwind     000000018002b1c8     kernel32:KERNEL32.dll
 0002:000001d0       __imp_RtlLookupFunctionEntry 000000018002b1d0     kernel32:KERNEL32.dll
 0002:000001d8       __imp_RtlCaptureContext    000000018002b1d8     kernel32:KERNEL32.dll
 0002:000001e0       __imp_GetProcAddress       000000018002b1e0     kernel32:KERNEL32.dll
 0002:000001e8       __imp_GetModuleHandleW     000000018002b1e8     kernel32:KERNEL32.dll
 0002:000001f0       __imp_CreateEventW         000000018002b1f0     kernel32:KERNEL32.dll
 0002:000001f8       __imp_WaitForSingleObjectEx 000000018002b1f8     kernel32:KERNEL32.dll
 0002:00000200       __imp_ResetEvent           000000018002b200     kernel32:KERNEL32.dll
 0002:00000208       __imp_SetEvent             000000018002b208     kernel32:KERNEL32.dll
 0002:00000210       __imp_DeleteCriticalSection 000000018002b210     kernel32:KERNEL32.dll
 0002:00000218       __imp_LeaveCriticalSection 000000018002b218     kernel32:KERNEL32.dll
 0002:00000220       __imp_WideCharToMultiByte  000000018002b220     kernel32:KERNEL32.dll
 0002:00000228       __imp_CloseHandle          000000018002b228     kernel32:KERNEL32.dll
 0002:00000230       __imp_EnterCriticalSection 000000018002b230     kernel32:KERNEL32.dll
 0002:00000238       __imp_CreateFileW          000000018002b238     kernel32:KERNEL32.dll
 0002:00000240       \177KERNEL32_NULL_THUNK_DATA 000000018002b240     kernel32:KERNEL32.dll
 0002:00000248       __imp_vips__filename_split8 000000018002b248     libvips:ddcis00699.o
 0002:00000250       __imp_vips_area_unref      000000018002b250     libvips:ddcis00881.o
 0002:00000258       __imp_vips_array_double_get_type 000000018002b258     libvips:ddcis00894.o
 0002:00000260       __imp_vips_array_image_get_type 000000018002b260     libvips:ddcis00900.o
 0002:00000268       __imp_vips_blob_get_type   000000018002b268     libvips:ddcis00950.o
 0002:00000270       __imp_vips_blob_new        000000018002b270     libvips:ddcis00951.o
 0002:00000278       __imp_vips_cache_operation_buildp 000000018002b278     libvips:ddcis01003.o
 0002:00000280       __imp_vips_enum_from_nick  000000018002b280     libvips:ddcis01200.o
 0002:00000288       __imp_vips_error_buffer    000000018002b288     libvips:ddcis01210.o
 0002:00000290       __imp_vips_error_clear     000000018002b290     libvips:ddcis01211.o
 0002:00000298       __imp_vips_foreign_find_load 000000018002b298     libvips:ddcis01254.o
 0002:000002a0       __imp_vips_foreign_find_load_buffer 000000018002b2a0     libvips:ddcis01255.o
 0002:000002a8       __imp_vips_foreign_find_save 000000018002b2a8     libvips:ddcis01256.o
 0002:000002b0       __imp_vips_foreign_find_save_buffer 000000018002b2b0     libvips:ddcis01257.o
 0002:000002b8       __imp_vips_format_sizeof_unsafe 000000018002b2b8     libvips:ddcis01337.o
 0002:000002c0       __imp_vips_image_get_bands 000000018002b2c0     libvips:ddcis01436.o
 0002:000002c8       __imp_vips_image_get_blob  000000018002b2c8     libvips:ddcis01437.o
 0002:000002d0       __imp_vips_image_get_coding 000000018002b2d0     libvips:ddcis01438.o
 0002:000002d8       __imp_vips_image_get_data  000000018002b2d8     libvips:ddcis01439.o
 0002:000002e0       __imp_vips_image_get_double 000000018002b2e0     libvips:ddcis01440.o
 0002:000002e8       __imp_vips_image_get_filename 000000018002b2e8     libvips:ddcis01442.o
 0002:000002f0       __imp_vips_image_get_format 000000018002b2f0     libvips:ddcis01443.o
 0002:000002f8       __imp_vips_image_get_height 000000018002b2f8     libvips:ddcis01444.o
 0002:00000300       __imp_vips_image_get_int   000000018002b300     libvips:ddcis01446.o
 0002:00000308       __imp_vips_image_get_interpretation 000000018002b308     libvips:ddcis01447.o
 0002:00000310       __imp_vips_image_get_string 000000018002b310     libvips:ddcis01451.o
 0002:00000318       __imp_vips_image_get_type  000000018002b318     libvips:ddcis01452.o
 0002:00000320       __imp_vips_image_get_typeof 000000018002b320     libvips:ddcis01453.o
 0002:00000328       __imp_vips_image_get_width 000000018002b328     libvips:ddcis01454.o
 0002:00000330       __imp_vips_image_get_xoffset 000000018002b330     libvips:ddcis01455.o
 0002:00000338       __imp_vips_image_get_xres  000000018002b338     libvips:ddcis01456.o
 0002:00000340       __imp_vips_image_get_yoffset 000000018002b340     libvips:ddcis01457.o
 0002:00000348       __imp_vips_image_get_yres  000000018002b348     libvips:ddcis01458.o
 0002:00000350       __imp_vips_image_guess_interpretation 000000018002b350     libvips:ddcis01460.o
 0002:00000358       __imp_vips_image_new_from_memory 000000018002b358     libvips:ddcis01482.o
 0002:00000360       __imp_vips_image_new_matrix 000000018002b360     libvips:ddcis01484.o
 0002:00000368       __imp_vips_image_new_matrix_from_array 000000018002b368     libvips:ddcis01485.o
 0002:00000370       __imp_vips_image_new_memory 000000018002b370     libvips:ddcis01487.o
 0002:00000378       __imp_vips_image_new_temp_file 000000018002b378     libvips:ddcis01489.o
 0002:00000380       __imp_vips_image_set_blob  000000018002b380     libvips:ddcis01502.o
 0002:00000388       __imp_vips_image_set_double 000000018002b388     libvips:ddcis01504.o
 0002:00000390       __imp_vips_image_set_int   000000018002b390     libvips:ddcis01505.o
 0002:00000398       __imp_vips_image_set_string 000000018002b398     libvips:ddcis01508.o
 0002:000003a0       __imp_vips_image_write     000000018002b3a0     libvips:ddcis01511.o
 0002:000003a8       __imp_vips_image_write_to_memory 000000018002b3a8     libvips:ddcis01516.o
 0002:000003b0       __imp_vips_interpolate_get_type 000000018002b3b0     libvips:ddcis01531.o
 0002:000003b8       __imp_vips_interpolate_new 000000018002b3b8     libvips:ddcis01538.o
 0002:000003c0       __imp_vips_object_get_argument 000000018002b3c0     libvips:ddcis01664.o
 0002:000003c8       __imp_vips_object_get_type 000000018002b3c8     libvips:ddcis01670.o
 0002:000003d0       __imp_vips_object_set_from_string 000000018002b3d0     libvips:ddcis01687.o
 0002:000003d8       __imp_vips_object_unref_outputs 000000018002b3d8     libvips:ddcis01694.o
 0002:000003e0       __imp_vips_operation_new   000000018002b3e0     libvips:ddcis01709.o
 0002:000003e8       __imp_vips_value_get_array_double 000000018002b3e8     libvips:ddcis01968.o
 0002:000003f0       __imp_vips_value_get_array_image 000000018002b3f0     libvips:ddcis01969.o
 0002:000003f8       __imp_vips_value_set_array_double 000000018002b3f8     libvips:ddcis01978.o
 0002:00000400       __imp_vips_value_set_array_image 000000018002b400     libvips:ddcis01979.o
 0002:00000410       __imp_g_object_get_property 000000018002b410     libgobject-2.0:dhzhs00125.o
 0002:00000418       __imp_g_object_ref         000000018002b418     libgobject-2.0:dhzhs00138.o
 0002:00000420       __imp_g_object_set_property 000000018002b420     libgobject-2.0:dhzhs00148.o
 0002:00000428       __imp_g_object_unref       000000018002b428     libgobject-2.0:dhzhs00155.o
 0002:00000430       __imp_g_param_spec_types   000000018002b430     libgobject-2.0:dhzhs00196.o
 0002:00000438       __imp_g_type_check_instance_cast 000000018002b438     libgobject-2.0:dhzhs00271.o
 0002:00000440       __imp_g_type_check_instance_is_a 000000018002b440     libgobject-2.0:dhzhs00272.o
 0002:00000448       __imp_g_value_dup_boxed    000000018002b448     libgobject-2.0:dhzhs00353.o
 0002:00000450       __imp_g_value_get_boolean  000000018002b450     libgobject-2.0:dhzhs00359.o
 0002:00000458       __imp_g_value_get_double   000000018002b458     libgobject-2.0:dhzhs00362.o
 0002:00000460       __imp_g_value_get_int      000000018002b460     libgobject-2.0:dhzhs00367.o
 0002:00000468       __imp_g_value_get_object   000000018002b468     libgobject-2.0:dhzhs00370.o
 0002:00000470       __imp_g_value_get_string   000000018002b470     libgobject-2.0:dhzhs00374.o
 0002:00000478       __imp_g_value_init         000000018002b478     libgobject-2.0:dhzhs00381.o
 0002:00000480       __imp_g_value_set_boolean  000000018002b480     libgobject-2.0:dhzhs00386.o
 0002:00000488       __imp_g_value_set_boxed    000000018002b488     libgobject-2.0:dhzhs00387.o
 0002:00000490       __imp_g_value_set_double   000000018002b490     libgobject-2.0:dhzhs00390.o
 0002:00000498       __imp_g_value_set_enum     000000018002b498     libgobject-2.0:dhzhs00391.o
 0002:000004a0       __imp_g_value_set_int      000000018002b4a0     libgobject-2.0:dhzhs00396.o
 0002:000004a8       __imp_g_value_set_object   000000018002b4a8     libgobject-2.0:dhzhs00399.o
 0002:000004b0       __imp_g_value_set_string   000000018002b4b0     libgobject-2.0:dhzhs00407.o
 0002:000004b8       __imp_g_value_unset        000000018002b4b8     libgobject-2.0:dhzhs00422.o
 0002:000004c8       __imp_g_assertion_message_expr 000000018002b4c8     libglib-2.0:dxyhs00041.o
 0002:000004d0       __imp_g_log                000000018002b4d0     libglib-2.0:dxyhs00617.o
 0002:000004e0       __guard_check_icall_fptr   000000018002b4e0     LIBCMT:guard_support.obj
 0002:000004e8       __guard_dispatch_icall_fptr 000000018002b4e8     LIBCMT:guard_support.obj
 0002:000004f0       __xc_a                     000000018002b4f0     LIBCMT:initializers.obj
 0002:000004f8       __xc_z                     000000018002b4f8     LIBCMT:initializers.obj
 0002:00000500       __xi_a                     000000018002b500     LIBCMT:initializers.obj
 0002:00000510       __acrt_multibyte_initializer 000000018002b510     libucrt:multibyte_initializer.obj
 0002:00000518       __acrt_stdio_initializer   000000018002b518     libucrt:stdio_initializer.obj
 0002:00000520       __acrt_tran_fma3_initializer 000000018002b520     libucrt:fma3_initializer.obj
 0002:00000528       __xi_z                     000000018002b528     LIBCMT:initializers.obj
 0002:00000530       __xl_a                     000000018002b530     LIBCMT:tlssup.obj
 0002:00000538       __xl_z                     000000018002b538     LIBCMT:tlssup.obj
 0002:00000540       __xp_a                     000000018002b540     LIBCMT:initializers.obj
 0002:00000548       __acrt_locale_terminator   000000018002b548     libucrt:locale_initializer.obj
 0002:00000550       __dcrt_console_output_terminator 000000018002b550     libucrt:console_output_initializer.obj
 0002:00000558       __acrt_stdio_terminator    000000018002b558     libucrt:stdio_initializer.obj
 0002:00000560       __xp_z                     000000018002b560     LIBCMT:initializers.obj
 0002:00000568       __xt_a                     000000018002b568     LIBCMT:initializers.obj
 0002:00000570       __xt_z                     000000018002b570     LIBCMT:initializers.obj
 0002:00000588       ??_7exception@std@@6B@     000000018002b588     libcpmt:xthrow.obj
 0002:00000598       ??_C@_0BC@EOODALEL@Unknown?5exception?$AA@ 000000018002b598     libcpmt:xthrow.obj
 0002:000005b8       ??_7bad_alloc@std@@6B@     000000018002b5b8     libcpmt:xthrow.obj
 0002:000005c8       ??_C@_0P@GHFPNOJB@bad?5allocation?$AA@ 000000018002b5c8     libcpmt:xthrow.obj
 0002:000005e0       ??_7logic_error@std@@6B@   000000018002b5e0     libcpmt:xthrow.obj
 0002:000005f8       ??_7length_error@std@@6B@  000000018002b5f8     libcpmt:xthrow.obj
 0002:00000610       ??_7out_of_range@std@@6B@  000000018002b610     libcpmt:xthrow.obj
 0002:00000628       ??_7runtime_error@std@@6B@ 000000018002b628     libcpmt:xthrow.obj
 0002:00000d70       ??_C@_0BN@LKKBCCDB@address?5family?5not?5supported?$AA@ 000000018002bd70     libcpmt:syserror.obj
 0002:00000d90       ??_C@_0P@LDMLAFHI@address?5in?5use?$AA@ 000000018002bd90     libcpmt:syserror.obj
 0002:00000da0       ??_C@_0BG@DHPCNBJB@address?5not?5available?$AA@ 000000018002bda0     libcpmt:syserror.obj
 0002:00000db8       ??_C@_0BC@DFIBIBIL@already?5connected?$AA@ 000000018002bdb8     libcpmt:syserror.obj
 0002:00000dd0       ??_C@_0BH@CAKOHOMI@argument?5list?5too?5long?$AA@ 000000018002bdd0     libcpmt:syserror.obj
 0002:00000de8       ??_C@_0BH@CGIMPKIM@argument?5out?5of?5domain?$AA@ 000000018002bde8     libcpmt:syserror.obj
 0002:00000e00       ??_C@_0M@KGHGGJGL@bad?5address?$AA@ 000000018002be00     libcpmt:syserror.obj
 0002:00000e10       ??_C@_0BE@MPJPGCEO@bad?5file?5descriptor?$AA@ 000000018002be10     libcpmt:syserror.obj
 0002:00000e28       ??_C@_0M@PMMIEFCP@bad?5message?$AA@ 000000018002be28     libcpmt:syserror.obj
 0002:00000e38       ??_C@_0M@KPHOFDBE@broken?5pipe?$AA@ 000000018002be38     libcpmt:syserror.obj
 0002:00000e48       ??_C@_0BD@MGNDDEGM@connection?5aborted?$AA@ 000000018002be48     libcpmt:syserror.obj
 0002:00000e60       ??_C@_0BP@KAIHPOGN@connection?5already?5in?5progress?$AA@ 000000018002be60     libcpmt:syserror.obj
 0002:00000e80       ??_C@_0BD@PJLIIJEL@connection?5refused?$AA@ 000000018002be80     libcpmt:syserror.obj
 0002:00000e98       ??_C@_0BB@IECNJNOI@connection?5reset?$AA@ 000000018002be98     libcpmt:syserror.obj
 0002:00000eb0       ??_C@_0BC@PPHBOELF@cross?5device?5link?$AA@ 000000018002beb0     libcpmt:syserror.obj
 0002:00000ec8       ??_C@_0BN@KDMIFEIP@destination?5address?5required?$AA@ 000000018002bec8     libcpmt:syserror.obj
 0002:00000ee8       ??_C@_0BI@NGCEHDD@device?5or?5resource?5busy?$AA@ 000000018002bee8     libcpmt:syserror.obj
 0002:00000f00       ??_C@_0BE@JIDOCPHM@directory?5not?5empty?$AA@ 000000018002bf00     libcpmt:syserror.obj
 0002:00000f18       ??_C@_0BI@BNCLIGPB@executable?5format?5error?$AA@ 000000018002bf18     libcpmt:syserror.obj
 0002:00000f30       ??_C@_0M@MIDIAGJP@file?5exists?$AA@ 000000018002bf30     libcpmt:syserror.obj
 0002:00000f40       ??_C@_0P@DNAJLBJK@file?5too?5large?$AA@ 000000018002bf40     libcpmt:syserror.obj
 0002:00000f50       ??_C@_0BC@EJHOMAAK@filename?5too?5long?$AA@ 000000018002bf50     libcpmt:syserror.obj
 0002:00000f68       ??_C@_0BH@KEFGLDAF@function?5not?5supported?$AA@ 000000018002bf68     libcpmt:syserror.obj
 0002:00000f80       ??_C@_0BB@DHFDFGDM@host?5unreachable?$AA@ 000000018002bf80     libcpmt:syserror.obj
 0002:00000f98       ??_C@_0BD@JPHBMONG@identifier?5removed?$AA@ 000000018002bf98     libcpmt:syserror.obj
 0002:00000fb0       ??_C@_0BG@CDNPAGJK@illegal?5byte?5sequence?$AA@ 000000018002bfb0     libcpmt:syserror.obj
 0002:00000fc8       ??_C@_0CD@BNPLBMNA@inappropriate?5io?5control?5operati@ 000000018002bfc8     libcpmt:syserror.obj
 0002:00000ff0       ??_C@_0M@EGEKIIMP@interrupted?$AA@ 000000018002bff0     libcpmt:syserror.obj
 0002:00001000       ??_C@_0BB@FCMFBGOM@invalid?5argument?$AA@ 000000018002c000     libcpmt:syserror.obj
 0002:00001018       ??_C@_0N@OHAFKDEK@invalid?5seek?$AA@ 000000018002c018     libcpmt:syserror.obj
 0002:00001028       ??_C@_08GLNPIFBN@io?5error?$AA@ 000000018002c028     libcpmt:syserror.obj
 0002:00001038       ??_C@_0P@FLLDBIDK@is?5a?5directory?$AA@ 000000018002c038     libcpmt:syserror.obj
 0002:00001048       ??_C@_0N@IFLPBIOP@message?5size?$AA@ 000000018002c048     libcpmt:syserror.obj
 0002:00001058       ??_C@_0N@KIIEAAIO@network?5down?$AA@ 000000018002c058     libcpmt:syserror.obj
 0002:00001068       ??_C@_0O@FNPDBHEE@network?5reset?$AA@ 000000018002c068     libcpmt:syserror.obj
 0002:00001078       ??_C@_0BE@IFNCKGE@network?5unreachable?$AA@ 000000018002c078     libcpmt:syserror.obj
 0002:00001090       ??_C@_0BA@PFFCAOFK@no?5buffer?5space?$AA@ 000000018002c090     libcpmt:syserror.obj
 0002:000010a0       ??_C@_0BB@IEPBLJHK@no?5child?5process?$AA@ 000000018002c0a0     libcpmt:syserror.obj
 0002:000010b8       ??_C@_07PLECNNKG@no?5link?$AA@ 000000018002c0b8     libcpmt:syserror.obj
 0002:000010c0       ??_C@_0BC@NJECKMKE@no?5lock?5available?$AA@ 000000018002c0c0     libcpmt:syserror.obj
 0002:000010d8       ??_C@_0BF@PBGGPKKE@no?5message?5available?$AA@ 000000018002c0d8     libcpmt:syserror.obj
 0002:000010f0       ??_C@_0L@EDOLMPAK@no?5message?$AA@ 000000018002c0f0     libcpmt:syserror.obj
 0002:00001100       ??_C@_0BD@EAMBFIDF@no?5protocol?5option?$AA@ 000000018002c100     libcpmt:syserror.obj
 0002:00001118       ??_C@_0BD@IJDJKDEA@no?5space?5on?5device?$AA@ 000000018002c118     libcpmt:syserror.obj
 0002:00001130       ??_C@_0BE@MKFDAFMP@no?5stream?5resources?$AA@ 000000018002c130     libcpmt:syserror.obj
 0002:00001148       ??_C@_0BK@IMCPHCBI@no?5such?5device?5or?5address?$AA@ 000000018002c148     libcpmt:syserror.obj
 0002:00001168       ??_C@_0P@FDINDDOK@no?5such?5device?$AA@ 000000018002c168     libcpmt:syserror.obj
 0002:00001178       ??_C@_0BK@NDOCBPGE@no?5such?5file?5or?5directory?$AA@ 000000018002c178     libcpmt:syserror.obj
 0002:00001198       ??_C@_0BA@ENLPPKBN@no?5such?5process?$AA@ 000000018002c198     libcpmt:syserror.obj
 0002:000011a8       ??_C@_0BA@DOCPFFJG@not?5a?5directory?$AA@ 000000018002c1a8     libcpmt:syserror.obj
 0002:000011b8       ??_C@_0N@POEIPGGF@not?5a?5socket?$AA@ 000000018002c1b8     libcpmt:syserror.obj
 0002:000011c8       ??_C@_0N@LGAPMMPI@not?5a?5stream?$AA@ 000000018002c1c8     libcpmt:syserror.obj
 0002:000011d8       ??_C@_0O@GLMIBBEG@not?5connected?$AA@ 000000018002c1d8     libcpmt:syserror.obj
 0002:000011e8       ??_C@_0BC@ENOOLCNF@not?5enough?5memory?$AA@ 000000018002c1e8     libcpmt:syserror.obj
 0002:00001200       ??_C@_0O@NHEDABJP@not?5supported?$AA@ 000000018002c200     libcpmt:syserror.obj
 0002:00001210       ??_C@_0BD@MOLBPMEA@operation?5canceled?$AA@ 000000018002c210     libcpmt:syserror.obj
 0002:00001228       ??_C@_0BG@KDKHOPCO@operation?5in?5progress?$AA@ 000000018002c228     libcpmt:syserror.obj
 0002:00001240       ??_C@_0BI@OHIEJAAB@operation?5not?5permitted?$AA@ 000000018002c240     libcpmt:syserror.obj
 0002:00001258       ??_C@_0BI@LNEGIFLN@operation?5not?5supported?$AA@ 000000018002c258     libcpmt:syserror.obj
 0002:00001270       ??_C@_0BG@OEMDKMEE@operation?5would?5block?$AA@ 000000018002c270     libcpmt:syserror.obj
 0002:00001288       ??_C@_0L@BLPOFLNJ@owner?5dead?$AA@ 000000018002c288     libcpmt:syserror.obj
 0002:00001298       ??_C@_0BC@CIJDGCDI@permission?5denied?$AA@ 000000018002c298     libcpmt:syserror.obj
 0002:000012b0       ??_C@_0P@FNPOCJBE@protocol?5error?$AA@ 000000018002c2b0     libcpmt:syserror.obj
 0002:000012c0       ??_C@_0BH@JPPPLHJB@protocol?5not?5supported?$AA@ 000000018002c2c0     libcpmt:syserror.obj
 0002:000012d8       ??_C@_0BG@EICBIHDP@read?5only?5file?5system?$AA@ 000000018002c2d8     libcpmt:syserror.obj
 0002:000012f0       ??_C@_0BO@BJBOMOEJ@resource?5deadlock?5would?5occur?$AA@ 000000018002c2f0     libcpmt:syserror.obj
 0002:00001310       ??_C@_0BP@LKNGHENJ@resource?5unavailable?5try?5again?$AA@ 000000018002c310     libcpmt:syserror.obj
 0002:00001330       ??_C@_0BE@GOIPJJHG@result?5out?5of?5range?$AA@ 000000018002c330     libcpmt:syserror.obj
 0002:00001348       ??_C@_0BG@MPLKFPAE@state?5not?5recoverable?$AA@ 000000018002c348     libcpmt:syserror.obj
 0002:00001360       ??_C@_0P@DIIFGFCG@stream?5timeout?$AA@ 000000018002c360     libcpmt:syserror.obj
 0002:00001370       ??_C@_0P@IPFDMIFL@text?5file?5busy?$AA@ 000000018002c370     libcpmt:syserror.obj
 0002:00001380       ??_C@_09KJPPMAOI@timed?5out?$AA@ 000000018002c380     libcpmt:syserror.obj
 0002:00001390       ??_C@_0BO@HACHBEKI@too?5many?5files?5open?5in?5system?$AA@ 000000018002c390     libcpmt:syserror.obj
 0002:000013b0       ??_C@_0BE@GHAFMPAH@too?5many?5files?5open?$AA@ 000000018002c3b0     libcpmt:syserror.obj
 0002:000013c8       ??_C@_0P@HCOMKFCC@too?5many?5links?$AA@ 000000018002c3c8     libcpmt:syserror.obj
 0002:000013d8       ??_C@_0BO@EFGOJEF@too?5many?5symbolic?5link?5levels?$AA@ 000000018002c3d8     libcpmt:syserror.obj
 0002:000013f8       ??_C@_0BA@KGKGOOJA@value?5too?5large?$AA@ 000000018002c3f8     libcpmt:syserror.obj
 0002:00001408       ??_C@_0BE@MIEJDDNH@wrong?5protocol?5type?$AA@ 000000018002c408     libcpmt:syserror.obj
 0002:00001420       ??_C@_0O@BFJCFAAK@unknown?5error?$AA@ 000000018002c420     libcpmt:syserror.obj
 0002:00001430       ??_C@_1BK@MGMFAEKH@?$AAk?$AAe?$AAr?$AAn?$AAe?$AAl?$AA3?$AA2?$AA?4?$AAd?$AAl?$AAl?$AA?$AA@ 000000018002c430     LIBCMT:thread_safe_statics.obj
 0002:00001450       ??_C@_0BM@HLJJNPAH@InitializeConditionVariable?$AA@ 000000018002c450     LIBCMT:thread_safe_statics.obj
 0002:00001470       ??_C@_0BJ@JEBJOJFJ@SleepConditionVariableCS?$AA@ 000000018002c470     LIBCMT:thread_safe_statics.obj
 0002:00001490       ??_C@_0BJ@PGPPEPCC@WakeAllConditionVariable?$AA@ 000000018002c490     LIBCMT:thread_safe_statics.obj
 0002:000014b8       ??_7type_info@@6B@         000000018002c4b8     LIBCMT:std_type_info_static.obj
 0002:000014c0       _pDefaultRawDllMain        000000018002c4c0     LIBCMT:dll_dllmain.obj
 0002:000014c0       _pRawDllMain               000000018002c4c0     LIBCMT:dll_dllmain.obj
 0002:000014e0       ??_7bad_array_new_length@std@@6B@ 000000018002c4e0     LIBCMT:throw_bad_alloc.obj
 0002:000014f0       ??_C@_0BF@KINCDENJ@bad?5array?5new?5length?$AA@ 000000018002c4f0     LIBCMT:throw_bad_alloc.obj
 0002:00001508       _pDestructExceptionObject  000000018002c508     libvcruntime:frame.obj
 0002:00001518       ??_7bad_exception@std@@6B@ 000000018002c518     libvcruntime:frame.obj
 0002:00001528       ??_C@_0O@DPKOEFFH@bad?5exception?$AA@ 000000018002c528     libvcruntime:frame.obj
 0002:00001638       ??_C@_1BC@DNHGCMLG@?$AAa?$AAd?$AAv?$AAa?$AAp?$AAi?$AA3?$AA2?$AA?$AA@ 000000018002c638     libvcruntime:winapi_downlevel.obj
 0002:00001650       ??_C@_1DM@KHCHBNEB@?$AAa?$AAp?$AAi?$AA?9?$AAm?$AAs?$AA?9?$AAw?$AAi?$AAn?$AA?9?$AAc?$AAo?$AAr?$AAe?$AA?9?$AAf?$AAi?$AAb?$AAe?$AAr?$AAs?$AA?9?$AAl?$AA1?$AA?9?$AA1?$AA?9?$AA1?$AA?$AA@ 000000018002c650     libvcruntime:winapi_downlevel.obj
 0002:00001690       ??_C@_1DK@LPPGFMPP@?$AAa?$AAp?$AAi?$AA?9?$AAm?$AAs?$AA?9?$AAw?$AAi?$AAn?$AA?9?$AAc?$AAo?$AAr?$AAe?$AA?9?$AAs?$AAy?$AAn?$AAc?$AAh?$AA?9?$AAl?$AA1?$AA?9?$AA2?$AA?9?$AA0?$AA?$AA@ 000000018002c690     libvcruntime:winapi_downlevel.obj
 0002:000016d0       ??_C@_1BC@GDMECMAK@?$AAk?$AAe?$AAr?$AAn?$AAe?$AAl?$AA3?$AA2?$AA?$AA@ 000000018002c6d0     libvcruntime:winapi_downlevel.obj
 0002:000016f0       ??_C@_08KNHFBNJ@FlsAlloc?$AA@ 000000018002c6f0     libvcruntime:winapi_downlevel.obj
 0002:00001708       ??_C@_07PEJMOBNF@FlsFree?$AA@ 000000018002c708     libvcruntime:winapi_downlevel.obj
 0002:00001718       ??_C@_0M@GDNOONDI@FlsGetValue?$AA@ 000000018002c718     libvcruntime:winapi_downlevel.obj
 0002:00001730       ??_C@_0M@JCPCPOEF@FlsSetValue?$AA@ 000000018002c730     libvcruntime:winapi_downlevel.obj
 0002:00001748       ??_C@_0BM@HCFOFFN@InitializeCriticalSectionEx?$AA@ 000000018002c748     libvcruntime:winapi_downlevel.obj
 0002:00001a90       ??_C@_08EHJDFFNH@__based?$CI?$AA@ 000000018002ca90     libvcruntime:undname.obj
 0002:00001aa0       ??_C@_07KOLFKCDI@__cdecl?$AA@ 000000018002caa0     libvcruntime:undname.obj
 0002:00001aa8       ??_C@_08GHMPAG@__pascal?$AA@ 000000018002caa8     libvcruntime:undname.obj
 0002:00001ab8       ??_C@_09IFJBGAPI@__stdcall?$AA@ 000000018002cab8     libvcruntime:undname.obj
 0002:00001ac8       ??_C@_0L@NPHFGOKO@__thiscall?$AA@ 000000018002cac8     libvcruntime:undname.obj
 0002:00001ad8       ??_C@_0L@JMKHOMEK@__fastcall?$AA@ 000000018002cad8     libvcruntime:undname.obj
 0002:00001ae8       ??_C@_0N@BCKKPABJ@__vectorcall?$AA@ 000000018002cae8     libvcruntime:undname.obj
 0002:00001af8       ??_C@_09HIJEGCPM@__clrcall?$AA@ 000000018002caf8     libvcruntime:undname.obj
 0002:00001b04       ??_C@_06GHPCKEAG@__eabi?$AA@ 000000018002cb04     libvcruntime:undname.obj
 0002:00001b10       ??_C@_07JOMMBBKO@__ptr64?$AA@ 000000018002cb10     libvcruntime:undname.obj
 0002:00001b18       ??_C@_0L@PILCLIHE@__restrict?$AA@ 000000018002cb18     libvcruntime:undname.obj
 0002:00001b28       ??_C@_0M@GFIIJFMG@__unaligned?$AA@ 000000018002cb28     libvcruntime:undname.obj
 0002:00001b38       ??_C@_09DHDLOLLB@restrict?$CI?$AA@ 000000018002cb38     libvcruntime:undname.obj
 0002:00001b42       ??_C@_00CNPNBAHC@?$AA@     000000018002cb42     libvcruntime:undname.obj
 0002:00001b44       ??_C@_04NIHEBCM@?5new?$AA@ 000000018002cb44     libvcruntime:undname.obj
 0002:00001b50       ??_C@_07FPCDHGMM@?5delete?$AA@ 000000018002cb50     libvcruntime:undname.obj
 0002:00001b58       ??_C@_01NEMOKFLO@?$DN?$AA@ 000000018002cb58     libvcruntime:undname.obj
 0002:00001b5c       ??_C@_02GPIOPFAK@?$DO?$DO?$AA@ 000000018002cb5c     libvcruntime:undname.obj
 0002:00001b60       ??_C@_02FODMEDOG@?$DM?$DM?$AA@ 000000018002cb60     libvcruntime:undname.obj
 0002:00001b64       ??_C@_01DCLJPIOD@?$CB?$AA@ 000000018002cb64     libvcruntime:undname.obj
 0002:00001b68       ??_C@_02EGOFBIJA@?$DN?$DN?$AA@ 000000018002cb68     libvcruntime:undname.obj
 0002:00001b6c       ??_C@_02FDNJECIE@?$CB?$DN?$AA@ 000000018002cb6c     libvcruntime:undname.obj
 0002:00001b70       ??_C@_02GPECMEKF@?$FL?$FN?$AA@ 000000018002cb70     libvcruntime:undname.obj
 0002:00001b78       ??_C@_08LHJFAFGD@operator?$AA@ 000000018002cb78     libvcruntime:undname.obj
 0002:00001b84       ??_C@_02HBOOOICD@?9?$DO?$AA@ 000000018002cb84     libvcruntime:undname.obj
 0002:00001b88       ??_C@_01NBENCBCI@?$CK?$AA@ 000000018002cb88     libvcruntime:undname.obj
 0002:00001b8c       ??_C@_02ECNGHCIF@?$CL?$CL?$AA@ 000000018002cb8c     libvcruntime:undname.obj
 0002:00001b90       ??_C@_02BAABKJLB@?9?9?$AA@ 000000018002cb90     libvcruntime:undname.obj
 0002:00001b94       ??_C@_01JOAMLHOP@?9?$AA@   000000018002cb94     libvcruntime:undname.obj
 0002:00001b98       ??_C@_01MIFGBAGJ@?$CL?$AA@ 000000018002cb98     libvcruntime:undname.obj
 0002:00001b9c       ??_C@_01HNPIGOCE@?$CG?$AA@ 000000018002cb9c     libvcruntime:undname.obj
 0002:00001ba0       ??_C@_03MNHNFDLC@?9?$DO?$CK?$AA@ 000000018002cba0     libvcruntime:undname.obj
 0002:00001ba4       ??_C@_01KMDKNFGN@?1?$AA@   000000018002cba4     libvcruntime:undname.obj
 0002:00001ba8       ??_C@_01FGNFDNOH@?$CF?$AA@ 000000018002cba8     libvcruntime:undname.obj
 0002:00001bac       ??_C@_01MNNFJEPP@?$DM?$AA@ 000000018002cbac     libvcruntime:undname.obj
 0002:00001bb0       ??_C@_02EHCHHCKH@?$DM?$DN?$AA@ 000000018002cbb0     libvcruntime:undname.obj
 0002:00001bb4       ??_C@_01PPODPGHN@?$DO?$AA@ 000000018002cbb4     libvcruntime:undname.obj
 0002:00001bb8       ??_C@_02EEKDKGMJ@?$DO?$DN?$AA@ 000000018002cbb8     libvcruntime:undname.obj
 0002:00001bbc       ??_C@_01IHBHIGKO@?0?$AA@   000000018002cbbc     libvcruntime:undname.obj
 0002:00001bc0       ??_C@_02HCKGKOFO@?$CI?$CJ?$AA@ 000000018002cbc0     libvcruntime:undname.obj
 0002:00001bc4       ??_C@_01PJKLJHI@?$HO?$AA@  000000018002cbc4     libvcruntime:undname.obj
 0002:00001bc8       ??_C@_01JKBOJNNK@?$FO?$AA@ 000000018002cbc8     libvcruntime:undname.obj
 0002:00001bcc       ??_C@_01DNKMNLPK@?$HM?$AA@ 000000018002cbcc     libvcruntime:undname.obj
 0002:00001bd0       ??_C@_02PPKAJPJL@?$CG?$CG?$AA@ 000000018002cbd0     libvcruntime:undname.obj
 0002:00001bd4       ??_C@_02NONPIBCD@?$HM?$HM?$AA@ 000000018002cbd4     libvcruntime:undname.obj
 0002:00001bd8       ??_C@_02FPIMKNGF@?$CK?$DN?$AA@ 000000018002cbd8     libvcruntime:undname.obj
 0002:00001bdc       ??_C@_02FOEOMHFC@?$CL?$DN?$AA@ 000000018002cbdc     libvcruntime:undname.obj
 0002:00001be0       ??_C@_02FKMDLLOA@?9?$DN?$AA@ 000000018002cbe0     libvcruntime:undname.obj
 0002:00001be4       ??_C@_02FJEHGPIO@?1?$DN?$AA@ 000000018002cbe4     libvcruntime:undname.obj
 0002:00001be8       ??_C@_02FENAOKFI@?$CF?$DN?$AA@ 000000018002cbe8     libvcruntime:undname.obj
 0002:00001bec       ??_C@_03IKFCCPFF@?$DO?$DO?$DN?$AA@ 000000018002cbec     libvcruntime:undname.obj
 0002:00001bf0       ??_C@_03CDNPDDLA@?$DM?$DM?$DN?$AA@ 000000018002cbf0     libvcruntime:undname.obj
 0002:00001bf4       ??_C@_02FGJGFEAB@?$CG?$DN?$AA@ 000000018002cbf4     libvcruntime:undname.obj
 0002:00001bf8       ??_C@_02DHLNPPGH@?$HM?$DN?$AA@ 000000018002cbf8     libvcruntime:undname.obj
 0002:00001bfc       ??_C@_02MHEGNOJ@?$FO?$DN?$AA@ 000000018002cbfc     libvcruntime:undname.obj
 0002:00001c00       ??_C@_09IFPLHPGF@?$GAvftable?8?$AA@ 000000018002cc00     libvcruntime:undname.obj
 0002:00001c10       ??_C@_09BLBHBJP@?$GAvbtable?8?$AA@ 000000018002cc10     libvcruntime:undname.obj
 0002:00001c20       ??_C@_07FEEIOKP@?$GAvcall?8?$AA@ 000000018002cc20     libvcruntime:undname.obj
 0002:00001c28       ??_C@_08LLFFHHDJ@?$GAtypeof?8?$AA@ 000000018002cc28     libvcruntime:undname.obj
 0002:00001c38       ??_C@_0BF@KDPPACIK@?$GAlocal?5static?5guard?8?$AA@ 000000018002cc38     libvcruntime:undname.obj
 0002:00001c50       ??_C@_08OBABFOLI@?$GAstring?8?$AA@ 000000018002cc50     libvcruntime:undname.obj
 0002:00001c60       ??_C@_0BD@JDLKDPAB@?$GAvbase?5destructor?8?$AA@ 000000018002cc60     libvcruntime:undname.obj
 0002:00001c78       ??_C@_0BN@DEGPLNFK@?$GAvector?5deleting?5destructor?8?$AA@ 000000018002cc78     libvcruntime:undname.obj
 0002:00001c98       ??_C@_0BO@OBMKPJIG@?$GAdefault?5constructor?5closure?8?$AA@ 000000018002cc98     libvcruntime:undname.obj
 0002:00001cb8       ??_C@_0BN@IMDCHIKM@?$GAscalar?5deleting?5destructor?8?$AA@ 000000018002ccb8     libvcruntime:undname.obj
 0002:00001cd8       ??_C@_0BO@PFGOCPJJ@?$GAvector?5constructor?5iterator?8?$AA@ 000000018002ccd8     libvcruntime:undname.obj
 0002:00001cf8       ??_C@_0BN@LFPFMEDL@?$GAvector?5destructor?5iterator?8?$AA@ 000000018002ccf8     libvcruntime:undname.obj
 0002:00001d18       ??_C@_0CE@IKBNEHA@?$GAvector?5vbase?5constructor?5iterat@ 000000018002cd18     libvcruntime:undname.obj
 0002:00001d40       ??_C@_0BL@NILFHHPC@?$GAvirtual?5displacement?5map?8?$AA@ 000000018002cd40     libvcruntime:undname.obj
 0002:00001d60       ??_C@_0CB@JONCMFFK@?$GAeh?5vector?5constructor?5iterator?8@ 000000018002cd60     libvcruntime:undname.obj
 0002:00001d88       ??_C@_0CA@GCEOPDGL@?$GAeh?5vector?5destructor?5iterator?8?$AA@ 000000018002cd88     libvcruntime:undname.obj
 0002:00001da8       ??_C@_0CH@OOJPLCPH@?$GAeh?5vector?5vbase?5constructor?5ite@ 000000018002cda8     libvcruntime:undname.obj
 0002:00001dd0       ??_C@_0BL@LLKPOHJI@?$GAcopy?5constructor?5closure?8?$AA@ 000000018002cdd0     libvcruntime:undname.obj
 0002:00001df0       ??_C@_0BA@KBCDOMBN@?$GAudt?5returning?8?$AA@ 000000018002cdf0     libvcruntime:undname.obj
 0002:00001e00       ??_C@_03KLGMFNMG@?$GAEH?$AA@ 000000018002ce00     libvcruntime:undname.obj
 0002:00001e04       ??_C@_05KHLCHHI@?$GARTTI?$AA@ 000000018002ce04     libvcruntime:undname.obj
 0002:00001e10       ??_C@_0BA@KKLDJDLB@?$GAlocal?5vftable?8?$AA@ 000000018002ce10     libvcruntime:undname.obj
 0002:00001e20       ??_C@_0CE@IIHCMGGL@?$GAlocal?5vftable?5constructor?5closu@ 000000018002ce20     libvcruntime:undname.obj
 0002:00001e44       ??_C@_06FHBGPFGH@?5new?$FL?$FN?$AA@ 000000018002ce44     libvcruntime:undname.obj
 0002:00001e50       ??_C@_09LBNFPBCA@?5delete?$FL?$FN?$AA@ 000000018002ce50     libvcruntime:undname.obj
 0002:00001e60       ??_C@_0P@HJKNJFNN@?$GAomni?5callsig?8?$AA@ 000000018002ce60     libvcruntime:undname.obj
 0002:00001e70       ??_C@_0BL@CNOONJFP@?$GAplacement?5delete?5closure?8?$AA@ 000000018002ce70     libvcruntime:undname.obj
 0002:00001e90       ??_C@_0BN@CKNJLHMB@?$GAplacement?5delete?$FL?$FN?5closure?8?$AA@ 000000018002ce90     libvcruntime:undname.obj
 0002:00001eb0       ??_C@_0CG@CFDHKGGD@?$GAmanaged?5vector?5constructor?5iter@ 000000018002ceb0     libvcruntime:undname.obj
 0002:00001ed8       ??_C@_0CF@IMGKMJNO@?$GAmanaged?5vector?5destructor?5itera@ 000000018002ced8     libvcruntime:undname.obj
 0002:00001f00       ??_C@_0CG@HLDDJMAG@?$GAeh?5vector?5copy?5constructor?5iter@ 000000018002cf00     libvcruntime:undname.obj
 0002:00001f28       ??_C@_0CM@FCBBDIGB@?$GAeh?5vector?5vbase?5copy?5constructo@ 000000018002cf28     libvcruntime:undname.obj
 0002:00001f58       ??_C@_0BL@CLIPGLGB@?$GAdynamic?5initializer?5for?5?8?$AA@ 000000018002cf58     libvcruntime:undname.obj
 0002:00001f78       ??_C@_0CB@PDBIFEP@?$GAdynamic?5atexit?5destructor?5for?5?8@ 000000018002cf78     libvcruntime:undname.obj
 0002:00001fa0       ??_C@_0CD@CGAJBKEJ@?$GAvector?5copy?5constructor?5iterato@ 000000018002cfa0     libvcruntime:undname.obj
 0002:00001fc8       ??_C@_0CJ@GJELGAMM@?$GAvector?5vbase?5copy?5constructor?5i@ 000000018002cfc8     libvcruntime:undname.obj
 0002:00001ff8       ??_C@_0CL@FGIJHLCE@?$GAmanaged?5vector?5copy?5constructor@ 000000018002cff8     libvcruntime:undname.obj
 0002:00002028       ??_C@_0BM@PMGGMLDN@?$GAlocal?5static?5thread?5guard?8?$AA@ 000000018002d028     libvcruntime:undname.obj
 0002:00002048       ??_C@_0N@BDNMDMOL@operator?5?$CC?$CC?5?$AA@ 000000018002d048     libvcruntime:undname.obj
 0002:00002058       ??_C@_0BC@DAFEJGAK@?5Type?5Descriptor?8?$AA@ 000000018002d058     libvcruntime:undname.obj
 0002:00002070       ??_C@_0BM@LDKODKLH@?5Base?5Class?5Descriptor?5at?5?$CI?$AA@ 000000018002d070     libvcruntime:undname.obj
 0002:00002090       ??_C@_0BD@LGICGFMM@?5Base?5Class?5Array?8?$AA@ 000000018002d090     libvcruntime:undname.obj
 0002:000020a8       ??_C@_0BN@MECKDCOJ@?5Class?5Hierarchy?5Descriptor?8?$AA@ 000000018002d0a8     libvcruntime:undname.obj
 0002:000020c8       ??_C@_0BK@CFCOFLF@?5Complete?5Object?5Locator?8?$AA@ 000000018002d0c8     libvcruntime:undname.obj
 0002:000020f0       __acrt_exception_action_table 000000018002d0f0     libucrt:exception_filter.obj
 0002:000021b0       __acrt_signal_action_table_count 000000018002d1b0     libucrt:exception_filter.obj
 0002:000021b8       __acrt_signal_action_first_fpe_index 000000018002d1b8     libucrt:exception_filter.obj
 0002:000021c0       __acrt_signal_action_fpe_count 000000018002d1c0     libucrt:exception_filter.obj
 0002:000021c8       ??_C@_1BI@BGOHAHKC@?$AAm?$AAs?$AAc?$AAo?$AAr?$AAe?$AAe?$AA?4?$AAd?$AAl?$AAl?$AA?$AA@ 000000018002d1c8     libucrt:exit.obj
 0002:000021e0       ??_C@_0P@MIGLKIOC@CorExitProcess?$AA@ 000000018002d1e0     libucrt:exit.obj
 0002:00002450       __lc_time_c                000000018002d450     libucrt:nlsdata.obj
 0002:00002710       ??_C@_03KOEHGMDN@Sun?$AA@  000000018002d710     libucrt:nlsdata.obj
 0002:00002714       ??_C@_03PDAGKDH@Mon?$AA@   000000018002d714     libucrt:nlsdata.obj
 0002:00002718       ??_C@_03NAGEINEP@Tue?$AA@  000000018002d718     libucrt:nlsdata.obj
 0002:0000271c       ??_C@_03MHOMLAJA@Wed?$AA@  000000018002d71c     libucrt:nlsdata.obj
 0002:00002720       ??_C@_03IOFIKPDN@Thu?$AA@  000000018002d720     libucrt:nlsdata.obj
 0002:00002724       ??_C@_03IDIOELNC@Fri?$AA@  000000018002d724     libucrt:nlsdata.obj
 0002:00002728       ??_C@_03FEFJNEK@Sat?$AA@   000000018002d728     libucrt:nlsdata.obj
 0002:0000272c       ??_C@_06OOPIFAJ@Sunday?$AA@ 000000018002d72c     libucrt:nlsdata.obj
 0002:00002734       ??_C@_06JLEDEDGH@Monday?$AA@ 000000018002d734     libucrt:nlsdata.obj
 0002:00002740       ??_C@_07BAAGCFCM@Tuesday?$AA@ 000000018002d740     libucrt:nlsdata.obj
 0002:00002748       ??_C@_09DLIGFAKA@Wednesday?$AA@ 000000018002d748     libucrt:nlsdata.obj
 0002:00002758       ??_C@_08HACCIKIA@Thursday?$AA@ 000000018002d758     libucrt:nlsdata.obj
 0002:00002764       ??_C@_06JECMNKMI@Friday?$AA@ 000000018002d764     libucrt:nlsdata.obj
 0002:00002770       ??_C@_08INBOOONO@Saturday?$AA@ 000000018002d770     libucrt:nlsdata.obj
 0002:0000277c       ??_C@_03JIHJHPIE@Jan?$AA@  000000018002d77c     libucrt:nlsdata.obj
 0002:00002780       ??_C@_03HJBDCHOM@Feb?$AA@  000000018002d780     libucrt:nlsdata.obj
 0002:00002784       ??_C@_03ODNJBKGA@Mar?$AA@  000000018002d784     libucrt:nlsdata.obj
 0002:00002788       ??_C@_03LEOLGMJP@Apr?$AA@  000000018002d788     libucrt:nlsdata.obj
 0002:0000278c       ??_C@_03CNMDKL@May?$AA@    000000018002d78c     libucrt:nlsdata.obj
 0002:00002790       ??_C@_03IDFGHECI@Jun?$AA@  000000018002d790     libucrt:nlsdata.obj
 0002:00002794       ??_C@_03LBGABGKK@Jul?$AA@  000000018002d794     libucrt:nlsdata.obj
 0002:00002798       ??_C@_03IFJFEIGA@Aug?$AA@  000000018002d798     libucrt:nlsdata.obj
 0002:0000279c       ??_C@_03GGCAPAJC@Sep?$AA@  000000018002d79c     libucrt:nlsdata.obj
 0002:000027a0       ??_C@_03BMAOKBAD@Oct?$AA@  000000018002d7a0     libucrt:nlsdata.obj
 0002:000027a4       ??_C@_03JPJOFNIA@Nov?$AA@  000000018002d7a4     libucrt:nlsdata.obj
 0002:000027a8       ??_C@_03MKABNOCG@Dec?$AA@  000000018002d7a8     libucrt:nlsdata.obj
 0002:000027b0       ??_C@_07CGJPFGJA@January?$AA@ 000000018002d7b0     libucrt:nlsdata.obj
 0002:000027b8       ??_C@_08GNJGEPFN@February?$AA@ 000000018002d7b8     libucrt:nlsdata.obj
 0002:000027c4       ??_C@_05HPCKOFNC@March?$AA@ 000000018002d7c4     libucrt:nlsdata.obj
 0002:000027cc       ??_C@_05DMJDNLEJ@April?$AA@ 000000018002d7cc     libucrt:nlsdata.obj
 0002:000027d4       ??_C@_04CNLMGBGM@June?$AA@ 000000018002d7d4     libucrt:nlsdata.obj
 0002:000027dc       ??_C@_04MIEPOIFP@July?$AA@ 000000018002d7dc     libucrt:nlsdata.obj
 0002:000027e4       ??_C@_06LBBHFDDG@August?$AA@ 000000018002d7e4     libucrt:nlsdata.obj
 0002:000027f0       ??_C@_09BHHEALKD@September?$AA@ 000000018002d7f0     libucrt:nlsdata.obj
 0002:00002800       ??_C@_07JJNFCEND@October?$AA@ 000000018002d800     libucrt:nlsdata.obj
 0002:00002808       ??_C@_08HCHEGEOA@November?$AA@ 000000018002d808     libucrt:nlsdata.obj
 0002:00002818       ??_C@_08EDHMEBNP@December?$AA@ 000000018002d818     libucrt:nlsdata.obj
 0002:00002824       ??_C@_02DEDBPAFC@AM?$AA@   000000018002d824     libucrt:nlsdata.obj
 0002:00002828       ??_C@_02CJNFDJBF@PM?$AA@   000000018002d828     libucrt:nlsdata.obj
 0002:00002830       ??_C@_08BPBNCDIB@MM?1dd?1yy?$AA@ 000000018002d830     libucrt:nlsdata.obj
 0002:00002840       ??_C@_0BE@CKGJFCPC@dddd?0?5MMMM?5dd?0?5yyyy?$AA@ 000000018002d840     libucrt:nlsdata.obj
 0002:00002858       ??_C@_08JCCMCCIL@HH?3mm?3ss?$AA@ 000000018002d858     libucrt:nlsdata.obj
 0002:00002868       ??_C@_17MBGCMIPB@?$AAS?$AAu?$AAn?$AA?$AA@ 000000018002d868     libucrt:nlsdata.obj
 0002:00002870       ??_C@_17KBOMKBF@?$AAM?$AAo?$AAn?$AA?$AA@ 000000018002d870     libucrt:nlsdata.obj
 0002:00002878       ??_C@_17BMKGEGOJ@?$AAT?$AAu?$AAe?$AA?$AA@ 000000018002d878     libucrt:nlsdata.obj
 0002:00002880       ??_C@_17CJEDCEPE@?$AAW?$AAe?$AAd?$AA?$AA@ 000000018002d880     libucrt:nlsdata.obj
 0002:00002888       ??_C@_17PDPHAADD@?$AAT?$AAh?$AAu?$AA?$AA@ 000000018002d888     libucrt:nlsdata.obj
 0002:00002890       ??_C@_17HFOLPPLP@?$AAF?$AAr?$AAi?$AA?$AA@ 000000018002d890     libucrt:nlsdata.obj
 0002:00002898       ??_C@_17GGIBDPIH@?$AAS?$AAa?$AAt?$AA?$AA@ 000000018002d898     libucrt:nlsdata.obj
 0002:000028a0       ??_C@_1O@IHNHDHPB@?$AAS?$AAu?$AAn?$AAd?$AAa?$AAy?$AA?$AA@ 000000018002d8a0     libucrt:nlsdata.obj
 0002:000028b0       ??_C@_1O@MMNBFLIA@?$AAM?$AAo?$AAn?$AAd?$AAa?$AAy?$AA?$AA@ 000000018002d8b0     libucrt:nlsdata.obj
 0002:000028c0       ??_C@_1BA@ENFBFFEK@?$AAT?$AAu?$AAe?$AAs?$AAd?$AAa?$AAy?$AA?$AA@ 000000018002d8c0     libucrt:nlsdata.obj
 0002:000028d0       ??_C@_1BE@EBOGMDOH@?$AAW?$AAe?$AAd?$AAn?$AAe?$AAs?$AAd?$AAa?$AAy?$AA?$AA@ 000000018002d8d0     libucrt:nlsdata.obj
 0002:000028e8       ??_C@_1BC@HHMNLIHE@?$AAT?$AAh?$AAu?$AAr?$AAs?$AAd?$AAa?$AAy?$AA?$AA@ 000000018002d8e8     libucrt:nlsdata.obj
 0002:00002900       ??_C@_1O@PDICJHAG@?$AAF?$AAr?$AAi?$AAd?$AAa?$AAy?$AA?$AA@ 000000018002d900     libucrt:nlsdata.obj
 0002:00002910       ??_C@_1BC@ENMNNPAJ@?$AAS?$AAa?$AAt?$AAu?$AAr?$AAd?$AAa?$AAy?$AA?$AA@ 000000018002d910     libucrt:nlsdata.obj
 0002:00002928       ??_C@_17DKNBKCHM@?$AAJ?$AAa?$AAn?$AA?$AA@ 000000018002d928     libucrt:nlsdata.obj
 0002:00002930       ??_C@_17LMDJEKJN@?$AAF?$AAe?$AAb?$AA?$AA@ 000000018002d930     libucrt:nlsdata.obj
 0002:00002938       ??_C@_17CKNLEDEC@?$AAM?$AAa?$AAr?$AA?$AA@ 000000018002d938     libucrt:nlsdata.obj
 0002:00002940       ??_C@_17LFPOIHDD@?$AAA?$AAp?$AAr?$AA?$AA@ 000000018002d940     libucrt:nlsdata.obj
 0002:00002948       ??_C@_17PNNKMEED@?$AAM?$AAa?$AAy?$AA?$AA@ 000000018002d948     libucrt:nlsdata.obj
 0002:00002950       ??_C@_17KCJGOCPB@?$AAJ?$AAu?$AAn?$AA?$AA@ 000000018002d950     libucrt:nlsdata.obj
 0002:00002958       ??_C@_17IJPCKHK@?$AAJ?$AAu?$AAl?$AA?$AA@ 000000018002d958     libucrt:nlsdata.obj
 0002:00002960       ??_C@_17ICPELBCN@?$AAA?$AAu?$AAg?$AA?$AA@ 000000018002d960     libucrt:nlsdata.obj
 0002:00002968       ??_C@_17HCHCOKMG@?$AAS?$AAe?$AAp?$AA?$AA@ 000000018002d968     libucrt:nlsdata.obj
 0002:00002970       ??_C@_17FNLKOI@?$AAO?$AAc?$AAt?$AA?$AA@ 000000018002d970     libucrt:nlsdata.obj
 0002:00002978       ??_C@_17BBDMLCIG@?$AAN?$AAo?$AAv?$AA?$AA@ 000000018002d978     libucrt:nlsdata.obj
 0002:00002980       ??_C@_17EGKACKIF@?$AAD?$AAe?$AAc?$AA?$AA@ 000000018002d980     libucrt:nlsdata.obj
 0002:00002988       ??_C@_1BA@EFMEIEBA@?$AAJ?$AAa?$AAn?$AAu?$AAa?$AAr?$AAy?$AA?$AA@ 000000018002d988     libucrt:nlsdata.obj
 0002:00002998       ??_C@_1BC@JGDDFFAM@?$AAF?$AAe?$AAb?$AAr?$AAu?$AAa?$AAr?$AAy?$AA?$AA@ 000000018002d998     libucrt:nlsdata.obj
 0002:000029b0       ??_C@_1M@IKEENEDF@?$AAM?$AAa?$AAr?$AAc?$AAh?$AA?$AA@ 000000018002d9b0     libucrt:nlsdata.obj
 0002:000029c0       ??_C@_1M@GJNLMHFD@?$AAA?$AAp?$AAr?$AAi?$AAl?$AA?$AA@ 000000018002d9c0     libucrt:nlsdata.obj
 0002:000029d0       ??_C@_19EPFLPGAP@?$AAJ?$AAu?$AAn?$AAe?$AA?$AA@ 000000018002d9d0     libucrt:nlsdata.obj
 0002:000029e0       ??_C@_19BIFMLPCD@?$AAJ?$AAu?$AAl?$AAy?$AA?$AA@ 000000018002d9e0     libucrt:nlsdata.obj
 0002:000029f0       ??_C@_1O@PAHLKOAC@?$AAA?$AAu?$AAg?$AAu?$AAs?$AAt?$AA?$AA@ 000000018002d9f0     libucrt:nlsdata.obj
 0002:00002a00       ??_C@_1BE@DKAAMBJL@?$AAS?$AAe?$AAp?$AAt?$AAe?$AAm?$AAb?$AAe?$AAr?$AA?$AA@ 000000018002da00     libucrt:nlsdata.obj
 0002:00002a18       ??_C@_1BA@EPANDLNG@?$AAO?$AAc?$AAt?$AAo?$AAb?$AAe?$AAr?$AA?$AA@ 000000018002da18     libucrt:nlsdata.obj
 0002:00002a28       ??_C@_1BC@BGLIFPF@?$AAN?$AAo?$AAv?$AAe?$AAm?$AAb?$AAe?$AAr?$AA?$AA@ 000000018002da28     libucrt:nlsdata.obj
 0002:00002a40       ??_C@_1BC@FEMKIFH@?$AAD?$AAe?$AAc?$AAe?$AAm?$AAb?$AAe?$AAr?$AA?$AA@ 000000018002da40     libucrt:nlsdata.obj
 0002:00002a54       ??_C@_15ODEHAHHF@?$AAA?$AAM?$AA?$AA@ 000000018002da54     libucrt:nlsdata.obj
 0002:00002a5c       ??_C@_15CLMNNGEL@?$AAP?$AAM?$AA?$AA@ 000000018002da5c     libucrt:nlsdata.obj
 0002:00002a68       ??_C@_1BC@IEBCMHCM@?$AAM?$AAM?$AA?1?$AAd?$AAd?$AA?1?$AAy?$AAy?$AA?$AA@ 000000018002da68     libucrt:nlsdata.obj
 0002:00002a80       ??_C@_1CI@KNAKOEBC@?$AAd?$AAd?$AAd?$AAd?$AA?0?$AA?5?$AAM?$AAM?$AAM?$AAM?$AA?5?$AAd?$AAd?$AA?0?$AA?5?$AAy?$AAy?$AAy?$AAy?$AA?$AA@ 000000018002da80     libucrt:nlsdata.obj
 0002:00002aa8       ??_C@_1BC@GDGBMEMK@?$AAH?$AAH?$AA?3?$AAm?$AAm?$AA?3?$AAs?$AAs?$AA?$AA@ 000000018002daa8     libucrt:nlsdata.obj
 0002:00002ac0       ??_C@_1M@BMHNFIME@?$AAe?$AAn?$AA?9?$AAU?$AAS?$AA?$AA@ 000000018002dac0     libucrt:nlsdata.obj
 0002:00002b70       ??_C@_1EG@CNNIPFIM@?$AAa?$AAp?$AAi?$AA?9?$AAm?$AAs?$AA?9?$AAw?$AAi?$AAn?$AA?9?$AAa?$AAp?$AAp?$AAm?$AAo?$AAd?$AAe?$AAl?$AA?9?$AAr?$AAu?$AAn?$AAt?$AAi?$AAm?$AAe?$AA?9?$AAl?$AA1?$AA?9?$AA1@ 000000018002db70     libucrt:winapi_thunks.obj
 0002:00002bc0       ??_C@_1EA@JGEFHKEI@?$AAa?$AAp?$AAi?$AA?9?$AAm?$AAs?$AA?9?$AAw?$AAi?$AAn?$AA?9?$AAc?$AAo?$AAr?$AAe?$AA?9?$AAd?$AAa?$AAt?$AAe?$AAt?$AAi?$AAm?$AAe?$AA?9?$AAl?$AA1?$AA?9?$AA1?$AA?9?$AA1?$AA?$AA@ 000000018002dbc0     libucrt:winapi_thunks.obj
 0002:00002c00       ??_C@_1DI@GCIAAENM@?$AAa?$AAp?$AAi?$AA?9?$AAm?$AAs?$AA?9?$AAw?$AAi?$AAn?$AA?9?$AAc?$AAo?$AAr?$AAe?$AA?9?$AAf?$AAi?$AAl?$AAe?$AA?9?$AAl?$AA2?$AA?9?$AA1?$AA?9?$AA1?$AA?$AA@ 000000018002dc00     libucrt:winapi_thunks.obj
 0002:00002c40       ??_C@_1EI@MPIAOHOC@?$AAa?$AAp?$AAi?$AA?9?$AAm?$AAs?$AA?9?$AAw?$AAi?$AAn?$AA?9?$AAc?$AAo?$AAr?$AAe?$AA?9?$AAl?$AAo?$AAc?$AAa?$AAl?$AAi?$AAz?$AAa?$AAt?$AAi?$AAo?$AAn?$AA?9?$AAl?$AA1?$AA?9@ 000000018002dc40     libucrt:winapi_thunks.obj
 0002:00002c90       ??_C@_1FK@FPHCKFIE@?$AAa?$AAp?$AAi?$AA?9?$AAm?$AAs?$AA?9?$AAw?$AAi?$AAn?$AA?9?$AAc?$AAo?$AAr?$AAe?$AA?9?$AAl?$AAo?$AAc?$AAa?$AAl?$AAi?$AAz?$AAa?$AAt?$AAi?$AAo?$AAn?$AA?9?$AAo?$AAb?$AAs@ 000000018002dc90     libucrt:winapi_thunks.obj
 0002:00002cf0       ??_C@_1EM@DILCGIIO@?$AAa?$AAp?$AAi?$AA?9?$AAm?$AAs?$AA?9?$AAw?$AAi?$AAn?$AA?9?$AAc?$AAo?$AAr?$AAe?$AA?9?$AAp?$AAr?$AAo?$AAc?$AAe?$AAs?$AAs?$AAt?$AAh?$AAr?$AAe?$AAa?$AAd?$AAs?$AA?9?$AAl@ 000000018002dcf0     libucrt:winapi_thunks.obj
 0002:00002d40       ??_C@_1DM@LNCGDDPN@?$AAa?$AAp?$AAi?$AA?9?$AAm?$AAs?$AA?9?$AAw?$AAi?$AAn?$AA?9?$AAc?$AAo?$AAr?$AAe?$AA?9?$AAs?$AAt?$AAr?$AAi?$AAn?$AAg?$AA?9?$AAl?$AA1?$AA?9?$AA1?$AA?9?$AA0?$AA?$AA@ 000000018002dd40     libucrt:winapi_thunks.obj
 0002:00002d80       ??_C@_1DO@FPAPJEMD@?$AAa?$AAp?$AAi?$AA?9?$AAm?$AAs?$AA?9?$AAw?$AAi?$AAn?$AA?9?$AAc?$AAo?$AAr?$AAe?$AA?9?$AAs?$AAy?$AAs?$AAi?$AAn?$AAf?$AAo?$AA?9?$AAl?$AA1?$AA?9?$AA2?$AA?9?$AA1?$AA?$AA@ 000000018002dd80     libucrt:winapi_thunks.obj
 0002:00002dc0       ??_C@_1DK@NDHNAHIO@?$AAa?$AAp?$AAi?$AA?9?$AAm?$AAs?$AA?9?$AAw?$AAi?$AAn?$AA?9?$AAc?$AAo?$AAr?$AAe?$AA?9?$AAw?$AAi?$AAn?$AAr?$AAt?$AA?9?$AAl?$AA1?$AA?9?$AA1?$AA?9?$AA0?$AA?$AA@ 000000018002ddc0     libucrt:winapi_thunks.obj
 0002:00002e00       ??_C@_1DM@KGHDGBCM@?$AAa?$AAp?$AAi?$AA?9?$AAm?$AAs?$AA?9?$AAw?$AAi?$AAn?$AA?9?$AAc?$AAo?$AAr?$AAe?$AA?9?$AAx?$AAs?$AAt?$AAa?$AAt?$AAe?$AA?9?$AAl?$AA2?$AA?9?$AA1?$AA?9?$AA0?$AA?$AA@ 000000018002de00     libucrt:winapi_thunks.obj
 0002:00002e40       ??_C@_1EO@IJIOEFOH@?$AAa?$AAp?$AAi?$AA?9?$AAm?$AAs?$AA?9?$AAw?$AAi?$AAn?$AA?9?$AAr?$AAt?$AAc?$AAo?$AAr?$AAe?$AA?9?$AAn?$AAt?$AAu?$AAs?$AAe?$AAr?$AA?9?$AAw?$AAi?$AAn?$AAd?$AAo?$AAw?$AA?9@ 000000018002de40     libucrt:winapi_thunks.obj
 0002:00002e90       ??_C@_1FG@HHGEKANL@?$AAa?$AAp?$AAi?$AA?9?$AAm?$AAs?$AA?9?$AAw?$AAi?$AAn?$AA?9?$AAs?$AAe?$AAc?$AAu?$AAr?$AAi?$AAt?$AAy?$AA?9?$AAs?$AAy?$AAs?$AAt?$AAe?$AAm?$AAf?$AAu?$AAn?$AAc?$AAt?$AAi@ 000000018002de90     libucrt:winapi_thunks.obj
 0002:00002ef0       ??_C@_1FG@NCKKOLKO@?$AAe?$AAx?$AAt?$AA?9?$AAm?$AAs?$AA?9?$AAw?$AAi?$AAn?$AA?9?$AAk?$AAe?$AAr?$AAn?$AAe?$AAl?$AA3?$AA2?$AA?9?$AAp?$AAa?$AAc?$AAk?$AAa?$AAg?$AAe?$AA?9?$AAc?$AAu?$AAr?$AAr@ 000000018002def0     libucrt:winapi_thunks.obj
 0002:00002f50       ??_C@_1EG@DBIOJECG@?$AAe?$AAx?$AAt?$AA?9?$AAm?$AAs?$AA?9?$AAw?$AAi?$AAn?$AA?9?$AAn?$AAt?$AAu?$AAs?$AAe?$AAr?$AA?9?$AAd?$AAi?$AAa?$AAl?$AAo?$AAg?$AAb?$AAo?$AAx?$AA?9?$AAl?$AA1?$AA?9?$AA1@ 000000018002df50     libucrt:winapi_thunks.obj
 0002:00002fa0       ??_C@_1EO@FIHMJCLF@?$AAe?$AAx?$AAt?$AA?9?$AAm?$AAs?$AA?9?$AAw?$AAi?$AAn?$AA?9?$AAn?$AAt?$AAu?$AAs?$AAe?$AAr?$AA?9?$AAw?$AAi?$AAn?$AAd?$AAo?$AAw?$AAs?$AAt?$AAa?$AAt?$AAi?$AAo?$AAn?$AA?9@ 000000018002dfa0     libucrt:winapi_thunks.obj
 0002:00002ff0       ??_C@_1O@BCCLBEOE@?$AAu?$AAs?$AAe?$AAr?$AA3?$AA2?$AA?$AA@ 000000018002dff0     libucrt:winapi_thunks.obj
 0002:00003028       ??_C@_0BE@JOGNEJCI@GetCurrentPackageId?$AA@ 000000018002e028     libucrt:winapi_thunks.obj
 0002:00003050       ??_C@_0O@KKBNKAPF@LCMapStringEx?$AA@ 000000018002e050     libucrt:winapi_thunks.obj
 0002:00003068       ??_C@_0BB@HBDEELFH@LocaleNameToLCID?$AA@ 000000018002e068     libucrt:winapi_thunks.obj
 0002:000030a0       ??_C@_1M@HPNHIDJI@?$AAj?$AAa?$AA?9?$AAJ?$AAP?$AA?$AA@ 000000018002e0a0     libucrt:mbctype.obj
 0002:000030b0       ??_C@_1M@BIBDDEMK@?$AAz?$AAh?$AA?9?$AAC?$AAN?$AA?$AA@ 000000018002e0b0     libucrt:mbctype.obj
 0002:000030c0       ??_C@_1M@JLOOOEGK@?$AAk?$AAo?$AA?9?$AAK?$AAR?$AA?$AA@ 000000018002e0c0     libucrt:mbctype.obj
 0002:000030d0       ??_C@_1M@CLNBBOPM@?$AAz?$AAh?$AA?9?$AAT?$AAW?$AA?$AA@ 000000018002e0d0     libucrt:mbctype.obj
 0002:000030e0       __newctype                 000000018002e0e0     libucrt:ctype.obj
 0002:000033e0       __newclmap                 000000018002e3e0     libucrt:ctype.obj
 0002:00003560       __newcumap                 000000018002e560     libucrt:ctype.obj
 0002:000036e0       ??_C@_15PJPFLCCM@?$AAu?$AAk?$AA?$AA@ 000000018002e6e0     libucrt:get_qualified_locale.obj
 0002:00004530       ??_C@_15EMKDOKLE@?$AAa?$AAr?$AA?$AA@ 000000018002f530     libucrt:lcidtoname_downlevel.obj
 0002:00004538       ??_C@_15KNPADPLH@?$AAb?$AAg?$AA?$AA@ 000000018002f538     libucrt:lcidtoname_downlevel.obj
 0002:00004540       ??_C@_15EDMHLDMO@?$AAc?$AAa?$AA?$AA@ 000000018002f540     libucrt:lcidtoname_downlevel.obj
 0002:00004548       ??_C@_1O@BPEAJADD@?$AAz?$AAh?$AA?9?$AAC?$AAH?$AAS?$AA?$AA@ 000000018002f548     libucrt:lcidtoname_downlevel.obj
 0002:00004558       ??_C@_15LJNHCMNK@?$AAc?$AAs?$AA?$AA@ 000000018002f558     libucrt:lcidtoname_downlevel.obj
 0002:00004560       ??_C@_15FOMCIDHG@?$AAd?$AAa?$AA?$AA@ 000000018002f560     libucrt:lcidtoname_downlevel.obj
 0002:00004568       ??_C@_15NBKABECB@?$AAd?$AAe?$AA?$AA@ 000000018002f568     libucrt:lcidtoname_downlevel.obj
 0002:00004570       ??_C@_15GHPEIIAO@?$AAe?$AAl?$AA?$AA@ 000000018002f570     libucrt:lcidtoname_downlevel.obj
 0002:00004578       ??_C@_15MNPNEAIF@?$AAe?$AAn?$AA?$AA@ 000000018002f578     libucrt:lcidtoname_downlevel.obj
 0002:00004580       ??_C@_15GPIOMPMH@?$AAe?$AAs?$AA?$AA@ 000000018002f580     libucrt:lcidtoname_downlevel.obj
 0002:00004588       ??_C@_15NGLOAKJC@?$AAf?$AAi?$AA?$AA@ 000000018002f588     libucrt:lcidtoname_downlevel.obj
 0002:00004590       ??_C@_15FBKGNKAM@?$AAf?$AAr?$AA?$AA@ 000000018002f590     libucrt:lcidtoname_downlevel.obj
 0002:00004598       ??_C@_15KGGCNEFK@?$AAh?$AAe?$AA?$AA@ 000000018002f598     libucrt:lcidtoname_downlevel.obj
 0002:000045a0       ??_C@_15PGHLIDMF@?$AAh?$AAu?$AA?$AA@ 000000018002f5a0     libucrt:lcidtoname_downlevel.obj
 0002:000045a8       ??_C@_15BIEMAPLM@?$AAi?$AAs?$AA?$AA@ 000000018002f5a8     libucrt:lcidtoname_downlevel.obj
 0002:000045b0       ??_C@_15IFJLDHAF@?$AAi?$AAt?$AA?$AA@ 000000018002f5b0     libucrt:lcidtoname_downlevel.obj
 0002:000045b8       ??_C@_15GEMIOCAG@?$AAj?$AAa?$AA?$AA@ 000000018002f5b8     libucrt:lcidtoname_downlevel.obj
 0002:000045c0       ??_C@_15EPELEGJA@?$AAk?$AAo?$AA?$AA@ 000000018002f5c0     libucrt:lcidtoname_downlevel.obj
 0002:000045c8       ??_C@_15NDDHIMN@?$AAn?$AAl?$AA?$AA@ 000000018002f5c8     libucrt:lcidtoname_downlevel.obj
 0002:000045d0       ??_C@_15BPIGNHCD@?$AAn?$AAo?$AA?$AA@ 000000018002f5d0     libucrt:lcidtoname_downlevel.obj
 0002:000045d8       ??_C@_15DEOPBLCG@?$AAp?$AAl?$AA?$AA@ 000000018002f5d8     libucrt:lcidtoname_downlevel.obj
 0002:000045e0       ??_C@_15KBECGEFG@?$AAp?$AAt?$AA?$AA@ 000000018002f5e0     libucrt:lcidtoname_downlevel.obj
 0002:000045e8       ??_C@_15GLJCBFMD@?$AAr?$AAo?$AA?$AA@ 000000018002f5e8     libucrt:lcidtoname_downlevel.obj
 0002:000045f0       ??_C@_15FEDGKCDI@?$AAr?$AAu?$AA?$AA@ 000000018002f5f0     libucrt:lcidtoname_downlevel.obj
 0002:000045f8       ??_C@_15GLKMLLHM@?$AAh?$AAr?$AA?$AA@ 000000018002f5f8     libucrt:lcidtoname_downlevel.obj
 0002:00004600       ??_C@_15CPKMFBDB@?$AAs?$AAk?$AA?$AA@ 000000018002f600     libucrt:lcidtoname_downlevel.obj
 0002:00004608       ??_C@_15BAAIOGMK@?$AAs?$AAq?$AA?$AA@ 000000018002f608     libucrt:lcidtoname_downlevel.obj
 0002:00004610       ??_C@_15INNPNOHD@?$AAs?$AAv?$AA?$AA@ 000000018002f610     libucrt:lcidtoname_downlevel.obj
 0002:00004618       ??_C@_15CABMMOGH@?$AAt?$AAh?$AA?$AA@ 000000018002f618     libucrt:lcidtoname_downlevel.obj
 0002:00004620       ??_C@_15BPLIHJJM@?$AAt?$AAr?$AA?$AA@ 000000018002f620     libucrt:lcidtoname_downlevel.obj
 0002:00004628       ??_C@_15NEOEKKDJ@?$AAu?$AAr?$AA?$AA@ 000000018002f628     libucrt:lcidtoname_downlevel.obj
 0002:00004630       ??_C@_15NFICGAJK@?$AAi?$AAd?$AA?$AA@ 000000018002f630     libucrt:lcidtoname_downlevel.obj
 0002:00004638       ??_C@_15HPJPHDM@?$AAb?$AAe?$AA?$AA@ 000000018002f638     libucrt:lcidtoname_downlevel.obj
 0002:00004640       ??_C@_15LCHLGJII@?$AAs?$AAl?$AA?$AA@ 000000018002f640     libucrt:lcidtoname_downlevel.obj
 0002:00004648       ??_C@_15PCFJPHHO@?$AAe?$AAt?$AA?$AA@ 000000018002f648     libucrt:lcidtoname_downlevel.obj
 0002:00004650       ??_C@_15HPFPGODN@?$AAl?$AAv?$AA?$AA@ 000000018002f650     libucrt:lcidtoname_downlevel.obj
 0002:00004658       ??_C@_15NFFGKGLG@?$AAl?$AAt?$AA?$AA@ 000000018002f658     libucrt:lcidtoname_downlevel.obj
 0002:00004660       ??_C@_15BDAKCCHN@?$AAf?$AAa?$AA?$AA@ 000000018002f660     libucrt:lcidtoname_downlevel.obj
 0002:00004668       ??_C@_15NFGIAIAJ@?$AAv?$AAi?$AA?$AA@ 000000018002f668     libucrt:lcidtoname_downlevel.obj
 0002:00004670       ??_C@_15LMKNDMHN@?$AAh?$AAy?$AA?$AA@ 000000018002f670     libucrt:lcidtoname_downlevel.obj
 0002:00004678       ??_C@_15IJBHMCFL@?$AAa?$AAz?$AA?$AA@ 000000018002f678     libucrt:lcidtoname_downlevel.obj
 0002:00004680       ??_C@_15EKOFJABL@?$AAe?$AAu?$AA?$AA@ 000000018002f680     libucrt:lcidtoname_downlevel.obj
 0002:00004688       ??_C@_15BGHADCNK@?$AAm?$AAk?$AA?$AA@ 000000018002f688     libucrt:lcidtoname_downlevel.obj
 0002:00004690       ??_C@_15JDNICKHM@?$AAa?$AAf?$AA?$AA@ 000000018002f690     libucrt:lcidtoname_downlevel.obj
 0002:00004698       ??_C@_15KPJEDBKD@?$AAk?$AAa?$AA?$AA@ 000000018002f698     libucrt:lcidtoname_downlevel.obj
 0002:000046a0       ??_C@_15PDNFFFEO@?$AAf?$AAo?$AA?$AA@ 000000018002f6a0     libucrt:lcidtoname_downlevel.obj
 0002:000046a8       ??_C@_15OMLEGLOC@?$AAh?$AAi?$AA?$AA@ 000000018002f6a8     libucrt:lcidtoname_downlevel.obj
 0002:000046b0       ??_C@_15IDNNENKK@?$AAm?$AAs?$AA?$AA@ 000000018002f6b0     libucrt:lcidtoname_downlevel.obj
 0002:000046b8       ??_C@_15MACJNBMH@?$AAk?$AAk?$AA?$AA@ 000000018002f6b8     libucrt:lcidtoname_downlevel.obj
 0002:000046c0       ??_C@_15DKDJEOND@?$AAk?$AAy?$AA?$AA@ 000000018002f6c0     libucrt:lcidtoname_downlevel.obj
 0002:000046c8       ??_C@_15DFGDLJBG@?$AAs?$AAw?$AA?$AA@ 000000018002f6c8     libucrt:lcidtoname_downlevel.obj
 0002:000046d0       ??_C@_15BBFAICNG@?$AAu?$AAz?$AA?$AA@ 000000018002f6d0     libucrt:lcidtoname_downlevel.obj
 0002:000046d8       ??_C@_15DKNDCGEA@?$AAt?$AAt?$AA?$AA@ 000000018002f6d8     libucrt:lcidtoname_downlevel.obj
 0002:000046e0       ??_C@_15MGIFMDPL@?$AAp?$AAa?$AA?$AA@ 000000018002f6e0     libucrt:lcidtoname_downlevel.obj
 0002:000046e8       ??_C@_15HCNDBBA@?$AAg?$AAu?$AA?$AA@ 000000018002f6e8     libucrt:lcidtoname_downlevel.obj
 0002:000046f0       ??_C@_15FNBEIBON@?$AAt?$AAa?$AA?$AA@ 000000018002f6f0     libucrt:lcidtoname_downlevel.obj
 0002:000046f8       ??_C@_15NCHGBGLK@?$AAt?$AAe?$AA?$AA@ 000000018002f6f8     libucrt:lcidtoname_downlevel.obj
 0002:00004700       ??_C@_15PHPHCBPF@?$AAk?$AAn?$AA?$AA@ 000000018002f700     libucrt:lcidtoname_downlevel.obj
 0002:00004708       ??_C@_15DLGBCKMP@?$AAm?$AAr?$AA?$AA@ 000000018002f708     libucrt:lcidtoname_downlevel.obj
 0002:00004710       ??_C@_15EABBLBFF@?$AAs?$AAa?$AA?$AA@ 000000018002f710     libucrt:lcidtoname_downlevel.obj
 0002:00004718       ??_C@_15CBKOMCOI@?$AAm?$AAn?$AA?$AA@ 000000018002f718     libucrt:lcidtoname_downlevel.obj
 0002:00004720       ??_C@_15CKDMCJAF@?$AAg?$AAl?$AA?$AA@ 000000018002f720     libucrt:lcidtoname_downlevel.obj
 0002:00004728       ??_C@_17CNJFBPG@?$AAk?$AAo?$AAk?$AA?$AA@ 000000018002f728     libucrt:lcidtoname_downlevel.obj
 0002:00004730       ??_C@_17FFBJICPL@?$AAs?$AAy?$AAr?$AA?$AA@ 000000018002f730     libucrt:lcidtoname_downlevel.obj
 0002:00004738       ??_C@_17KPNDCPAF@?$AAd?$AAi?$AAv?$AA?$AA@ 000000018002f738     libucrt:lcidtoname_downlevel.obj
 0002:00004740       ??_C@_11LOCGONAA@?$AA?$AA@ 000000018002f740     libucrt:lcidtoname_downlevel.obj
 0002:00004748       ??_C@_1M@OKAHONE@?$AAa?$AAr?$AA?9?$AAS?$AAA?$AA?$AA@ 000000018002f748     libucrt:lcidtoname_downlevel.obj
 0002:00004758       ??_C@_1M@FFFIGIGK@?$AAb?$AAg?$AA?9?$AAB?$AAG?$AA?$AA@ 000000018002f758     libucrt:lcidtoname_downlevel.obj
 0002:00004768       ??_C@_1M@BJNKEDC@?$AAc?$AAa?$AA?9?$AAE?$AAS?$AA?$AA@ 000000018002f768     libucrt:lcidtoname_downlevel.obj
 0002:00004778       ??_C@_1M@IJJHFJHA@?$AAc?$AAs?$AA?9?$AAC?$AAZ?$AA?$AA@ 000000018002f778     libucrt:lcidtoname_downlevel.obj
 0002:00004788       ??_C@_1M@CLPEOBGI@?$AAd?$AAa?$AA?9?$AAD?$AAK?$AA?$AA@ 000000018002f788     libucrt:lcidtoname_downlevel.obj
 0002:00004798       ??_C@_1M@MCMADGCB@?$AAd?$AAe?$AA?9?$AAD?$AAE?$AA?$AA@ 000000018002f798     libucrt:lcidtoname_downlevel.obj
 0002:000047a8       ??_C@_1M@OOCKEMAM@?$AAe?$AAl?$AA?9?$AAG?$AAR?$AA?$AA@ 000000018002f7a8     libucrt:lcidtoname_downlevel.obj
 0002:000047b8       ??_C@_1M@DDNJFGID@?$AAf?$AAi?$AA?9?$AAF?$AAI?$AA?$AA@ 000000018002f7b8     libucrt:lcidtoname_downlevel.obj
 0002:000047c8       ??_C@_1M@GLIPPMAC@?$AAf?$AAr?$AA?9?$AAF?$AAR?$AA?$AA@ 000000018002f7c8     libucrt:lcidtoname_downlevel.obj
 0002:000047d8       ??_C@_1M@GFMCHPE@?$AAh?$AAe?$AA?9?$AAI?$AAL?$AA?$AA@ 000000018002f7d8     libucrt:lcidtoname_downlevel.obj
 0002:000047e8       ??_C@_1M@MHLPGNKM@?$AAh?$AAu?$AA?9?$AAH?$AAU?$AA?$AA@ 000000018002f7e8     libucrt:lcidtoname_downlevel.obj
 0002:000047f8       ??_C@_1M@LPDDNNPN@?$AAi?$AAs?$AA?9?$AAI?$AAS?$AA?$AA@ 000000018002f7f8     libucrt:lcidtoname_downlevel.obj
 0002:00004808       ??_C@_1M@MADIPODN@?$AAi?$AAt?$AA?9?$AAI?$AAT?$AA?$AA@ 000000018002f808     libucrt:lcidtoname_downlevel.obj
 0002:00004818       ??_C@_1M@IHBJJGG@?$AAn?$AAl?$AA?9?$AAN?$AAL?$AA?$AA@ 000000018002f818     libucrt:lcidtoname_downlevel.obj
 0002:00004828       ??_C@_1M@EANAGDL@?$AAn?$AAb?$AA?9?$AAN?$AAO?$AA?$AA@ 000000018002f828     libucrt:lcidtoname_downlevel.obj
 0002:00004838       ??_C@_1M@NEIEMEGP@?$AAp?$AAl?$AA?9?$AAP?$AAL?$AA?$AA@ 000000018002f838     libucrt:lcidtoname_downlevel.obj
 0002:00004848       ??_C@_1M@BOCFIGEP@?$AAp?$AAt?$AA?9?$AAB?$AAR?$AA?$AA@ 000000018002f848     libucrt:lcidtoname_downlevel.obj
 0002:00004858       ??_C@_1M@IMPFOPBG@?$AAr?$AAo?$AA?9?$AAR?$AAO?$AA?$AA@ 000000018002f858     libucrt:lcidtoname_downlevel.obj
 0002:00004868       ??_C@_1M@IDNNEJMM@?$AAr?$AAu?$AA?9?$AAR?$AAU?$AA?$AA@ 000000018002f868     libucrt:lcidtoname_downlevel.obj
 0002:00004878       ??_C@_1M@LILEEOGM@?$AAh?$AAr?$AA?9?$AAH?$AAR?$AA?$AA@ 000000018002f878     libucrt:lcidtoname_downlevel.obj
 0002:00004888       ??_C@_1M@FKIFEHPB@?$AAs?$AAk?$AA?9?$AAS?$AAK?$AA?$AA@ 000000018002f888     libucrt:lcidtoname_downlevel.obj
 0002:00004898       ??_C@_1M@LJMAMNPJ@?$AAs?$AAq?$AA?9?$AAA?$AAL?$AA?$AA@ 000000018002f898     libucrt:lcidtoname_downlevel.obj
 0002:000048a8       ??_C@_1M@GIAKDKJK@?$AAs?$AAv?$AA?9?$AAS?$AAE?$AA?$AA@ 000000018002f8a8     libucrt:lcidtoname_downlevel.obj
 0002:000048b8       ??_C@_1M@MKJKIKCL@?$AAt?$AAh?$AA?9?$AAT?$AAH?$AA?$AA@ 000000018002f8b8     libucrt:lcidtoname_downlevel.obj
 0002:000048c8       ??_C@_1M@MFLCCMPB@?$AAt?$AAr?$AA?9?$AAT?$AAR?$AA?$AA@ 000000018002f8c8     libucrt:lcidtoname_downlevel.obj
 0002:000048d8       ??_C@_1M@OIJHDKJN@?$AAu?$AAr?$AA?9?$AAP?$AAK?$AA?$AA@ 000000018002f8d8     libucrt:lcidtoname_downlevel.obj
 0002:000048e8       ??_C@_1M@LHIPCIEK@?$AAi?$AAd?$AA?9?$AAI?$AAD?$AA?$AA@ 000000018002f8e8     libucrt:lcidtoname_downlevel.obj
 0002:000048f8       ??_C@_1M@MFMOBGI@?$AAu?$AAk?$AA?9?$AAU?$AAA?$AA?$AA@ 000000018002f8f8     libucrt:lcidtoname_downlevel.obj
 0002:00004908       ??_C@_1M@OBGLJIPL@?$AAb?$AAe?$AA?9?$AAB?$AAY?$AA?$AA@ 000000018002f908     libucrt:lcidtoname_downlevel.obj
 0002:00004918       ??_C@_1M@BCFAJEAD@?$AAs?$AAl?$AA?9?$AAS?$AAI?$AA?$AA@ 000000018002f918     libucrt:lcidtoname_downlevel.obj
 0002:00004928       ??_C@_1M@FKFFEDDN@?$AAe?$AAt?$AA?9?$AAE?$AAE?$AA?$AA@ 000000018002f928     libucrt:lcidtoname_downlevel.obj
 0002:00004938       ??_C@_1M@KGKKAACI@?$AAl?$AAv?$AA?9?$AAL?$AAV?$AA?$AA@ 000000018002f938     libucrt:lcidtoname_downlevel.obj
 0002:00004948       ??_C@_1M@IFGBIJO@?$AAl?$AAt?$AA?9?$AAL?$AAT?$AA?$AA@ 000000018002f948     libucrt:lcidtoname_downlevel.obj
 0002:00004958       ??_C@_1M@FGEAHEDM@?$AAf?$AAa?$AA?9?$AAI?$AAR?$AA?$AA@ 000000018002f958     libucrt:lcidtoname_downlevel.obj
 0002:00004968       ??_C@_1M@KBMAIBFN@?$AAv?$AAi?$AA?9?$AAV?$AAN?$AA?$AA@ 000000018002f968     libucrt:lcidtoname_downlevel.obj
 0002:00004978       ??_C@_1M@GPCBKDJK@?$AAh?$AAy?$AA?9?$AAA?$AAM?$AA?$AA@ 000000018002f978     libucrt:lcidtoname_downlevel.obj
 0002:00004988       ??_C@_1BG@BECMDDJB@?$AAa?$AAz?$AA?9?$AAA?$AAZ?$AA?9?$AAL?$AAa?$AAt?$AAn?$AA?$AA@ 000000018002f988     libucrt:lcidtoname_downlevel.obj
 0002:000049a0       ??_C@_1M@MAOFCAEA@?$AAe?$AAu?$AA?9?$AAE?$AAS?$AA?$AA@ 000000018002f9a0     libucrt:lcidtoname_downlevel.obj
 0002:000049b0       ??_C@_1M@IGHABKPI@?$AAm?$AAk?$AA?9?$AAM?$AAK?$AA?$AA@ 000000018002f9b0     libucrt:lcidtoname_downlevel.obj
 0002:000049c0       ??_C@_1M@IAIGNEJG@?$AAt?$AAn?$AA?9?$AAZ?$AAA?$AA?$AA@ 000000018002f9c0     libucrt:lcidtoname_downlevel.obj
 0002:000049d0       ??_C@_1M@IIJCOJFA@?$AAx?$AAh?$AA?9?$AAZ?$AAA?$AA?$AA@ 000000018002f9d0     libucrt:lcidtoname_downlevel.obj
 0002:000049e0       ??_C@_1M@LGPJHNJH@?$AAz?$AAu?$AA?9?$AAZ?$AAA?$AA?$AA@ 000000018002f9e0     libucrt:lcidtoname_downlevel.obj
 0002:000049f0       ??_C@_1M@HOKAOIO@?$AAa?$AAf?$AA?9?$AAZ?$AAA?$AA?$AA@ 000000018002f9f0     libucrt:lcidtoname_downlevel.obj
 0002:00004a00       ??_C@_1M@DPCLHLIE@?$AAk?$AAa?$AA?9?$AAG?$AAE?$AA?$AA@ 000000018002fa00     libucrt:lcidtoname_downlevel.obj
 0002:00004a10       ??_C@_1M@BLKMHJBI@?$AAf?$AAo?$AA?9?$AAF?$AAO?$AA?$AA@ 000000018002fa10     libucrt:lcidtoname_downlevel.obj
 0002:00004a20       ??_C@_1M@LGGJAPPB@?$AAh?$AAi?$AA?9?$AAI?$AAN?$AA?$AA@ 000000018002fa20     libucrt:lcidtoname_downlevel.obj
 0002:00004a30       ??_C@_1M@FIKPIHFE@?$AAm?$AAt?$AA?9?$AAM?$AAT?$AA?$AA@ 000000018002fa30     libucrt:lcidtoname_downlevel.obj
 0002:00004a40       ??_C@_1M@HEGGPBFA@?$AAs?$AAe?$AA?9?$AAN?$AAO?$AA?$AA@ 000000018002fa40     libucrt:lcidtoname_downlevel.obj
 0002:00004a50       ??_C@_1M@EIBJEEPA@?$AAm?$AAs?$AA?9?$AAM?$AAY?$AA?$AA@ 000000018002fa50     libucrt:lcidtoname_downlevel.obj
 0002:00004a60       ??_C@_1M@FHLBGMPP@?$AAk?$AAk?$AA?9?$AAK?$AAZ?$AA?$AA@ 000000018002fa60     libucrt:lcidtoname_downlevel.obj
 0002:00004a70       ??_C@_1M@NGJJLCGI@?$AAk?$AAy?$AA?9?$AAK?$AAG?$AA?$AA@ 000000018002fa70     libucrt:lcidtoname_downlevel.obj
 0002:00004a80       ??_C@_1M@GIENNBFC@?$AAs?$AAw?$AA?9?$AAK?$AAE?$AA?$AA@ 000000018002fa80     libucrt:lcidtoname_downlevel.obj
 0002:00004a90       ??_C@_1BG@NDGMJIMJ@?$AAu?$AAz?$AA?9?$AAU?$AAZ?$AA?9?$AAL?$AAa?$AAt?$AAn?$AA?$AA@ 000000018002fa90     libucrt:lcidtoname_downlevel.obj
 0002:00004aa8       ??_C@_1M@IDCCIHBC@?$AAt?$AAt?$AA?9?$AAR?$AAU?$AA?$AA@ 000000018002faa8     libucrt:lcidtoname_downlevel.obj
 0002:00004ab8       ??_C@_1M@LOICPMOJ@?$AAb?$AAn?$AA?9?$AAI?$AAN?$AA?$AA@ 000000018002fab8     libucrt:lcidtoname_downlevel.obj
 0002:00004ac8       ??_C@_1M@KPKKNEAH@?$AAp?$AAa?$AA?9?$AAI?$AAN?$AA?$AA@ 000000018002fac8     libucrt:lcidtoname_downlevel.obj
 0002:00004ad8       ??_C@_1M@PJGPPBOG@?$AAg?$AAu?$AA?9?$AAI?$AAN?$AA?$AA@ 000000018002fad8     libucrt:lcidtoname_downlevel.obj
 0002:00004ae8       ??_C@_1M@KMKMOPHI@?$AAt?$AAa?$AA?9?$AAI?$AAN?$AA?$AA@ 000000018002fae8     libucrt:lcidtoname_downlevel.obj
 0002:00004af8       ??_C@_1M@KFEHEPAC@?$AAt?$AAe?$AA?9?$AAI?$AAN?$AA?$AA@ 000000018002faf8     libucrt:lcidtoname_downlevel.obj
 0002:00004b08       ??_C@_1M@CDCLMGHI@?$AAk?$AAn?$AA?9?$AAI?$AAN?$AA?$AA@ 000000018002fb08     libucrt:lcidtoname_downlevel.obj
 0002:00004b18       ??_C@_1M@MIODLDKF@?$AAm?$AAl?$AA?9?$AAI?$AAN?$AA?$AA@ 000000018002fb18     libucrt:lcidtoname_downlevel.obj
 0002:00004b28       ??_C@_1M@PBIEACPO@?$AAm?$AAr?$AA?9?$AAI?$AAN?$AA?$AA@ 000000018002fb28     libucrt:lcidtoname_downlevel.obj
 0002:00004b38       ??_C@_1M@NIDEAGPH@?$AAs?$AAa?$AA?9?$AAI?$AAN?$AA?$AA@ 000000018002fb38     libucrt:lcidtoname_downlevel.obj
 0002:00004b48       ??_C@_1M@FHIHCBIO@?$AAm?$AAn?$AA?9?$AAM?$AAN?$AA?$AA@ 000000018002fb48     libucrt:lcidtoname_downlevel.obj
 0002:00004b58       ??_C@_1M@JAIJPENP@?$AAc?$AAy?$AA?9?$AAG?$AAB?$AA?$AA@ 000000018002fb58     libucrt:lcidtoname_downlevel.obj
 0002:00004b68       ??_C@_1M@PHGFBEPN@?$AAg?$AAl?$AA?9?$AAE?$AAS?$AA?$AA@ 000000018002fb68     libucrt:lcidtoname_downlevel.obj
 0002:00004b78       ??_C@_1O@KPIPDNCP@?$AAk?$AAo?$AAk?$AA?9?$AAI?$AAN?$AA?$AA@ 000000018002fb78     libucrt:lcidtoname_downlevel.obj
 0002:00004b88       ??_C@_1O@KNHJLDJA@?$AAs?$AAy?$AAr?$AA?9?$AAS?$AAY?$AA?$AA@ 000000018002fb88     libucrt:lcidtoname_downlevel.obj
 0002:00004b98       ??_C@_1O@MKEKBLAH@?$AAd?$AAi?$AAv?$AA?9?$AAM?$AAV?$AA?$AA@ 000000018002fb98     libucrt:lcidtoname_downlevel.obj
 0002:00004ba8       ??_C@_1O@OHDCKDDF@?$AAq?$AAu?$AAz?$AA?9?$AAB?$AAO?$AA?$AA@ 000000018002fba8     libucrt:lcidtoname_downlevel.obj
 0002:00004bb8       ??_C@_1M@LEPJNLFD@?$AAn?$AAs?$AA?9?$AAZ?$AAA?$AA?$AA@ 000000018002fbb8     libucrt:lcidtoname_downlevel.obj
 0002:00004bc8       ??_C@_1M@OMLEIIJB@?$AAm?$AAi?$AA?9?$AAN?$AAZ?$AA?$AA@ 000000018002fbc8     libucrt:lcidtoname_downlevel.obj
 0002:00004bd8       ??_C@_1M@PMPEAILG@?$AAa?$AAr?$AA?9?$AAI?$AAQ?$AA?$AA@ 000000018002fbd8     libucrt:lcidtoname_downlevel.obj
 0002:00004be8       ??_C@_1M@CNKPNOEE@?$AAd?$AAe?$AA?9?$AAC?$AAH?$AA?$AA@ 000000018002fbe8     libucrt:lcidtoname_downlevel.obj
 0002:00004bf8       ??_C@_1M@LKMGMLKO@?$AAe?$AAn?$AA?9?$AAG?$AAB?$AA?$AA@ 000000018002fbf8     libucrt:lcidtoname_downlevel.obj
 0002:00004c08       ??_C@_1M@PGKJFFGL@?$AAe?$AAs?$AA?9?$AAM?$AAX?$AA?$AA@ 000000018002fc08     libucrt:lcidtoname_downlevel.obj
 0002:00004c18       ??_C@_1M@DNNANBDC@?$AAf?$AAr?$AA?9?$AAB?$AAE?$AA?$AA@ 000000018002fc18     libucrt:lcidtoname_downlevel.obj
 0002:00004c28       ??_C@_1M@HLGMDFHM@?$AAi?$AAt?$AA?9?$AAC?$AAH?$AA?$AA@ 000000018002fc28     libucrt:lcidtoname_downlevel.obj
 0002:00004c38       ??_C@_1M@CLLBGJH@?$AAn?$AAl?$AA?9?$AAB?$AAE?$AA?$AA@ 000000018002fc38     libucrt:lcidtoname_downlevel.obj
 0002:00004c48       ??_C@_1M@BODBOGLF@?$AAn?$AAn?$AA?9?$AAN?$AAO?$AA?$AA@ 000000018002fc48     libucrt:lcidtoname_downlevel.obj
 0002:00004c58       ??_C@_1M@HFFAHKAD@?$AAp?$AAt?$AA?9?$AAP?$AAT?$AA?$AA@ 000000018002fc58     libucrt:lcidtoname_downlevel.obj
 0002:00004c68       ??_C@_1BG@LNOAKHIE@?$AAs?$AAr?$AA?9?$AAS?$AAP?$AA?9?$AAL?$AAa?$AAt?$AAn?$AA?$AA@ 000000018002fc68     libucrt:lcidtoname_downlevel.obj
 0002:00004c80       ??_C@_1M@HBMHBGAK@?$AAs?$AAv?$AA?9?$AAF?$AAI?$AA?$AA@ 000000018002fc80     libucrt:lcidtoname_downlevel.obj
 0002:00004c90       ??_C@_1BG@DGCJGJBE@?$AAa?$AAz?$AA?9?$AAA?$AAZ?$AA?9?$AAC?$AAy?$AAr?$AAl?$AA?$AA@ 000000018002fc90     libucrt:lcidtoname_downlevel.obj
 0002:00004ca8       ??_C@_1M@KEJDAAHB@?$AAs?$AAe?$AA?9?$AAS?$AAE?$AA?$AA@ 000000018002fca8     libucrt:lcidtoname_downlevel.obj
 0002:00004cb8       ??_C@_1M@HEIBJJAD@?$AAm?$AAs?$AA?9?$AAB?$AAN?$AA?$AA@ 000000018002fcb8     libucrt:lcidtoname_downlevel.obj
 0002:00004cc8       ??_C@_1BG@PBGJMCEM@?$AAu?$AAz?$AA?9?$AAU?$AAZ?$AA?9?$AAC?$AAy?$AAr?$AAl?$AA?$AA@ 000000018002fcc8     libucrt:lcidtoname_downlevel.obj
 0002:00004ce0       ??_C@_1O@LAOBCMDF@?$AAq?$AAu?$AAz?$AA?9?$AAE?$AAC?$AA?$AA@ 000000018002fce0     libucrt:lcidtoname_downlevel.obj
 0002:00004cf0       ??_C@_1M@POEEMAIO@?$AAa?$AAr?$AA?9?$AAE?$AAG?$AA?$AA@ 000000018002fcf0     libucrt:lcidtoname_downlevel.obj
 0002:00004d00       ??_C@_1M@EFAKDEDL@?$AAz?$AAh?$AA?9?$AAH?$AAK?$AA?$AA@ 000000018002fd00     libucrt:lcidtoname_downlevel.obj
 0002:00004d10       ??_C@_1M@HKKIJHGI@?$AAd?$AAe?$AA?9?$AAA?$AAT?$AA?$AA@ 000000018002fd10     libucrt:lcidtoname_downlevel.obj
 0002:00004d20       ??_C@_1M@KBFBEHJF@?$AAe?$AAn?$AA?9?$AAA?$AAU?$AA?$AA@ 000000018002fd20     libucrt:lcidtoname_downlevel.obj
 0002:00004d30       ??_C@_1M@MNPLFAAH@?$AAe?$AAs?$AA?9?$AAE?$AAS?$AA?$AA@ 000000018002fd30     libucrt:lcidtoname_downlevel.obj
 0002:00004d40       ??_C@_1M@HJOOJFMA@?$AAf?$AAr?$AA?9?$AAC?$AAA?$AA?$AA@ 000000018002fd40     libucrt:lcidtoname_downlevel.obj
 0002:00004d50       ??_C@_1BG@JPOFPNAB@?$AAs?$AAr?$AA?9?$AAS?$AAP?$AA?9?$AAC?$AAy?$AAr?$AAl?$AA?$AA@ 000000018002fd50     libucrt:lcidtoname_downlevel.obj
 0002:00004d68       ??_C@_1M@LNFOCMOB@?$AAs?$AAe?$AA?9?$AAF?$AAI?$AA?$AA@ 000000018002fd68     libucrt:lcidtoname_downlevel.obj
 0002:00004d78       ??_C@_1O@MGJBOAMB@?$AAq?$AAu?$AAz?$AA?9?$AAP?$AAE?$AA?$AA@ 000000018002fd78     libucrt:lcidtoname_downlevel.obj
 0002:00004d88       ??_C@_1M@GJINLBOK@?$AAa?$AAr?$AA?9?$AAL?$AAY?$AA?$AA@ 000000018002fd88     libucrt:lcidtoname_downlevel.obj
 0002:00004d98       ??_C@_1M@GGMNHJNL@?$AAz?$AAh?$AA?9?$AAS?$AAG?$AA?$AA@ 000000018002fd98     libucrt:lcidtoname_downlevel.obj
 0002:00004da8       ??_C@_1M@HOIKODND@?$AAd?$AAe?$AA?9?$AAL?$AAU?$AA?$AA@ 000000018002fda8     libucrt:lcidtoname_downlevel.obj
 0002:00004db8       ??_C@_1M@DDOCCGFG@?$AAe?$AAn?$AA?9?$AAC?$AAA?$AA?$AA@ 000000018002fdb8     libucrt:lcidtoname_downlevel.obj
 0002:00004dc8       ??_C@_1M@BNOEMJLF@?$AAe?$AAs?$AA?9?$AAG?$AAT?$AA?$AA@ 000000018002fdc8     libucrt:lcidtoname_downlevel.obj
 0002:00004dd8       ??_C@_1M@EOGNKEK@?$AAf?$AAr?$AA?9?$AAC?$AAH?$AA?$AA@ 000000018002fdd8     libucrt:lcidtoname_downlevel.obj
 0002:00004de8       ??_C@_1M@FLIDJFHL@?$AAh?$AAr?$AA?9?$AAB?$AAA?$AA?$AA@ 000000018002fde8     libucrt:lcidtoname_downlevel.obj
 0002:00004df8       ??_C@_1O@FMCELNAJ@?$AAs?$AAm?$AAj?$AA?9?$AAN?$AAO?$AA?$AA@ 000000018002fdf8     libucrt:lcidtoname_downlevel.obj
 0002:00004e08       ??_C@_1M@JHGLJMGJ@?$AAa?$AAr?$AA?9?$AAD?$AAZ?$AA?$AA@ 000000018002fe08     libucrt:lcidtoname_downlevel.obj
 0002:00004e18       ??_C@_1M@JKKFDCNP@?$AAz?$AAh?$AA?9?$AAM?$AAO?$AA?$AA@ 000000018002fe18     libucrt:lcidtoname_downlevel.obj
 0002:00004e28       ??_C@_1M@GEEFALPE@?$AAd?$AAe?$AA?9?$AAL?$AAI?$AA?$AA@ 000000018002fe28     libucrt:lcidtoname_downlevel.obj
 0002:00004e38       ??_C@_1M@IGEOFBG@?$AAe?$AAn?$AA?9?$AAN?$AAZ?$AA?$AA@ 000000018002fe38     libucrt:lcidtoname_downlevel.obj
 0002:00004e48       ??_C@_1M@KDBONEHP@?$AAe?$AAs?$AA?9?$AAC?$AAR?$AA?$AA@ 000000018002fe48     libucrt:lcidtoname_downlevel.obj
 0002:00004e58       ??_C@_1M@FHMDOHNN@?$AAf?$AAr?$AA?9?$AAL?$AAU?$AA?$AA@ 000000018002fe58     libucrt:lcidtoname_downlevel.obj
 0002:00004e68       ??_C@_1BG@NFKKMAFG@?$AAb?$AAs?$AA?9?$AAB?$AAA?$AA?9?$AAL?$AAa?$AAt?$AAn?$AA?$AA@ 000000018002fe68     libucrt:lcidtoname_downlevel.obj
 0002:00004e80       ??_C@_1O@IMNBEMCI@?$AAs?$AAm?$AAj?$AA?9?$AAS?$AAE?$AA?$AA@ 000000018002fe80     libucrt:lcidtoname_downlevel.obj
 0002:00004e90       ??_C@_1M@DHHMBNDP@?$AAa?$AAr?$AA?9?$AAM?$AAA?$AA?$AA@ 000000018002fe90     libucrt:lcidtoname_downlevel.obj
 0002:00004ea0       ??_C@_1M@BNBLJCGH@?$AAe?$AAn?$AA?9?$AAI?$AAE?$AA?$AA@ 000000018002fea0     libucrt:lcidtoname_downlevel.obj
 0002:00004eb0       ??_C@_1M@GEPAFMDL@?$AAe?$AAs?$AA?9?$AAP?$AAA?$AA?$AA@ 000000018002feb0     libucrt:lcidtoname_downlevel.obj
 0002:00004ec0       ??_C@_1M@OJONDMDL@?$AAf?$AAr?$AA?9?$AAM?$AAC?$AA?$AA@ 000000018002fec0     libucrt:lcidtoname_downlevel.obj
 0002:00004ed0       ??_C@_1BG@OBCNFJB@?$AAs?$AAr?$AA?9?$AAB?$AAA?$AA?9?$AAL?$AAa?$AAt?$AAn?$AA?$AA@ 000000018002fed0     libucrt:lcidtoname_downlevel.obj
 0002:00004ee8       ??_C@_1O@KEMEEGPO@?$AAs?$AAm?$AAa?$AA?9?$AAN?$AAO?$AA?$AA@ 000000018002fee8     libucrt:lcidtoname_downlevel.obj
 0002:00004ef8       ??_C@_1M@ELMGFODK@?$AAa?$AAr?$AA?9?$AAT?$AAN?$AA?$AA@ 000000018002fef8     libucrt:lcidtoname_downlevel.obj
 0002:00004f08       ??_C@_1M@BHDLHFAF@?$AAe?$AAn?$AA?9?$AAZ?$AAA?$AA?$AA@ 000000018002ff08     libucrt:lcidtoname_downlevel.obj
 0002:00004f18       ??_C@_1M@BMGIGLIF@?$AAe?$AAs?$AA?9?$AAD?$AAO?$AA?$AA@ 000000018002ff18     libucrt:lcidtoname_downlevel.obj
 0002:00004f28       ??_C@_1BG@CMBHIPBE@?$AAs?$AAr?$AA?9?$AAB?$AAA?$AA?9?$AAC?$AAy?$AAr?$AAl?$AA?$AA@ 000000018002ff28     libucrt:lcidtoname_downlevel.obj
 0002:00004f40       ??_C@_1O@HEDBLHNP@?$AAs?$AAm?$AAa?$AA?9?$AAS?$AAE?$AA?$AA@ 000000018002ff40     libucrt:lcidtoname_downlevel.obj
 0002:00004f50       ??_C@_1M@DAGCADIM@?$AAa?$AAr?$AA?9?$AAO?$AAM?$AA?$AA@ 000000018002ff50     libucrt:lcidtoname_downlevel.obj
 0002:00004f60       ??_C@_1M@FODLMICG@?$AAe?$AAn?$AA?9?$AAJ?$AAM?$AA?$AA@ 000000018002ff60     libucrt:lcidtoname_downlevel.obj
 0002:00004f70       ??_C@_1M@DNMLCIHB@?$AAe?$AAs?$AA?9?$AAV?$AAE?$AA?$AA@ 000000018002ff70     libucrt:lcidtoname_downlevel.obj
 0002:00004f80       ??_C@_1O@EOKHMKJK@?$AAs?$AAm?$AAs?$AA?9?$AAF?$AAI?$AA?$AA@ 000000018002ff80     libucrt:lcidtoname_downlevel.obj
 0002:00004f90       ??_C@_1M@CAFJMKOF@?$AAa?$AAr?$AA?9?$AAY?$AAE?$AA?$AA@ 000000018002ff90     libucrt:lcidtoname_downlevel.obj
 0002:00004fa0       ??_C@_1M@CBFHIJLI@?$AAe?$AAn?$AA?9?$AAC?$AAB?$AA?$AA@ 000000018002ffa0     libucrt:lcidtoname_downlevel.obj
 0002:00004fb0       ??_C@_1M@BGNFLDN@?$AAe?$AAs?$AA?9?$AAC?$AAO?$AA?$AA@ 000000018002ffb0     libucrt:lcidtoname_downlevel.obj
 0002:00004fc0       ??_C@_1O@JMPHMAMC@?$AAs?$AAm?$AAn?$AA?9?$AAF?$AAI?$AA?$AA@ 000000018002ffc0     libucrt:lcidtoname_downlevel.obj
 0002:00004fd0       ??_C@_1M@JLANABKE@?$AAa?$AAr?$AA?9?$AAS?$AAY?$AA?$AA@ 000000018002ffd0     libucrt:lcidtoname_downlevel.obj
 0002:00004fe0       ??_C@_1M@HPKGCFGN@?$AAe?$AAn?$AA?9?$AAB?$AAZ?$AA?$AA@ 000000018002ffe0     libucrt:lcidtoname_downlevel.obj
 0002:00004ff0       ??_C@_1M@OLJCMLGM@?$AAe?$AAs?$AA?9?$AAP?$AAE?$AA?$AA@ 000000018002fff0     libucrt:lcidtoname_downlevel.obj
 0002:00005000       ??_C@_1M@MKKGFKLE@?$AAa?$AAr?$AA?9?$AAJ?$AAO?$AA?$AA@ 0000000180030000     libucrt:lcidtoname_downlevel.obj
 0002:00005010       ??_C@_1M@EKPGLDNI@?$AAe?$AAn?$AA?9?$AAT?$AAT?$AA?$AA@ 0000000180030010     libucrt:lcidtoname_downlevel.obj
 0002:00005020       ??_C@_1M@OONGHFHE@?$AAe?$AAs?$AA?9?$AAA?$AAR?$AA?$AA@ 0000000180030020     libucrt:lcidtoname_downlevel.obj
 0002:00005030       ??_C@_1M@OOJFGBHE@?$AAa?$AAr?$AA?9?$AAL?$AAB?$AA?$AA@ 0000000180030030     libucrt:lcidtoname_downlevel.obj
 0002:00005040       ??_C@_1M@GCEJHNEG@?$AAe?$AAn?$AA?9?$AAZ?$AAW?$AA?$AA@ 0000000180030040     libucrt:lcidtoname_downlevel.obj
 0002:00005050       ??_C@_1M@JNOCAHJI@?$AAe?$AAs?$AA?9?$AAE?$AAC?$AA?$AA@ 0000000180030050     libucrt:lcidtoname_downlevel.obj
 0002:00005060       ??_C@_1M@JEFHPGGB@?$AAa?$AAr?$AA?9?$AAK?$AAW?$AA?$AA@ 0000000180030060     libucrt:lcidtoname_downlevel.obj
 0002:00005070       ??_C@_1M@MLKIBJOJ@?$AAe?$AAn?$AA?9?$AAP?$AAH?$AA?$AA@ 0000000180030070     libucrt:lcidtoname_downlevel.obj
 0002:00005080       ??_C@_1M@BDNIPEND@?$AAe?$AAs?$AA?9?$AAC?$AAL?$AA?$AA@ 0000000180030080     libucrt:lcidtoname_downlevel.obj
 0002:00005090       ??_C@_1M@MPNMEKBD@?$AAa?$AAr?$AA?9?$AAA?$AAE?$AA?$AA@ 0000000180030090     libucrt:lcidtoname_downlevel.obj
 0002:000050a0       ??_C@_1M@KBJALCPI@?$AAe?$AAs?$AA?9?$AAU?$AAY?$AA?$AA@ 00000001800300a0     libucrt:lcidtoname_downlevel.obj
 0002:000050b0       ??_C@_1M@LLCCOAGA@?$AAa?$AAr?$AA?9?$AAB?$AAH?$AA?$AA@ 00000001800300b0     libucrt:lcidtoname_downlevel.obj
 0002:000050c0       ??_C@_1M@PBFNCDEL@?$AAe?$AAs?$AA?9?$AAP?$AAY?$AA?$AA@ 00000001800300c0     libucrt:lcidtoname_downlevel.obj
 0002:000050d0       ??_C@_1M@EDGINPNP@?$AAa?$AAr?$AA?9?$AAQ?$AAA?$AA?$AA@ 00000001800300d0     libucrt:lcidtoname_downlevel.obj
 0002:000050e0       ??_C@_1M@MKDBIIJI@?$AAe?$AAs?$AA?9?$AAB?$AAO?$AA?$AA@ 00000001800300e0     libucrt:lcidtoname_downlevel.obj
 0002:000050f0       ??_C@_1M@CPKKEBLD@?$AAe?$AAs?$AA?9?$AAS?$AAV?$AA?$AA@ 00000001800300f0     libucrt:lcidtoname_downlevel.obj
 0002:00005100       ??_C@_1M@NDBGMMJL@?$AAe?$AAs?$AA?9?$AAH?$AAN?$AA?$AA@ 0000000180030100     libucrt:lcidtoname_downlevel.obj
 0002:00005110       ??_C@_1M@JIJIBHDP@?$AAe?$AAs?$AA?9?$AAN?$AAI?$AA?$AA@ 0000000180030110     libucrt:lcidtoname_downlevel.obj
 0002:00005120       ??_C@_1M@CGFMKEEK@?$AAe?$AAs?$AA?9?$AAP?$AAR?$AA?$AA@ 0000000180030120     libucrt:lcidtoname_downlevel.obj
 0002:00005130       ??_C@_1O@ICJHKIIK@?$AAz?$AAh?$AA?9?$AAC?$AAH?$AAT?$AA?$AA@ 0000000180030130     libucrt:lcidtoname_downlevel.obj
 0002:00005140       ??_C@_15CLNEJCE@?$AAs?$AAr?$AA?$AA@ 0000000180030140     libucrt:lcidtoname_downlevel.obj
 0002:00005f90       ??_C@_1M@KAHEKEIG@?$AAa?$AAf?$AA?9?$AAz?$AAa?$AA?$AA@ 0000000180030f90     libucrt:lcidtoname_downlevel.obj
 0002:00005fa0       ??_C@_1M@GIECOABL@?$AAa?$AAr?$AA?9?$AAa?$AAe?$AA?$AA@ 0000000180030fa0     libucrt:lcidtoname_downlevel.obj
 0002:00005fb0       ??_C@_1M@BMLMEKGI@?$AAa?$AAr?$AA?9?$AAb?$AAh?$AA?$AA@ 0000000180030fb0     libucrt:lcidtoname_downlevel.obj
 0002:00005fc0       ??_C@_1M@DAPFDGGB@?$AAa?$AAr?$AA?9?$AAd?$AAz?$AA?$AA@ 0000000180030fc0     libucrt:lcidtoname_downlevel.obj
 0002:00005fd0       ??_C@_1M@FJNKGKIG@?$AAa?$AAr?$AA?9?$AAe?$AAg?$AA?$AA@ 0000000180030fd0     libucrt:lcidtoname_downlevel.obj
 0002:00005fe0       ??_C@_1M@FLGKKCLO@?$AAa?$AAr?$AA?9?$AAi?$AAq?$AA?$AA@ 0000000180030fe0     libucrt:lcidtoname_downlevel.obj
 0002:00005ff0       ??_C@_1M@GNDIPALM@?$AAa?$AAr?$AA?9?$AAj?$AAo?$AA?$AA@ 0000000180030ff0     libucrt:lcidtoname_downlevel.obj
 0002:00006000       ??_C@_1M@DDMJFMGJ@?$AAa?$AAr?$AA?9?$AAk?$AAw?$AA?$AA@ 0000000180031000     libucrt:lcidtoname_downlevel.obj
 0002:00006010       ??_C@_1M@EJALMLHM@?$AAa?$AAr?$AA?9?$AAl?$AAb?$AA?$AA@ 0000000180031010     libucrt:lcidtoname_downlevel.obj
 0002:00006020       ??_C@_1M@MOBDBLOC@?$AAa?$AAr?$AA?9?$AAl?$AAy?$AA?$AA@ 0000000180031020     libucrt:lcidtoname_downlevel.obj
 0002:00006030       ??_C@_1M@JAOCLHDH@?$AAa?$AAr?$AA?9?$AAm?$AAa?$AA?$AA@ 0000000180031030     libucrt:lcidtoname_downlevel.obj
 0002:00006040       ??_C@_1M@JHPMKJIE@?$AAa?$AAr?$AA?9?$AAo?$AAm?$AA?$AA@ 0000000180031040     libucrt:lcidtoname_downlevel.obj
 0002:00006050       ??_C@_1M@OEPGHFNH@?$AAa?$AAr?$AA?9?$AAq?$AAa?$AA?$AA@ 0000000180031050     libucrt:lcidtoname_downlevel.obj
 0002:00006060       ??_C@_1M@KJDONENM@?$AAa?$AAr?$AA?9?$AAs?$AAa?$AA?$AA@ 0000000180031060     libucrt:lcidtoname_downlevel.obj
 0002:00006070       ??_C@_1M@DMJDKLKM@?$AAa?$AAr?$AA?9?$AAs?$AAy?$AA?$AA@ 0000000180031070     libucrt:lcidtoname_downlevel.obj
 0002:00006080       ??_C@_1M@OMFIPEDC@?$AAa?$AAr?$AA?9?$AAt?$AAn?$AA?$AA@ 0000000180031080     libucrt:lcidtoname_downlevel.obj
 0002:00006090       ??_C@_1M@IHMHGAON@?$AAa?$AAr?$AA?9?$AAy?$AAe?$AA?$AA@ 0000000180031090     libucrt:lcidtoname_downlevel.obj
 0002:000060a0       ??_C@_1BG@KDCPGJGB@?$AAa?$AAz?$AA?9?$AAa?$AAz?$AA?9?$AAc?$AAy?$AAr?$AAl?$AA?$AA@ 00000001800310a0     libucrt:lcidtoname_downlevel.obj
 0002:000060b8       ??_C@_1BG@IBCKDDOE@?$AAa?$AAz?$AA?9?$AAa?$AAz?$AA?9?$AAl?$AAa?$AAt?$AAn?$AA?$AA@ 00000001800310b8     libucrt:lcidtoname_downlevel.obj
 0002:000060d0       ??_C@_1M@EGPFDCPD@?$AAb?$AAe?$AA?9?$AAb?$AAy?$AA?$AA@ 00000001800310d0     libucrt:lcidtoname_downlevel.obj
 0002:000060e0       ??_C@_1M@PCMGMCGC@?$AAb?$AAg?$AA?9?$AAb?$AAg?$AA?$AA@ 00000001800310e0     libucrt:lcidtoname_downlevel.obj
 0002:000060f0       ??_C@_1M@BJBMFGOB@?$AAb?$AAn?$AA?9?$AAi?$AAn?$AA?$AA@ 00000001800310f0     libucrt:lcidtoname_downlevel.obj
 0002:00006100       ??_C@_1BG@EAKMMACD@?$AAb?$AAs?$AA?9?$AAb?$AAa?$AA?9?$AAl?$AAa?$AAt?$AAn?$AA?$AA@ 0000000180031100     libucrt:lcidtoname_downlevel.obj
 0002:00006118       ??_C@_1M@KGADAODK@?$AAc?$AAa?$AA?9?$AAe?$AAs?$AA?$AA@ 0000000180031118     libucrt:lcidtoname_downlevel.obj
 0002:00006128       ??_C@_1M@COAJPDHI@?$AAc?$AAs?$AA?9?$AAc?$AAz?$AA?$AA@ 0000000180031128     libucrt:lcidtoname_downlevel.obj
 0002:00006138       ??_C@_1M@DHBHFONH@?$AAc?$AAy?$AA?9?$AAg?$AAb?$AA?$AA@ 0000000180031138     libucrt:lcidtoname_downlevel.obj
 0002:00006148       ??_C@_1M@IMGKELGA@?$AAd?$AAa?$AA?9?$AAd?$AAk?$AA?$AA@ 0000000180031148     libucrt:lcidtoname_downlevel.obj
 0002:00006158       ??_C@_1M@NNDGDNGA@?$AAd?$AAe?$AA?9?$AAa?$AAt?$AA?$AA@ 0000000180031158     libucrt:lcidtoname_downlevel.obj
 0002:00006168       ??_C@_1M@IKDBHEEM@?$AAd?$AAe?$AA?9?$AAc?$AAh?$AA?$AA@ 0000000180031168     libucrt:lcidtoname_downlevel.obj
 0002:00006178       ??_C@_1M@GFFOJMCJ@?$AAd?$AAe?$AA?9?$AAd?$AAe?$AA?$AA@ 0000000180031178     libucrt:lcidtoname_downlevel.obj
 0002:00006188       ??_C@_1M@MDNLKBPM@?$AAd?$AAe?$AA?9?$AAl?$AAi?$AA?$AA@ 0000000180031188     libucrt:lcidtoname_downlevel.obj
 0002:00006198       ??_C@_1M@NJBEEJNL@?$AAd?$AAe?$AA?9?$AAl?$AAu?$AA?$AA@ 0000000180031198     libucrt:lcidtoname_downlevel.obj
 0002:000061a8       ??_C@_1O@GNNELBAP@?$AAd?$AAi?$AAv?$AA?9?$AAm?$AAv?$AA?$AA@ 00000001800311a8     libucrt:lcidtoname_downlevel.obj
 0002:000061b8       ??_C@_1M@EJLEOGAE@?$AAe?$AAl?$AA?9?$AAg?$AAr?$AA?$AA@ 00000001800311b8     libucrt:lcidtoname_downlevel.obj
 0002:000061c8       ??_C@_1M@GMPONJN@?$AAe?$AAn?$AA?9?$AAa?$AAu?$AA?$AA@ 00000001800311c8     libucrt:lcidtoname_downlevel.obj
 0002:000061d8       ??_C@_1M@NIDIIPGF@?$AAe?$AAn?$AA?9?$AAb?$AAz?$AA?$AA@ 00000001800311d8     libucrt:lcidtoname_downlevel.obj
 0002:000061e8       ??_C@_1M@JEHMIMFO@?$AAe?$AAn?$AA?9?$AAc?$AAa?$AA?$AA@ 00000001800311e8     libucrt:lcidtoname_downlevel.obj
 0002:000061f8       ??_C@_1M@IGMJCDLA@?$AAe?$AAn?$AA?9?$AAc?$AAb?$AA?$AA@ 00000001800311f8     libucrt:lcidtoname_downlevel.obj
 0002:00006208       ??_C@_1M@BNFIGBKG@?$AAe?$AAn?$AA?9?$AAg?$AAb?$AA?$AA@ 0000000180031208     libucrt:lcidtoname_downlevel.obj
 0002:00006218       ??_C@_1M@LKIFDIGP@?$AAe?$AAn?$AA?9?$AAi?$AAe?$AA?$AA@ 0000000180031218     libucrt:lcidtoname_downlevel.obj
 0002:00006228       ??_C@_1M@PJKFGCCO@?$AAe?$AAn?$AA?9?$AAj?$AAm?$AA?$AA@ 0000000180031228     libucrt:lcidtoname_downlevel.obj
 0002:00006238       ??_C@_1M@KPPKEPBO@?$AAe?$AAn?$AA?9?$AAn?$AAz?$AA?$AA@ 0000000180031238     libucrt:lcidtoname_downlevel.obj
 0002:00006248       ??_C@_1M@GMDGLDOB@?$AAe?$AAn?$AA?9?$AAp?$AAh?$AA?$AA@ 0000000180031248     libucrt:lcidtoname_downlevel.obj
 0002:00006258       ??_C@_1M@ONGIBJNA@?$AAe?$AAn?$AA?9?$AAt?$AAt?$AA?$AA@ 0000000180031258     libucrt:lcidtoname_downlevel.obj
 0002:00006268       ??_C@_1M@LLODPCMM@?$AAe?$AAn?$AA?9?$AAu?$AAs?$AA?$AA@ 0000000180031268     libucrt:lcidtoname_downlevel.obj
 0002:00006278       ??_C@_1M@LAKFNPAN@?$AAe?$AAn?$AA?9?$AAz?$AAa?$AA?$AA@ 0000000180031278     libucrt:lcidtoname_downlevel.obj
 0002:00006288       ??_C@_1M@MFNHNHEO@?$AAe?$AAn?$AA?9?$AAz?$AAw?$AA?$AA@ 0000000180031288     libucrt:lcidtoname_downlevel.obj
 0002:00006298       ??_C@_1M@EJEINPHM@?$AAe?$AAs?$AA?9?$AAa?$AAr?$AA?$AA@ 0000000180031298     libucrt:lcidtoname_downlevel.obj
 0002:000062a8       ??_C@_1M@GNKPCCJA@?$AAe?$AAs?$AA?9?$AAb?$AAo?$AA?$AA@ 00000001800312a8     libucrt:lcidtoname_downlevel.obj
 0002:000062b8       ??_C@_1M@LEEGFONL@?$AAe?$AAs?$AA?9?$AAc?$AAl?$AA?$AA@ 00000001800312b8     libucrt:lcidtoname_downlevel.obj
 0002:000062c8       ??_C@_1M@KGPDPBDF@?$AAe?$AAs?$AA?9?$AAc?$AAo?$AA?$AA@ 00000001800312c8     libucrt:lcidtoname_downlevel.obj
 0002:000062d8       ??_C@_1M@EIAHOHH@?$AAe?$AAs?$AA?9?$AAc?$AAr?$AA?$AA@ 00000001800312d8     libucrt:lcidtoname_downlevel.obj
 0002:000062e8       ??_C@_1M@LLPGMBIN@?$AAe?$AAs?$AA?9?$AAd?$AAo?$AA?$AA@ 00000001800312e8     libucrt:lcidtoname_downlevel.obj
 0002:000062f8       ??_C@_1M@DKHMKNJA@?$AAe?$AAs?$AA?9?$AAe?$AAc?$AA?$AA@ 00000001800312f8     libucrt:lcidtoname_downlevel.obj
 0002:00006308       ??_C@_1M@GKGFPKAP@?$AAe?$AAs?$AA?9?$AAe?$AAs?$AA?$AA@ 0000000180031308     libucrt:lcidtoname_downlevel.obj
 0002:00006318       ??_C@_1M@LKHKGDLN@?$AAe?$AAs?$AA?9?$AAg?$AAt?$AA?$AA@ 0000000180031318     libucrt:lcidtoname_downlevel.obj
 0002:00006328       ??_C@_1M@HEIIGGJD@?$AAe?$AAs?$AA?9?$AAh?$AAn?$AA?$AA@ 0000000180031328     libucrt:lcidtoname_downlevel.obj
 0002:00006338       ??_C@_1M@FBDHPPGD@?$AAe?$AAs?$AA?9?$AAm?$AAx?$AA?$AA@ 0000000180031338     libucrt:lcidtoname_downlevel.obj
 0002:00006348       ??_C@_1M@DPAGLNDH@?$AAe?$AAs?$AA?9?$AAn?$AAi?$AA?$AA@ 0000000180031348     libucrt:lcidtoname_downlevel.obj
 0002:00006358       ??_C@_1M@MDGOPGDD@?$AAe?$AAs?$AA?9?$AAp?$AAa?$AA?$AA@ 0000000180031358     libucrt:lcidtoname_downlevel.obj
 0002:00006368       ??_C@_1M@EMAMGBGE@?$AAe?$AAs?$AA?9?$AAp?$AAe?$AA?$AA@ 0000000180031368     libucrt:lcidtoname_downlevel.obj
 0002:00006378       ??_C@_1M@IBMCAOEC@?$AAe?$AAs?$AA?9?$AAp?$AAr?$AA?$AA@ 0000000180031378     libucrt:lcidtoname_downlevel.obj
 0002:00006388       ??_C@_1M@FGMDIJED@?$AAe?$AAs?$AA?9?$AAp?$AAy?$AA?$AA@ 0000000180031388     libucrt:lcidtoname_downlevel.obj
 0002:00006398       ??_C@_1M@IIDEOLLL@?$AAe?$AAs?$AA?9?$AAs?$AAv?$AA?$AA@ 0000000180031398     libucrt:lcidtoname_downlevel.obj
 0002:000063a8       ??_C@_1M@GAOBIPA@?$AAe?$AAs?$AA?9?$AAu?$AAy?$AA?$AA@ 00000001800313a8     libucrt:lcidtoname_downlevel.obj
 0002:000063b8       ??_C@_1M@JKFFICHJ@?$AAe?$AAs?$AA?9?$AAv?$AAe?$AA?$AA@ 00000001800313b8     libucrt:lcidtoname_downlevel.obj
 0002:000063c8       ??_C@_1M@PNMLOJDF@?$AAe?$AAt?$AA?9?$AAe?$AAe?$AA?$AA@ 00000001800313c8     libucrt:lcidtoname_downlevel.obj
 0002:000063d8       ??_C@_1M@GHHLIKEI@?$AAe?$AAu?$AA?9?$AAe?$AAs?$AA?$AA@ 00000001800313d8     libucrt:lcidtoname_downlevel.obj
 0002:000063e8       ??_C@_1M@PBNONODE@?$AAf?$AAa?$AA?9?$AAi?$AAr?$AA?$AA@ 00000001800313e8     libucrt:lcidtoname_downlevel.obj
 0002:000063f8       ??_C@_1M@JEEHPMIL@?$AAf?$AAi?$AA?9?$AAf?$AAi?$AA?$AA@ 00000001800313f8     libucrt:lcidtoname_downlevel.obj
 0002:00006408       ??_C@_1M@LMDCNDBA@?$AAf?$AAo?$AA?9?$AAf?$AAo?$AA?$AA@ 0000000180031408     libucrt:lcidtoname_downlevel.obj
 0002:00006418       ??_C@_1M@JKEOHLDK@?$AAf?$AAr?$AA?9?$AAb?$AAe?$AA?$AA@ 0000000180031418     libucrt:lcidtoname_downlevel.obj
 0002:00006428       ??_C@_1M@NOHADPMI@?$AAf?$AAr?$AA?9?$AAc?$AAa?$AA?$AA@ 0000000180031428     libucrt:lcidtoname_downlevel.obj
 0002:00006438       ??_C@_1M@KDHIHAEC@?$AAf?$AAr?$AA?9?$AAc?$AAh?$AA?$AA@ 0000000180031438     libucrt:lcidtoname_downlevel.obj
 0002:00006448       ??_C@_1M@MMBBFGAK@?$AAf?$AAr?$AA?9?$AAf?$AAr?$AA?$AA@ 0000000180031448     libucrt:lcidtoname_downlevel.obj
 0002:00006458       ??_C@_1M@PAFNENNF@?$AAf?$AAr?$AA?9?$AAl?$AAu?$AA?$AA@ 0000000180031458     libucrt:lcidtoname_downlevel.obj
 0002:00006468       ??_C@_1M@EOHDJGDD@?$AAf?$AAr?$AA?9?$AAm?$AAc?$AA?$AA@ 0000000180031468     libucrt:lcidtoname_downlevel.obj
 0002:00006478       ??_C@_1M@FAPLLOPF@?$AAg?$AAl?$AA?9?$AAe?$AAs?$AA?$AA@ 0000000180031478     libucrt:lcidtoname_downlevel.obj
 0002:00006488       ??_C@_1M@FOPBFLOO@?$AAg?$AAu?$AA?9?$AAi?$AAn?$AA?$AA@ 0000000180031488     libucrt:lcidtoname_downlevel.obj
 0002:00006498       ??_C@_1M@KBMCINPM@?$AAh?$AAe?$AA?9?$AAi?$AAl?$AA?$AA@ 0000000180031498     libucrt:lcidtoname_downlevel.obj
 0002:000064a8       ??_C@_1M@BBPHKFPJ@?$AAh?$AAi?$AA?9?$AAi?$AAn?$AA?$AA@ 00000001800314a8     libucrt:lcidtoname_downlevel.obj
 0002:000064b8       ??_C@_1M@PMBNDPHD@?$AAh?$AAr?$AA?9?$AAb?$AAa?$AA?$AA@ 00000001800314b8     libucrt:lcidtoname_downlevel.obj
 0002:000064c8       ??_C@_1M@BPCKOEGE@?$AAh?$AAr?$AA?9?$AAh?$AAr?$AA?$AA@ 00000001800314c8     libucrt:lcidtoname_downlevel.obj
 0002:000064d8       ??_C@_1M@GACBMHKE@?$AAh?$AAu?$AA?9?$AAh?$AAu?$AA?$AA@ 00000001800314d8     libucrt:lcidtoname_downlevel.obj
 0002:000064e8       ??_C@_1M@MILPAJJC@?$AAh?$AAy?$AA?9?$AAa?$AAm?$AA?$AA@ 00000001800314e8     libucrt:lcidtoname_downlevel.obj
 0002:000064f8       ??_C@_1M@BABBICEC@?$AAi?$AAd?$AA?9?$AAi?$AAd?$AA?$AA@ 00000001800314f8     libucrt:lcidtoname_downlevel.obj
 0002:00006508       ??_C@_1M@BIKNHHPF@?$AAi?$AAs?$AA?9?$AAi?$AAs?$AA?$AA@ 0000000180031508     libucrt:lcidtoname_downlevel.obj
 0002:00006518       ??_C@_1M@NMPCJPHE@?$AAi?$AAt?$AA?9?$AAc?$AAh?$AA?$AA@ 0000000180031518     libucrt:lcidtoname_downlevel.obj
 0002:00006528       ??_C@_1M@GHKGFEDF@?$AAi?$AAt?$AA?9?$AAi?$AAt?$AA?$AA@ 0000000180031528     libucrt:lcidtoname_downlevel.obj
 0002:00006538       ??_C@_1M@NIEJCJJA@?$AAj?$AAa?$AA?9?$AAj?$AAp?$AA?$AA@ 0000000180031538     libucrt:lcidtoname_downlevel.obj
 0002:00006548       ??_C@_1M@JILFNBIM@?$AAk?$AAa?$AA?9?$AAg?$AAe?$AA?$AA@ 0000000180031548     libucrt:lcidtoname_downlevel.obj
 0002:00006558       ??_C@_1M@PACPMGPH@?$AAk?$AAk?$AA?9?$AAk?$AAz?$AA?$AA@ 0000000180031558     libucrt:lcidtoname_downlevel.obj
 0002:00006568       ??_C@_1M@IELFGMHA@?$AAk?$AAn?$AA?9?$AAi?$AAn?$AA?$AA@ 0000000180031568     libucrt:lcidtoname_downlevel.obj
 0002:00006578       ??_C@_1O@IBBJHCH@?$AAk?$AAo?$AAk?$AA?9?$AAi?$AAn?$AA?$AA@ 0000000180031578     libucrt:lcidtoname_downlevel.obj
 0002:00006588       ??_C@_1M@DMHAEOGC@?$AAk?$AAo?$AA?9?$AAk?$AAr?$AA?$AA@ 0000000180031588     libucrt:lcidtoname_downlevel.obj
 0002:00006598       ??_C@_1M@HBAHBIGA@?$AAk?$AAy?$AA?9?$AAk?$AAg?$AA?$AA@ 0000000180031598     libucrt:lcidtoname_downlevel.obj
 0002:000065a8       ??_C@_1M@KPMILCJG@?$AAl?$AAt?$AA?9?$AAl?$AAt?$AA?$AA@ 00000001800315a8     libucrt:lcidtoname_downlevel.obj
 0002:000065b8       ??_C@_1M@BDEKKCA@?$AAl?$AAv?$AA?9?$AAl?$AAv?$AA?$AA@ 00000001800315b8     libucrt:lcidtoname_downlevel.obj
 0002:000065c8       ??_C@_1M@ELCKCCJJ@?$AAm?$AAi?$AA?9?$AAn?$AAz?$AA?$AA@ 00000001800315c8     libucrt:lcidtoname_downlevel.obj
 0002:000065d8       ??_C@_1M@CBOOLAPA@?$AAm?$AAk?$AA?9?$AAm?$AAk?$AA?$AA@ 00000001800315d8     libucrt:lcidtoname_downlevel.obj
 0002:000065e8       ??_C@_1M@GPHNBJKN@?$AAm?$AAl?$AA?9?$AAi?$AAn?$AA?$AA@ 00000001800315e8     libucrt:lcidtoname_downlevel.obj
 0002:000065f8       ??_C@_1M@PABJILIG@?$AAm?$AAn?$AA?9?$AAm?$AAn?$AA?$AA@ 00000001800315f8     libucrt:lcidtoname_downlevel.obj
 0002:00006608       ??_C@_1M@FGBKKIPG@?$AAm?$AAr?$AA?9?$AAi?$AAn?$AA?$AA@ 0000000180031608     libucrt:lcidtoname_downlevel.obj
 0002:00006618       ??_C@_1M@NDBPDDAL@?$AAm?$AAs?$AA?9?$AAb?$AAn?$AA?$AA@ 0000000180031618     libucrt:lcidtoname_downlevel.obj
 0002:00006628       ??_C@_1M@OPIHOOPI@?$AAm?$AAs?$AA?9?$AAm?$AAy?$AA?$AA@ 0000000180031628     libucrt:lcidtoname_downlevel.obj
 0002:00006638       ??_C@_1M@PPDBCNFM@?$AAm?$AAt?$AA?9?$AAm?$AAt?$AA?$AA@ 0000000180031638     libucrt:lcidtoname_downlevel.obj
 0002:00006648       ??_C@_1M@KDJDKMDD@?$AAn?$AAb?$AA?9?$AAn?$AAo?$AA?$AA@ 0000000180031648     libucrt:lcidtoname_downlevel.obj
 0002:00006658       ??_C@_1M@KFCFLMJP@?$AAn?$AAl?$AA?9?$AAb?$AAe?$AA?$AA@ 0000000180031658     libucrt:lcidtoname_downlevel.obj
 0002:00006668       ??_C@_1M@KPOPDDGO@?$AAn?$AAl?$AA?9?$AAn?$AAl?$AA?$AA@ 0000000180031668     libucrt:lcidtoname_downlevel.obj
 0002:00006678       ??_C@_1M@LJKPEMLN@?$AAn?$AAn?$AA?9?$AAn?$AAo?$AA?$AA@ 0000000180031678     libucrt:lcidtoname_downlevel.obj
 0002:00006688       ??_C@_1M@BDGHHBFL@?$AAn?$AAs?$AA?9?$AAz?$AAa?$AA?$AA@ 0000000180031688     libucrt:lcidtoname_downlevel.obj
 0002:00006698       ??_C@_1M@IDEHOAP@?$AAp?$AAa?$AA?9?$AAi?$AAn?$AA?$AA@ 0000000180031698     libucrt:lcidtoname_downlevel.obj
 0002:000066a8       ??_C@_1M@HDBKGOGH@?$AAp?$AAl?$AA?9?$AAp?$AAl?$AA?$AA@ 00000001800316a8     libucrt:lcidtoname_downlevel.obj
 0002:000066b8       ??_C@_1M@LJLLCMEH@?$AAp?$AAt?$AA?9?$AAb?$AAr?$AA?$AA@ 00000001800316b8     libucrt:lcidtoname_downlevel.obj
 0002:000066c8       ??_C@_1M@NCMONAAL@?$AAp?$AAt?$AA?9?$AAp?$AAt?$AA?$AA@ 00000001800316c8     libucrt:lcidtoname_downlevel.obj
 0002:000066d8       ??_C@_1O@EAKMAJDN@?$AAq?$AAu?$AAz?$AA?9?$AAb?$AAo?$AA?$AA@ 00000001800316d8     libucrt:lcidtoname_downlevel.obj
 0002:000066e8       ??_C@_1O@BHHPIGDN@?$AAq?$AAu?$AAz?$AA?9?$AAe?$AAc?$AA?$AA@ 00000001800316e8     libucrt:lcidtoname_downlevel.obj
 0002:000066f8       ??_C@_1O@GBAPEKMJ@?$AAq?$AAu?$AAz?$AA?9?$AAp?$AAe?$AA?$AA@ 00000001800316f8     libucrt:lcidtoname_downlevel.obj
 0002:00006708       ??_C@_1M@CLGLEFBO@?$AAr?$AAo?$AA?9?$AAr?$AAo?$AA?$AA@ 0000000180031708     libucrt:lcidtoname_downlevel.obj
 0002:00006718       ??_C@_1M@CEEDODME@?$AAr?$AAu?$AA?9?$AAr?$AAu?$AA?$AA@ 0000000180031718     libucrt:lcidtoname_downlevel.obj
 0002:00006728       ??_C@_1M@HPKKKMPP@?$AAs?$AAa?$AA?9?$AAi?$AAn?$AA?$AA@ 0000000180031728     libucrt:lcidtoname_downlevel.obj
 0002:00006738       ??_C@_1M@BKMAIGOJ@?$AAs?$AAe?$AA?9?$AAf?$AAi?$AA?$AA@ 0000000180031738     libucrt:lcidtoname_downlevel.obj
 0002:00006748       ??_C@_1M@NDPIFLFI@?$AAs?$AAe?$AA?9?$AAn?$AAo?$AA?$AA@ 0000000180031748     libucrt:lcidtoname_downlevel.obj
 0002:00006758       ??_C@_1M@DANKKHJ@?$AAs?$AAe?$AA?9?$AAs?$AAe?$AA?$AA@ 0000000180031758     libucrt:lcidtoname_downlevel.obj
 0002:00006768       ??_C@_1M@PNBLONPJ@?$AAs?$AAk?$AA?9?$AAs?$AAk?$AA?$AA@ 0000000180031768     libucrt:lcidtoname_downlevel.obj
 0002:00006778       ??_C@_1M@LFMODOAL@?$AAs?$AAl?$AA?9?$AAs?$AAi?$AA?$AA@ 0000000180031778     libucrt:lcidtoname_downlevel.obj
 0002:00006788       ??_C@_1O@DFKOMPG@?$AAs?$AAm?$AAa?$AA?9?$AAn?$AAo?$AA?$AA@ 0000000180031788     libucrt:lcidtoname_downlevel.obj
 0002:00006798       ??_C@_1O@NDKPBNNH@?$AAs?$AAm?$AAa?$AA?9?$AAs?$AAe?$AA?$AA@ 0000000180031798     libucrt:lcidtoname_downlevel.obj
 0002:000067a8       ??_C@_1O@PLLKBHAB@?$AAs?$AAm?$AAj?$AA?9?$AAn?$AAo?$AA?$AA@ 00000001800317a8     libucrt:lcidtoname_downlevel.obj
 0002:000067b8       ??_C@_1O@CLEPOGCA@?$AAs?$AAm?$AAj?$AA?9?$AAs?$AAe?$AA?$AA@ 00000001800317b8     libucrt:lcidtoname_downlevel.obj
 0002:000067c8       ??_C@_1O@DLGJGKMK@?$AAs?$AAm?$AAn?$AA?9?$AAf?$AAi?$AA?$AA@ 00000001800317c8     libucrt:lcidtoname_downlevel.obj
 0002:000067d8       ??_C@_1O@OJDJGAJC@?$AAs?$AAm?$AAs?$AA?9?$AAf?$AAi?$AA?$AA@ 00000001800317d8     libucrt:lcidtoname_downlevel.obj
 0002:000067e8       ??_C@_1M@BOFOGHPB@?$AAs?$AAq?$AA?9?$AAa?$AAl?$AA?$AA@ 00000001800317e8     libucrt:lcidtoname_downlevel.obj
 0002:000067f8       ??_C@_1BG@LJBBIPGB@?$AAs?$AAr?$AA?9?$AAb?$AAa?$AA?9?$AAc?$AAy?$AAr?$AAl?$AA?$AA@ 00000001800317f8     libucrt:lcidtoname_downlevel.obj
 0002:00006810       ??_C@_1BG@JLBENFOE@?$AAs?$AAr?$AA?9?$AAb?$AAa?$AA?9?$AAl?$AAa?$AAt?$AAn?$AA?$AA@ 0000000180031810     libucrt:lcidtoname_downlevel.obj
 0002:00006828       ??_C@_1BG@KODPNHE@?$AAs?$AAr?$AA?9?$AAs?$AAp?$AA?9?$AAc?$AAy?$AAr?$AAl?$AA?$AA@ 0000000180031828     libucrt:lcidtoname_downlevel.obj
 0002:00006840       ??_C@_1BG@CIOGKHPB@?$AAs?$AAr?$AA?9?$AAs?$AAp?$AA?9?$AAl?$AAa?$AAt?$AAn?$AA?$AA@ 0000000180031840     libucrt:lcidtoname_downlevel.obj
 0002:00006858       ??_C@_1M@NGFJLMAC@?$AAs?$AAv?$AA?9?$AAf?$AAi?$AA?$AA@ 0000000180031858     libucrt:lcidtoname_downlevel.obj
 0002:00006868       ??_C@_1M@MPJEJAJC@?$AAs?$AAv?$AA?9?$AAs?$AAe?$AA?$AA@ 0000000180031868     libucrt:lcidtoname_downlevel.obj
 0002:00006878       ??_C@_1M@MPNDHLFK@?$AAs?$AAw?$AA?9?$AAk?$AAe?$AA?$AA@ 0000000180031878     libucrt:lcidtoname_downlevel.obj
 0002:00006888       ??_C@_1O@KOHBJJI@?$AAs?$AAy?$AAr?$AA?9?$AAs?$AAy?$AA?$AA@ 0000000180031888     libucrt:lcidtoname_downlevel.obj
 0002:00006898       ??_C@_1M@LDCEFHA@?$AAt?$AAa?$AA?9?$AAi?$AAn?$AA?$AA@ 0000000180031898     libucrt:lcidtoname_downlevel.obj
 0002:000068a8       ??_C@_1M@CNJOFAK@?$AAt?$AAe?$AA?9?$AAi?$AAn?$AA?$AA@ 00000001800318a8     libucrt:lcidtoname_downlevel.obj
 0002:000068b8       ??_C@_1M@GNAECACD@?$AAt?$AAh?$AA?9?$AAt?$AAh?$AA?$AA@ 00000001800318b8     libucrt:lcidtoname_downlevel.obj
 0002:000068c8       ??_C@_1M@CHBIHOJO@?$AAt?$AAn?$AA?9?$AAz?$AAa?$AA?$AA@ 00000001800318c8     libucrt:lcidtoname_downlevel.obj
 0002:000068d8       ??_C@_1M@GCCMIGPJ@?$AAt?$AAr?$AA?9?$AAt?$AAr?$AA?$AA@ 00000001800318d8     libucrt:lcidtoname_downlevel.obj
 0002:000068e8       ??_C@_1M@CELMCNBK@?$AAt?$AAt?$AA?9?$AAr?$AAu?$AA?$AA@ 00000001800318e8     libucrt:lcidtoname_downlevel.obj
 0002:000068f8       ??_C@_1M@KLMCELGA@?$AAu?$AAk?$AA?9?$AAu?$AAa?$AA?$AA@ 00000001800318f8     libucrt:lcidtoname_downlevel.obj
 0002:00006908       ??_C@_1M@EPAJJAJF@?$AAu?$AAr?$AA?9?$AAp?$AAk?$AA?$AA@ 0000000180031908     libucrt:lcidtoname_downlevel.obj
 0002:00006918       ??_C@_1BG@GEGPMCDJ@?$AAu?$AAz?$AA?9?$AAu?$AAz?$AA?9?$AAc?$AAy?$AAr?$AAl?$AA?$AA@ 0000000180031918     libucrt:lcidtoname_downlevel.obj
 0002:00006930       ??_C@_1BG@EGGKJILM@?$AAu?$AAz?$AA?9?$AAu?$AAz?$AA?9?$AAl?$AAa?$AAt?$AAn?$AA?$AA@ 0000000180031930     libucrt:lcidtoname_downlevel.obj
 0002:00006948       ??_C@_1M@GFOCLFF@?$AAv?$AAi?$AA?9?$AAv?$AAn?$AA?$AA@ 0000000180031948     libucrt:lcidtoname_downlevel.obj
 0002:00006958       ??_C@_1M@CPAMEDFI@?$AAx?$AAh?$AA?9?$AAz?$AAa?$AA?$AA@ 0000000180031958     libucrt:lcidtoname_downlevel.obj
 0002:00006968       ??_C@_1O@EBKIFIGN@?$AAz?$AAh?$AA?9?$AAc?$AAh?$AAs?$AA?$AA@ 0000000180031968     libucrt:lcidtoname_downlevel.obj
 0002:00006978       ??_C@_1O@NMHPGANE@?$AAz?$AAh?$AA?9?$AAc?$AAh?$AAt?$AA?$AA@ 0000000180031978     libucrt:lcidtoname_downlevel.obj
 0002:00006988       ??_C@_1M@LPINJOMC@?$AAz?$AAh?$AA?9?$AAc?$AAn?$AA?$AA@ 0000000180031988     libucrt:lcidtoname_downlevel.obj
 0002:00006998       ??_C@_1M@OCJEJODD@?$AAz?$AAh?$AA?9?$AAh?$AAk?$AA?$AA@ 0000000180031998     libucrt:lcidtoname_downlevel.obj
 0002:000069a8       ??_C@_1M@DNDLJINH@?$AAz?$AAh?$AA?9?$AAm?$AAo?$AA?$AA@ 00000001800319a8     libucrt:lcidtoname_downlevel.obj
 0002:000069b8       ??_C@_1M@MBFDNDND@?$AAz?$AAh?$AA?9?$AAs?$AAg?$AA?$AA@ 00000001800319b8     libucrt:lcidtoname_downlevel.obj
 0002:000069c8       ??_C@_1M@IMEPLEPE@?$AAz?$AAh?$AA?9?$AAt?$AAw?$AA?$AA@ 00000001800319c8     libucrt:lcidtoname_downlevel.obj
 0002:000069d8       ??_C@_1M@BBGHNHJP@?$AAz?$AAu?$AA?9?$AAz?$AAa?$AA?$AA@ 00000001800319d8     libucrt:lcidtoname_downlevel.obj
 0002:00006c40       __log10_256_lead           0000000180031c40     libucrt:log10_256_lead_tail_table.obj
 0002:00007450       __log10_256_tail           0000000180032450     libucrt:log10_256_lead_tail_table.obj
 0002:00007c60       __log_F_inv_qword          0000000180032c60     libucrt:log_f_inv_qword_table.obj
 0002:00008470       ??_C@_05HGHHAHAP@log10?$AA@ 0000000180033470     libucrt:log_special.obj
 0002:00008478       ??_C@_1BA@BALFACEM@?$AAC?$AAO?$AAN?$AAO?$AAU?$AAT?$AA$?$AA?$AA@ 0000000180033478     libucrt:initcon.obj
 0002:000084a0       ??_C@_0BC@BDKFLDHL@unknown?5exception?$AA@ 00000001800334a0     VError.obj
 0002:000084b4       ??_C@_02LMMGGCAJ@?3?5?$AA@ 00000001800334b4     VError.obj
 0002:000084b8       ??_C@_08LLGCOLLL@iostream?$AA@ 00000001800334b8     VError.obj
 0002:000084c8       ??_C@_0BG@PADBLCHM@iostream?5stream?5error?$AA@ 00000001800334c8     VError.obj
 0002:000084e0       ??_C@_0BF@PHHKMMFD@ios_base?3?3badbit?5set?$AA@ 00000001800334e0     VError.obj
 0002:000084f8       ??_C@_0BG@FMKFHCIL@ios_base?3?3failbit?5set?$AA@ 00000001800334f8     VError.obj
 0002:00008510       ??_C@_0BF@OOHOMBOF@ios_base?3?3eofbit?5set?$AA@ 0000000180033510     VError.obj
 0002:00008528       ??_C@_07CIFAGBMG@unknown?$AA@ 0000000180033528     VError.obj
 0002:00008530       ??_C@_0CO@MDKMFKKK@?$CBnew_vobject?5?$HM?$HM?5VIPS_IS_OBJECT?$CI?5@ 0000000180033530     VError.obj
 0002:00008560       ??_C@_0BH@GOCJPHDF@vips?3?3VObject?3?3VObject?$AA@ 0000000180033560     VError.obj
 0002:00008580       ??_C@_0FN@OHFDPMEA@c?3?2users?2dmitry?2desktop?23k?2?o?q?j?o?2@ 0000000180033580     VError.obj
 0002:000085e0       ??_C@_0BM@LENMHEAB@VIPS_IS_OBJECT?$CI?5a?4vobject?5?$CJ?$AA@ 00000001800335e0     VError.obj
 0002:00008600       ??_C@_0CG@IJKKON@?$CBvobject?5?$HM?$HM?5VIPS_IS_OBJECT?$CI?5vobj@ 0000000180033600     VError.obj
 0002:00008628       ??_C@_0BK@FEDAPFJC@vips?3?3VObject?3?3operator?5?$DN?$AA@ 0000000180033628     VError.obj
 0002:00008648       ??_C@_0CJ@JCMMCJOH@a?4vobject?5?$CG?$CG?5VIPS_IS_OBJECT?$CI?5a?4v@ 0000000180033648     VError.obj
 0002:00008678       ??_C@_0BI@LLDIPMFE@vips?3?3VObject?3?3?$HOVObject?$AA@ 0000000180033678     VError.obj
 0002:00008690       ??_C@_0BK@CFEFMCJG@vips?3?3VObject?3?3get_object?$AA@ 0000000180033690     VError.obj
 0002:000086b0       ??_C@_0BD@OLBABOEK@vector?$DMT?$DO?5too?5long?$AA@ 00000001800336b0     VError.obj
 0002:000086c8       ??_C@_0BA@JFNIOLAK@string?5too?5long?$AA@ 00000001800336c8     VError.obj
 0002:000086d8       ??_C@_0BI@CFPLBAOH@invalid?5string?5position?$AA@ 00000001800336d8     VError.obj
 0002:000086f0       ??_C@_0BB@MOGOBHAF@list?$DMT?$DO?5too?5long?$AA@ 00000001800336f0     VError.obj
 0002:00008708       ??_7error_category@std@@6B@ 0000000180033708     VError.obj
 0002:00008738       ??_7_Iostream_error_category@std@@6B@ 0000000180033738     VError.obj
 0002:00008768       ??_7VError@vips@@6B@       0000000180033768     VError.obj
 0002:00008780       ??_7exception@stdext@@6B@  0000000180033780     VError.obj
 0002:00008798       ??_7_System_error@std@@6B@ 0000000180033798     VError.obj
 0002:00008798       ??_7failure@ios_base@std@@6B@ 0000000180033798     VError.obj
 0002:000087b0       ??_7VOption@vips@@6B@      00000001800337b0     VError.obj
 0002:000087b8       ??_C@_06FHFOAHML@system?$AA@ 00000001800337b8     VImage.obj
 0002:000087c0       ??_C@_02DKCKIIND@?$CFs?$AA@ 00000001800337c0     VImage.obj
 0002:000087c8       ??_C@_08BABJIOEM@filename?$AA@ 00000001800337c8     VImage.obj
 0002:000087d4       ??_C@_03KEJHNBPP@out?$AA@  00000001800337d4     VImage.obj
 0002:000087d8       ??_C@_06HOHPNJLC@buffer?$AA@ 00000001800337d8     VImage.obj
 0002:000087e0       ??_C@_05DPGGGHAJ@bands?$AA@ 00000001800337e0     VImage.obj
 0002:000087e8       ??_C@_06BPBOMFNI@extend?$AA@ 00000001800337e8     VImage.obj
 0002:000087f0       ??_C@_0P@KOMFEOGE@interpretation?$AA@ 00000001800337f0     VImage.obj
 0002:00008800       ??_C@_04HLEHOIAF@xres?$AA@ 0000000180033800     VImage.obj
 0002:00008808       ??_C@_04EGCHMBLF@yres?$AA@ 0000000180033808     VImage.obj
 0002:00008810       ??_C@_07CMIMECFO@xoffset?$AA@ 0000000180033810     VImage.obj
 0002:00008818       ??_C@_07OACGECMA@yoffset?$AA@ 0000000180033818     VImage.obj
 0002:00008820       ??_C@_02LMMGJAGL@in?$AA@   0000000180033820     VImage.obj
 0002:00008828       ??_C@_0L@EDHHNDAB@cmd?9format?$AA@ 0000000180033828     VImage.obj
 0002:00008834       ??_C@_04GOOOJOPP@left?$AA@ 0000000180033834     VImage.obj
 0002:0000883c       ??_C@_05DHJDAOHK@right?$AA@ 000000018003383c     VImage.obj
 0002:00008844       ??_C@_03BDGOHNNK@add?$AA@  0000000180033844     VImage.obj
 0002:00008848       ??_C@_08LJLIHDOM@subtract?$AA@ 0000000180033848     VImage.obj
 0002:00008858       ??_C@_08MMOCDOEL@multiply?$AA@ 0000000180033858     VImage.obj
 0002:00008864       ??_C@_06FFHJEHBN@divide?$AA@ 0000000180033864     VImage.obj
 0002:00008870       ??_C@_0L@NEPEPHDK@relational?$AA@ 0000000180033870     VImage.obj
 0002:00008880       ??_C@_09HALKBBKJ@remainder?$AA@ 0000000180033880     VImage.obj
 0002:00008890       ??_C@_07GOBOHMJA@boolean?$AA@ 0000000180033890     VImage.obj
 0002:00008898       ??_C@_05BBOMOFAH@math2?$AA@ 0000000180033898     VImage.obj
 0002:000088a0       ??_C@_05GMOLPBHC@cmplx?$AA@ 00000001800338a0     VImage.obj
 0002:000088a8       ??_C@_08HDDIDECH@complex2?$AA@ 00000001800338a8     VImage.obj
 0002:000088b8       ??_C@_0M@IHNKDMPF@complexform?$AA@ 00000001800338b8     VImage.obj
 0002:000088c4       ??_C@_03CFFIJAMA@sum?$AA@  00000001800338c4     VImage.obj
 0002:000088c8       ??_C@_06CIAPFFAP@invert?$AA@ 00000001800338c8     VImage.obj
 0002:000088d0       ??_C@_01MCMALHOG@a?$AA@    00000001800338d0     VImage.obj
 0002:000088d4       ??_C@_01OJONOECF@b?$AA@    00000001800338d4     VImage.obj
 0002:000088d8       ??_C@_06HPJICMPM@linear?$AA@ 00000001800338d8     VImage.obj
 0002:000088e0       ??_C@_04CFDJAKFL@math?$AA@ 00000001800338e0     VImage.obj
 0002:000088e8       ??_C@_03BCGAIFPO@abs?$AA@  00000001800338e8     VImage.obj
 0002:000088ec       ??_C@_04HHGHLBPI@sign?$AA@ 00000001800338ec     VImage.obj
 0002:000088f4       ??_C@_05MIMAKCN@round?$AA@ 00000001800338f4     VImage.obj
 0002:000088fc       ??_C@_01PAPGNFGE@c?$AA@    00000001800338fc     VImage.obj
 0002:00008900       ??_C@_0BB@FKPDFKGH@relational_const?$AA@ 0000000180033900     VImage.obj
 0002:00008918       ??_C@_0BA@MDCPNGEH@remainder_const?$AA@ 0000000180033918     VImage.obj
 0002:00008928       ??_C@_0O@FFEJDDPG@boolean_const?$AA@ 0000000180033928     VImage.obj
 0002:00008938       ??_C@_0M@PKPOKBCN@math2_const?$AA@ 0000000180033938     VImage.obj
 0002:00008948       ??_C@_07CMPFPFAH@complex?$AA@ 0000000180033948     VImage.obj
 0002:00008950       ??_C@_03HNAFFKGA@get?$AA@  0000000180033950     VImage.obj
 0002:00008958       ??_C@_0L@CONHPEB@complexget?$AA@ 0000000180033958     VImage.obj
 0002:00008964       ??_C@_03CHOBFJAH@avg?$AA@  0000000180033964     VImage.obj
 0002:00008968       ??_C@_03KLIPLJLL@min?$AA@  0000000180033968     VImage.obj
 0002:0000896c       ??_C@_03LJAEFNNE@max?$AA@  000000018003396c     VImage.obj
 0002:00008970       ??_C@_07JGEDNJHN@deviate?$AA@ 0000000180033970     VImage.obj
 0002:00008978       ??_C@_05BLKJBNOD@stats?$AA@ 0000000180033978     VImage.obj
 0002:00008980       ??_C@_09PKCBEOHG@hist_find?$AA@ 0000000180033980     VImage.obj
 0002:00008990       ??_C@_0P@CCEOOJJO@hist_find_ndim?$AA@ 0000000180033990     VImage.obj
 0002:000089a0       ??_C@_05FKHKFDID@index?$AA@ 00000001800339a0     VImage.obj
 0002:000089a8       ??_C@_0BC@CKAIJALJ@hist_find_indexed?$AA@ 00000001800339a8     VImage.obj
 0002:000089c0       ??_C@_0L@DLDHKKAG@hough_line?$AA@ 00000001800339c0     VImage.obj
 0002:000089d0       ??_C@_0N@EPCNCOFH@hough_circle?$AA@ 00000001800339d0     VImage.obj
 0002:000089e0       ??_C@_07HIFEPIJN@columns?$AA@ 00000001800339e0     VImage.obj
 0002:000089e8       ??_C@_04IMCGAIPI@rows?$AA@ 00000001800339e8     VImage.obj
 0002:000089f0       ??_C@_07GKGAGMNN@project?$AA@ 00000001800339f0     VImage.obj
 0002:000089f8       ??_C@_07LNMDFKEJ@profile?$AA@ 00000001800339f8     VImage.obj
 0002:00008a00       ??_C@_01BDACAMKP@h?$AA@    0000000180033a00     VImage.obj
 0002:00008a04       ??_C@_01MHEDDDHA@v?$AA@    0000000180033a04     VImage.obj
 0002:00008a08       ??_C@_07GGHJMDCM@measure?$AA@ 0000000180033a08     VImage.obj
 0002:00008a10       ??_C@_09DGLJONDH@out?9array?$AA@ 0000000180033a10     VImage.obj
 0002:00008a1c       ??_C@_01FJMABOPO@x?$AA@    0000000180033a1c     VImage.obj
 0002:00008a20       ??_C@_01EANLCPLP@y?$AA@    0000000180033a20     VImage.obj
 0002:00008a28       ??_C@_08POKMFCNH@getpoint?$AA@ 0000000180033a28     VImage.obj
 0002:00008a34       ??_C@_04COAGEIMF@copy?$AA@ 0000000180033a34     VImage.obj
 0002:00008a40       ??_C@_09BADCCNLM@tilecache?$AA@ 0000000180033a40     VImage.obj
 0002:00008a50       ??_C@_09GGGOOLNN@linecache?$AA@ 0000000180033a50     VImage.obj
 0002:00008a60       ??_C@_0L@OGEPILOF@sequential?$AA@ 0000000180033a60     VImage.obj
 0002:00008a6c       ??_C@_05BDNCCAMC@cache?$AA@ 0000000180033a6c     VImage.obj
 0002:00008a74       ??_C@_05IGKADHGO@width?$AA@ 0000000180033a74     VImage.obj
 0002:00008a7c       ??_C@_06LNLHEAAG@height?$AA@ 0000000180033a7c     VImage.obj
 0002:00008a84       ??_C@_05KJAEOLKJ@embed?$AA@ 0000000180033a84     VImage.obj
 0002:00008a90       ??_C@_09HPKLLIJF@direction?$AA@ 0000000180033a90     VImage.obj
 0002:00008a9c       ??_C@_04DGGGELON@flip?$AA@ 0000000180033a9c     VImage.obj
 0002:00008aa4       ??_C@_04GHJNJNPO@main?$AA@ 0000000180033aa4     VImage.obj
 0002:00008aac       ??_C@_03KCMAIMAP@sub?$AA@  0000000180033aac     VImage.obj
 0002:00008ab0       ??_C@_06OAOPNKHP@insert?$AA@ 0000000180033ab0     VImage.obj
 0002:00008ab8       ??_C@_03BMIBHJPC@in1?$AA@  0000000180033ab8     VImage.obj
 0002:00008abc       ??_C@_03DHKMCKDB@in2?$AA@  0000000180033abc     VImage.obj
 0002:00008ac0       ??_C@_04DFGCDGNN@join?$AA@ 0000000180033ac0     VImage.obj
 0002:00008ac8       ??_C@_09BPCDKABO@arrayjoin?$AA@ 0000000180033ac8     VImage.obj
 0002:00008ad4       ??_C@_05DFJCHPDH@input?$AA@ 0000000180033ad4     VImage.obj
 0002:00008adc       ??_C@_03FGFCOCMD@top?$AA@  0000000180033adc     VImage.obj
 0002:00008ae0       ??_C@_0N@NKELEKIM@extract_area?$AA@ 0000000180033ae0     VImage.obj
 0002:00008af0       ??_C@_09CIDCHBHA@smartcrop?$AA@ 0000000180033af0     VImage.obj
 0002:00008afc       ??_C@_04BKGNPECA@band?$AA@ 0000000180033afc     VImage.obj
 0002:00008b08       ??_C@_0N@KOGFNDIJ@extract_band?$AA@ 0000000180033b08     VImage.obj
 0002:00008b18       ??_C@_08DDHBKGJN@bandjoin?$AA@ 0000000180033b18     VImage.obj
 0002:00008b28       ??_C@_0P@CNLDBNGG@bandjoin_const?$AA@ 0000000180033b28     VImage.obj
 0002:00008b38       ??_C@_08PLAGOPCN@bandrank?$AA@ 0000000180033b38     VImage.obj
 0002:00008b48       ??_C@_08OAPPMLFB@bandmean?$AA@ 0000000180033b48     VImage.obj
 0002:00008b58       ??_C@_08DFLKPDGM@bandbool?$AA@ 0000000180033b58     VImage.obj
 0002:00008b64       ??_C@_06HDMALCOC@across?$AA@ 0000000180033b64     VImage.obj
 0002:00008b6c       ??_C@_04JMOKAGMG@down?$AA@ 0000000180033b6c     VImage.obj
 0002:00008b78       ??_C@_09CBPKCNMB@replicate?$AA@ 0000000180033b78     VImage.obj
 0002:00008b84       ??_C@_06DLEPGFEF@format?$AA@ 0000000180033b84     VImage.obj
 0002:00008b8c       ??_C@_04HJDBPPOC@cast?$AA@ 0000000180033b8c     VImage.obj
 0002:00008b94       ??_C@_05FECBCJJD@angle?$AA@ 0000000180033b94     VImage.obj
 0002:00008b9c       ??_C@_03BHFFHIBL@rot?$AA@  0000000180033b9c     VImage.obj
 0002:00008ba0       ??_C@_05HGLLKKDL@rot45?$AA@ 0000000180033ba0     VImage.obj
 0002:00008ba8       ??_C@_07HKPDIIIM@autorot?$AA@ 0000000180033ba8     VImage.obj
 0002:00008bb0       ??_C@_04MHNCKKKD@cond?$AA@ 0000000180033bb0     VImage.obj
 0002:00008bb8       ??_C@_0L@EIDGEPEL@ifthenelse?$AA@ 0000000180033bb8     VImage.obj
 0002:00008bc4       ??_C@_01GOHFPIOK@m?$AA@    0000000180033bc4     VImage.obj
 0002:00008bc8       ??_C@_06OLEOMEPE@recomb?$AA@ 0000000180033bc8     VImage.obj
 0002:00008bd0       ??_C@_08KKFGBPN@bandfold?$AA@ 0000000180033bd0     VImage.obj
 0002:00008be0       ??_C@_0L@NLCAJCCK@bandunfold?$AA@ 0000000180033be0     VImage.obj
 0002:00008bf0       ??_C@_07FOIKENOC@flatten?$AA@ 0000000180033bf0     VImage.obj
 0002:00008bf8       ??_C@_0M@OEPEEJHI@premultiply?$AA@ 0000000180033bf8     VImage.obj
 0002:00008c08       ??_C@_0O@NEEDPNBG@unpremultiply?$AA@ 0000000180033c08     VImage.obj
 0002:00008c18       ??_C@_0M@OIIHBMLD@tile?9height?$AA@ 0000000180033c18     VImage.obj
 0002:00008c24       ??_C@_04JFGOJFKE@grid?$AA@ 0000000180033c24     VImage.obj
 0002:00008c2c       ??_C@_05MHMEBBGO@scale?$AA@ 0000000180033c2c     VImage.obj
 0002:00008c34       ??_C@_04NFDDIEML@wrap?$AA@ 0000000180033c34     VImage.obj
 0002:00008c3c       ??_C@_04OJPHJCEA@xfac?$AA@ 0000000180033c3c     VImage.obj
 0002:00008c44       ??_C@_04NEJHLLPA@yfac?$AA@ 0000000180033c44     VImage.obj
 0002:00008c4c       ??_C@_04HKCCIOCO@zoom?$AA@ 0000000180033c4c     VImage.obj
 0002:00008c58       ??_C@_09GEADCAMB@subsample?$AA@ 0000000180033c58     VImage.obj
 0002:00008c64       ??_C@_03BGILNABB@msb?$AA@  0000000180033c64     VImage.obj
 0002:00008c68       ??_C@_08LGNCHIMC@byteswap?$AA@ 0000000180033c68     VImage.obj
 0002:00008c78       ??_C@_0M@HLKJCLJA@falsecolour?$AA@ 0000000180033c78     VImage.obj
 0002:00008c84       ??_C@_05KDLBCAI@gamma?$AA@ 0000000180033c84     VImage.obj
 0002:00008c8c       ??_C@_05BIMBDNDC@black?$AA@ 0000000180033c8c     VImage.obj
 0002:00008c98       ??_C@_0L@LHFGAHGN@gaussnoise?$AA@ 0000000180033c98     VImage.obj
 0002:00008ca4       ??_C@_04CIMGMMMG@text?$AA@ 0000000180033ca4     VImage.obj
 0002:00008cac       ??_C@_03POMAGKDD@xyz?$AA@  0000000180033cac     VImage.obj
 0002:00008cb0       ??_C@_05MNLBPJCA@sigma?$AA@ 0000000180033cb0     VImage.obj
 0002:00008cb8       ??_C@_08OLGCCKLK@min?9ampl?$AA@ 0000000180033cb8     VImage.obj
 0002:00008cc8       ??_C@_08HLCLIPNO@gaussmat?$AA@ 0000000180033cc8     VImage.obj
 0002:00008cd4       ??_C@_06DHDPCCPJ@logmat?$AA@ 0000000180033cd4     VImage.obj
 0002:00008cdc       ??_C@_03JBOJOLOP@eye?$AA@  0000000180033cdc     VImage.obj
 0002:00008ce0       ??_C@_04GDBIAANM@grey?$AA@ 0000000180033ce0     VImage.obj
 0002:00008ce8       ??_C@_04LDDJGOBB@zone?$AA@ 0000000180033ce8     VImage.obj
 0002:00008cf0       ??_C@_05MGFOJHMB@sines?$AA@ 0000000180033cf0     VImage.obj
 0002:00008cf8       ??_C@_0BB@FMKOBFEN@frequency?9cutoff?$AA@ 0000000180033cf8     VImage.obj
 0002:00008d10       ??_C@_0L@GPMDCNFD@mask_ideal?$AA@ 0000000180033d10     VImage.obj
 0002:00008d20       ??_C@_09FNOEFMAD@ringwidth?$AA@ 0000000180033d20     VImage.obj
 0002:00008d30       ??_C@_0BA@MHGDHMH@mask_ideal_ring?$AA@ 0000000180033d30     VImage.obj
 0002:00008d40       ??_C@_0BD@PPHJKPEA@frequency?9cutoff?9x?$AA@ 0000000180033d40     VImage.obj
 0002:00008d58       ??_C@_0BD@OGGCJOAB@frequency?9cutoff?9y?$AA@ 0000000180033d58     VImage.obj
 0002:00008d6c       ??_C@_06KGHINEPG@radius?$AA@ 0000000180033d6c     VImage.obj
 0002:00008d78       ??_C@_0BA@ICAPNLGJ@mask_ideal_band?$AA@ 0000000180033d78     VImage.obj
 0002:00008d88       ??_C@_05NDNMCCJH@order?$AA@ 0000000180033d88     VImage.obj
 0002:00008d90       ??_C@_0BB@COKDAKHA@amplitude?9cutoff?$AA@ 0000000180033d90     VImage.obj
 0002:00008da8       ??_C@_0BB@PCPOEAAM@mask_butterworth?$AA@ 0000000180033da8     VImage.obj
 0002:00008dc0       ??_C@_0BG@JHCFMCJH@mask_butterworth_ring?$AA@ 0000000180033dc0     VImage.obj
 0002:00008dd8       ??_C@_0BG@BJFMCODJ@mask_butterworth_band?$AA@ 0000000180033dd8     VImage.obj
 0002:00008df0       ??_C@_0O@PDKKOMCP@mask_gaussian?$AA@ 0000000180033df0     VImage.obj
 0002:00008e00       ??_C@_0BD@GEFHIGND@mask_gaussian_ring?$AA@ 0000000180033e00     VImage.obj
 0002:00008e18       ??_C@_0BD@OKCOGKHN@mask_gaussian_band?$AA@ 0000000180033e18     VImage.obj
 0002:00008e30       ??_C@_0BC@INLMDGNG@fractal?9dimension?$AA@ 0000000180033e30     VImage.obj
 0002:00008e48       ??_C@_0N@PNMGGNMD@mask_fractal?$AA@ 0000000180033e48     VImage.obj
 0002:00008e58       ??_C@_08OKOAJEOP@buildlut?$AA@ 0000000180033e58     VImage.obj
 0002:00008e68       ??_C@_09DELGKNGH@invertlut?$AA@ 0000000180033e68     VImage.obj
 0002:00008e78       ??_C@_07MEIMELBF@tonelut?$AA@ 0000000180033e78     VImage.obj
 0002:00008e80       ??_C@_08LBJOIDDC@identity?$AA@ 0000000180033e80     VImage.obj
 0002:00008e90       ??_C@_09KODEALMJ@fractsurf?$AA@ 0000000180033e90     VImage.obj
 0002:00008e9c       ??_C@_06PAPNEDML@worley?$AA@ 0000000180033e9c     VImage.obj
 0002:00008ea4       ??_C@_06JIFICDNB@perlin?$AA@ 0000000180033ea4     VImage.obj
 0002:00008eb0       ??_C@_07LDEBNBAJ@csvload?$AA@ 0000000180033eb0     VImage.obj
 0002:00008eb8       ??_C@_0L@PMHLAKGB@matrixload?$AA@ 0000000180033eb8     VImage.obj
 0002:00008ec8       ??_C@_07DIENLOPO@rawload?$AA@ 0000000180033ec8     VImage.obj
 0002:00008ed0       ??_C@_08EDDGDHHH@vipsload?$AA@ 0000000180033ed0     VImage.obj
 0002:00008ee0       ??_C@_0M@GFDAFAKN@analyzeload?$AA@ 0000000180033ee0     VImage.obj
 0002:00008ef0       ??_C@_07BJIMAPAE@ppmload?$AA@ 0000000180033ef0     VImage.obj
 0002:00008ef8       ??_C@_07LNAPMOML@radload?$AA@ 0000000180033ef8     VImage.obj
 0002:00008f00       ??_C@_07OANKEHBK@pdfload?$AA@ 0000000180033f00     VImage.obj
 0002:00008f08       ??_C@_0P@FECDMHMN@pdfload_buffer?$AA@ 0000000180033f08     VImage.obj
 0002:00008f18       ??_C@_07FFEIBOLL@svgload?$AA@ 0000000180033f18     VImage.obj
 0002:00008f20       ??_C@_0P@BPBEIMPA@svgload_buffer?$AA@ 0000000180033f20     VImage.obj
 0002:00008f30       ??_C@_07PHHDBOOI@gifload?$AA@ 0000000180033f30     VImage.obj
 0002:00008f38       ??_C@_0P@DMLKCHMD@gifload_buffer?$AA@ 0000000180033f38     VImage.obj
 0002:00008f48       ??_C@_07IPPGMLPB@pngload?$AA@ 0000000180033f48     VImage.obj
 0002:00008f50       ??_C@_0P@FLICMEND@pngload_buffer?$AA@ 0000000180033f50     VImage.obj
 0002:00008f60       ??_C@_07BLECOPNH@matload?$AA@ 0000000180033f60     VImage.obj
 0002:00008f68       ??_C@_08MHJHFPPG@jpegload?$AA@ 0000000180033f68     VImage.obj
 0002:00008f78       ??_C@_0BA@OCCAIACH@jpegload_buffer?$AA@ 0000000180033f78     VImage.obj
 0002:00008f88       ??_C@_08HFDHMJDC@webpload?$AA@ 0000000180033f88     VImage.obj
 0002:00008f98       ??_C@_0BA@NGBBNHGG@webpload_buffer?$AA@ 0000000180033f98     VImage.obj
 0002:00008fa8       ??_C@_08DKNFCFCN@tiffload?$AA@ 0000000180033fa8     VImage.obj
 0002:00008fb8       ??_C@_0BA@LHGCDMGM@tiffload_buffer?$AA@ 0000000180033fb8     VImage.obj
 0002:00008fc8       ??_C@_0O@MEOEBEEM@openslideload?$AA@ 0000000180033fc8     VImage.obj
 0002:00008fd8       ??_C@_0L@GJNFHGND@magickload?$AA@ 0000000180033fd8     VImage.obj
 0002:00008fe8       ??_C@_0BC@NAIBKHPN@magickload_buffer?$AA@ 0000000180033fe8     VImage.obj
 0002:00009000       ??_C@_08BLLJFBBF@fitsload?$AA@ 0000000180034000     VImage.obj
 0002:00009010       ??_C@_0M@PFMEODOM@openexrload?$AA@ 0000000180034010     VImage.obj
 0002:00009020       ??_C@_07LBFMCCNN@csvsave?$AA@ 0000000180034020     VImage.obj
 0002:00009028       ??_C@_0L@POGGPJLF@matrixsave?$AA@ 0000000180034028     VImage.obj
 0002:00009038       ??_C@_0M@FFFNKKNM@matrixprint?$AA@ 0000000180034038     VImage.obj
 0002:00009048       ??_C@_07DKFAENCK@rawsave?$AA@ 0000000180034048     VImage.obj
 0002:00009050       ??_C@_02ENHFDPNM@fd?$AA@   0000000180034050     VImage.obj
 0002:00009058       ??_C@_0L@MFMDKFHF@rawsave_fd?$AA@ 0000000180034058     VImage.obj
 0002:00009068       ??_C@_08EBCLMEKD@vipssave?$AA@ 0000000180034068     VImage.obj
 0002:00009078       ??_C@_07BLJBPMNA@ppmsave?$AA@ 0000000180034078     VImage.obj
 0002:00009080       ??_C@_07LPBCDNBP@radsave?$AA@ 0000000180034080     VImage.obj
 0002:00009088       ??_C@_0P@OGKJHKCD@radsave_buffer?$AA@ 0000000180034088     VImage.obj
 0002:00009098       ??_C@_06MCMNOHKJ@dzsave?$AA@ 0000000180034098     VImage.obj
 0002:000090a0       ??_C@_0O@IEFJKPDJ@dzsave_buffer?$AA@ 00000001800340a0     VImage.obj
 0002:000090b0       ??_C@_07INOLDICF@pngsave?$AA@ 00000001800340b0     VImage.obj
 0002:000090b8       ??_C@_0P@KFHBBDIK@pngsave_buffer?$AA@ 00000001800340b8     VImage.obj
 0002:000090c8       ??_C@_08MFIKKMCC@jpegsave?$AA@ 00000001800340c8     VImage.obj
 0002:000090d8       ??_C@_0BA@BMNDFHHO@jpegsave_buffer?$AA@ 00000001800340d8     VImage.obj
 0002:000090e8       ??_C@_0O@GEECBBEC@jpegsave_mime?$AA@ 00000001800340e8     VImage.obj
 0002:000090f8       ??_C@_08HHCKDKOG@webpsave?$AA@ 00000001800340f8     VImage.obj
 0002:00009108       ??_C@_0BA@CIOCAADP@webpsave_buffer?$AA@ 0000000180034108     VImage.obj
 0002:00009118       ??_C@_08DIMINGPJ@tiffsave?$AA@ 0000000180034118     VImage.obj
 0002:00009128       ??_C@_0BA@EJJBOLDF@tiffsave_buffer?$AA@ 0000000180034128     VImage.obj
 0002:00009138       ??_C@_08BJKEKCMB@fitssave?$AA@ 0000000180034138     VImage.obj
 0002:00009148       ??_C@_09GEFHAABJ@thumbnail?$AA@ 0000000180034148     VImage.obj
 0002:00009158       ??_C@_0BB@FMNLLCML@thumbnail_buffer?$AA@ 0000000180034158     VImage.obj
 0002:0000916c       ??_C@_05KCGPFJPM@mapim?$AA@ 000000018003416c     VImage.obj
 0002:00009178       ??_C@_07KBIIIDHJ@hshrink?$AA@ 0000000180034178     VImage.obj
 0002:00009180       ??_C@_07MILJKAGA@vshrink?$AA@ 0000000180034180     VImage.obj
 0002:00009188       ??_C@_06FKMIDIGA@shrink?$AA@ 0000000180034188     VImage.obj
 0002:00009190       ??_C@_07OAMMEIMP@shrinkh?$AA@ 0000000180034190     VImage.obj
 0002:00009198       ??_C@_07DEINHHBA@shrinkv?$AA@ 0000000180034198     VImage.obj
 0002:000091a0       ??_C@_07MFNKEHED@reduceh?$AA@ 00000001800341a0     VImage.obj
 0002:000091a8       ??_C@_07BBJLHIJM@reducev?$AA@ 00000001800341a8     VImage.obj
 0002:000091b0       ??_C@_06CDBFBENC@reduce?$AA@ 00000001800341b0     VImage.obj
 0002:000091b8       ??_C@_05KIDKLPLG@coeff?$AA@ 00000001800341b8     VImage.obj
 0002:000091c0       ??_C@_09NDEBDKFB@quadratic?$AA@ 00000001800341c0     VImage.obj
 0002:000091cc       ??_C@_06CGNOPMBC@matrix?$AA@ 00000001800341cc     VImage.obj
 0002:000091d4       ??_C@_06JLGAMIDL@affine?$AA@ 00000001800341d4     VImage.obj
 0002:000091e0       ??_C@_0L@FLEFHLED@similarity?$AA@ 00000001800341e0     VImage.obj
 0002:000091ec       ??_C@_06PIONCPJI@resize?$AA@ 00000001800341ec     VImage.obj
 0002:000091f4       ??_C@_05OLNILLAB@space?$AA@ 00000001800341f4     VImage.obj
 0002:00009200       ??_C@_0M@GKGJPELG@colourspace?$AA@ 0000000180034200     VImage.obj
 0002:00009210       ??_C@_07HKHDHCHO@Lab2XYZ?$AA@ 0000000180034210     VImage.obj
 0002:00009218       ??_C@_07BDLLOLEB@XYZ2Lab?$AA@ 0000000180034218     VImage.obj
 0002:00009220       ??_C@_07FJMJMAGB@Lab2LCh?$AA@ 0000000180034220     VImage.obj
 0002:00009228       ??_C@_07GBFGLBLG@LCh2Lab?$AA@ 0000000180034228     VImage.obj
 0002:00009230       ??_C@_07IEPNALIH@LCh2CMC?$AA@ 0000000180034230     VImage.obj
 0002:00009238       ??_C@_07EEAEFHLG@CMC2LCh?$AA@ 0000000180034238     VImage.obj
 0002:00009240       ??_C@_07MOLNBPIJ@XYZ2Yxy?$AA@ 0000000180034240     VImage.obj
 0002:00009248       ??_C@_07NFHPGGHE@Yxy2XYZ?$AA@ 0000000180034248     VImage.obj
 0002:00009250       ??_C@_09EGLLGMBC@scRGB2XYZ?$AA@ 0000000180034250     VImage.obj
 0002:00009260       ??_C@_09BGOHPOHE@XYZ2scRGB?$AA@ 0000000180034260     VImage.obj
 0002:00009270       ??_C@_08PCBHJJKI@LabQ2Lab?$AA@ 0000000180034270     VImage.obj
 0002:00009280       ??_C@_08JOOABGHI@Lab2LabQ?$AA@ 0000000180034280     VImage.obj
 0002:00009290       ??_C@_09EJGJDCNE@LabQ2LabS?$AA@ 0000000180034290     VImage.obj
 0002:000092a0       ??_C@_09OMMAEBHP@LabS2LabQ?$AA@ 00000001800342a0     VImage.obj
 0002:000092b0       ??_C@_08LPNPDIKD@LabS2Lab?$AA@ 00000001800342b0     VImage.obj
 0002:000092c0       ??_C@_08KMNGHEPK@Lab2LabS?$AA@ 00000001800342c0     VImage.obj
 0002:000092d0       ??_C@_09CNOAMBEK@rad2float?$AA@ 00000001800342d0     VImage.obj
 0002:000092e0       ??_C@_09JMDBKHNK@float2rad?$AA@ 00000001800342e0     VImage.obj
 0002:000092f0       ??_C@_09OFNJONNH@LabQ2sRGB?$AA@ 00000001800342f0     VImage.obj
 0002:00009300       ??_C@_08DLNPBGF@sRGB2HSV?$AA@ 0000000180034300     VImage.obj
 0002:00009310       ??_C@_08MGEOCPLE@HSV2sRGB?$AA@ 0000000180034310     VImage.obj
 0002:00009320       ??_C@_0L@EACMBHDC@icc_import?$AA@ 0000000180034320     VImage.obj
 0002:00009330       ??_C@_0L@NEJHOOGO@icc_export?$AA@ 0000000180034330     VImage.obj
 0002:00009340       ??_C@_0P@CKCGPENA@output?9profile?$AA@ 0000000180034340     VImage.obj
 0002:00009350       ??_C@_0O@JCOEDNPE@icc_transform?$AA@ 0000000180034350     VImage.obj
 0002:00009360       ??_C@_04FBJNBDAA@dE76?$AA@ 0000000180034360     VImage.obj
 0002:00009368       ??_C@_04CIIKCAD@dE00?$AA@  0000000180034368     VImage.obj
 0002:00009370       ??_C@_05GHPMDBKP@dECMC?$AA@ 0000000180034370     VImage.obj
 0002:00009378       ??_C@_0L@CFFEDAKI@sRGB2scRGB?$AA@ 0000000180034378     VImage.obj
 0002:00009388       ??_C@_08NGFONIGN@scRGB2BW?$AA@ 0000000180034388     VImage.obj
 0002:00009398       ??_C@_0L@EEFOEOJE@scRGB2sRGB?$AA@ 0000000180034398     VImage.obj
 0002:000093a4       ??_C@_03LGCCHOBB@lut?$AA@  00000001800343a4     VImage.obj
 0002:000093a8       ??_C@_06NKBBGPGG@maplut?$AA@ 00000001800343a8     VImage.obj
 0002:000093b0       ??_C@_07HCJJCOPK@percent?$AA@ 00000001800343b0     VImage.obj
 0002:000093b8       ??_C@_09DEHKFMCJ@threshold?$AA@ 00000001800343b8     VImage.obj
 0002:000093c4       ??_C@_05PDMDLOG@stdif?$AA@ 00000001800343c4     VImage.obj
 0002:000093d0       ??_C@_08GNGDEJLK@hist_cum?$AA@ 00000001800343d0     VImage.obj
 0002:000093dc       ??_C@_03GCDGINBO@ref?$AA@  00000001800343dc     VImage.obj
 0002:000093e0       ??_C@_0L@HEOEAOJE@hist_match?$AA@ 00000001800343e0     VImage.obj
 0002:000093f0       ??_C@_09CLMELLDG@hist_norm?$AA@ 00000001800343f0     VImage.obj
 0002:00009400       ??_C@_0L@CHADGNHE@hist_equal?$AA@ 0000000180034400     VImage.obj
 0002:00009410       ??_C@_09GJFPKEAA@hist_plot?$AA@ 0000000180034410     VImage.obj
 0002:00009420       ??_C@_0L@KKKOBNBM@hist_local?$AA@ 0000000180034420     VImage.obj
 0002:00009430       ??_C@_09FKNHDPAJ@monotonic?$AA@ 0000000180034430     VImage.obj
 0002:00009440       ??_C@_0BB@BJFODBKP@hist_ismonotonic?$AA@ 0000000180034440     VImage.obj
 0002:00009458       ??_C@_0N@LNGDFBMF@hist_entropy?$AA@ 0000000180034458     VImage.obj
 0002:00009468       ??_C@_04LFLEPBN@mask?$AA@  0000000180034468     VImage.obj
 0002:00009470       ??_C@_04LPCGNKHA@conv?$AA@ 0000000180034470     VImage.obj
 0002:00009478       ??_C@_05CMFMANAA@conva?$AA@ 0000000180034478     VImage.obj
 0002:00009480       ??_C@_05GDBNJLMH@convf?$AA@ 0000000180034480     VImage.obj
 0002:00009488       ??_C@_05OEIFIHAI@convi?$AA@ 0000000180034488     VImage.obj
 0002:00009490       ??_C@_07CFMACLND@compass?$AA@ 0000000180034490     VImage.obj
 0002:00009498       ??_C@_07OFICLPMI@convsep?$AA@ 0000000180034498     VImage.obj
 0002:000094a0       ??_C@_08MPNKBMPB@convasep?$AA@ 00000001800344a0     VImage.obj
 0002:000094b0       ??_C@_07FHGNDIBP@fastcor?$AA@ 00000001800344b0     VImage.obj
 0002:000094b8       ??_C@_05ENEIAOHI@spcor?$AA@ 00000001800344b8     VImage.obj
 0002:000094c0       ??_C@_07JOLMDEEJ@sharpen?$AA@ 00000001800344c0     VImage.obj
 0002:000094c8       ??_C@_09NOBOKBD@gaussblur?$AA@ 00000001800344c8     VImage.obj
 0002:000094d4       ??_C@_05MCCGCNHL@fwfft?$AA@ 00000001800344d4     VImage.obj
 0002:000094dc       ??_C@_06CBJFPBEN@invfft?$AA@ 00000001800344dc     VImage.obj
 0002:000094e8       ??_C@_08PGNHFFFA@freqmult?$AA@ 00000001800344e8     VImage.obj
 0002:000094f8       ??_C@_08GEGLAKCO@spectrum?$AA@ 00000001800344f8     VImage.obj
 0002:00009508       ??_C@_08GMOPJMAN@phasecor?$AA@ 0000000180034508     VImage.obj
 0002:00009514       ??_C@_05NJNGEDKM@morph?$AA@ 0000000180034514     VImage.obj
 0002:0000951c       ??_C@_04PNBFHPGN@rank?$AA@ 000000018003451c     VImage.obj
 0002:00009528       ??_C@_07FIKBNHMA@nolines?$AA@ 0000000180034528     VImage.obj
 0002:00009530       ??_C@_0L@GADDFICP@countlines?$AA@ 0000000180034530     VImage.obj
 0002:00009540       ??_C@_0N@MBCCJMPJ@labelregions?$AA@ 0000000180034540     VImage.obj
 0002:00009550       ??_C@_05NGOMGBBD@image?$AA@ 0000000180034550     VImage.obj
 0002:00009558       ??_C@_03FMNFMMCM@ink?$AA@  0000000180034558     VImage.obj
 0002:00009560       ??_C@_09FMFCFBGH@draw_rect?$AA@ 0000000180034560     VImage.obj
 0002:00009570       ??_C@_09OAPMGLIN@draw_mask?$AA@ 0000000180034570     VImage.obj
 0002:0000957c       ??_C@_02JMABBILH@x1?$AA@   000000018003457c     VImage.obj
 0002:00009580       ??_C@_02JNMDHCIA@y1?$AA@   0000000180034580     VImage.obj
 0002:00009584       ??_C@_02LHCMELHE@x2?$AA@   0000000180034584     VImage.obj
 0002:00009588       ??_C@_02LGOOCBED@y2?$AA@   0000000180034588     VImage.obj
 0002:00009590       ??_C@_09JCFFHHHP@draw_line?$AA@ 0000000180034590     VImage.obj
 0002:0000959c       ??_C@_02KNMJKAGK@cx?$AA@   000000018003459c     VImage.obj
 0002:000095a0       ??_C@_02LENCJBCL@cy?$AA@   00000001800345a0     VImage.obj
 0002:000095a8       ??_C@_0M@EJLCOLOD@draw_circle?$AA@ 00000001800345a8     VImage.obj
 0002:000095b8       ??_C@_0L@BNOJNJNM@draw_flood?$AA@ 00000001800345b8     VImage.obj
 0002:000095c8       ??_C@_0L@CGAIFFHD@draw_image?$AA@ 00000001800345c8     VImage.obj
 0002:000095d8       ??_C@_0M@JGFPDOHD@draw_smudge?$AA@ 00000001800345d8     VImage.obj
 0002:000095e4       ??_C@_03KHPNBODO@sec?$AA@  00000001800345e4     VImage.obj
 0002:000095e8       ??_C@_02KIIGLGOP@dx?$AA@   00000001800345e8     VImage.obj
 0002:000095ec       ??_C@_02LBJNIHKO@dy?$AA@   00000001800345ec     VImage.obj
 0002:000095f0       ??_C@_05DPKBJALF@merge?$AA@ 00000001800345f0     VImage.obj
 0002:000095f8       ??_C@_04EMPCAOBB@xref?$AA@ 00000001800345f8     VImage.obj
 0002:00009600       ??_C@_04HBJCCHKB@yref?$AA@ 0000000180034600     VImage.obj
 0002:00009608       ??_C@_04IJDJJNDB@xsec?$AA@ 0000000180034608     VImage.obj
 0002:00009610       ??_C@_04LEFJLEIB@ysec?$AA@ 0000000180034610     VImage.obj
 0002:00009618       ??_C@_06EFGOHCJJ@mosaic?$AA@ 0000000180034618     VImage.obj
 0002:00009620       ??_C@_03OBBIBDBM@xr1?$AA@  0000000180034620     VImage.obj
 0002:00009624       ??_C@_03FJKEHEHJ@yr1?$AA@  0000000180034624     VImage.obj
 0002:00009628       ??_C@_03OANKHJCL@xs1?$AA@  0000000180034628     VImage.obj
 0002:0000962c       ??_C@_03FIGGBOEO@ys1?$AA@  000000018003462c     VImage.obj
 0002:00009630       ??_C@_03MKDFEANP@xr2?$AA@  0000000180034630     VImage.obj
 0002:00009634       ??_C@_03HCIJCHLK@yr2?$AA@  0000000180034634     VImage.obj
 0002:00009638       ??_C@_03MLPHCKOI@xs2?$AA@  0000000180034638     VImage.obj
 0002:0000963c       ??_C@_03HDELENIN@ys2?$AA@  000000018003463c     VImage.obj
 0002:00009640       ??_C@_07EPMLECCA@mosaic1?$AA@ 0000000180034640     VImage.obj
 0002:00009648       ??_C@_05FNONLPDI@match?$AA@ 0000000180034648     VImage.obj
 0002:00009650       ??_C@_0O@GIJIBKOK@globalbalance?$AA@ 0000000180034650     VImage.obj
 0002:00009bd8       __real@3ff0000000000000    0000000180034bd8     VImage.obj
 0002:00009be0       __real@bff0000000000000    0000000180034be0     VImage.obj
 0002:00009bf0       __xmm@80000000000000008000000000000000 0000000180034bf0     VImage.obj
 0002:0000cdf0       _load_config_used          0000000180037df0     LIBCMT:loadcfg.obj
 0002:0000ce88       _tls_used                  0000000180037e88     LIBCMT:tlssup.obj
 0002:0000ceb0       ??_R4exception@std@@6B@    0000000180037eb0     libcpmt:xthrow.obj
 0002:0000ced8       ??_R3exception@std@@8      0000000180037ed8     libcpmt:xthrow.obj
 0002:0000cef0       ??_R2exception@std@@8      0000000180037ef0     libcpmt:xthrow.obj
 0002:0000cf00       ??_R1A@?0A@EA@exception@std@@8 0000000180037f00     libcpmt:xthrow.obj
 0002:0000cf28       ??_R4bad_alloc@std@@6B@    0000000180037f28     libcpmt:xthrow.obj
 0002:0000cf50       ??_R3bad_alloc@std@@8      0000000180037f50     libcpmt:xthrow.obj
 0002:0000cf68       ??_R2bad_alloc@std@@8      0000000180037f68     libcpmt:xthrow.obj
 0002:0000cf80       ??_R1A@?0A@EA@bad_alloc@std@@8 0000000180037f80     libcpmt:xthrow.obj
 0002:0000cfa8       ??_R4logic_error@std@@6B@  0000000180037fa8     libcpmt:xthrow.obj
 0002:0000cfd0       ??_R3logic_error@std@@8    0000000180037fd0     libcpmt:xthrow.obj
 0002:0000cfe8       ??_R2logic_error@std@@8    0000000180037fe8     libcpmt:xthrow.obj
 0002:0000d000       ??_R1A@?0A@EA@logic_error@std@@8 0000000180038000     libcpmt:xthrow.obj
 0002:0000d028       ??_R4length_error@std@@6B@ 0000000180038028     libcpmt:xthrow.obj
 0002:0000d050       ??_R3length_error@std@@8   0000000180038050     libcpmt:xthrow.obj
 0002:0000d068       ??_R2length_error@std@@8   0000000180038068     libcpmt:xthrow.obj
 0002:0000d088       ??_R1A@?0A@EA@length_error@std@@8 0000000180038088     libcpmt:xthrow.obj
 0002:0000d0b0       ??_R4out_of_range@std@@6B@ 00000001800380b0     libcpmt:xthrow.obj
 0002:0000d0d8       ??_R3out_of_range@std@@8   00000001800380d8     libcpmt:xthrow.obj
 0002:0000d0f0       ??_R2out_of_range@std@@8   00000001800380f0     libcpmt:xthrow.obj
 0002:0000d110       ??_R1A@?0A@EA@out_of_range@std@@8 0000000180038110     libcpmt:xthrow.obj
 0002:0000d138       ??_R4runtime_error@std@@6B@ 0000000180038138     libcpmt:xthrow.obj
 0002:0000d160       ??_R3runtime_error@std@@8  0000000180038160     libcpmt:xthrow.obj
 0002:0000d178       ??_R2runtime_error@std@@8  0000000180038178     libcpmt:xthrow.obj
 0002:0000d190       ??_R1A@?0A@EA@runtime_error@std@@8 0000000180038190     libcpmt:xthrow.obj
 0002:0000d1b8       ??_R4type_info@@6B@        00000001800381b8     LIBCMT:std_type_info_static.obj
 0002:0000d1e0       ??_R3type_info@@8          00000001800381e0     LIBCMT:std_type_info_static.obj
 0002:0000d1f8       ??_R2type_info@@8          00000001800381f8     LIBCMT:std_type_info_static.obj
 0002:0000d208       ??_R1A@?0A@EA@type_info@@8 0000000180038208     LIBCMT:std_type_info_static.obj
 0002:0000d230       ??_R4bad_array_new_length@std@@6B@ 0000000180038230     LIBCMT:throw_bad_alloc.obj
 0002:0000d258       ??_R3bad_array_new_length@std@@8 0000000180038258     LIBCMT:throw_bad_alloc.obj
 0002:0000d270       ??_R2bad_array_new_length@std@@8 0000000180038270     LIBCMT:throw_bad_alloc.obj
 0002:0000d290       ??_R1A@?0A@EA@bad_array_new_length@std@@8 0000000180038290     LIBCMT:throw_bad_alloc.obj
 0002:0000d2b8       ??_R4bad_exception@std@@6B@ 00000001800382b8     libvcruntime:frame.obj
 0002:0000d2e0       ??_R3bad_exception@std@@8  00000001800382e0     libvcruntime:frame.obj
 0002:0000d2f8       ??_R2bad_exception@std@@8  00000001800382f8     libvcruntime:frame.obj
 0002:0000d310       ??_R1A@?0A@EA@bad_exception@std@@8 0000000180038310     libvcruntime:frame.obj
 0002:0000d748       __rtc_iaa                  0000000180038748     LIBCMT:_initsect_.obj
 0002:0000d750       __rtc_izz                  0000000180038750     LIBCMT:_initsect_.obj
 0002:0000d758       __rtc_taa                  0000000180038758     LIBCMT:_initsect_.obj
 0002:0000d760       __rtc_tzz                  0000000180038760     LIBCMT:_initsect_.obj
 0002:00013348       _TI2?AVbad_alloc@std@@     000000018003e348     libcpmt:xthrow.obj
 0002:00013368       _CTA2?AVbad_alloc@std@@    000000018003e368     libcpmt:xthrow.obj
 0002:00013380       _CT??_R0?AVbad_alloc@std@@@8??0bad_alloc@std@@QEAA@AEBV01@@Z24 000000018003e380     libcpmt:xthrow.obj
 0002:000133a8       _CT??_R0?AVexception@std@@@8??0exception@std@@QEAA@AEBV01@@Z24 000000018003e3a8     libcpmt:xthrow.obj
 0002:000133d0       _CT??_R0?AVlogic_error@std@@@8??0logic_error@std@@QEAA@AEBV01@@Z24 000000018003e3d0     libcpmt:xthrow.obj
 0002:000133f8       _TI3?AVlength_error@std@@  000000018003e3f8     libcpmt:xthrow.obj
 0002:00013418       _CTA3?AVlength_error@std@@ 000000018003e418     libcpmt:xthrow.obj
 0002:00013438       _CT??_R0?AVlength_error@std@@@8??0length_error@std@@QEAA@AEBV01@@Z24 000000018003e438     libcpmt:xthrow.obj
 0002:00013460       _TI3?AVout_of_range@std@@  000000018003e460     libcpmt:xthrow.obj
 0002:00013480       _CTA3?AVout_of_range@std@@ 000000018003e480     libcpmt:xthrow.obj
 0002:000134a0       _CT??_R0?AVout_of_range@std@@@8??0out_of_range@std@@QEAA@AEBV01@@Z24 000000018003e4a0     libcpmt:xthrow.obj
 0002:000134c8       _TI3?AVbad_array_new_length@std@@ 000000018003e4c8     LIBCMT:throw_bad_alloc.obj
 0002:000134e8       _CTA3?AVbad_array_new_length@std@@ 000000018003e4e8     LIBCMT:throw_bad_alloc.obj
 0002:00013508       _CT??_R0?AVbad_array_new_length@std@@@8??0bad_array_new_length@std@@QEAA@AEBV01@@Z24 000000018003e508     LIBCMT:throw_bad_alloc.obj
 0002:00013530       _TI2?AVbad_exception@std@@ 000000018003e530     libvcruntime:frame.obj
 0002:00013550       _CTA2?AVbad_exception@std@@ 000000018003e550     libvcruntime:frame.obj
 0002:00013568       _CT??_R0?AVbad_exception@std@@@8??0bad_exception@std@@QEAA@AEBV01@@Z24 000000018003e568     libvcruntime:frame.obj
 0002:00013590       _CTA2?AVVError@vips@@      000000018003e590     VError.obj
 0002:000135a8       _CT??_R0?AVVError@vips@@@848 000000018003e5a8     VError.obj
 0002:000135d0       _TI2?AVVError@vips@@       000000018003e5d0     VError.obj
 0002:000135f0       _CT??_R0?AVexception@stdext@@@816 000000018003e5f0     VError.obj
 0002:0001ac00       __IMPORT_DESCRIPTOR_KERNEL32 0000000180045c00     kernel32:KERNEL32.dll
 0002:0001ac14       _head_lib_libvips_lib      0000000180045c14     libvips:ddcih.o
 0002:0001ac28       _head_lib_libglib_2_0_lib  0000000180045c28     libglib-2.0:dxyhh.o
 0002:0001ac3c       _head_lib_libgobject_2_0_lib 0000000180045c3c     libgobject-2.0:dhzhh.o
 0002:0001ac50       __NULL_IMPORT_DESCRIPTOR   0000000180045c50     kernel32:KERNEL32.dll
 0002:0001bf00       __lib_libvips_lib_iname    0000000180046f00     libvips:ddcit.o
 0002:0001bf18       __lib_libglib_2_0_lib_iname 0000000180046f18     libglib-2.0:dxyht.o
 0002:0001bf84       __lib_libgobject_2_0_lib_iname 0000000180046f84     libgobject-2.0:dhzht.o
 0003:00000000       _Init_global_epoch         0000000180047000     LIBCMT:thread_safe_statics.obj
 0003:00000004       __scrt_native_dllmain_reason 0000000180047004     LIBCMT:utility.obj
 0003:00000008       __security_cookie          0000000180047008     LIBCMT:gs_cookie.obj
 0003:00000010       __security_cookie_complement 0000000180047010     LIBCMT:gs_cookie.obj
 0003:00000018       __isa_available            0000000180047018     LIBCMT:_cpu_disp_.obj
 0003:0000001c       __isa_enabled              000000018004701c     LIBCMT:_cpu_disp_.obj
 0003:00000020       __memcpy_nt_iters          0000000180047020     LIBCMT:_cpu_disp_.obj
 0003:00000040       __abort_behavior           0000000180047040     libucrt:abort.obj
 0003:00000050       __acrt_initial_locale_data 0000000180047050     libucrt:nlsdata.obj
 0003:000001a8       __acrt_initial_locale_pointers 00000001800471a8     libucrt:nlsdata.obj
 0003:000001b8       __acrt_wide_c_locale_string 00000001800471b8     libucrt:nlsdata.obj
 0003:000001c0       __acrt_initial_multibyte_data 00000001800471c0     libucrt:mbctype.obj
 0003:000003e8       __acrt_current_multibyte_data 00000001800473e8     libucrt:mbctype.obj
 0003:000004f0       _mbctype                   00000001800474f0     libucrt:mbctype.obj
 0003:00000600       _mbcasemap                 0000000180047600     libucrt:mbctype.obj
 0003:00000700       _iob                       0000000180047700     libucrt:_file.obj
 0003:00000808       __globallocalestatus       0000000180047808     libucrt:glstatus.obj
 0003:00000810       __acrt_lconv_c             0000000180047810     libucrt:localeconv.obj
 0003:000008a8       __acrt_lconv_static_decimal 00000001800478a8     libucrt:localeconv.obj
 0003:000008ac       __acrt_lconv_static_W_decimal 00000001800478ac     libucrt:localeconv.obj
 0003:000008b0       __dcrt_lowio_console_output_handle 00000001800478b0     libucrt:initcon.obj
 0003:000008d0       _fltused                   00000001800478d0     LIBCMT:fltused.obj
 0003:000008e0       ??_R0?AVbad_alloc@std@@@8  00000001800478e0     libcpmt:xthrow.obj
 0003:00000908       ??_R0?AVexception@std@@@8  0000000180047908     libcpmt:xthrow.obj
 0003:00000930       ??_R0?AVlogic_error@std@@@8 0000000180047930     libcpmt:xthrow.obj
 0003:00000958       ??_R0?AVlength_error@std@@@8 0000000180047958     libcpmt:xthrow.obj
 0003:00000980       ??_R0?AVout_of_range@std@@@8 0000000180047980     libcpmt:xthrow.obj
 0003:000009a8       ??_R0?AVruntime_error@std@@@8 00000001800479a8     libcpmt:xthrow.obj
 0003:000009d0       ??_R0?AVtype_info@@@8      00000001800479d0     LIBCMT:std_type_info_static.obj
 0003:000009f0       ??_R0?AVbad_array_new_length@std@@@8 00000001800479f0     LIBCMT:throw_bad_alloc.obj
 0003:00000a20       ??_R0?AVbad_exception@std@@@8 0000000180047a20     libvcruntime:frame.obj
 0003:00000a48       ??_R0?AVexception@stdext@@@8 0000000180047a48     VError.obj
 0003:00000a70       ??_R0?AVVError@vips@@@8    0000000180047a70     VError.obj
 0003:00000aa0       ?_Raise_handler@std@@3P6AXAEBVexception@stdext@@@ZEA 0000000180047aa0     libcpmt:raisehan.obj
 0003:00000af0       __scrt_current_native_startup_state 0000000180047af0     LIBCMT:utility.obj
 0003:00000af8       __scrt_native_startup_lock 0000000180047af8     LIBCMT:utility.obj
 0003:000010b0       __scrt_debugger_hook_flag  00000001800480b0     LIBCMT:utility_desktop.obj
 0003:000010b4       _tls_index                 00000001800480b4     LIBCMT:tlssup.obj
 0003:000010b8       __favor                    00000001800480b8     LIBCMT:_cpu_disp_.obj
 0003:000010c0       ?__type_info_root_node@@3U__type_info_node@@A 00000001800480c0     LIBCMT:tncleanup.obj
 0003:000010d0       ?_OptionsStorage@?1??__local_stdio_printf_options@@9@4_KA 00000001800480d0     LIBCMT:default_local_stdio_options.obj
 0003:000010d8       ?_OptionsStorage@?1??__local_stdio_scanf_options@@9@4_KA 00000001800480d8     LIBCMT:default_local_stdio_options.obj
 0003:000010e0       ?g_OutOfMemoryExceptionCallback@@3P6APEAXXZEA 00000001800480e0     libvcruntime:frame.obj
 0003:00001158       __pPurecall                0000000180048158     libvcruntime:purevirt_data.obj
 0003:00001208       ?pArgList@UnDecorator@@0PEAVReplicator@@EA 0000000180048208     libvcruntime:undname.obj
 0003:00001210       ?pZNameList@UnDecorator@@0PEAVReplicator@@EA 0000000180048210     libvcruntime:undname.obj
 0003:00001218       ?pTemplateArgList@UnDecorator@@0PEAVReplicator@@EA 0000000180048218     libvcruntime:undname.obj
 0003:00001220       ?gName@UnDecorator@@0PEBDEB 0000000180048220     libvcruntime:undname.obj
 0003:00001228       ?name@UnDecorator@@0PEBDEB 0000000180048228     libvcruntime:undname.obj
 0003:00001230       ?outputString@UnDecorator@@0PEADEA 0000000180048230     libvcruntime:undname.obj
 0003:00001238       ?maxStringLength@UnDecorator@@0HA 0000000180048238     libvcruntime:undname.obj
 0003:0000123c       ?disableFlags@UnDecorator@@0KA 000000018004823c     libvcruntime:undname.obj
 0003:00001240       ?fExplicitTemplateParams@UnDecorator@@0_NA 0000000180048240     libvcruntime:undname.obj
 0003:00001241       ?fGetTemplateArgumentList@UnDecorator@@0_NA 0000000180048241     libvcruntime:undname.obj
 0003:00001248       ?m_pGetParameter@UnDecorator@@0P6APEADJ@ZEA 0000000180048248     libvcruntime:undname.obj
 0003:000013a8       _environ_table             00000001800483a8     libucrt:environment_initialization.obj
 0003:000013b0       _wenviron_table            00000001800483b0     libucrt:environment_initialization.obj
 0003:000013b8       __dcrt_initial_wide_environment 00000001800483b8     libucrt:environment_initialization.obj
 0003:000013c0       __dcrt_initial_narrow_environment 00000001800483c0     libucrt:environment_initialization.obj
 0003:000013c8       __acrt_atexit_table        00000001800483c8     libucrt:onexit.obj
 0003:000013e0       __acrt_at_quick_exit_table 00000001800483e0     libucrt:onexit.obj
 0003:000013f8       __acrt_locale_changed_data 00000001800483f8     libucrt:wsetlocale.obj
 0003:00001400       __acrt_current_locale_data 0000000180048400     libucrt:nlsdata.obj
 0003:000017c4       __mbcodepage               00000001800487c4     libucrt:mbctype.obj
 0003:000017c8       __ismbcodepage             00000001800487c8     libucrt:mbctype.obj
 0003:000017d0       __mbulinfo                 00000001800487d0     libucrt:mbctype.obj
 0003:000017e0       __mblocalename             00000001800487e0     libucrt:mbctype.obj
 0003:000017ec       __argc                     00000001800487ec     libucrt:argv_data.obj
 0003:000017f0       __argv                     00000001800487f0     libucrt:argv_data.obj
 0003:000017f8       __wargv                    00000001800487f8     libucrt:argv_data.obj
 0003:00001800       _acmdln                    0000000180048800     libucrt:argv_data.obj
 0003:00001808       _wcmdln                    0000000180048808     libucrt:argv_data.obj
 0003:00001810       _pgmptr                    0000000180048810     libucrt:argv_data.obj
 0003:00001818       __acrt_heap                0000000180048818     libucrt:heap_handle.obj
 0003:00001820       __pioinfo                  0000000180048820     libucrt:ioinit.obj
 0003:00001c20       _nhandle                   0000000180048c20     libucrt:ioinit.obj
 0003:00001c50       __acrt_stdout_buffer       0000000180048c50     libucrt:_sftbuf.obj
 0003:00001c58       __acrt_stderr_buffer       0000000180048c58     libucrt:_sftbuf.obj
 0003:00001c68       _nstream                   0000000180048c68     libucrt:_file.obj
 0003:00001c70       __piob                     0000000180048c70     libucrt:_file.obj
 0003:00001c78       __acrt_lconv_static_null   0000000180048c78     libucrt:localeconv.obj
 0003:00001c7c       __acrt_lconv_static_W_null 0000000180048c7c     libucrt:localeconv.obj
 0003:00001c84       __fma3_is_available        0000000180048c84     libucrt:fma3_available.obj
 0003:00001c88       __use_fma3_lib             0000000180048c88     libucrt:fma3_available.obj
 0003:00001c90       ?_Static@?1???$_Immortalize@V_Iostream_error_category@std@@@std@@YAAEAV_Iostream_error_category@1@XZ@4U?$_Immortalizer@V_Iostream_error_category@std@@@1@A 0000000180048c90     VError.obj
 0003:00001ca0       ?$TSS0@?1???$_Immortalize@V_Iostream_error_category@std@@@std@@YAAEAV_Iostream_error_category@1@XZ@4HA 0000000180048ca0     VError.obj
 0003:00001ca8       __dyn_tls_init_callback    0000000180048ca8     <common>
 0003:00001cb0       __scrt_ucrt_dll_is_in_use  0000000180048cb0     <common>
 0006:00000000       _tls_start                 000000018004d000     LIBCMT:tlssup.obj
 0006:00000004       _Init_thread_epoch         000000018004d004     LIBCMT:thread_safe_statics.obj
 0006:00000008       _tls_end                   000000018004d008     LIBCMT:tlssup.obj

 entry point at        0001:0001df20

 Static symbols

 0000:fffb0000       .debug$S                   0000000180000000     kernel32:KERNEL32.dll
 0000:fffb0000       .debug$S                   0000000180000000     kernel32:KERNEL32.dll
 0000:fffb0000       .debug$S                   0000000180000000     kernel32:KERNEL32.dll
 0000:fffb0000       .debug$S                   0000000180000000     kernel32:KERNEL32.dll
 0000:fffb0000       .debug$S                   0000000180000000     kernel32:KERNEL32.dll
 0000:fffb0000       .debug$S                   0000000180000000     kernel32:KERNEL32.dll
 0000:fffb0000       .debug$S                   0000000180000000     kernel32:KERNEL32.dll
 0000:fffb0000       .debug$S                   0000000180000000     kernel32:KERNEL32.dll
 0000:fffb0000       .debug$S                   0000000180000000     kernel32:KERNEL32.dll
 0000:fffb0000       .debug$S                   0000000180000000     kernel32:KERNEL32.dll
 0000:fffb0000       .debug$S                   0000000180000000     kernel32:KERNEL32.dll
 0000:fffb0000       .debug$S                   0000000180000000     kernel32:KERNEL32.dll
 0000:fffb0000       .debug$S                   0000000180000000     kernel32:KERNEL32.dll
 0000:fffb0000       .debug$S                   0000000180000000     kernel32:KERNEL32.dll
 0000:fffb0000       .debug$S                   0000000180000000     kernel32:KERNEL32.dll
 0000:fffb0000       .debug$S                   0000000180000000     kernel32:KERNEL32.dll
 0000:fffb0000       .debug$S                   0000000180000000     kernel32:KERNEL32.dll
 0000:fffb0000       .debug$S                   0000000180000000     kernel32:KERNEL32.dll
 0000:fffb0000       .debug$S                   0000000180000000     kernel32:KERNEL32.dll
 0000:fffb0000       .debug$S                   0000000180000000     kernel32:KERNEL32.dll
 0000:fffb0000       .debug$S                   0000000180000000     kernel32:KERNEL32.dll
 0000:fffb0000       .debug$S                   0000000180000000     kernel32:KERNEL32.dll
 0000:fffb0000       .debug$S                   0000000180000000     kernel32:KERNEL32.dll
 0000:fffb0000       .debug$S                   0000000180000000     kernel32:KERNEL32.dll
 0000:fffb0000       .debug$S                   0000000180000000     kernel32:KERNEL32.dll
 0000:fffb0000       .debug$S                   0000000180000000     kernel32:KERNEL32.dll
 0000:fffb0000       .debug$S                   0000000180000000     kernel32:KERNEL32.dll
 0000:fffb0000       .debug$S                   0000000180000000     kernel32:KERNEL32.dll
 0000:fffb0000       .debug$S                   0000000180000000     kernel32:KERNEL32.dll
 0000:fffb0000       .debug$S                   0000000180000000     kernel32:KERNEL32.dll
 0000:fffb0000       .debug$S                   0000000180000000     kernel32:KERNEL32.dll
 0000:fffb0000       .debug$S                   0000000180000000     kernel32:KERNEL32.dll
 0000:fffb0000       .debug$S                   0000000180000000     kernel32:KERNEL32.dll
 0000:fffb0000       .debug$S                   0000000180000000     kernel32:KERNEL32.dll
 0000:fffb0000       .debug$S                   0000000180000000     kernel32:KERNEL32.dll
 0000:fffb0000       .debug$S                   0000000180000000     kernel32:KERNEL32.dll
 0000:fffb0000       .debug$S                   0000000180000000     kernel32:KERNEL32.dll
 0000:fffb0000       .debug$S                   0000000180000000     kernel32:KERNEL32.dll
 0000:fffb0000       .debug$S                   0000000180000000     kernel32:KERNEL32.dll
 0000:fffb0000       .debug$S                   0000000180000000     kernel32:KERNEL32.dll
 0000:fffb0000       .debug$S                   0000000180000000     kernel32:KERNEL32.dll
 0000:fffb0000       .debug$S                   0000000180000000     kernel32:KERNEL32.dll
 0000:fffb0000       .debug$S                   0000000180000000     kernel32:KERNEL32.dll
 0000:fffb0000       .debug$S                   0000000180000000     kernel32:KERNEL32.dll
 0000:fffb0000       .debug$S                   0000000180000000     kernel32:KERNEL32.dll
 0000:fffb0000       .debug$S                   0000000180000000     kernel32:KERNEL32.dll
 0000:fffb0000       .debug$S                   0000000180000000     kernel32:KERNEL32.dll
 0000:fffb0000       .debug$S                   0000000180000000     kernel32:KERNEL32.dll
 0000:fffb0000       .debug$S                   0000000180000000     kernel32:KERNEL32.dll
 0000:fffb0000       .debug$S                   0000000180000000     kernel32:KERNEL32.dll
 0000:fffb0000       .debug$S                   0000000180000000     kernel32:KERNEL32.dll
 0000:fffb0000       .debug$S                   0000000180000000     kernel32:KERNEL32.dll
 0000:fffb0000       .debug$S                   0000000180000000     kernel32:KERNEL32.dll
 0000:fffb0000       .debug$S                   0000000180000000     kernel32:KERNEL32.dll
 0000:fffb0000       .debug$S                   0000000180000000     kernel32:KERNEL32.dll
 0000:fffb0000       .debug$S                   0000000180000000     kernel32:KERNEL32.dll
 0000:fffb0000       .debug$S                   0000000180000000     kernel32:KERNEL32.dll
 0000:fffb0000       .debug$S                   0000000180000000     kernel32:KERNEL32.dll
 0000:fffb0000       .debug$S                   0000000180000000     kernel32:KERNEL32.dll
 0000:fffb0000       .debug$S                   0000000180000000     kernel32:KERNEL32.dll
 0000:fffb0000       .debug$S                   0000000180000000     kernel32:KERNEL32.dll
 0000:fffb0000       .debug$S                   0000000180000000     kernel32:KERNEL32.dll
 0000:fffb0000       .debug$S                   0000000180000000     kernel32:KERNEL32.dll
 0000:fffb0000       .debug$S                   0000000180000000     kernel32:KERNEL32.dll
 0000:fffb0000       .debug$S                   0000000180000000     kernel32:KERNEL32.dll
 0000:fffb0000       .debug$S                   0000000180000000     kernel32:KERNEL32.dll
 0000:fffb0000       .debug$S                   0000000180000000     kernel32:KERNEL32.dll
 0000:fffb0000       .debug$S                   0000000180000000     kernel32:KERNEL32.dll
 0000:fffb0000       .debug$S                   0000000180000000     kernel32:KERNEL32.dll
 0000:fffb0000       .debug$S                   0000000180000000     kernel32:KERNEL32.dll
 0000:fffb0000       .debug$S                   0000000180000000     kernel32:KERNEL32.dll
 0000:fffb0000       .debug$S                   0000000180000000     kernel32:KERNEL32.dll
 0000:fffb0000       .debug$S                   0000000180000000     kernel32:KERNEL32.dll
 0000:fffb0000       .debug$S                   0000000180000000     kernel32:KERNEL32.dll
 0000:fffb0000       .debug$S                   0000000180000000     kernel32:KERNEL32.dll
 0000:fffb0000       .debug$S                   0000000180000000     kernel32:KERNEL32.dll
 0000:fffb0000       .debug$S                   0000000180000000     libvips-cpp.exp
 0000:fffb0000       .debug$S                   0000000180000000     kernel32:KERNEL32.dll
 0000:fffb0000       .debug$S                   0000000180000000     kernel32:KERNEL32.dll
 0000:fffb0000       .debug$S                   0000000180000000     kernel32:KERNEL32.dll
 0000:fffb0000       .debug$S                   0000000180000000     kernel32:KERNEL32.dll
 0000:fffb0000       .debug$S                   0000000180000000     kernel32:KERNEL32.dll
 0000:fffb0000       .debug$S                   0000000180000000     kernel32:KERNEL32.dll
 0000:fffb0000       .debug$S                   0000000180000000     kernel32:KERNEL32.dll
 0000:fffb0000       .debug$S                   0000000180000000     kernel32:KERNEL32.dll
 0000:fffb0000       .debug$S                   0000000180000000     kernel32:KERNEL32.dll
 0000:fffb0000       .debug$S                   0000000180000000     kernel32:KERNEL32.dll
 0000:fffb0000       .debug$S                   0000000180000000     kernel32:KERNEL32.dll
 0000:fffb0000       .debug$S                   0000000180000000     kernel32:KERNEL32.dll
 0000:fffb0000       .debug$S                   0000000180000000     kernel32:KERNEL32.dll
 0000:fffb0000       .debug$S                   0000000180000000     kernel32:KERNEL32.dll
 0000:fffb0000       .debug$S                   0000000180000000     kernel32:KERNEL32.dll
 0000:fffb0000       .debug$S                   0000000180000000     kernel32:KERNEL32.dll
 0001:00000000       .text                      0000000180001000     libvips:ddcis01505.o
 0001:00000008       .text                      0000000180001008     libvips:ddcis01482.o
 0001:00000010       .text                      0000000180001010     libvips:ddcis01508.o
 0001:00000018       .text                      0000000180001018     libvips:ddcis01502.o
 0001:00000020       .text                      0000000180001020     libvips:ddcis01670.o
 0001:00000028       .text                      0000000180001028     libvips:ddcis01455.o
 0001:00000030       .text                      0000000180001030     libvips:ddcis01454.o
 0001:00000038       .text                      0000000180001038     libvips:ddcis01458.o
 0001:00000040       .text                      0000000180001040     libvips:ddcis01444.o
 0001:00000048       .text                      0000000180001048     libvips:ddcis01487.o
 0001:00000050       .text                      0000000180001050     libvips:ddcis01442.o
 0001:00000058       .text                      0000000180001058     libvips:ddcis01451.o
 0001:00000060       .text                      0000000180001060     libvips:ddcis01439.o
 0001:00000068       .text                      0000000180001068     libvips:ddcis01460.o
 0001:00000070       .text                      0000000180001070     libvips:ddcis01443.o
 0001:00000078       .text                      0000000180001078     libvips:ddcis01456.o
 0001:00000080       .text                      0000000180001080     libvips:ddcis01447.o
 0001:00000088       .text                      0000000180001088     libvips:ddcis01516.o
 0001:00000090       .text                      0000000180001090     libvips:ddcis01436.o
 0001:00000098       .text                      0000000180001098     libvips:ddcis01453.o
 0001:000000a0       .text                      00000001800010a0     libvips:ddcis01485.o
 0001:000000a8       .text                      00000001800010a8     libvips:ddcis01438.o
 0001:000000b0       .text                      00000001800010b0     libvips:ddcis01210.o
 0001:000000b8       .text                      00000001800010b8     libvips:ddcis01489.o
 0001:000000c0       .text                      00000001800010c0     libvips:ddcis01437.o
 0001:000000c8       .text                      00000001800010c8     libvips:ddcis01440.o
 0001:000000d0       .text                      00000001800010d0     libvips:ddcis01504.o
 0001:000000d8       .text                      00000001800010d8     libvips:ddcis01446.o
 0001:000000e0       .text                      00000001800010e0     libvips:ddcis01457.o
 0001:000000e8       .text                      00000001800010e8     libvips:ddcis01538.o
 0001:000000f0       .text                      00000001800010f0     libvips:ddcis01531.o
 0001:000000f8       .text                      00000001800010f8     libvips:ddcis01979.o
 0001:00000100       .text                      0000000180001100     libvips:ddcis01978.o
 0001:00000108       .text                      0000000180001108     libvips:ddcis01255.o
 0001:00000110       .text                      0000000180001110     libvips:ddcis01709.o
 0001:00000118       .text                      0000000180001118     libvips:ddcis00900.o
 0001:00000120       .text                      0000000180001120     libvips:ddcis00699.o
 0001:00000128       .text                      0000000180001128     libvips:ddcis00951.o
 0001:00000130       .text                      0000000180001130     libvips:ddcis01003.o
 0001:00000138       .text                      0000000180001138     libvips:ddcis00950.o
 0001:00000140       .text                      0000000180001140     libvips:ddcis01200.o
 0001:00000148       .text                      0000000180001148     libvips:ddcis00894.o
 0001:00000150       .text                      0000000180001150     libvips:ddcis01337.o
 0001:00000158       .text                      0000000180001158     libvips:ddcis01968.o
 0001:00000160       .text                      0000000180001160     libvips:ddcis01484.o
 0001:00000168       .text                      0000000180001168     libvips:ddcis01452.o
 0001:00000170       .text                      0000000180001170     libvips:ddcis01694.o
 0001:00000178       .text                      0000000180001178     libvips:ddcis01256.o
 0001:00000180       .text                      0000000180001180     libvips:ddcis01211.o
 0001:00000188       .text                      0000000180001188     libvips:ddcis01687.o
 0001:00000190       .text                      0000000180001190     libvips:ddcis01969.o
 0001:00000198       .text                      0000000180001198     libvips:ddcis01511.o
 0001:000001a0       .text                      00000001800011a0     libvips:ddcis00881.o
 0001:000001a8       .text                      00000001800011a8     libvips:ddcis01257.o
 0001:000001b0       .text                      00000001800011b0     libvips:ddcis01664.o
 0001:000001b8       .text                      00000001800011b8     libvips:ddcis01254.o
 0001:000001c0       .text                      00000001800011c0     libglib-2.0:dxyhs00041.o
 0001:000001c8       .text                      00000001800011c8     libglib-2.0:dxyhs00617.o
 0001:000001d0       .text                      00000001800011d0     libgobject-2.0:dhzhs00138.o
 0001:000001d8       .text                      00000001800011d8     libgobject-2.0:dhzhs00155.o
 0001:000001e0       .text                      00000001800011e0     libgobject-2.0:dhzhs00272.o
 0001:000001e8       .text                      00000001800011e8     libgobject-2.0:dhzhs00381.o
 0001:000001f0       .text                      00000001800011f0     libgobject-2.0:dhzhs00399.o
 0001:000001f8       .text                      00000001800011f8     libgobject-2.0:dhzhs00386.o
 0001:00000200       .text                      0000000180001200     libgobject-2.0:dhzhs00374.o
 0001:00000208       .text                      0000000180001208     libgobject-2.0:dhzhs00390.o
 0001:00000210       .text                      0000000180001210     libgobject-2.0:dhzhs00407.o
 0001:00000218       .text                      0000000180001218     libgobject-2.0:dhzhs00271.o
 0001:00000220       .text                      0000000180001220     libgobject-2.0:dhzhs00359.o
 0001:00000228       .text                      0000000180001228     libgobject-2.0:dhzhs00387.o
 0001:00000230       .text                      0000000180001230     libgobject-2.0:dhzhs00370.o
 0001:00000238       .text                      0000000180001238     libgobject-2.0:dhzhs00396.o
 0001:00000240       .text                      0000000180001240     libgobject-2.0:dhzhs00353.o
 0001:00000248       .text                      0000000180001248     libgobject-2.0:dhzhs00367.o
 0001:00000250       .text                      0000000180001250     libgobject-2.0:dhzhs00391.o
 0001:00000258       .text                      0000000180001258     libgobject-2.0:dhzhs00362.o
 0001:00000260       .text                      0000000180001260     libgobject-2.0:dhzhs00125.o
 0001:00000268       .text                      0000000180001268     libgobject-2.0:dhzhs00422.o
 0001:00000270       .text                      0000000180001270     libgobject-2.0:dhzhs00148.o
 0001:00005fb0       ?set_property@vips@@YAXPEAU_VipsObject@@PEBDPEBU_GValue@@@Z 0000000180006fb0 f   VImage.obj
 0001:0001d370       $$000000                   000000018001e370     LIBCMT:_amdsecgs_.obj
 0001:0001d3ac       ?__scrt_initialize_thread_safe_statics@@YAHXZ 000000018001e3ac f   LIBCMT:thread_safe_statics.obj
 0001:0001d4cc       ?__scrt_uninitialize_thread_safe_statics@@YAXXZ 000000018001e4cc f   LIBCMT:thread_safe_statics.obj
 0001:0001dbd4       ?dllmain_crt_dispatch@@YAHQEAUHINSTANCE__@@KQEAX@Z 000000018001ebd4 f   LIBCMT:dll_dllmain.obj
 0001:0001dc24       ?dllmain_crt_process_attach@@YAHQEAUHINSTANCE__@@QEAX@Z 000000018001ec24 f   LIBCMT:dll_dllmain.obj
 0001:0001dd50       ?dllmain_crt_process_detach@@YAH_N@Z 000000018001ed50 f   LIBCMT:dll_dllmain.obj
 0001:0001ddd4       ?dllmain_dispatch@@YAHQEAUHINSTANCE__@@KQEAX@Z 000000018001edd4 f   LIBCMT:dll_dllmain.obj
 0001:0001decc       ?dllmain_raw@@YAHQEAUHINSTANCE__@@KQEAX@Z 000000018001eecc f   LIBCMT:dll_dllmain.obj
 0001:0001e194       capture_current_context    000000018001f194 f   LIBCMT:gs_report.obj
 0001:0001e204       capture_previous_context   000000018001f204 f   LIBCMT:gs_report.obj
 0001:0001e7e0       $$000000                   000000018001f7e0     libvcruntime:memcpy.obj
 0001:0001e887       MoveSmall                  000000018001f887     libvcruntime:memcpy.obj
 0001:0001ed4c       ?CatchIt@@YAXPEAUEHExceptionRecord@@PEA_KPEAU_CONTEXT@@PEAU_xDISPATCHER_CONTEXT@@PEBU_s_FuncInfo@@PEBU_s_HandlerType@@PEBU_s_CatchableType@@PEBU_s_TryBlockMapEntry@@H1EE@Z 000000018001fd4c f   libvcruntime:frame.obj
 0001:0001ee10       ?ExFilterRethrow@@YAHPEAU_EXCEPTION_POINTERS@@PEAUEHExceptionRecord@@PEAH@Z 000000018001fe10 f   libvcruntime:frame.obj
 0001:0001ee98       ?FindHandler@@YAXPEAUEHExceptionRecord@@PEA_KPEAU_CONTEXT@@PEAU_xDISPATCHER_CONTEXT@@PEBU_s_FuncInfo@@EH1@Z 000000018001fe98 f   libvcruntime:frame.obj
 0001:0001f368       ?FindHandlerForForeignException@@YAXPEAUEHExceptionRecord@@PEA_KPEAU_CONTEXT@@PEAU_xDISPATCHER_CONTEXT@@PEBU_s_FuncInfo@@HH1@Z 0000000180020368 f   libvcruntime:frame.obj
 0001:0001f5d4       ?IsInExceptionSpec@@YAEPEAUEHExceptionRecord@@PEBU_s_ESTypeList@@@Z 00000001800205d4 f   libvcruntime:frame.obj
 0001:00020934       ?try_get_function@@YAPEAXW4function_id@?A0x679b24ab@@QEBDQEBW4module_id@2@2@Z 0000000180021934 f   libvcruntime:winapi_downlevel.obj
 0001:00020ff0       $$000000                   0000000180021ff0     libvcruntime:memset.obj
 0001:000210dc       MsetTab                    00000001800220dc     libvcruntime:memset.obj
 0001:000214d0       $$000000                   00000001800224d0     libvcruntime:handlers.obj
 0001:00021520       $$000000                   0000000180022520     libvcruntime:_jmpuwind_.obj
 0001:00021b98       ?atexit_exception_filter@@YAHK@Z 0000000180022b98 f   libucrt:exit.obj
 0001:00021ba4       ?common_exit@@YAXHW4_crt_exit_cleanup_mode@@W4_crt_exit_return_mode@@@Z 0000000180022ba4 f   libucrt:exit.obj
 0001:00021d10       ?exit_or_terminate_process@@YAXI@Z 0000000180022d10 f   libucrt:exit.obj
 0001:00021d5c       ?try_cor_exit_process@@YAXI@Z 0000000180022d5c f   libucrt:exit.obj
 0001:00021df4       ??$parse_command_line@D@@YAXPEADPEAPEAD0PEA_K2@Z 0000000180022df4 f   libucrt:argv_parsing.obj
 0001:0002218c       ??$common_initialize_environment_nolock@D@@YAHXZ 000000018002318c f   libucrt:environment_initialization.obj
 0001:000221f8       ??$create_environment@D@@YAQEAPEADQEAD@Z 00000001800231f8 f   libucrt:environment_initialization.obj
 0001:000222f4       ??$free_environment@_W@@YAXQEAPEA_W@Z 00000001800232f4 f   libucrt:environment_initialization.obj
 0001:000222f4       ??$free_environment@D@@YAXQEAPEAD@Z 00000001800232f4 f   libucrt:environment_initialization.obj
 0001:00022338       ??$uninitialize_environment_internal@D@@YAXAEAPEAPEAD@Z 0000000180023338 f   libucrt:environment_initialization.obj
 0001:00022354       ??$uninitialize_environment_internal@_W@@YAXAEAPEAPEA_W@Z 0000000180023354 f   libucrt:environment_initialization.obj
 0001:0002258c       ??R<lambda_4e60a939b0d047cfe11ddc22648dfba9>@@QEBAHXZ 000000018002358c f   libucrt:onexit.obj
 0001:0002283c       initialize_global_variables 000000018002383c f   libucrt:initialization.obj
 0001:00022850       initialize_c               0000000180023850 f   libucrt:initialization.obj
 0001:00022874       uninitialize_environment   0000000180023874 f   libucrt:initialization.obj
 0001:00022884       initialize_pointers        0000000180023884 f   libucrt:initialization.obj
 0001:000228d8       uninitialize_vcruntime     00000001800238d8 f   libucrt:initialization.obj
 0001:000228e0       uninitialize_allocated_memory 00000001800238e0 f   libucrt:initialization.obj
 0001:00022970       uninitialize_global_state_isolation 0000000180023970 f   libucrt:initialization.obj
 0001:00022970       initialize_global_state_isolation 0000000180023970 f   libucrt:initialization.obj
 0001:00022970       uninitialize_c             0000000180023970 f   libucrt:initialization.obj
 0001:00022970       initialize_environment     0000000180023970 f   libucrt:initialization.obj
 0001:00022970       report_memory_leaks        0000000180023970 f   libucrt:initialization.obj
 0001:00022d94       ?construct_ptd_array@@YAXQEAU__acrt_ptd@@@Z 0000000180023d94 f   libucrt:per_thread_data.obj
 0001:00022e64       ?destroy_fls@@YAXPEAX@Z    0000000180023e64 f   libucrt:per_thread_data.obj
 0001:00022e84       ?destroy_ptd_array@@YAXQEAU__acrt_ptd@@@Z 0000000180023e84 f   libucrt:per_thread_data.obj
 0001:00022f7c       ?replace_current_thread_locale_nolock@@YAXQEAU__acrt_ptd@@QEAU__crt_locale_data@@@Z 0000000180023f7c f   libucrt:per_thread_data.obj
 0001:00023408       ?try_get_function@@YAPEAXW4function_id@?A0x63058377@@QEBDQEBW4module_id@2@2@Z 0000000180024408 f   libucrt:winapi_thunks.obj
 0001:000239ec       ?<helper_func_cdecl>@<lambda_2feae5270eb4d0d5532525f423405775>@@CAHPEBX0@Z 00000001800249ec f   libucrt:argv_wildcards.obj
 0001:00023a00       ??$common_expand_argv_wildcards@D@@YAHQEAPEADQEAPEAPEAD@Z 0000000180024a00 f   libucrt:argv_wildcards.obj
 0001:00023c0c       ??$copy_and_add_argument_to_buffer@D@@YAHQEBD0_KAEAV?$argument_list@D@?A0xca0879c4@@@Z 0000000180024c0c f   libucrt:argv_wildcards.obj
 0001:00023d1c       ??$expand_argument_wildcards@D@@YAHQEAD0AEAV?$argument_list@D@?A0xca0879c4@@@Z 0000000180024d1c f   libucrt:argv_wildcards.obj
 0001:00023fd0       ??R<lambda_ad1ced32f4ac17aa236e5ef05d6b3b7c>@@QEBAXXZ 0000000180024fd0 f   libucrt:mbctype.obj
 0001:000241e8       ?getSystemCP@@YAHH@Z       00000001800251e8 f   libucrt:mbctype.obj
 0001:00024268       ?setSBCS@@YAXPEAU__crt_multibyte_data@@@Z 0000000180025268 f   libucrt:mbctype.obj
 0001:000242f8       ?setSBUpLow@@YAXPEAU__crt_multibyte_data@@@Z 00000001800252f8 f   libucrt:mbctype.obj
 0001:000244dc       ?setmbcp_internal@@YAHH_N@Z 00000001800254dc f   libucrt:mbctype.obj
 0001:00024a24       ?x_ismbbtype_l@@YAHPEAU__crt_locale_pointers@@IHH@Z 0000000180025a24 f   libucrt:ismbbyte.obj
 0001:00024ca4       ?initialize_inherited_file_handles_nolock@@YAXXZ 0000000180025ca4 f   libucrt:ioinit.obj
 0001:00024d90       ?initialize_stdio_handles_nolock@@YAXXZ 0000000180025d90 f   libucrt:ioinit.obj
 0001:00025b20       ?__acrt_LCMapStringA_stat@@YAHPEAU__crt_locale_pointers@@PEB_WKPEBDHPEADHHH@Z 0000000180026b20 f   libucrt:lcmapstringa.obj
 0001:0002608c       ?free_crt_array_internal@@YAXQEAPEBX_K@Z 000000018002708c f   libucrt:inittime.obj
 0001:000263a0       ?GetTableIndexFromLocaleName@@YAHPEB_W@Z 00000001800273a0 f   libucrt:lcidtoname_downlevel.obj
 0001:000264a0       ?shortsort@@YAXPEAD0_KP6AHPEBX2@Z@Z 00000001800274a0 f   libucrt:qsort.obj
 0001:00026ab8       ?initialize_multibyte@@YAHXZ 0000000180027ab8 f   libucrt:multibyte_initializer.obj
 0001:00026fdc       common_flush_all           0000000180027fdc f   libucrt:fflush.obj
 0001:000272f4       ?write_double_translated_ansi_nolock@@YA?AUwrite_result@?A0x9c548279@@HQEBDI@Z 00000001800282f4 f   libucrt:write.obj
 0001:000274fc       ?write_text_ansi_nolock@@YA?AUwrite_result@?A0x9c548279@@HQEBDI@Z 00000001800284fc f   libucrt:write.obj
 0001:00027604       ?write_text_utf16le_nolock@@YA?AUwrite_result@?A0x9c548279@@HQEBDI@Z 0000000180028604 f   libucrt:write.obj
 0001:00027720       ?write_text_utf8_nolock@@YA?AUwrite_result@?A0x9c548279@@HQEBDI@Z 0000000180028720 f   libucrt:write.obj
 0001:00027c70       $$000000                   0000000180028c70     libucrt:log10.obj
 0001:0002821c       ??$common_lseek_nolock@_J@@YA_JH_JH@Z 000000018002921c f   libucrt:lseek.obj
 0001:0002840c       _call_matherr              000000018002940c f   libucrt:libm_error.obj
 0001:00028474       _exception_enabled         0000000180029474 f   libucrt:libm_error.obj
 0001:000286f0       _log_special_common        00000001800296f0 f   libucrt:log_special.obj
 0001:00028a00       $$000000                   0000000180029a00     libucrt:fpsr.obj
 0001:00028f70       $$000000                   0000000180029f70     LIBCMT:_chkstk_.obj
 0001:00028fe0       $$000000                   0000000180029fe0     libvcruntime:memcmp.obj
 0001:00029140       $$000000                   000000018002a140     LIBCMT:_guard_dispatch_.obj
 0001:00029160       ?dtor$0@?0??_Makestr@_System_error@std@@CA?AV?$basic_string@DU?$char_traits@D@std@@V?$allocator@D@2@@2@Verror_code@2@V32@@Z@4HA 000000018002a160 f   VError.obj
 0001:0002916c       ?dtor$1@?0??_Makestr@_System_error@std@@CA?AV?$basic_string@DU?$char_traits@D@std@@V?$allocator@D@2@@2@Verror_code@2@V32@@Z@4HA 000000018002a16c f   VError.obj
 0001:00029180       ?dtor$4@?0??clear@ios_base@std@@QEAAXH_N@Z@4HA 000000018002a180 f   VError.obj
 0001:0002918c       ?dtor$0@?0??clear@ios_base@std@@QEAAXH_N@Z@4HA 000000018002a18c f   VError.obj
 0001:00029198       ?dtor$14@?0??clear@ios_base@std@@QEAAXH_N@Z@4HA 000000018002a198 f   VError.obj
 0001:000291a4       ?dtor$1@?0??clear@ios_base@std@@QEAAXH_N@Z@4HA 000000018002a1a4 f   VError.obj
 0001:000291b0       ?dtor$24@?0??clear@ios_base@std@@QEAAXH_N@Z@4HA 000000018002a1b0 f   VError.obj
 0001:000291bc       ?dtor$2@?0??clear@ios_base@std@@QEAAXH_N@Z@4HA 000000018002a1bc f   VError.obj
 0001:000291d0       ?dtor$0@?0???0VError@vips@@QEAA@V?$basic_string@DU?$char_traits@D@std@@V?$allocator@D@2@@std@@@Z@4HA 000000018002a1d0 f   VError.obj
 0001:000291dc       ?dtor$1@?0???0VError@vips@@QEAA@V?$basic_string@DU?$char_traits@D@std@@V?$allocator@D@2@@std@@@Z@4HA 000000018002a1dc f   VError.obj
 0001:000291f0       ?dtor$0@?0???0VError@vips@@QEAA@AEBV01@@Z@4HA 000000018002a1f0 f   VError.obj
 0001:000291f0       ?dtor$0@?0???0VError@vips@@QEAA@XZ@4HA 000000018002a1f0 f   VError.obj
 0001:00029200       ?dtor$0@?0??get_double@VImage@vips@@QEAANPEBD@Z@4HA 000000018002a200 f   VError.obj
 0001:00029200       ?dtor$0@?0??get_int@VImage@vips@@QEAAHPEBD@Z@4HA 000000018002a200 f   VError.obj
 0001:00029200       ?dtor$0@?0??get_string@VImage@vips@@QEAAPEBDPEBD@Z@4HA 000000018002a200 f   VError.obj
 0001:00029200       ?dtor$1@?0??new_temp_file@VImage@vips@@SA?AV12@PEBD@Z@4HA 000000018002a200 f   VError.obj
 0001:00029200       ?dtor$1@?0??new_from_memory@VImage@vips@@SA?AV12@PEAX_KHHHW4VipsBandFormat@@@Z@4HA 000000018002a200 f   VError.obj
 0001:00029200       ?dtor$0@?0??get_blob@VImage@vips@@QEAAPEBXPEBDPEA_K@Z@4HA 000000018002a200 f   VError.obj
 0001:00029200       ?dtor$1@?0??write_to_file@VImage@vips@@QEAAXPEBDPEAVVOption@2@@Z@4HA 000000018002a200 f   VImage.obj
 0001:00029200       ?dtor$1@?0??new_from_name@VInterpolate@vips@@SA?AV12@PEBDPEAVVOption@2@@Z@4HA 000000018002a200 f   VInterpolate.obj
 0001:00029200       ?dtor$1@?0??new_matrix@VImage@vips@@SA?AV12@HHPEANH@Z@4HA 000000018002a200 f   VError.obj
 0001:00029210       ?dtor$0@?0??option@VImage@vips@@SAPEAVVOption@2@XZ@4HA 000000018002a210 f   VError.obj
 0001:00029230       ?dtor$0@?0??write_to_memory@VImage@vips@@QEAAPEAXPEA_K@Z@4HA 000000018002a230 f   VError.obj
 0001:00029240       ?dtor$0@?0??linear@VImage@vips@@QEAA?AV12@NNPEAVVOption@2@@Z@4HA 000000018002a240 f   VError.obj
 0001:00029240       ?dtor$0@?0??ifthenelse@VImage@vips@@QEAA?AV12@NNPEAVVOption@2@@Z@4HA 000000018002a240 f   VError.obj
 0001:00029250       ?dtor$0@?0??linear@VImage@vips@@QEAA?AV12@V?$vector@NV?$allocator@N@std@@@std@@NPEAVVOption@2@@Z@4HA 000000018002a250 f   VError.obj
 0001:0002925c       ?dtor$1@?0??linear@VImage@vips@@QEAA?AV12@V?$vector@NV?$allocator@N@std@@@std@@NPEAVVOption@2@@Z@4HA 000000018002a25c f   VError.obj
 0001:00029270       ?dtor$0@?0??linear@VImage@vips@@QEAA?AV12@NV?$vector@NV?$allocator@N@std@@@std@@PEAVVOption@2@@Z@4HA 000000018002a270 f   VError.obj
 0001:0002927c       ?dtor$1@?0??linear@VImage@vips@@QEAA?AV12@NV?$vector@NV?$allocator@N@std@@@std@@PEAVVOption@2@@Z@4HA 000000018002a27c f   VError.obj
 0001:00029290       ?dtor$0@?0??bandjoin@VImage@vips@@QEAA?AV12@V?$vector@NV?$allocator@N@std@@@std@@PEAVVOption@2@@Z@4HA 000000018002a290 f   VError.obj
 0001:000292a0       ?dtor$0@?0??wop@VImage@vips@@QEAA?AV12@V12@PEAVVOption@2@@Z@4HA 000000018002a2a0 f   VError.obj
 0001:000292a0       ?dtor$0@?0??pow@VImage@vips@@QEAA?AV12@V12@PEAVVOption@2@@Z@4HA 000000018002a2a0 f   VError.obj
 0001:000292a0       ?dtor$0@?0??erode@VImage@vips@@QEAA?AV12@V12@PEAVVOption@2@@Z@4HA 000000018002a2a0 f   VError.obj
 0001:000292a0       ?dtor$0@?0??dilate@VImage@vips@@QEAA?AV12@V12@PEAVVOption@2@@Z@4HA 000000018002a2a0 f   VError.obj
 0001:000292b0       ?dtor$0@?0??pow@VImage@vips@@QEAA?AV12@V?$vector@NV?$allocator@N@std@@@std@@PEAVVOption@2@@Z@4HA 000000018002a2b0 f   VError.obj
 0001:000292b0       ?dtor$0@?0??wop@VImage@vips@@QEAA?AV12@V?$vector@NV?$allocator@N@std@@@std@@PEAVVOption@2@@Z@4HA 000000018002a2b0 f   VError.obj
 0001:000292c0       ?dtor$0@?0??ifthenelse@VImage@vips@@QEAA?AV12@V?$vector@NV?$allocator@N@std@@@std@@V12@PEAVVOption@2@@Z@4HA 000000018002a2c0 f   VError.obj
 0001:000292cc       ?dtor$1@?0??ifthenelse@VImage@vips@@QEAA?AV12@V?$vector@NV?$allocator@N@std@@@std@@V12@PEAVVOption@2@@Z@4HA 000000018002a2cc f   VError.obj
 0001:000292d8       ?dtor$2@?0??ifthenelse@VImage@vips@@QEAA?AV12@V?$vector@NV?$allocator@N@std@@@std@@V12@PEAVVOption@2@@Z@4HA 000000018002a2d8 f   VError.obj
 0001:000292f0       ?dtor$0@?0??ifthenelse@VImage@vips@@QEAA?AV12@V12@V?$vector@NV?$allocator@N@std@@@std@@PEAVVOption@2@@Z@4HA 000000018002a2f0 f   VError.obj
 0001:000292fc       ?dtor$1@?0??ifthenelse@VImage@vips@@QEAA?AV12@V12@V?$vector@NV?$allocator@N@std@@@std@@PEAVVOption@2@@Z@4HA 000000018002a2fc f   VError.obj
 0001:00029310       ?dtor$0@?0??ifthenelse@VImage@vips@@QEAA?AV12@V?$vector@NV?$allocator@N@std@@@std@@0PEAVVOption@2@@Z@4HA 000000018002a310 f   VError.obj
 0001:0002931c       ?dtor$1@?0??ifthenelse@VImage@vips@@QEAA?AV12@V?$vector@NV?$allocator@N@std@@@std@@0PEAVVOption@2@@Z@4HA 000000018002a31c f   VError.obj
 0001:00029328       ?dtor$3@?0??ifthenelse@VImage@vips@@QEAA?AV12@V?$vector@NV?$allocator@N@std@@@std@@0PEAVVOption@2@@Z@4HA 000000018002a328 f   VError.obj
 0001:00029340       ?dtor$0@?0??ifthenelse@VImage@vips@@QEAA?AV12@NV12@PEAVVOption@2@@Z@4HA 000000018002a340 f   VError.obj
 0001:0002934c       ?dtor$1@?0??ifthenelse@VImage@vips@@QEAA?AV12@NV12@PEAVVOption@2@@Z@4HA 000000018002a34c f   VError.obj
 0001:00029360       ?dtor$0@?0??ifthenelse@VImage@vips@@QEAA?AV12@V12@NPEAVVOption@2@@Z@4HA 000000018002a360 f   VError.obj
 0001:00029370       ?dtor$0@?0???0?$list@PEAUPair@VOption@vips@@V?$allocator@PEAUPair@VOption@vips@@@std@@@std@@QEAA@AEBV01@@Z@4HA 000000018002a370 f   VError.obj
 0001:00029380       ?dtor$1@?0???$?6DU?$char_traits@D@std@@V?$allocator@D@1@@std@@YAAEAV?$basic_ostream@DU?$char_traits@D@std@@@0@AEAV10@AEBV?$basic_string@DU?$char_traits@D@std@@V?$allocator@D@2@@0@@Z@4HA 000000018002a380 f   VError.obj
 0001:0002938c       ?dtor$0@?0???$?6DU?$char_traits@D@std@@V?$allocator@D@1@@std@@YAAEAV?$basic_ostream@DU?$char_traits@D@std@@@0@AEAV10@AEBV?$basic_string@DU?$char_traits@D@std@@V?$allocator@D@2@@0@@Z@4HA 000000018002a38c f   VError.obj
 0001:000293a0       ?dtor$0@?0???0sentry@?$basic_ostream@DU?$char_traits@D@std@@@std@@QEAA@AEAV12@@Z@4HA 000000018002a3a0 f   VError.obj
 0001:000293b0       ?dtor$0@?0??flush@?$basic_ostream@DU?$char_traits@D@std@@@std@@QEAAAEAV12@XZ@4HA 000000018002a3b0 f   VError.obj
 0001:000293c0       ?dtor$0@?0??set@VOption@vips@@QEAAPEAV12@PEBDVVInterpolate@2@@Z@4HA 000000018002a3c0 f   VInterpolate.obj
 0001:000293c0       ?dtor$0@?0???Uvips@@YA?AVVImage@0@NV10@@Z@4HA 000000018002a3c0 f   VImage.obj
 0001:000293c0       ?dtor$0@?0???8vips@@YA?AVVImage@0@NV10@@Z@4HA 000000018002a3c0 f   VImage.obj
 0001:000293c0       ?dtor$0@?0???9vips@@YA?AVVImage@0@NV10@@Z@4HA 000000018002a3c0 f   VImage.obj
 0001:000293c0       ?dtor$0@?0??set@VOption@vips@@QEAAPEAV12@PEBDVVImage@2@@Z@4HA 000000018002a3c0 f   VImage.obj
 0001:000293c0       ?dtor$0@?0???Tvips@@YA?AVVImage@0@NV10@@Z@4HA 000000018002a3c0 f   VImage.obj
 0001:000293c0       ?dtor$0@?0???Ivips@@YA?AVVImage@0@NV10@@Z@4HA 000000018002a3c0 f   VImage.obj
 0001:000293c0       ?dtor$0@?0???Pvips@@YA?AVVImage@0@NV10@@Z@4HA 000000018002a3c0 f   VImage.obj
 0001:000293c0       ?dtor$0@?0???Mvips@@YA?AVVImage@0@NV10@@Z@4HA 000000018002a3c0 f   VImage.obj
 0001:000293c0       ?dtor$0@?0???Ovips@@YA?AVVImage@0@NV10@@Z@4HA 000000018002a3c0 f   VImage.obj
 0001:000293c0       ?dtor$0@?0???Nvips@@YA?AVVImage@0@NV10@@Z@4HA 000000018002a3c0 f   VImage.obj
 0001:000293d0       ?dtor$0@?0??invert@vips@@YA?AV?$vector@NV?$allocator@N@std@@@std@@V23@@Z@4HA 000000018002a3d0 f   VImage.obj
 0001:000293d0       ?dtor$0@?0??negate@vips@@YA?AV?$vector@NV?$allocator@N@std@@@std@@V23@@Z@4HA 000000018002a3d0 f   VImage.obj
 0001:000293e0       ?dtor$0@?0??set@VOption@vips@@QEAAPEAV12@PEBDV?$vector@NV?$allocator@N@std@@@std@@@Z@4HA 000000018002a3e0 f   VImage.obj
 0001:000293f0       ?dtor$0@?0??set@VOption@vips@@QEAAPEAV12@PEBDV?$vector@VVImage@vips@@V?$allocator@VVImage@vips@@@std@@@std@@@Z@4HA 000000018002a3f0 f   VImage.obj
 0001:00029400       ?dtor$0@?0??call_option_string@VImage@vips@@SAXPEBD0PEAVVOption@2@@Z@4HA 000000018002a400 f   VImage.obj
 0001:0002940c       ?dtor$2@?0??call_option_string@VImage@vips@@SAXPEBD0PEAVVOption@2@@Z@4HA 000000018002a40c f   VImage.obj
 0001:00029418       ?dtor$4@?0??call_option_string@VImage@vips@@SAXPEBD0PEAVVOption@2@@Z@4HA 000000018002a418 f   VImage.obj
 0001:00029430       ?dtor$0@?0??new_from_file@VImage@vips@@SA?AV12@PEBDPEAVVOption@2@@Z@4HA 000000018002a430 f   VImage.obj
 0001:00029430       ?dtor$0@?0??new_from_buffer@VImage@vips@@SA?AV12@PEAX_KPEBDPEAVVOption@2@@Z@4HA 000000018002a430 f   VImage.obj
 0001:00029456       ?dtor$1@?0??new_from_buffer@VImage@vips@@SA?AV12@PEAX_KPEBDPEAVVOption@2@@Z@4HA 000000018002a456 f   VImage.obj
 0001:00029456       ?dtor$1@?0??new_from_file@VImage@vips@@SA?AV12@PEBDPEAVVOption@2@@Z@4HA 000000018002a456 f   VImage.obj
 0001:00029470       ?dtor$0@?0??new_from_image@VImage@vips@@QEAA?AV12@V?$vector@NV?$allocator@N@std@@@std@@@Z@4HA 000000018002a470 f   VImage.obj
 0001:0002947c       ?dtor$1@?0??new_from_image@VImage@vips@@QEAA?AV12@V?$vector@NV?$allocator@N@std@@@std@@@Z@4HA 000000018002a47c f   VImage.obj
 0001:00029488       ?dtor$4@?0??new_from_image@VImage@vips@@QEAA?AV12@V?$vector@NV?$allocator@N@std@@@std@@@Z@4HA 000000018002a488 f   VImage.obj
 0001:00029494       ?dtor$6@?0??new_from_image@VImage@vips@@QEAA?AV12@V?$vector@NV?$allocator@N@std@@@std@@@Z@4HA 000000018002a494 f   VImage.obj
 0001:000294c0       ?dtor$0@?0??write@VImage@vips@@QEAA?AV12@V12@@Z@4HA 000000018002a4c0 f   VImage.obj
 0001:000294cc       ?dtor$2@?0??write@VImage@vips@@QEAA?AV12@V12@@Z@4HA 000000018002a4cc f   VImage.obj
 0001:000294e0       ?dtor$1@?0??write_to_buffer@VImage@vips@@QEAAXPEBDPEAPEAXPEA_KPEAVVOption@2@@Z@4HA 000000018002a4e0 f   VImage.obj
 0001:000294f0       ?dtor$0@?0??subtract@VImage@vips@@QEAA?AV12@V12@PEAVVOption@2@@Z@4HA 000000018002a4f0 f   VImage.obj
 0001:000294f0       ?dtor$0@?0??phasecor@VImage@vips@@QEAA?AV12@V12@PEAVVOption@2@@Z@4HA 000000018002a4f0 f   VImage.obj
 0001:000294f0       ?dtor$0@?0??compass@VImage@vips@@QEAA?AV12@V12@PEAVVOption@2@@Z@4HA 000000018002a4f0 f   VImage.obj
 0001:000294f0       ?dtor$0@?0??complexform@VImage@vips@@QEAA?AV12@V12@PEAVVOption@2@@Z@4HA 000000018002a4f0 f   VImage.obj
 0001:000294f0       ?dtor$0@?0??add@VImage@vips@@QEAA?AV12@V12@PEAVVOption@2@@Z@4HA 000000018002a4f0 f   VImage.obj
 0001:000294f0       ?dtor$0@?0??remainder@VImage@vips@@QEAA?AV12@V12@PEAVVOption@2@@Z@4HA 000000018002a4f0 f   VImage.obj
 0001:000294f0       ?dtor$0@?0??recomb@VImage@vips@@QEAA?AV12@V12@PEAVVOption@2@@Z@4HA 000000018002a4f0 f   VImage.obj
 0001:000294f0       ?dtor$0@?0??multiply@VImage@vips@@QEAA?AV12@V12@PEAVVOption@2@@Z@4HA 000000018002a4f0 f   VImage.obj
 0001:000294f0       ?dtor$0@?0??conv@VImage@vips@@QEAA?AV12@V12@PEAVVOption@2@@Z@4HA 000000018002a4f0 f   VImage.obj
 0001:000294f0       ?dtor$0@?0??maplut@VImage@vips@@QEAA?AV12@V12@PEAVVOption@2@@Z@4HA 000000018002a4f0 f   VImage.obj
 0001:000294f0       ?dtor$0@?0??mapim@VImage@vips@@QEAA?AV12@V12@PEAVVOption@2@@Z@4HA 000000018002a4f0 f   VImage.obj
 0001:000294f0       ?dtor$0@?0??spcor@VImage@vips@@QEAA?AV12@V12@PEAVVOption@2@@Z@4HA 000000018002a4f0 f   VImage.obj
 0001:000294f0       ?dtor$0@?0??conva@VImage@vips@@QEAA?AV12@V12@PEAVVOption@2@@Z@4HA 000000018002a4f0 f   VImage.obj
 0001:000294f0       ?dtor$0@?0??convasep@VImage@vips@@QEAA?AV12@V12@PEAVVOption@2@@Z@4HA 000000018002a4f0 f   VImage.obj
 0001:000294f0       ?dtor$0@?0??hist_match@VImage@vips@@QEAA?AV12@V12@PEAVVOption@2@@Z@4HA 000000018002a4f0 f   VImage.obj
 0001:000294f0       ?dtor$0@?0??hist_find_indexed@VImage@vips@@QEAA?AV12@V12@PEAVVOption@2@@Z@4HA 000000018002a4f0 f   VImage.obj
 0001:000294f0       ?dtor$0@?0??freqmult@VImage@vips@@QEAA?AV12@V12@PEAVVOption@2@@Z@4HA 000000018002a4f0 f   VImage.obj
 0001:000294f0       ?dtor$0@?0??fastcor@VImage@vips@@QEAA?AV12@V12@PEAVVOption@2@@Z@4HA 000000018002a4f0 f   VImage.obj
 0001:000294f0       ?dtor$0@?0??quadratic@VImage@vips@@QEAA?AV12@V12@PEAVVOption@2@@Z@4HA 000000018002a4f0 f   VImage.obj
 0001:000294f0       ?dtor$0@?0??convf@VImage@vips@@QEAA?AV12@V12@PEAVVOption@2@@Z@4HA 000000018002a4f0 f   VImage.obj
 0001:000294f0       ?dtor$0@?0??divide@VImage@vips@@QEAA?AV12@V12@PEAVVOption@2@@Z@4HA 000000018002a4f0 f   VImage.obj
 0001:000294f0       ?dtor$0@?0??convi@VImage@vips@@QEAA?AV12@V12@PEAVVOption@2@@Z@4HA 000000018002a4f0 f   VImage.obj
 0001:000294f0       ?dtor$0@?0??dECMC@VImage@vips@@QEAA?AV12@V12@PEAVVOption@2@@Z@4HA 000000018002a4f0 f   VImage.obj
 0001:000294f0       ?dtor$0@?0??dE76@VImage@vips@@QEAA?AV12@V12@PEAVVOption@2@@Z@4HA 000000018002a4f0 f   VImage.obj
 0001:000294f0       ?dtor$0@?0??dE00@VImage@vips@@QEAA?AV12@V12@PEAVVOption@2@@Z@4HA 000000018002a4f0 f   VImage.obj
 0001:000294f0       ?dtor$0@?0??convsep@VImage@vips@@QEAA?AV12@V12@PEAVVOption@2@@Z@4HA 000000018002a4f0 f   VImage.obj
 0001:000294fc       ?dtor$1@?0??subtract@VImage@vips@@QEAA?AV12@V12@PEAVVOption@2@@Z@4HA 000000018002a4fc f   VImage.obj
 0001:000294fc       ?dtor$1@?0??maplut@VImage@vips@@QEAA?AV12@V12@PEAVVOption@2@@Z@4HA 000000018002a4fc f   VImage.obj
 0001:000294fc       ?dtor$1@?0??mapim@VImage@vips@@QEAA?AV12@V12@PEAVVOption@2@@Z@4HA 000000018002a4fc f   VImage.obj
 0001:000294fc       ?dtor$1@?0??remainder@VImage@vips@@QEAA?AV12@V12@PEAVVOption@2@@Z@4HA 000000018002a4fc f   VImage.obj
 0001:000294fc       ?dtor$1@?0??divide@VImage@vips@@QEAA?AV12@V12@PEAVVOption@2@@Z@4HA 000000018002a4fc f   VImage.obj
 0001:000294fc       ?dtor$1@?0??dECMC@VImage@vips@@QEAA?AV12@V12@PEAVVOption@2@@Z@4HA 000000018002a4fc f   VImage.obj
 0001:000294fc       ?dtor$1@?0??dE76@VImage@vips@@QEAA?AV12@V12@PEAVVOption@2@@Z@4HA 000000018002a4fc f   VImage.obj
 0001:000294fc       ?dtor$1@?0??dE00@VImage@vips@@QEAA?AV12@V12@PEAVVOption@2@@Z@4HA 000000018002a4fc f   VImage.obj
 0001:000294fc       ?dtor$1@?0??convsep@VImage@vips@@QEAA?AV12@V12@PEAVVOption@2@@Z@4HA 000000018002a4fc f   VImage.obj
 0001:000294fc       ?dtor$1@?0??convi@VImage@vips@@QEAA?AV12@V12@PEAVVOption@2@@Z@4HA 000000018002a4fc f   VImage.obj
 0001:000294fc       ?dtor$1@?0??convf@VImage@vips@@QEAA?AV12@V12@PEAVVOption@2@@Z@4HA 000000018002a4fc f   VImage.obj
 0001:000294fc       ?dtor$1@?0??convasep@VImage@vips@@QEAA?AV12@V12@PEAVVOption@2@@Z@4HA 000000018002a4fc f   VImage.obj
 0001:000294fc       ?dtor$1@?0??conva@VImage@vips@@QEAA?AV12@V12@PEAVVOption@2@@Z@4HA 000000018002a4fc f   VImage.obj
 0001:000294fc       ?dtor$1@?0??conv@VImage@vips@@QEAA?AV12@V12@PEAVVOption@2@@Z@4HA 000000018002a4fc f   VImage.obj
 0001:000294fc       ?dtor$1@?0??complexform@VImage@vips@@QEAA?AV12@V12@PEAVVOption@2@@Z@4HA 000000018002a4fc f   VImage.obj
 0001:000294fc       ?dtor$1@?0??hist_match@VImage@vips@@QEAA?AV12@V12@PEAVVOption@2@@Z@4HA 000000018002a4fc f   VImage.obj
 0001:000294fc       ?dtor$1@?0??compass@VImage@vips@@QEAA?AV12@V12@PEAVVOption@2@@Z@4HA 000000018002a4fc f   VImage.obj
 0001:000294fc       ?dtor$1@?0??recomb@VImage@vips@@QEAA?AV12@V12@PEAVVOption@2@@Z@4HA 000000018002a4fc f   VImage.obj
 0001:000294fc       ?dtor$1@?0??hist_find_indexed@VImage@vips@@QEAA?AV12@V12@PEAVVOption@2@@Z@4HA 000000018002a4fc f   VImage.obj
 0001:000294fc       ?dtor$1@?0??freqmult@VImage@vips@@QEAA?AV12@V12@PEAVVOption@2@@Z@4HA 000000018002a4fc f   VImage.obj
 0001:000294fc       ?dtor$1@?0??quadratic@VImage@vips@@QEAA?AV12@V12@PEAVVOption@2@@Z@4HA 000000018002a4fc f   VImage.obj
 0001:000294fc       ?dtor$1@?0??phasecor@VImage@vips@@QEAA?AV12@V12@PEAVVOption@2@@Z@4HA 000000018002a4fc f   VImage.obj
 0001:000294fc       ?dtor$1@?0??multiply@VImage@vips@@QEAA?AV12@V12@PEAVVOption@2@@Z@4HA 000000018002a4fc f   VImage.obj
 0001:000294fc       ?dtor$1@?0??spcor@VImage@vips@@QEAA?AV12@V12@PEAVVOption@2@@Z@4HA 000000018002a4fc f   VImage.obj
 0001:000294fc       ?dtor$1@?0??add@VImage@vips@@QEAA?AV12@V12@PEAVVOption@2@@Z@4HA 000000018002a4fc f   VImage.obj
 0001:000294fc       ?dtor$1@?0??fastcor@VImage@vips@@QEAA?AV12@V12@PEAVVOption@2@@Z@4HA 000000018002a4fc f   VImage.obj
 0001:00029525       ?dtor$2@?0??dE00@VImage@vips@@QEAA?AV12@V12@PEAVVOption@2@@Z@4HA 000000018002a525 f   VImage.obj
 0001:00029525       ?dtor$2@?0??dE76@VImage@vips@@QEAA?AV12@V12@PEAVVOption@2@@Z@4HA 000000018002a525 f   VImage.obj
 0001:00029525       ?dtor$2@?0??dECMC@VImage@vips@@QEAA?AV12@V12@PEAVVOption@2@@Z@4HA 000000018002a525 f   VImage.obj
 0001:00029525       ?dtor$2@?0??divide@VImage@vips@@QEAA?AV12@V12@PEAVVOption@2@@Z@4HA 000000018002a525 f   VImage.obj
 0001:00029525       ?dtor$2@?0??fastcor@VImage@vips@@QEAA?AV12@V12@PEAVVOption@2@@Z@4HA 000000018002a525 f   VImage.obj
 0001:00029525       ?dtor$2@?0??freqmult@VImage@vips@@QEAA?AV12@V12@PEAVVOption@2@@Z@4HA 000000018002a525 f   VImage.obj
 0001:00029525       ?dtor$2@?0??convsep@VImage@vips@@QEAA?AV12@V12@PEAVVOption@2@@Z@4HA 000000018002a525 f   VImage.obj
 0001:00029525       ?dtor$2@?0??hist_find_indexed@VImage@vips@@QEAA?AV12@V12@PEAVVOption@2@@Z@4HA 000000018002a525 f   VImage.obj
 0001:00029525       ?dtor$2@?0??hist_match@VImage@vips@@QEAA?AV12@V12@PEAVVOption@2@@Z@4HA 000000018002a525 f   VImage.obj
 0001:00029525       ?dtor$2@?0??mapim@VImage@vips@@QEAA?AV12@V12@PEAVVOption@2@@Z@4HA 000000018002a525 f   VImage.obj
 0001:00029525       ?dtor$2@?0??convf@VImage@vips@@QEAA?AV12@V12@PEAVVOption@2@@Z@4HA 000000018002a525 f   VImage.obj
 0001:00029525       ?dtor$2@?0??maplut@VImage@vips@@QEAA?AV12@V12@PEAVVOption@2@@Z@4HA 000000018002a525 f   VImage.obj
 0001:00029525       ?dtor$2@?0??multiply@VImage@vips@@QEAA?AV12@V12@PEAVVOption@2@@Z@4HA 000000018002a525 f   VImage.obj
 0001:00029525       ?dtor$2@?0??phasecor@VImage@vips@@QEAA?AV12@V12@PEAVVOption@2@@Z@4HA 000000018002a525 f   VImage.obj
 0001:00029525       ?dtor$2@?0??convasep@VImage@vips@@QEAA?AV12@V12@PEAVVOption@2@@Z@4HA 000000018002a525 f   VImage.obj
 0001:00029525       ?dtor$2@?0??conva@VImage@vips@@QEAA?AV12@V12@PEAVVOption@2@@Z@4HA 000000018002a525 f   VImage.obj
 0001:00029525       ?dtor$2@?0??conv@VImage@vips@@QEAA?AV12@V12@PEAVVOption@2@@Z@4HA 000000018002a525 f   VImage.obj
 0001:00029525       ?dtor$2@?0??quadratic@VImage@vips@@QEAA?AV12@V12@PEAVVOption@2@@Z@4HA 000000018002a525 f   VImage.obj
 0001:00029525       ?dtor$2@?0??add@VImage@vips@@QEAA?AV12@V12@PEAVVOption@2@@Z@4HA 000000018002a525 f   VImage.obj
 0001:00029525       ?dtor$2@?0??complexform@VImage@vips@@QEAA?AV12@V12@PEAVVOption@2@@Z@4HA 000000018002a525 f   VImage.obj
 0001:00029525       ?dtor$2@?0??convi@VImage@vips@@QEAA?AV12@V12@PEAVVOption@2@@Z@4HA 000000018002a525 f   VImage.obj
 0001:00029525       ?dtor$2@?0??subtract@VImage@vips@@QEAA?AV12@V12@PEAVVOption@2@@Z@4HA 000000018002a525 f   VImage.obj
 0001:00029525       ?dtor$2@?0??recomb@VImage@vips@@QEAA?AV12@V12@PEAVVOption@2@@Z@4HA 000000018002a525 f   VImage.obj
 0001:00029525       ?dtor$2@?0??spcor@VImage@vips@@QEAA?AV12@V12@PEAVVOption@2@@Z@4HA 000000018002a525 f   VImage.obj
 0001:00029525       ?dtor$2@?0??compass@VImage@vips@@QEAA?AV12@V12@PEAVVOption@2@@Z@4HA 000000018002a525 f   VImage.obj
 0001:00029525       ?dtor$2@?0??remainder@VImage@vips@@QEAA?AV12@V12@PEAVVOption@2@@Z@4HA 000000018002a525 f   VImage.obj
 0001:00029540       ?dtor$0@?0??match@VImage@vips@@QEAA?AV12@V12@HHHHHHHHPEAVVOption@2@@Z@4HA 000000018002a540 f   VImage.obj
 0001:00029540       ?dtor$0@?0??complex2@VImage@vips@@QEAA?AV12@V12@W4VipsOperationComplex2@@PEAVVOption@2@@Z@4HA 000000018002a540 f   VImage.obj
 0001:00029540       ?dtor$0@?0??math2@VImage@vips@@QEAA?AV12@V12@W4VipsOperationMath2@@PEAVVOption@2@@Z@4HA 000000018002a540 f   VImage.obj
 0001:00029540       ?dtor$0@?0??relational@VImage@vips@@QEAA?AV12@V12@W4VipsOperationRelational@@PEAVVOption@2@@Z@4HA 000000018002a540 f   VImage.obj
 0001:00029540       ?dtor$0@?0??mosaic1@VImage@vips@@QEAA?AV12@V12@W4VipsDirection@@HHHHHHHHPEAVVOption@2@@Z@4HA 000000018002a540 f   VImage.obj
 0001:00029540       ?dtor$0@?0??insert@VImage@vips@@QEAA?AV12@V12@HHPEAVVOption@2@@Z@4HA 000000018002a540 f   VImage.obj
 0001:00029540       ?dtor$0@?0??morph@VImage@vips@@QEAA?AV12@V12@W4VipsOperationMorphology@@PEAVVOption@2@@Z@4HA 000000018002a540 f   VImage.obj
 0001:00029540       ?dtor$0@?0??join@VImage@vips@@QEAA?AV12@V12@W4VipsDirection@@PEAVVOption@2@@Z@4HA 000000018002a540 f   VImage.obj
 0001:00029540       ?dtor$0@?0??boolean@VImage@vips@@QEAA?AV12@V12@W4VipsOperationBoolean@@PEAVVOption@2@@Z@4HA 000000018002a540 f   VImage.obj
 0001:00029540       ?dtor$0@?0??merge@VImage@vips@@QEAA?AV12@V12@W4VipsDirection@@HHPEAVVOption@2@@Z@4HA 000000018002a540 f   VImage.obj
 0001:00029540       ?dtor$0@?0??mosaic@VImage@vips@@QEAA?AV12@V12@W4VipsDirection@@HHHHPEAVVOption@2@@Z@4HA 000000018002a540 f   VImage.obj
 0001:0002954c       ?dtor$1@?0??morph@VImage@vips@@QEAA?AV12@V12@W4VipsOperationMorphology@@PEAVVOption@2@@Z@4HA 000000018002a54c f   VImage.obj
 0001:0002954c       ?dtor$1@?0??mosaic@VImage@vips@@QEAA?AV12@V12@W4VipsDirection@@HHHHPEAVVOption@2@@Z@4HA 000000018002a54c f   VImage.obj
 0001:0002954c       ?dtor$1@?0??insert@VImage@vips@@QEAA?AV12@V12@HHPEAVVOption@2@@Z@4HA 000000018002a54c f   VImage.obj
 0001:0002954c       ?dtor$1@?0??math2@VImage@vips@@QEAA?AV12@V12@W4VipsOperationMath2@@PEAVVOption@2@@Z@4HA 000000018002a54c f   VImage.obj
 0001:0002954c       ?dtor$1@?0??relational@VImage@vips@@QEAA?AV12@V12@W4VipsOperationRelational@@PEAVVOption@2@@Z@4HA 000000018002a54c f   VImage.obj
 0001:0002954c       ?dtor$1@?0??boolean@VImage@vips@@QEAA?AV12@V12@W4VipsOperationBoolean@@PEAVVOption@2@@Z@4HA 000000018002a54c f   VImage.obj
 0001:0002954c       ?dtor$1@?0??mosaic1@VImage@vips@@QEAA?AV12@V12@W4VipsDirection@@HHHHHHHHPEAVVOption@2@@Z@4HA 000000018002a54c f   VImage.obj
 0001:0002954c       ?dtor$1@?0??complex2@VImage@vips@@QEAA?AV12@V12@W4VipsOperationComplex2@@PEAVVOption@2@@Z@4HA 000000018002a54c f   VImage.obj
 0001:0002954c       ?dtor$1@?0??match@VImage@vips@@QEAA?AV12@V12@HHHHHHHHPEAVVOption@2@@Z@4HA 000000018002a54c f   VImage.obj
 0001:0002954c       ?dtor$1@?0??join@VImage@vips@@QEAA?AV12@V12@W4VipsDirection@@PEAVVOption@2@@Z@4HA 000000018002a54c f   VImage.obj
 0001:0002954c       ?dtor$1@?0??merge@VImage@vips@@QEAA?AV12@V12@W4VipsDirection@@HHPEAVVOption@2@@Z@4HA 000000018002a54c f   VImage.obj
 0001:00029575       ?dtor$2@?0??insert@VImage@vips@@QEAA?AV12@V12@HHPEAVVOption@2@@Z@4HA 000000018002a575 f   VImage.obj
 0001:00029575       ?dtor$2@?0??join@VImage@vips@@QEAA?AV12@V12@W4VipsDirection@@PEAVVOption@2@@Z@4HA 000000018002a575 f   VImage.obj
 0001:00029575       ?dtor$2@?0??complex2@VImage@vips@@QEAA?AV12@V12@W4VipsOperationComplex2@@PEAVVOption@2@@Z@4HA 000000018002a575 f   VImage.obj
 0001:00029575       ?dtor$2@?0??math2@VImage@vips@@QEAA?AV12@V12@W4VipsOperationMath2@@PEAVVOption@2@@Z@4HA 000000018002a575 f   VImage.obj
 0001:00029575       ?dtor$2@?0??merge@VImage@vips@@QEAA?AV12@V12@W4VipsDirection@@HHPEAVVOption@2@@Z@4HA 000000018002a575 f   VImage.obj
 0001:00029575       ?dtor$2@?0??morph@VImage@vips@@QEAA?AV12@V12@W4VipsOperationMorphology@@PEAVVOption@2@@Z@4HA 000000018002a575 f   VImage.obj
 0001:00029575       ?dtor$2@?0??mosaic1@VImage@vips@@QEAA?AV12@V12@W4VipsDirection@@HHHHHHHHPEAVVOption@2@@Z@4HA 000000018002a575 f   VImage.obj
 0001:00029575       ?dtor$2@?0??mosaic@VImage@vips@@QEAA?AV12@V12@W4VipsDirection@@HHHHPEAVVOption@2@@Z@4HA 000000018002a575 f   VImage.obj
 0001:00029575       ?dtor$2@?0??boolean@VImage@vips@@QEAA?AV12@V12@W4VipsOperationBoolean@@PEAVVOption@2@@Z@4HA 000000018002a575 f   VImage.obj
 0001:00029575       ?dtor$2@?0??relational@VImage@vips@@QEAA?AV12@V12@W4VipsOperationRelational@@PEAVVOption@2@@Z@4HA 000000018002a575 f   VImage.obj
 0001:00029575       ?dtor$2@?0??match@VImage@vips@@QEAA?AV12@V12@HHHHHHHHPEAVVOption@2@@Z@4HA 000000018002a575 f   VImage.obj
 0001:00029590       ?dtor$0@?0??arrayjoin@VImage@vips@@SA?AV12@V?$vector@VVImage@vips@@V?$allocator@VVImage@vips@@@std@@@std@@PEAVVOption@2@@Z@4HA 000000018002a590 f   VImage.obj
 0001:00029590       ?dtor$0@?0??sum@VImage@vips@@SA?AV12@V?$vector@VVImage@vips@@V?$allocator@VVImage@vips@@@std@@@std@@PEAVVOption@2@@Z@4HA 000000018002a590 f   VImage.obj
 0001:00029590       ?dtor$0@?0??bandjoin@VImage@vips@@SA?AV12@V?$vector@VVImage@vips@@V?$allocator@VVImage@vips@@@std@@@std@@PEAVVOption@2@@Z@4HA 000000018002a590 f   VImage.obj
 0001:00029590       ?dtor$0@?0??bandrank@VImage@vips@@SA?AV12@V?$vector@VVImage@vips@@V?$allocator@VVImage@vips@@@std@@@std@@PEAVVOption@2@@Z@4HA 000000018002a590 f   VImage.obj
 0001:0002959c       ?dtor$1@?0??bandjoin@VImage@vips@@SA?AV12@V?$vector@VVImage@vips@@V?$allocator@VVImage@vips@@@std@@@std@@PEAVVOption@2@@Z@4HA 000000018002a59c f   VImage.obj
 0001:0002959c       ?dtor$1@?0??arrayjoin@VImage@vips@@SA?AV12@V?$vector@VVImage@vips@@V?$allocator@VVImage@vips@@@std@@@std@@PEAVVOption@2@@Z@4HA 000000018002a59c f   VImage.obj
 0001:0002959c       ?dtor$1@?0??bandrank@VImage@vips@@SA?AV12@V?$vector@VVImage@vips@@V?$allocator@VVImage@vips@@@std@@@std@@PEAVVOption@2@@Z@4HA 000000018002a59c f   VImage.obj
 0001:0002959c       ?dtor$1@?0??sum@VImage@vips@@SA?AV12@V?$vector@VVImage@vips@@V?$allocator@VVImage@vips@@@std@@@std@@PEAVVOption@2@@Z@4HA 000000018002a59c f   VImage.obj
 0001:000295d0       ?dtor$0@?0??sign@VImage@vips@@QEAA?AV12@PEAVVOption@2@@Z@4HA 000000018002a5d0 f   VImage.obj
 0001:000295d0       ?dtor$0@?0??similarity@VImage@vips@@QEAA?AV12@PEAVVOption@2@@Z@4HA 000000018002a5d0 f   VImage.obj
 0001:000295d0       ?dtor$0@?0??bandmean@VImage@vips@@QEAA?AV12@PEAVVOption@2@@Z@4HA 000000018002a5d0 f   VImage.obj
 0001:000295d0       ?dtor$0@?0??hist_find@VImage@vips@@QEAA?AV12@PEAVVOption@2@@Z@4HA 000000018002a5d0 f   VImage.obj
 0001:000295d0       ?dtor$0@?0??sharpen@VImage@vips@@QEAA?AV12@PEAVVOption@2@@Z@4HA 000000018002a5d0 f   VImage.obj
 0001:000295d0       ?dtor$0@?0??bandunfold@VImage@vips@@QEAA?AV12@PEAVVOption@2@@Z@4HA 000000018002a5d0 f   VImage.obj
 0001:000295d0       ?dtor$0@?0??hist_equal@VImage@vips@@QEAA?AV12@PEAVVOption@2@@Z@4HA 000000018002a5d0 f   VImage.obj
 0001:000295d0       ?dtor$0@?0??sequential@VImage@vips@@QEAA?AV12@PEAVVOption@2@@Z@4HA 000000018002a5d0 f   VImage.obj
 0001:000295d0       ?dtor$0@?0??scale@VImage@vips@@QEAA?AV12@PEAVVOption@2@@Z@4HA 000000018002a5d0 f   VImage.obj
 0001:000295d0       ?dtor$0@?0??scRGB2sRGB@VImage@vips@@QEAA?AV12@PEAVVOption@2@@Z@4HA 000000018002a5d0 f   VImage.obj
 0001:000295d0       ?dtor$0@?0??hist_find_ndim@VImage@vips@@QEAA?AV12@PEAVVOption@2@@Z@4HA 000000018002a5d0 f   VImage.obj
 0001:000295d0       ?dtor$0@?0??scRGB2XYZ@VImage@vips@@QEAA?AV12@PEAVVOption@2@@Z@4HA 000000018002a5d0 f   VImage.obj
 0001:000295d0       ?dtor$0@?0??hist_cum@VImage@vips@@QEAA?AV12@PEAVVOption@2@@Z@4HA 000000018002a5d0 f   VImage.obj
 0001:000295d0       ?dtor$0@?0??sRGB2scRGB@VImage@vips@@QEAA?AV12@PEAVVOption@2@@Z@4HA 000000018002a5d0 f   VImage.obj
 0001:000295d0       ?dtor$0@?0??sRGB2HSV@VImage@vips@@QEAA?AV12@PEAVVOption@2@@Z@4HA 000000018002a5d0 f   VImage.obj
 0001:000295d0       ?dtor$0@?0??bandfold@VImage@vips@@QEAA?AV12@PEAVVOption@2@@Z@4HA 000000018002a5d0 f   VImage.obj
 0001:000295d0       ?dtor$0@?0??autorot@VImage@vips@@QEAA?AV12@PEAVVOption@2@@Z@4HA 000000018002a5d0 f   VImage.obj
 0001:000295d0       ?dtor$0@?0??rot45@VImage@vips@@QEAA?AV12@PEAVVOption@2@@Z@4HA 000000018002a5d0 f   VImage.obj
 0001:000295d0       ?dtor$0@?0??globalbalance@VImage@vips@@QEAA?AV12@PEAVVOption@2@@Z@4HA 000000018002a5d0 f   VImage.obj
 0001:000295d0       ?dtor$0@?0??abs@VImage@vips@@QEAA?AV12@PEAVVOption@2@@Z@4HA 000000018002a5d0 f   VImage.obj
 0001:000295d0       ?dtor$0@?0??Yxy2XYZ@VImage@vips@@QEAA?AV12@PEAVVOption@2@@Z@4HA 000000018002a5d0 f   VImage.obj
 0001:000295d0       ?dtor$0@?0??XYZ2scRGB@VImage@vips@@QEAA?AV12@PEAVVOption@2@@Z@4HA 000000018002a5d0 f   VImage.obj
 0001:000295d0       ?dtor$0@?0??wrap@VImage@vips@@QEAA?AV12@PEAVVOption@2@@Z@4HA 000000018002a5d0 f   VImage.obj
 0001:000295d0       ?dtor$0@?0??XYZ2Yxy@VImage@vips@@QEAA?AV12@PEAVVOption@2@@Z@4HA 000000018002a5d0 f   VImage.obj
 0001:000295d0       ?dtor$0@?0??XYZ2Lab@VImage@vips@@QEAA?AV12@PEAVVOption@2@@Z@4HA 000000018002a5d0 f   VImage.obj
 0001:000295d0       ?dtor$0@?0??LabS2LabQ@VImage@vips@@QEAA?AV12@PEAVVOption@2@@Z@4HA 000000018002a5d0 f   VImage.obj
 0001:000295d0       ?dtor$0@?0??gamma@VImage@vips@@QEAA?AV12@PEAVVOption@2@@Z@4HA 000000018002a5d0 f   VImage.obj
 0001:000295d0       ?dtor$0@?0??LabS2Lab@VImage@vips@@QEAA?AV12@PEAVVOption@2@@Z@4HA 000000018002a5d0 f   VImage.obj
 0001:000295d0       ?dtor$0@?0??LabQ2sRGB@VImage@vips@@QEAA?AV12@PEAVVOption@2@@Z@4HA 000000018002a5d0 f   VImage.obj
 0001:000295d0       ?dtor$0@?0??LabQ2LabS@VImage@vips@@QEAA?AV12@PEAVVOption@2@@Z@4HA 000000018002a5d0 f   VImage.obj
 0001:000295d0       ?dtor$0@?0??rad2float@VImage@vips@@QEAA?AV12@PEAVVOption@2@@Z@4HA 000000018002a5d0 f   VImage.obj
 0001:000295d0       ?dtor$0@?0??fwfft@VImage@vips@@QEAA?AV12@PEAVVOption@2@@Z@4HA 000000018002a5d0 f   VImage.obj
 0001:000295d0       ?dtor$0@?0??LabQ2Lab@VImage@vips@@QEAA?AV12@PEAVVOption@2@@Z@4HA 000000018002a5d0 f   VImage.obj
 0001:000295d0       ?dtor$0@?0??Lab2XYZ@VImage@vips@@QEAA?AV12@PEAVVOption@2@@Z@4HA 000000018002a5d0 f   VImage.obj
 0001:000295d0       ?dtor$0@?0??Lab2LabS@VImage@vips@@QEAA?AV12@PEAVVOption@2@@Z@4HA 000000018002a5d0 f   VImage.obj
 0001:000295d0       ?dtor$0@?0??premultiply@VImage@vips@@QEAA?AV12@PEAVVOption@2@@Z@4HA 000000018002a5d0 f   VImage.obj
 0001:000295d0       ?dtor$0@?0??Lab2LabQ@VImage@vips@@QEAA?AV12@PEAVVOption@2@@Z@4HA 000000018002a5d0 f   VImage.obj
 0001:000295d0       ?dtor$0@?0??Lab2LCh@VImage@vips@@QEAA?AV12@PEAVVOption@2@@Z@4HA 000000018002a5d0 f   VImage.obj
 0001:000295d0       ?dtor$0@?0??LCh2Lab@VImage@vips@@QEAA?AV12@PEAVVOption@2@@Z@4HA 000000018002a5d0 f   VImage.obj
 0001:000295d0       ?dtor$0@?0??float2rad@VImage@vips@@QEAA?AV12@PEAVVOption@2@@Z@4HA 000000018002a5d0 f   VImage.obj
 0001:000295d0       ?dtor$0@?0??LCh2CMC@VImage@vips@@QEAA?AV12@PEAVVOption@2@@Z@4HA 000000018002a5d0 f   VImage.obj
 0001:000295d0       ?dtor$0@?0??HSV2sRGB@VImage@vips@@QEAA?AV12@PEAVVOption@2@@Z@4HA 000000018002a5d0 f   VImage.obj
 0001:000295d0       ?dtor$0@?0??CMC2LCh@VImage@vips@@QEAA?AV12@PEAVVOption@2@@Z@4HA 000000018002a5d0 f   VImage.obj
 0001:000295d0       ?dtor$0@?0??unpremultiply@VImage@vips@@QEAA?AV12@PEAVVOption@2@@Z@4HA 000000018002a5d0 f   VImage.obj
 0001:000295d0       ?dtor$0@?0??flatten@VImage@vips@@QEAA?AV12@PEAVVOption@2@@Z@4HA 000000018002a5d0 f   VImage.obj
 0001:000295d0       ?dtor$0@?0??invert@VImage@vips@@QEAA?AV12@PEAVVOption@2@@Z@4HA 000000018002a5d0 f   VImage.obj
 0001:000295d0       ?dtor$0@?0??buildlut@VImage@vips@@QEAA?AV12@PEAVVOption@2@@Z@4HA 000000018002a5d0 f   VImage.obj
 0001:000295d0       ?dtor$0@?0??spectrum@VImage@vips@@QEAA?AV12@PEAVVOption@2@@Z@4HA 000000018002a5d0 f   VImage.obj
 0001:000295d0       ?dtor$0@?0??hist_norm@VImage@vips@@QEAA?AV12@PEAVVOption@2@@Z@4HA 000000018002a5d0 f   VImage.obj
 0001:000295d0       ?dtor$0@?0??hough_circle@VImage@vips@@QEAA?AV12@PEAVVOption@2@@Z@4HA 000000018002a5d0 f   VImage.obj
 0001:000295d0       ?dtor$0@?0??hist_plot@VImage@vips@@QEAA?AV12@PEAVVOption@2@@Z@4HA 000000018002a5d0 f   VImage.obj
 0001:000295d0       ?dtor$0@?0??byteswap@VImage@vips@@QEAA?AV12@PEAVVOption@2@@Z@4HA 000000018002a5d0 f   VImage.obj
 0001:000295d0       ?dtor$0@?0??msb@VImage@vips@@QEAA?AV12@PEAVVOption@2@@Z@4HA 000000018002a5d0 f   VImage.obj
 0001:000295d0       ?dtor$0@?0??tilecache@VImage@vips@@QEAA?AV12@PEAVVOption@2@@Z@4HA 000000018002a5d0 f   VImage.obj
 0001:000295d0       ?dtor$0@?0??invertlut@VImage@vips@@QEAA?AV12@PEAVVOption@2@@Z@4HA 000000018002a5d0 f   VImage.obj
 0001:000295d0       ?dtor$0@?0??falsecolour@VImage@vips@@QEAA?AV12@PEAVVOption@2@@Z@4HA 000000018002a5d0 f   VImage.obj
 0001:000295d0       ?dtor$0@?0??cache@VImage@vips@@QEAA?AV12@PEAVVOption@2@@Z@4HA 000000018002a5d0 f   VImage.obj
 0001:000295d0       ?dtor$0@?0??stats@VImage@vips@@QEAA?AV12@PEAVVOption@2@@Z@4HA 000000018002a5d0 f   VImage.obj
 0001:000295d0       ?dtor$0@?0??invfft@VImage@vips@@QEAA?AV12@PEAVVOption@2@@Z@4HA 000000018002a5d0 f   VImage.obj
 0001:000295d0       ?dtor$0@?0??hough_line@VImage@vips@@QEAA?AV12@PEAVVOption@2@@Z@4HA 000000018002a5d0 f   VImage.obj
 0001:000295d0       ?dtor$0@?0??icc_export@VImage@vips@@QEAA?AV12@PEAVVOption@2@@Z@4HA 000000018002a5d0 f   VImage.obj
 0001:000295d0       ?dtor$0@?0??labelregions@VImage@vips@@QEAA?AV12@PEAVVOption@2@@Z@4HA 000000018002a5d0 f   VImage.obj
 0001:000295d0       ?dtor$0@?0??linecache@VImage@vips@@QEAA?AV12@PEAVVOption@2@@Z@4HA 000000018002a5d0 f   VImage.obj
 0001:000295d0       ?dtor$0@?0??copy@VImage@vips@@QEAA?AV12@PEAVVOption@2@@Z@4HA 000000018002a5d0 f   VImage.obj
 0001:000295d0       ?dtor$0@?0??icc_import@VImage@vips@@QEAA?AV12@PEAVVOption@2@@Z@4HA 000000018002a5d0 f   VImage.obj
 0001:000295d0       ?dtor$0@?0??scRGB2BW@VImage@vips@@QEAA?AV12@PEAVVOption@2@@Z@4HA 000000018002a5d0 f   VImage.obj
 0001:00029600       ?dtor$0@?0??linear@VImage@vips@@QEAA?AV12@V?$vector@NV?$allocator@N@std@@@std@@0PEAVVOption@2@@Z@4HA 000000018002a600 f   VImage.obj
 0001:0002960c       ?dtor$1@?0??linear@VImage@vips@@QEAA?AV12@V?$vector@NV?$allocator@N@std@@@std@@0PEAVVOption@2@@Z@4HA 000000018002a60c f   VImage.obj
 0001:00029618       ?dtor$2@?0??linear@VImage@vips@@QEAA?AV12@V?$vector@NV?$allocator@N@std@@@std@@0PEAVVOption@2@@Z@4HA 000000018002a618 f   VImage.obj
 0001:00029641       ?dtor$3@?0??linear@VImage@vips@@QEAA?AV12@V?$vector@NV?$allocator@N@std@@@std@@0PEAVVOption@2@@Z@4HA 000000018002a641 f   VImage.obj
 0001:0002964d       ?dtor$4@?0??linear@VImage@vips@@QEAA?AV12@V?$vector@NV?$allocator@N@std@@@std@@0PEAVVOption@2@@Z@4HA 000000018002a64d f   VImage.obj
 0001:00029660       ?dtor$0@?0??flip@VImage@vips@@QEAA?AV12@W4VipsDirection@@PEAVVOption@2@@Z@4HA 000000018002a660 f   VImage.obj
 0001:00029660       ?dtor$0@?0??zoom@VImage@vips@@QEAA?AV12@HHPEAVVOption@2@@Z@4HA 000000018002a660 f   VImage.obj
 0001:00029660       ?dtor$0@?0??embed@VImage@vips@@QEAA?AV12@HHHHPEAVVOption@2@@Z@4HA 000000018002a660 f   VImage.obj
 0001:00029660       ?dtor$0@?0??grid@VImage@vips@@QEAA?AV12@HHHPEAVVOption@2@@Z@4HA 000000018002a660 f   VImage.obj
 0001:00029660       ?dtor$0@?0??gaussblur@VImage@vips@@QEAA?AV12@NPEAVVOption@2@@Z@4HA 000000018002a660 f   VImage.obj
 0001:00029660       ?dtor$0@?0??complexget@VImage@vips@@QEAA?AV12@W4VipsOperationComplexget@@PEAVVOption@2@@Z@4HA 000000018002a660 f   VImage.obj
 0001:00029660       ?dtor$0@?0??reduceh@VImage@vips@@QEAA?AV12@NPEAVVOption@2@@Z@4HA 000000018002a660 f   VImage.obj
 0001:00029660       ?dtor$0@?0??complex@VImage@vips@@QEAA?AV12@W4VipsOperationComplex@@PEAVVOption@2@@Z@4HA 000000018002a660 f   VImage.obj
 0001:00029660       ?dtor$0@?0??subsample@VImage@vips@@QEAA?AV12@HHPEAVVOption@2@@Z@4HA 000000018002a660 f   VImage.obj
 0001:00029660       ?dtor$0@?0??colourspace@VImage@vips@@QEAA?AV12@W4VipsInterpretation@@PEAVVOption@2@@Z@4HA 000000018002a660 f   VImage.obj
 0001:00029660       ?dtor$0@?0??cast@VImage@vips@@QEAA?AV12@W4VipsBandFormat@@PEAVVOption@2@@Z@4HA 000000018002a660 f   VImage.obj
 0001:00029660       ?dtor$0@?0??math@VImage@vips@@QEAA?AV12@W4VipsOperationMath@@PEAVVOption@2@@Z@4HA 000000018002a660 f   VImage.obj
 0001:00029660       ?dtor$0@?0??extract_area@VImage@vips@@QEAA?AV12@HHHHPEAVVOption@2@@Z@4HA 000000018002a660 f   VImage.obj
 0001:00029660       ?dtor$0@?0??stdif@VImage@vips@@QEAA?AV12@HHPEAVVOption@2@@Z@4HA 000000018002a660 f   VImage.obj
 0001:00029660       ?dtor$0@?0??extract_band@VImage@vips@@QEAA?AV12@HPEAVVOption@2@@Z@4HA 000000018002a660 f   VImage.obj
 0001:00029660       ?dtor$0@?0??smartcrop@VImage@vips@@QEAA?AV12@HHPEAVVOption@2@@Z@4HA 000000018002a660 f   VImage.obj
 0001:00029660       ?dtor$0@?0??icc_transform@VImage@vips@@QEAA?AV12@PEADPEAVVOption@2@@Z@4HA 000000018002a660 f   VImage.obj
 0001:00029660       ?dtor$0@?0??measure@VImage@vips@@QEAA?AV12@HHPEAVVOption@2@@Z@4HA 000000018002a660 f   VImage.obj
 0001:00029660       ?dtor$0@?0??shrinkv@VImage@vips@@QEAA?AV12@HPEAVVOption@2@@Z@4HA 000000018002a660 f   VImage.obj
 0001:00029660       ?dtor$0@?0??hist_local@VImage@vips@@QEAA?AV12@HHPEAVVOption@2@@Z@4HA 000000018002a660 f   VImage.obj
 0001:00029660       ?dtor$0@?0??shrinkh@VImage@vips@@QEAA?AV12@HPEAVVOption@2@@Z@4HA 000000018002a660 f   VImage.obj
 0001:00029660       ?dtor$0@?0??round@VImage@vips@@QEAA?AV12@W4VipsOperationRound@@PEAVVOption@2@@Z@4HA 000000018002a660 f   VImage.obj
 0001:00029660       ?dtor$0@?0??bandbool@VImage@vips@@QEAA?AV12@W4VipsOperationBoolean@@PEAVVOption@2@@Z@4HA 000000018002a660 f   VImage.obj
 0001:00029660       ?dtor$0@?0??rot@VImage@vips@@QEAA?AV12@W4VipsAngle@@PEAVVOption@2@@Z@4HA 000000018002a660 f   VImage.obj
 0001:00029660       ?dtor$0@?0??resize@VImage@vips@@QEAA?AV12@NPEAVVOption@2@@Z@4HA 000000018002a660 f   VImage.obj
 0001:00029660       ?dtor$0@?0??project@VImage@vips@@QEAA?AV12@PEAV12@PEAVVOption@2@@Z@4HA 000000018002a660 f   VImage.obj
 0001:00029660       ?dtor$0@?0??replicate@VImage@vips@@QEAA?AV12@HHPEAVVOption@2@@Z@4HA 000000018002a660 f   VImage.obj
 0001:00029660       ?dtor$0@?0??profile@VImage@vips@@QEAA?AV12@PEAV12@PEAVVOption@2@@Z@4HA 000000018002a660 f   VImage.obj
 0001:00029660       ?dtor$0@?0??reducev@VImage@vips@@QEAA?AV12@NPEAVVOption@2@@Z@4HA 000000018002a660 f   VImage.obj
 0001:00029660       ?dtor$0@?0??rank@VImage@vips@@QEAA?AV12@HHHPEAVVOption@2@@Z@4HA 000000018002a660 f   VImage.obj
 0001:00029690       ?dtor$0@?0??math2_const@VImage@vips@@QEAA?AV12@W4VipsOperationMath2@@V?$vector@NV?$allocator@N@std@@@std@@PEAVVOption@2@@Z@4HA 000000018002a690 f   VImage.obj
 0001:00029690       ?dtor$0@?0??boolean_const@VImage@vips@@QEAA?AV12@W4VipsOperationBoolean@@V?$vector@NV?$allocator@N@std@@@std@@PEAVVOption@2@@Z@4HA 000000018002a690 f   VImage.obj
 0001:00029690       ?dtor$0@?0??relational_const@VImage@vips@@QEAA?AV12@W4VipsOperationRelational@@V?$vector@NV?$allocator@N@std@@@std@@PEAVVOption@2@@Z@4HA 000000018002a690 f   VImage.obj
 0001:0002969c       ?dtor$1@?0??boolean_const@VImage@vips@@QEAA?AV12@W4VipsOperationBoolean@@V?$vector@NV?$allocator@N@std@@@std@@PEAVVOption@2@@Z@4HA 000000018002a69c f   VImage.obj
 0001:0002969c       ?dtor$1@?0??math2_const@VImage@vips@@QEAA?AV12@W4VipsOperationMath2@@V?$vector@NV?$allocator@N@std@@@std@@PEAVVOption@2@@Z@4HA 000000018002a69c f   VImage.obj
 0001:0002969c       ?dtor$1@?0??relational_const@VImage@vips@@QEAA?AV12@W4VipsOperationRelational@@V?$vector@NV?$allocator@N@std@@@std@@PEAVVOption@2@@Z@4HA 000000018002a69c f   VImage.obj
 0001:000296c5       ?dtor$2@?0??boolean_const@VImage@vips@@QEAA?AV12@W4VipsOperationBoolean@@V?$vector@NV?$allocator@N@std@@@std@@PEAVVOption@2@@Z@4HA 000000018002a6c5 f   VImage.obj
 0001:000296c5       ?dtor$2@?0??math2_const@VImage@vips@@QEAA?AV12@W4VipsOperationMath2@@V?$vector@NV?$allocator@N@std@@@std@@PEAVVOption@2@@Z@4HA 000000018002a6c5 f   VImage.obj
 0001:000296c5       ?dtor$2@?0??relational_const@VImage@vips@@QEAA?AV12@W4VipsOperationRelational@@V?$vector@NV?$allocator@N@std@@@std@@PEAVVOption@2@@Z@4HA 000000018002a6c5 f   VImage.obj
 0001:000296e0       ?dtor$0@?0??remainder_const@VImage@vips@@QEAA?AV12@V?$vector@NV?$allocator@N@std@@@std@@PEAVVOption@2@@Z@4HA 000000018002a6e0 f   VImage.obj
 0001:000296e0       ?dtor$0@?0??affine@VImage@vips@@QEAA?AV12@V?$vector@NV?$allocator@N@std@@@std@@PEAVVOption@2@@Z@4HA 000000018002a6e0 f   VImage.obj
 0001:000296e0       ?dtor$0@?0??bandjoin_const@VImage@vips@@QEAA?AV12@V?$vector@NV?$allocator@N@std@@@std@@PEAVVOption@2@@Z@4HA 000000018002a6e0 f   VImage.obj
 0001:000296ec       ?dtor$1@?0??bandjoin_const@VImage@vips@@QEAA?AV12@V?$vector@NV?$allocator@N@std@@@std@@PEAVVOption@2@@Z@4HA 000000018002a6ec f   VImage.obj
 0001:000296ec       ?dtor$1@?0??remainder_const@VImage@vips@@QEAA?AV12@V?$vector@NV?$allocator@N@std@@@std@@PEAVVOption@2@@Z@4HA 000000018002a6ec f   VImage.obj
 0001:000296ec       ?dtor$1@?0??affine@VImage@vips@@QEAA?AV12@V?$vector@NV?$allocator@N@std@@@std@@PEAVVOption@2@@Z@4HA 000000018002a6ec f   VImage.obj
 0001:00029715       ?dtor$2@?0??remainder_const@VImage@vips@@QEAA?AV12@V?$vector@NV?$allocator@N@std@@@std@@PEAVVOption@2@@Z@4HA 000000018002a715 f   VImage.obj
 0001:00029715       ?dtor$2@?0??bandjoin_const@VImage@vips@@QEAA?AV12@V?$vector@NV?$allocator@N@std@@@std@@PEAVVOption@2@@Z@4HA 000000018002a715 f   VImage.obj
 0001:00029715       ?dtor$2@?0??affine@VImage@vips@@QEAA?AV12@V?$vector@NV?$allocator@N@std@@@std@@PEAVVOption@2@@Z@4HA 000000018002a715 f   VImage.obj
 0001:00029730       ?dtor$0@?0??getpoint@VImage@vips@@QEAA?AV?$vector@NV?$allocator@N@std@@@std@@HHPEAVVOption@2@@Z@4HA 000000018002a730 f   VImage.obj
 0001:00029760       ?dtor$0@?0??ifthenelse@VImage@vips@@QEAA?AV12@V12@0PEAVVOption@2@@Z@4HA 000000018002a760 f   VImage.obj
 0001:0002976c       ?dtor$1@?0??ifthenelse@VImage@vips@@QEAA?AV12@V12@0PEAVVOption@2@@Z@4HA 000000018002a76c f   VImage.obj
 0001:00029778       ?dtor$2@?0??ifthenelse@VImage@vips@@QEAA?AV12@V12@0PEAVVOption@2@@Z@4HA 000000018002a778 f   VImage.obj
 0001:000297a1       ?dtor$3@?0??ifthenelse@VImage@vips@@QEAA?AV12@V12@0PEAVVOption@2@@Z@4HA 000000018002a7a1 f   VImage.obj
 0001:000297ad       ?dtor$4@?0??ifthenelse@VImage@vips@@QEAA?AV12@V12@0PEAVVOption@2@@Z@4HA 000000018002a7ad f   VImage.obj
 0001:000297c0       ?dtor$0@?0??sines@VImage@vips@@SA?AV12@HHPEAVVOption@2@@Z@4HA 000000018002a7c0 f   VImage.obj
 0001:000297c0       ?dtor$0@?0??black@VImage@vips@@SA?AV12@HHPEAVVOption@2@@Z@4HA 000000018002a7c0 f   VImage.obj
 0001:000297c0       ?dtor$0@?0??jpegload@VImage@vips@@SA?AV12@PEADPEAVVOption@2@@Z@4HA 000000018002a7c0 f   VImage.obj
 0001:000297c0       ?dtor$0@?0??csvload@VImage@vips@@SA?AV12@PEADPEAVVOption@2@@Z@4HA 000000018002a7c0 f   VImage.obj
 0001:000297c0       ?dtor$0@?0??matrixload@VImage@vips@@SA?AV12@PEADPEAVVOption@2@@Z@4HA 000000018002a7c0 f   VImage.obj
 0001:000297c0       ?dtor$0@?0??jpegload_buffer@VImage@vips@@SA?AV12@PEAU_VipsBlob@@PEAVVOption@2@@Z@4HA 000000018002a7c0 f   VImage.obj
 0001:000297c0       ?dtor$0@?0??pdfload@VImage@vips@@SA?AV12@PEADPEAVVOption@2@@Z@4HA 000000018002a7c0 f   VImage.obj
 0001:000297c0       ?dtor$0@?0??pdfload_buffer@VImage@vips@@SA?AV12@PEAU_VipsBlob@@PEAVVOption@2@@Z@4HA 000000018002a7c0 f   VImage.obj
 0001:000297c0       ?dtor$0@?0??gifload_buffer@VImage@vips@@SA?AV12@PEAU_VipsBlob@@PEAVVOption@2@@Z@4HA 000000018002a7c0 f   VImage.obj
 0001:000297c0       ?dtor$0@?0??openexrload@VImage@vips@@SA?AV12@PEADPEAVVOption@2@@Z@4HA 000000018002a7c0 f   VImage.obj
 0001:000297c0       ?dtor$0@?0??perlin@VImage@vips@@SA?AV12@HHPEAVVOption@2@@Z@4HA 000000018002a7c0 f   VImage.obj
 0001:000297c0       ?dtor$0@?0??magickload_buffer@VImage@vips@@SA?AV12@PEAU_VipsBlob@@PEAVVOption@2@@Z@4HA 000000018002a7c0 f   VImage.obj
 0001:000297c0       ?dtor$0@?0??pngload@VImage@vips@@SA?AV12@PEADPEAVVOption@2@@Z@4HA 000000018002a7c0 f   VImage.obj
 0001:000297c0       ?dtor$0@?0??gaussnoise@VImage@vips@@SA?AV12@HHPEAVVOption@2@@Z@4HA 000000018002a7c0 f   VImage.obj
 0001:000297c0       ?dtor$0@?0??xyz@VImage@vips@@SA?AV12@HHPEAVVOption@2@@Z@4HA 000000018002a7c0 f   VImage.obj
 0001:000297c0       ?dtor$0@?0??pngload_buffer@VImage@vips@@SA?AV12@PEAU_VipsBlob@@PEAVVOption@2@@Z@4HA 000000018002a7c0 f   VImage.obj
 0001:000297c0       ?dtor$0@?0??svgload@VImage@vips@@SA?AV12@PEADPEAVVOption@2@@Z@4HA 000000018002a7c0 f   VImage.obj
 0001:000297c0       ?dtor$0@?0??ppmload@VImage@vips@@SA?AV12@PEADPEAVVOption@2@@Z@4HA 000000018002a7c0 f   VImage.obj
 0001:000297c0       ?dtor$0@?0??svgload_buffer@VImage@vips@@SA?AV12@PEAU_VipsBlob@@PEAVVOption@2@@Z@4HA 000000018002a7c0 f   VImage.obj
 0001:000297c0       ?dtor$0@?0??openslideload@VImage@vips@@SA?AV12@PEADPEAVVOption@2@@Z@4HA 000000018002a7c0 f   VImage.obj
 0001:000297c0       ?dtor$0@?0??text@VImage@vips@@SA?AV12@PEADPEAVVOption@2@@Z@4HA 000000018002a7c0 f   VImage.obj
 0001:000297c0       ?dtor$0@?0??thumbnail@VImage@vips@@SA?AV12@PEADHPEAVVOption@2@@Z@4HA 000000018002a7c0 f   VImage.obj
 0001:000297c0       ?dtor$0@?0??grey@VImage@vips@@SA?AV12@HHPEAVVOption@2@@Z@4HA 000000018002a7c0 f   VImage.obj
 0001:000297c0       ?dtor$0@?0??magickload@VImage@vips@@SA?AV12@PEADPEAVVOption@2@@Z@4HA 000000018002a7c0 f   VImage.obj
 0001:000297c0       ?dtor$0@?0??zone@VImage@vips@@SA?AV12@HHPEAVVOption@2@@Z@4HA 000000018002a7c0 f   VImage.obj
 0001:000297c0       ?dtor$0@?0??thumbnail_buffer@VImage@vips@@SA?AV12@PEAU_VipsBlob@@HPEAVVOption@2@@Z@4HA 000000018002a7c0 f   VImage.obj
 0001:000297c0       ?dtor$0@?0??tiffload@VImage@vips@@SA?AV12@PEADPEAVVOption@2@@Z@4HA 000000018002a7c0 f   VImage.obj
 0001:000297c0       ?dtor$0@?0??worley@VImage@vips@@SA?AV12@HHPEAVVOption@2@@Z@4HA 000000018002a7c0 f   VImage.obj
 0001:000297c0       ?dtor$0@?0??webpload_buffer@VImage@vips@@SA?AV12@PEAU_VipsBlob@@PEAVVOption@2@@Z@4HA 000000018002a7c0 f   VImage.obj
 0001:000297c0       ?dtor$0@?0??identity@VImage@vips@@SA?AV12@PEAVVOption@2@@Z@4HA 000000018002a7c0 f   VImage.obj
 0001:000297c0       ?dtor$0@?0??webpload@VImage@vips@@SA?AV12@PEADPEAVVOption@2@@Z@4HA 000000018002a7c0 f   VImage.obj
 0001:000297c0       ?dtor$0@?0??vipsload@VImage@vips@@SA?AV12@PEADPEAVVOption@2@@Z@4HA 000000018002a7c0 f   VImage.obj
 0001:000297c0       ?dtor$0@?0??gifload@VImage@vips@@SA?AV12@PEADPEAVVOption@2@@Z@4HA 000000018002a7c0 f   VImage.obj
 0001:000297c0       ?dtor$0@?0??rawload@VImage@vips@@SA?AV12@PEADHHHPEAVVOption@2@@Z@4HA 000000018002a7c0 f   VImage.obj
 0001:000297c0       ?dtor$0@?0??matload@VImage@vips@@SA?AV12@PEADPEAVVOption@2@@Z@4HA 000000018002a7c0 f   VImage.obj
 0001:000297c0       ?dtor$0@?0??radload@VImage@vips@@SA?AV12@PEADPEAVVOption@2@@Z@4HA 000000018002a7c0 f   VImage.obj
 0001:000297c0       ?dtor$0@?0??eye@VImage@vips@@SA?AV12@HHPEAVVOption@2@@Z@4HA 000000018002a7c0 f   VImage.obj
 0001:000297c0       ?dtor$0@?0??analyzeload@VImage@vips@@SA?AV12@PEADPEAVVOption@2@@Z@4HA 000000018002a7c0 f   VImage.obj
 0001:000297c0       ?dtor$0@?0??tiffload_buffer@VImage@vips@@SA?AV12@PEAU_VipsBlob@@PEAVVOption@2@@Z@4HA 000000018002a7c0 f   VImage.obj
 0001:000297c0       ?dtor$0@?0??fitsload@VImage@vips@@SA?AV12@PEADPEAVVOption@2@@Z@4HA 000000018002a7c0 f   VImage.obj
 0001:000297c0       ?dtor$0@?0??tonelut@VImage@vips@@SA?AV12@PEAVVOption@2@@Z@4HA 000000018002a7c0 f   VImage.obj
 0001:000297f0       ?dtor$0@?0??gaussmat@VImage@vips@@SA?AV12@NNPEAVVOption@2@@Z@4HA 000000018002a7f0 f   VImage.obj
 0001:000297f0       ?dtor$0@?0??logmat@VImage@vips@@SA?AV12@NNPEAVVOption@2@@Z@4HA 000000018002a7f0 f   VImage.obj
 0001:00029820       ?dtor$0@?0??mask_ideal@VImage@vips@@SA?AV12@HHNPEAVVOption@2@@Z@4HA 000000018002a820 f   VImage.obj
 0001:00029820       ?dtor$0@?0??mask_gaussian_ring@VImage@vips@@SA?AV12@HHNNNPEAVVOption@2@@Z@4HA 000000018002a820 f   VImage.obj
 0001:00029820       ?dtor$0@?0??mask_gaussian_band@VImage@vips@@SA?AV12@HHNNNNPEAVVOption@2@@Z@4HA 000000018002a820 f   VImage.obj
 0001:00029820       ?dtor$0@?0??mask_gaussian@VImage@vips@@SA?AV12@HHNNPEAVVOption@2@@Z@4HA 000000018002a820 f   VImage.obj
 0001:00029820       ?dtor$0@?0??fractsurf@VImage@vips@@SA?AV12@HHNPEAVVOption@2@@Z@4HA 000000018002a820 f   VImage.obj
 0001:00029820       ?dtor$0@?0??mask_ideal_band@VImage@vips@@SA?AV12@HHNNNPEAVVOption@2@@Z@4HA 000000018002a820 f   VImage.obj
 0001:00029820       ?dtor$0@?0??mask_fractal@VImage@vips@@SA?AV12@HHNPEAVVOption@2@@Z@4HA 000000018002a820 f   VImage.obj
 0001:00029820       ?dtor$0@?0??mask_butterworth_ring@VImage@vips@@SA?AV12@HHNNNNPEAVVOption@2@@Z@4HA 000000018002a820 f   VImage.obj
 0001:00029820       ?dtor$0@?0??mask_butterworth_band@VImage@vips@@SA?AV12@HHNNNNNPEAVVOption@2@@Z@4HA 000000018002a820 f   VImage.obj
 0001:00029820       ?dtor$0@?0??mask_butterworth@VImage@vips@@SA?AV12@HHNNNPEAVVOption@2@@Z@4HA 000000018002a820 f   VImage.obj
 0001:00029820       ?dtor$0@?0??mask_ideal_ring@VImage@vips@@SA?AV12@HHNNPEAVVOption@2@@Z@4HA 000000018002a820 f   VImage.obj
 0001:00029850       ?dtor$0@?0??shrink@VImage@vips@@QEAA?AV12@NNPEAVVOption@2@@Z@4HA 000000018002a850 f   VImage.obj
 0001:00029850       ?dtor$0@?0??reduce@VImage@vips@@QEAA?AV12@NNPEAVVOption@2@@Z@4HA 000000018002a850 f   VImage.obj
 0001:00029880       ?dtor$0@?0??draw_line@VImage@vips@@QEAAXV?$vector@NV?$allocator@N@std@@@std@@HHHHPEAVVOption@2@@Z@4HA 000000018002a880 f   VImage.obj
 0001:00029880       ?dtor$0@?0??draw_flood@VImage@vips@@QEAAXV?$vector@NV?$allocator@N@std@@@std@@HHPEAVVOption@2@@Z@4HA 000000018002a880 f   VImage.obj
 0001:00029880       ?dtor$0@?0??draw_circle@VImage@vips@@QEAAXV?$vector@NV?$allocator@N@std@@@std@@HHHPEAVVOption@2@@Z@4HA 000000018002a880 f   VImage.obj
 0001:00029880       ?dtor$0@?0??draw_rect@VImage@vips@@QEAAXV?$vector@NV?$allocator@N@std@@@std@@HHHHPEAVVOption@2@@Z@4HA 000000018002a880 f   VImage.obj
 0001:0002988c       ?dtor$1@?0??draw_line@VImage@vips@@QEAAXV?$vector@NV?$allocator@N@std@@@std@@HHHHPEAVVOption@2@@Z@4HA 000000018002a88c f   VImage.obj
 0001:0002988c       ?dtor$1@?0??draw_circle@VImage@vips@@QEAAXV?$vector@NV?$allocator@N@std@@@std@@HHHPEAVVOption@2@@Z@4HA 000000018002a88c f   VImage.obj
 0001:0002988c       ?dtor$1@?0??draw_flood@VImage@vips@@QEAAXV?$vector@NV?$allocator@N@std@@@std@@HHPEAVVOption@2@@Z@4HA 000000018002a88c f   VImage.obj
 0001:0002988c       ?dtor$1@?0??draw_rect@VImage@vips@@QEAAXV?$vector@NV?$allocator@N@std@@@std@@HHHHPEAVVOption@2@@Z@4HA 000000018002a88c f   VImage.obj
 0001:000298a0       ?dtor$0@?0??draw_mask@VImage@vips@@QEAAXV?$vector@NV?$allocator@N@std@@@std@@V12@HHPEAVVOption@2@@Z@4HA 000000018002a8a0 f   VImage.obj
 0001:000298ac       ?dtor$1@?0??draw_mask@VImage@vips@@QEAAXV?$vector@NV?$allocator@N@std@@@std@@V12@HHPEAVVOption@2@@Z@4HA 000000018002a8ac f   VImage.obj
 0001:000298b8       ?dtor$2@?0??draw_mask@VImage@vips@@QEAAXV?$vector@NV?$allocator@N@std@@@std@@V12@HHPEAVVOption@2@@Z@4HA 000000018002a8b8 f   VImage.obj
 0001:000298c4       ?dtor$3@?0??draw_mask@VImage@vips@@QEAAXV?$vector@NV?$allocator@N@std@@@std@@V12@HHPEAVVOption@2@@Z@4HA 000000018002a8c4 f   VImage.obj
 0001:000298d0       ?dtor$0@?0??draw_image@VImage@vips@@QEAAXV12@HHPEAVVOption@2@@Z@4HA 000000018002a8d0 f   VImage.obj
 0001:000298dc       ?dtor$1@?0??draw_image@VImage@vips@@QEAAXV12@HHPEAVVOption@2@@Z@4HA 000000018002a8dc f   VImage.obj
 0001:000298f0       ?dtor$0@?0??bandsplit@VImage@vips@@QEAA?AV?$vector@VVImage@vips@@V?$allocator@VVImage@vips@@@std@@@std@@PEAVVOption@2@@Z@4HA 000000018002a8f0 f   VImage.obj
 0001:00029916       ?dtor$1@?0??bandsplit@VImage@vips@@QEAA?AV?$vector@VVImage@vips@@V?$allocator@VVImage@vips@@@std@@@std@@PEAVVOption@2@@Z@4HA 000000018002a916 f   VImage.obj
 0001:00029930       ?dtor$0@?0??bandjoin@VImage@vips@@QEAA?AV12@V12@PEAVVOption@2@@Z@4HA 000000018002a930 f   VImage.obj
 0001:0002993c       ?dtor$3@?0??bandjoin@VImage@vips@@QEAA?AV12@V12@PEAVVOption@2@@Z@4HA 000000018002a93c f   VImage.obj
 0001:00029966       ?dtor$4@?0??bandjoin@VImage@vips@@QEAA?AV12@V12@PEAVVOption@2@@Z@4HA 000000018002a966 f   VImage.obj
 0001:00029972       ?dtor$6@?0??bandjoin@VImage@vips@@QEAA?AV12@V12@PEAVVOption@2@@Z@4HA 000000018002a972 f   VImage.obj
 0001:000299a0       ?dtor$0@?0???Kvips@@YA?AVVImage@0@V10@0@Z@4HA 000000018002a9a0 f   VImage.obj
 0001:000299a0       ?dtor$0@?0???9vips@@YA?AVVImage@0@V10@0@Z@4HA 000000018002a9a0 f   VImage.obj
 0001:000299a0       ?dtor$0@?0???Lvips@@YA?AVVImage@0@V10@0@Z@4HA 000000018002a9a0 f   VImage.obj
 0001:000299a0       ?dtor$0@?0???6vips@@YA?AVVImage@0@V10@0@Z@4HA 000000018002a9a0 f   VImage.obj
 0001:000299a0       ?dtor$0@?0???5vips@@YA?AVVImage@0@V10@0@Z@4HA 000000018002a9a0 f   VImage.obj
 0001:000299a0       ?dtor$0@?0???Mvips@@YA?AVVImage@0@V10@0@Z@4HA 000000018002a9a0 f   VImage.obj
 0001:000299a0       ?dtor$0@?0???Ivips@@YA?AVVImage@0@V10@0@Z@4HA 000000018002a9a0 f   VImage.obj
 0001:000299a0       ?dtor$0@?0???Nvips@@YA?AVVImage@0@V10@0@Z@4HA 000000018002a9a0 f   VImage.obj
 0001:000299a0       ?dtor$0@?0???Dvips@@YA?AVVImage@0@V10@0@Z@4HA 000000018002a9a0 f   VImage.obj
 0001:000299a0       ?dtor$0@?0???Hvips@@YA?AVVImage@0@V10@0@Z@4HA 000000018002a9a0 f   VImage.obj
 0001:000299a0       ?dtor$0@?0???Ovips@@YA?AVVImage@0@V10@0@Z@4HA 000000018002a9a0 f   VImage.obj
 0001:000299a0       ?dtor$0@?0???Gvips@@YA?AVVImage@0@V10@0@Z@4HA 000000018002a9a0 f   VImage.obj
 0001:000299a0       ?dtor$0@?0???8vips@@YA?AVVImage@0@V10@0@Z@4HA 000000018002a9a0 f   VImage.obj
 0001:000299a0       ?dtor$0@?0???Pvips@@YA?AVVImage@0@V10@0@Z@4HA 000000018002a9a0 f   VImage.obj
 0001:000299a0       ?dtor$0@?0???Tvips@@YA?AVVImage@0@V10@0@Z@4HA 000000018002a9a0 f   VImage.obj
 0001:000299a0       ?dtor$0@?0???Uvips@@YA?AVVImage@0@V10@0@Z@4HA 000000018002a9a0 f   VImage.obj
 0001:000299ac       ?dtor$1@?0???Dvips@@YA?AVVImage@0@V10@0@Z@4HA 000000018002a9ac f   VImage.obj
 0001:000299ac       ?dtor$1@?0???Uvips@@YA?AVVImage@0@V10@0@Z@4HA 000000018002a9ac f   VImage.obj
 0001:000299ac       ?dtor$1@?0???Tvips@@YA?AVVImage@0@V10@0@Z@4HA 000000018002a9ac f   VImage.obj
 0001:000299ac       ?dtor$1@?0???Pvips@@YA?AVVImage@0@V10@0@Z@4HA 000000018002a9ac f   VImage.obj
 0001:000299ac       ?dtor$1@?0???9vips@@YA?AVVImage@0@V10@0@Z@4HA 000000018002a9ac f   VImage.obj
 0001:000299ac       ?dtor$1@?0???Ovips@@YA?AVVImage@0@V10@0@Z@4HA 000000018002a9ac f   VImage.obj
 0001:000299ac       ?dtor$1@?0???Nvips@@YA?AVVImage@0@V10@0@Z@4HA 000000018002a9ac f   VImage.obj
 0001:000299ac       ?dtor$1@?0???8vips@@YA?AVVImage@0@V10@0@Z@4HA 000000018002a9ac f   VImage.obj
 0001:000299ac       ?dtor$1@?0???Mvips@@YA?AVVImage@0@V10@0@Z@4HA 000000018002a9ac f   VImage.obj
 0001:000299ac       ?dtor$1@?0???6vips@@YA?AVVImage@0@V10@0@Z@4HA 000000018002a9ac f   VImage.obj
 0001:000299ac       ?dtor$1@?0???5vips@@YA?AVVImage@0@V10@0@Z@4HA 000000018002a9ac f   VImage.obj
 0001:000299ac       ?dtor$1@?0???Gvips@@YA?AVVImage@0@V10@0@Z@4HA 000000018002a9ac f   VImage.obj
 0001:000299ac       ?dtor$1@?0???Lvips@@YA?AVVImage@0@V10@0@Z@4HA 000000018002a9ac f   VImage.obj
 0001:000299ac       ?dtor$1@?0???Hvips@@YA?AVVImage@0@V10@0@Z@4HA 000000018002a9ac f   VImage.obj
 0001:000299ac       ?dtor$1@?0???Kvips@@YA?AVVImage@0@V10@0@Z@4HA 000000018002a9ac f   VImage.obj
 0001:000299ac       ?dtor$1@?0???Ivips@@YA?AVVImage@0@V10@0@Z@4HA 000000018002a9ac f   VImage.obj
 0001:000299c0       ?dtor$0@?0???Gvips@@YA?AVVImage@0@NV10@@Z@4HA 000000018002a9c0 f   VImage.obj
 0001:000299c0       ?dtor$0@?0???Hvips@@YA?AVVImage@0@NV10@@Z@4HA 000000018002a9c0 f   VImage.obj
 0001:000299c0       ?dtor$0@?0???Dvips@@YA?AVVImage@0@NV10@@Z@4HA 000000018002a9c0 f   VImage.obj
 0001:000299d0       ?dtor$0@?0???Kvips@@YA?AVVImage@0@V10@N@Z@4HA 000000018002a9d0 f   VImage.obj
 0001:000299d0       ?dtor$0@?0???Hvips@@YA?AVVImage@0@V10@N@Z@4HA 000000018002a9d0 f   VImage.obj
 0001:000299d0       ?dtor$0@?0???Gvips@@YA?AVVImage@0@V10@N@Z@4HA 000000018002a9d0 f   VImage.obj
 0001:000299d0       ?dtor$0@?0???Dvips@@YA?AVVImage@0@V10@N@Z@4HA 000000018002a9d0 f   VImage.obj
 0001:000299d0       ?dtor$0@?0???Gvips@@YA?AVVImage@0@V10@@Z@4HA 000000018002a9d0 f   VImage.obj
 0001:000299e0       ?dtor$0@?0???Gvips@@YA?AVVImage@0@V?$vector@NV?$allocator@N@std@@@std@@V10@@Z@4HA 000000018002a9e0 f   VImage.obj
 0001:000299e0       ?dtor$0@?0???Dvips@@YA?AVVImage@0@V?$vector@NV?$allocator@N@std@@@std@@V10@@Z@4HA 000000018002a9e0 f   VImage.obj
 0001:000299e0       ?dtor$0@?0???Mvips@@YA?AVVImage@0@V?$vector@NV?$allocator@N@std@@@std@@V10@@Z@4HA 000000018002a9e0 f   VImage.obj
 0001:000299e0       ?dtor$0@?0???Hvips@@YA?AVVImage@0@V?$vector@NV?$allocator@N@std@@@std@@V10@@Z@4HA 000000018002a9e0 f   VImage.obj
 0001:000299e0       ?dtor$0@?0???8vips@@YA?AVVImage@0@V?$vector@NV?$allocator@N@std@@@std@@V10@@Z@4HA 000000018002a9e0 f   VImage.obj
 0001:000299e0       ?dtor$0@?0???Ovips@@YA?AVVImage@0@V?$vector@NV?$allocator@N@std@@@std@@V10@@Z@4HA 000000018002a9e0 f   VImage.obj
 0001:000299e0       ?dtor$0@?0???Tvips@@YA?AVVImage@0@V?$vector@NV?$allocator@N@std@@@std@@V10@@Z@4HA 000000018002a9e0 f   VImage.obj
 0001:000299e0       ?dtor$0@?0???Uvips@@YA?AVVImage@0@V?$vector@NV?$allocator@N@std@@@std@@V10@@Z@4HA 000000018002a9e0 f   VImage.obj
 0001:000299e0       ?dtor$0@?0???Ivips@@YA?AVVImage@0@V?$vector@NV?$allocator@N@std@@@std@@V10@@Z@4HA 000000018002a9e0 f   VImage.obj
 0001:000299e0       ?dtor$0@?0???9vips@@YA?AVVImage@0@V?$vector@NV?$allocator@N@std@@@std@@V10@@Z@4HA 000000018002a9e0 f   VImage.obj
 0001:000299e0       ?dtor$0@?0???Pvips@@YA?AVVImage@0@V?$vector@NV?$allocator@N@std@@@std@@V10@@Z@4HA 000000018002a9e0 f   VImage.obj
 0001:000299e0       ?dtor$0@?0???Nvips@@YA?AVVImage@0@V?$vector@NV?$allocator@N@std@@@std@@V10@@Z@4HA 000000018002a9e0 f   VImage.obj
 0001:000299ec       ?dtor$1@?0???Ovips@@YA?AVVImage@0@V?$vector@NV?$allocator@N@std@@@std@@V10@@Z@4HA 000000018002a9ec f   VImage.obj
 0001:000299ec       ?dtor$1@?0???Tvips@@YA?AVVImage@0@V?$vector@NV?$allocator@N@std@@@std@@V10@@Z@4HA 000000018002a9ec f   VImage.obj
 0001:000299ec       ?dtor$1@?0???8vips@@YA?AVVImage@0@V?$vector@NV?$allocator@N@std@@@std@@V10@@Z@4HA 000000018002a9ec f   VImage.obj
 0001:000299ec       ?dtor$1@?0???9vips@@YA?AVVImage@0@V?$vector@NV?$allocator@N@std@@@std@@V10@@Z@4HA 000000018002a9ec f   VImage.obj
 0001:000299ec       ?dtor$1@?0???Nvips@@YA?AVVImage@0@V?$vector@NV?$allocator@N@std@@@std@@V10@@Z@4HA 000000018002a9ec f   VImage.obj
 0001:000299ec       ?dtor$1@?0???Dvips@@YA?AVVImage@0@V?$vector@NV?$allocator@N@std@@@std@@V10@@Z@4HA 000000018002a9ec f   VImage.obj
 0001:000299ec       ?dtor$1@?0???Mvips@@YA?AVVImage@0@V?$vector@NV?$allocator@N@std@@@std@@V10@@Z@4HA 000000018002a9ec f   VImage.obj
 0001:000299ec       ?dtor$1@?0???Gvips@@YA?AVVImage@0@V?$vector@NV?$allocator@N@std@@@std@@V10@@Z@4HA 000000018002a9ec f   VImage.obj
 0001:000299ec       ?dtor$1@?0???Hvips@@YA?AVVImage@0@V?$vector@NV?$allocator@N@std@@@std@@V10@@Z@4HA 000000018002a9ec f   VImage.obj
 0001:000299ec       ?dtor$1@?0???Uvips@@YA?AVVImage@0@V?$vector@NV?$allocator@N@std@@@std@@V10@@Z@4HA 000000018002a9ec f   VImage.obj
 0001:000299ec       ?dtor$1@?0???Ivips@@YA?AVVImage@0@V?$vector@NV?$allocator@N@std@@@std@@V10@@Z@4HA 000000018002a9ec f   VImage.obj
 0001:000299ec       ?dtor$1@?0???Pvips@@YA?AVVImage@0@V?$vector@NV?$allocator@N@std@@@std@@V10@@Z@4HA 000000018002a9ec f   VImage.obj
 0001:00029a00       ?dtor$0@?0???Ovips@@YA?AVVImage@0@V10@V?$vector@NV?$allocator@N@std@@@std@@@Z@4HA 000000018002aa00 f   VImage.obj
 0001:00029a00       ?dtor$0@?0???Dvips@@YA?AVVImage@0@V10@V?$vector@NV?$allocator@N@std@@@std@@@Z@4HA 000000018002aa00 f   VImage.obj
 0001:00029a00       ?dtor$0@?0???Uvips@@YA?AVVImage@0@V10@V?$vector@NV?$allocator@N@std@@@std@@@Z@4HA 000000018002aa00 f   VImage.obj
 0001:00029a00       ?dtor$0@?0???Hvips@@YA?AVVImage@0@V10@V?$vector@NV?$allocator@N@std@@@std@@@Z@4HA 000000018002aa00 f   VImage.obj
 0001:00029a00       ?dtor$0@?0???Lvips@@YA?AVVImage@0@V10@V?$vector@NV?$allocator@N@std@@@std@@@Z@4HA 000000018002aa00 f   VImage.obj
 0001:00029a00       ?dtor$0@?0???Ivips@@YA?AVVImage@0@V10@V?$vector@NV?$allocator@N@std@@@std@@@Z@4HA 000000018002aa00 f   VImage.obj
 0001:00029a00       ?dtor$0@?0???9vips@@YA?AVVImage@0@V10@V?$vector@NV?$allocator@N@std@@@std@@@Z@4HA 000000018002aa00 f   VImage.obj
 0001:00029a00       ?dtor$0@?0???Pvips@@YA?AVVImage@0@V10@V?$vector@NV?$allocator@N@std@@@std@@@Z@4HA 000000018002aa00 f   VImage.obj
 0001:00029a00       ?dtor$0@?0???5vips@@YA?AVVImage@0@V10@V?$vector@NV?$allocator@N@std@@@std@@@Z@4HA 000000018002aa00 f   VImage.obj
 0001:00029a00       ?dtor$0@?0???Nvips@@YA?AVVImage@0@V10@V?$vector@NV?$allocator@N@std@@@std@@@Z@4HA 000000018002aa00 f   VImage.obj
 0001:00029a00       ?dtor$0@?0???8vips@@YA?AVVImage@0@V10@V?$vector@NV?$allocator@N@std@@@std@@@Z@4HA 000000018002aa00 f   VImage.obj
 0001:00029a00       ?dtor$0@?0???Tvips@@YA?AVVImage@0@V10@V?$vector@NV?$allocator@N@std@@@std@@@Z@4HA 000000018002aa00 f   VImage.obj
 0001:00029a00       ?dtor$0@?0???Mvips@@YA?AVVImage@0@V10@V?$vector@NV?$allocator@N@std@@@std@@@Z@4HA 000000018002aa00 f   VImage.obj
 0001:00029a00       ?dtor$0@?0???6vips@@YA?AVVImage@0@V10@V?$vector@NV?$allocator@N@std@@@std@@@Z@4HA 000000018002aa00 f   VImage.obj
 0001:00029a0c       ?dtor$1@?0???8vips@@YA?AVVImage@0@V10@V?$vector@NV?$allocator@N@std@@@std@@@Z@4HA 000000018002aa0c f   VImage.obj
 0001:00029a0c       ?dtor$1@?0???Nvips@@YA?AVVImage@0@V10@V?$vector@NV?$allocator@N@std@@@std@@@Z@4HA 000000018002aa0c f   VImage.obj
 0001:00029a0c       ?dtor$1@?0???Mvips@@YA?AVVImage@0@V10@V?$vector@NV?$allocator@N@std@@@std@@@Z@4HA 000000018002aa0c f   VImage.obj
 0001:00029a0c       ?dtor$1@?0???Ovips@@YA?AVVImage@0@V10@V?$vector@NV?$allocator@N@std@@@std@@@Z@4HA 000000018002aa0c f   VImage.obj
 0001:00029a0c       ?dtor$1@?0???Pvips@@YA?AVVImage@0@V10@V?$vector@NV?$allocator@N@std@@@std@@@Z@4HA 000000018002aa0c f   VImage.obj
 0001:00029a0c       ?dtor$1@?0???Lvips@@YA?AVVImage@0@V10@V?$vector@NV?$allocator@N@std@@@std@@@Z@4HA 000000018002aa0c f   VImage.obj
 0001:00029a0c       ?dtor$1@?0???Tvips@@YA?AVVImage@0@V10@V?$vector@NV?$allocator@N@std@@@std@@@Z@4HA 000000018002aa0c f   VImage.obj
 0001:00029a0c       ?dtor$1@?0???9vips@@YA?AVVImage@0@V10@V?$vector@NV?$allocator@N@std@@@std@@@Z@4HA 000000018002aa0c f   VImage.obj
 0001:00029a0c       ?dtor$1@?0???Ivips@@YA?AVVImage@0@V10@V?$vector@NV?$allocator@N@std@@@std@@@Z@4HA 000000018002aa0c f   VImage.obj
 0001:00029a0c       ?dtor$1@?0???5vips@@YA?AVVImage@0@V10@V?$vector@NV?$allocator@N@std@@@std@@@Z@4HA 000000018002aa0c f   VImage.obj
 0001:00029a0c       ?dtor$1@?0???6vips@@YA?AVVImage@0@V10@V?$vector@NV?$allocator@N@std@@@std@@@Z@4HA 000000018002aa0c f   VImage.obj
 0001:00029a0c       ?dtor$1@?0???Hvips@@YA?AVVImage@0@V10@V?$vector@NV?$allocator@N@std@@@std@@@Z@4HA 000000018002aa0c f   VImage.obj
 0001:00029a0c       ?dtor$1@?0???Dvips@@YA?AVVImage@0@V10@V?$vector@NV?$allocator@N@std@@@std@@@Z@4HA 000000018002aa0c f   VImage.obj
 0001:00029a0c       ?dtor$1@?0???Uvips@@YA?AVVImage@0@V10@V?$vector@NV?$allocator@N@std@@@std@@@Z@4HA 000000018002aa0c f   VImage.obj
 0001:00029a20       ?dtor$0@?0???Zvips@@YAAEAVVImage@0@AEAV10@V10@@Z@4HA 000000018002aa20 f   VImage.obj
 0001:00029a20       ?dtor$0@?0???_0vips@@YAAEAVVImage@0@AEAV10@V10@@Z@4HA 000000018002aa20 f   VImage.obj
 0001:00029a20       ?dtor$0@?0???_1vips@@YAAEAVVImage@0@AEAV10@V10@@Z@4HA 000000018002aa20 f   VImage.obj
 0001:00029a20       ?dtor$0@?0???_2vips@@YAAEAVVImage@0@AEAV10@V10@@Z@4HA 000000018002aa20 f   VImage.obj
 0001:00029a20       ?dtor$0@?0???_3vips@@YAAEAVVImage@0@AEAV10@V10@@Z@4HA 000000018002aa20 f   VImage.obj
 0001:00029a20       ?dtor$0@?0???_4vips@@YAAEAVVImage@0@AEAV10@V10@@Z@4HA 000000018002aa20 f   VImage.obj
 0001:00029a20       ?dtor$0@?0???_5vips@@YAAEAVVImage@0@AEAV10@V10@@Z@4HA 000000018002aa20 f   VImage.obj
 0001:00029a20       ?dtor$0@?0???_6vips@@YAAEAVVImage@0@AEAV10@V10@@Z@4HA 000000018002aa20 f   VImage.obj
 0001:00029a20       ?dtor$0@?0???Xvips@@YAAEAVVImage@0@AEAV10@V10@@Z@4HA 000000018002aa20 f   VImage.obj
 0001:00029a20       ?dtor$0@?0???Yvips@@YAAEAVVImage@0@AEAV10@V10@@Z@4HA 000000018002aa20 f   VImage.obj
 0001:00029a30       ?dtor$0@?0???_1vips@@YAAEAVVImage@0@AEAV10@V?$vector@NV?$allocator@N@std@@@std@@@Z@4HA 000000018002aa30 f   VImage.obj
 0001:00029a30       ?dtor$0@?0???Yvips@@YAAEAVVImage@0@AEAV10@V?$vector@NV?$allocator@N@std@@@std@@@Z@4HA 000000018002aa30 f   VImage.obj
 0001:00029a30       ?dtor$0@?0???_5vips@@YAAEAVVImage@0@AEAV10@V?$vector@NV?$allocator@N@std@@@std@@@Z@4HA 000000018002aa30 f   VImage.obj
 0001:00029a30       ?dtor$0@?0???_6vips@@YAAEAVVImage@0@AEAV10@V?$vector@NV?$allocator@N@std@@@std@@@Z@4HA 000000018002aa30 f   VImage.obj
 0001:00029a30       ?dtor$0@?0???Xvips@@YAAEAVVImage@0@AEAV10@V?$vector@NV?$allocator@N@std@@@std@@@Z@4HA 000000018002aa30 f   VImage.obj
 0001:00029a30       ?dtor$0@?0???_3vips@@YAAEAVVImage@0@AEAV10@V?$vector@NV?$allocator@N@std@@@std@@@Z@4HA 000000018002aa30 f   VImage.obj
 0001:00029a30       ?dtor$0@?0???_2vips@@YAAEAVVImage@0@AEAV10@V?$vector@NV?$allocator@N@std@@@std@@@Z@4HA 000000018002aa30 f   VImage.obj
 0001:00029a30       ?dtor$0@?0???Zvips@@YAAEAVVImage@0@AEAV10@V?$vector@NV?$allocator@N@std@@@std@@@Z@4HA 000000018002aa30 f   VImage.obj
 0001:00029a30       ?dtor$0@?0???_4vips@@YAAEAVVImage@0@AEAV10@V?$vector@NV?$allocator@N@std@@@std@@@Z@4HA 000000018002aa30 f   VImage.obj
 0001:00029a30       ?dtor$0@?0???_0vips@@YAAEAVVImage@0@AEAV10@V?$vector@NV?$allocator@N@std@@@std@@@Z@4HA 000000018002aa30 f   VImage.obj
 0001:00029a40       ?dtor$0@?0???Kvips@@YA?AVVImage@0@V10@V?$vector@NV?$allocator@N@std@@@std@@@Z@4HA 000000018002aa40 f   VImage.obj
 0001:00029a40       ?dtor$0@?0???Gvips@@YA?AVVImage@0@V10@V?$vector@NV?$allocator@N@std@@@std@@@Z@4HA 000000018002aa40 f   VImage.obj
 0001:00029a4c       ?dtor$1@?0???Gvips@@YA?AVVImage@0@V10@V?$vector@NV?$allocator@N@std@@@std@@@Z@4HA 000000018002aa4c f   VImage.obj
 0001:00029a4c       ?dtor$1@?0???Kvips@@YA?AVVImage@0@V10@V?$vector@NV?$allocator@N@std@@@std@@@Z@4HA 000000018002aa4c f   VImage.obj
 0001:00029a60       ?dtor$0@?0???Kvips@@YA?AVVImage@0@NV10@@Z@4HA 000000018002aa60 f   VImage.obj
 0001:00029a6c       ?dtor$1@?0???Kvips@@YA?AVVImage@0@NV10@@Z@4HA 000000018002aa6c f   VImage.obj
 0001:00029a80       ?dtor$0@?0???Kvips@@YA?AVVImage@0@V?$vector@NV?$allocator@N@std@@@std@@V10@@Z@4HA 000000018002aa80 f   VImage.obj
 0001:00029a8c       ?dtor$1@?0???Kvips@@YA?AVVImage@0@V?$vector@NV?$allocator@N@std@@@std@@V10@@Z@4HA 000000018002aa8c f   VImage.obj
 0001:00029a98       ?dtor$2@?0???Kvips@@YA?AVVImage@0@V?$vector@NV?$allocator@N@std@@@std@@V10@@Z@4HA 000000018002aa98 f   VImage.obj
 0001:00029aa4       ?dtor$3@?0???Kvips@@YA?AVVImage@0@V?$vector@NV?$allocator@N@std@@@std@@V10@@Z@4HA 000000018002aaa4 f   VImage.obj
 0001:00029ab0       ?dtor$0@?0???9vips@@YA?AVVImage@0@V10@N@Z@4HA 000000018002aab0 f   VImage.obj
 0001:00029ab0       ?dtor$0@?0???Ovips@@YA?AVVImage@0@V10@N@Z@4HA 000000018002aab0 f   VImage.obj
 0001:00029ab0       ?dtor$0@?0???Tvips@@YA?AVVImage@0@V10@N@Z@4HA 000000018002aab0 f   VImage.obj
 0001:00029ab0       ?dtor$0@?0???6vips@@YA?AVVImage@0@V10@N@Z@4HA 000000018002aab0 f   VImage.obj
 0001:00029ab0       ?dtor$0@?0???Nvips@@YA?AVVImage@0@V10@N@Z@4HA 000000018002aab0 f   VImage.obj
 0001:00029ab0       ?dtor$0@?0???Lvips@@YA?AVVImage@0@V10@N@Z@4HA 000000018002aab0 f   VImage.obj
 0001:00029ab0       ?dtor$0@?0???Ivips@@YA?AVVImage@0@V10@N@Z@4HA 000000018002aab0 f   VImage.obj
 0001:00029ab0       ?dtor$0@?0???8vips@@YA?AVVImage@0@V10@N@Z@4HA 000000018002aab0 f   VImage.obj
 0001:00029ab0       ?dtor$0@?0???Pvips@@YA?AVVImage@0@V10@N@Z@4HA 000000018002aab0 f   VImage.obj
 0001:00029ab0       ?dtor$0@?0???Uvips@@YA?AVVImage@0@V10@N@Z@4HA 000000018002aab0 f   VImage.obj
 0001:00029ab0       ?dtor$0@?0???5vips@@YA?AVVImage@0@V10@N@Z@4HA 000000018002aab0 f   VImage.obj
 0001:00029ab0       ?dtor$0@?0???Mvips@@YA?AVVImage@0@V10@N@Z@4HA 000000018002aab0 f   VImage.obj
 0001:00029abc       ?fin$0@?0???_M@YAXPEAX_K1P6AX0@Z@Z@4HA 000000018002aabc f   LIBCMT:ehvecdtr.obj
 0001:00029ae8       ?filt$0@?0??__ArrayUnwind@@YAXPEAX_K1P6AX0@Z@Z@4HA 000000018002aae8 f   LIBCMT:ehvecdtr.obj
 0001:00029b29       __scrt_is_nonwritable_in_current_image$filt$0 000000018002ab29 f   LIBCMT:utility.obj
 0001:00029b41       ?fin$0@?0??dllmain_crt_process_attach@@YAHQEAUHINSTANCE__@@QEAX@Z@4HA 000000018002ab41 f   LIBCMT:dll_dllmain.obj
 0001:00029b58       ?fin$0@?0??dllmain_crt_process_detach@@YAH_N@Z@4HA 000000018002ab58 f   LIBCMT:dll_dllmain.obj
 0001:00029b74       ?filt$0@?0??dllmain_dispatch@@YAHQEAUHINSTANCE__@@KQEAX@Z@4HA 000000018002ab74 f   LIBCMT:dll_dllmain.obj
 0001:00029baa       __CxxCallCatchBlock$filt$0 000000018002abaa f   libvcruntime:frame.obj
 0001:00029bcf       __CxxCallCatchBlock$fin$1  000000018002abcf f   libvcruntime:frame.obj
 0001:00029c47       __DestructExceptionObject$filt$0 000000018002ac47 f   libvcruntime:frame.obj
 0001:00029c5f       __FrameUnwindToState$filt$0 000000018002ac5f f   libvcruntime:frame.obj
 0001:00029c75       __FrameUnwindToState$fin$1 000000018002ac75 f   libvcruntime:frame.obj
 0001:00029c98       _CallSETranslator$filt$0   000000018002ac98 f   libvcruntime:trnsctrl.obj
 0001:00029ce4       _query_new_handler$fin$0   000000018002ace4 f   libucrt:new_handler.obj
 0001:00029cfa       ?filt$0@?0??common_exit@@YAXHW4_crt_exit_cleanup_mode@@W4_crt_exit_return_mode@@@Z@4HA 000000018002acfa f   libucrt:exit.obj
 0001:00029d15       ?fin$1@?0??common_exit@@YAXHW4_crt_exit_cleanup_mode@@W4_crt_exit_return_mode@@@Z@4HA 000000018002ad15 f   libucrt:exit.obj
 0001:00029d2e       ?fin$0@?0???$?RV<lambda_e24bbb7b643b32fcea6fa61b31d4c984>@@AEAV<lambda_275893d493268fdec8709772e3fcec0e>@@V<lambda_9d71df4d7cf3f480f8d633942495c3b0>@@@?$__crt_seh_guarded_call@H@@QEAAH$$QEAV<lambda_e24bbb7b643b32fcea6fa61b31d4c984>@@AEAV<lambda_275893d493268fdec8709772e3fcec0e>@@$$QEAV<lambda_9d71df4d7cf3f480f8d633942495c3b0>@@@Z@4HA 000000018002ad2e f   libucrt:onexit.obj
 0001:00029d4b       __acrt_update_thread_multibyte_data$fin$0 000000018002ad4b f   libucrt:mbctype.obj
 0001:00029d64       ?fin$0@?0???$?RV<lambda_46352004c1216016012b18bd6f87e700>@@AEAV<lambda_3bd07e1a1191394380780325891bf33f>@@V<lambda_334532d3f185bcaa59b5be82d7d22bff>@@@?$__crt_seh_guarded_call@X@@QEAAX$$QEAV<lambda_46352004c1216016012b18bd6f87e700>@@AEAV<lambda_3bd07e1a1191394380780325891bf33f>@@$$QEAV<lambda_334532d3f185bcaa59b5be82d7d22bff>@@@Z@4HA 000000018002ad64 f   libucrt:per_thread_data.obj
 0001:00029d64       ?fin$0@?0???$?RV<lambda_72d1df2b273a38828b1ce30cbf4cdab5>@@AEAV<lambda_876a65b173b8412d3a47c70a915b0cf4>@@V<lambda_41932305e351933ebe8f8be3ed8bb5dc>@@@?$__crt_seh_guarded_call@X@@QEAAX$$QEAV<lambda_72d1df2b273a38828b1ce30cbf4cdab5>@@AEAV<lambda_876a65b173b8412d3a47c70a915b0cf4>@@$$QEAV<lambda_41932305e351933ebe8f8be3ed8bb5dc>@@@Z@4HA 000000018002ad64 f   libucrt:per_thread_data.obj
 0001:00029d64       ?fin$0@?0???$?RV<lambda_fb3a7dec4e47f37f22dae91bb15c9095>@@AEAV<lambda_698284760c8add0bfb0756c19673e34b>@@V<lambda_dfb8eca1e75fef3034a8fb18dd509707>@@@?$__crt_seh_guarded_call@X@@QEAAX$$QEAV<lambda_fb3a7dec4e47f37f22dae91bb15c9095>@@AEAV<lambda_698284760c8add0bfb0756c19673e34b>@@$$QEAV<lambda_dfb8eca1e75fef3034a8fb18dd509707>@@@Z@4HA 000000018002ad64 f   libucrt:per_thread_data.obj
 0001:00029d64       ?fin$0@?0???$?RV<lambda_b8c45f8f788dd370798f47cfe8ac3a86>@@AEAV<lambda_4e60a939b0d047cfe11ddc22648dfba9>@@V<lambda_332c3edc96d0294ec56c57d38c1cdfd5>@@@?$__crt_seh_guarded_call@H@@QEAAH$$QEAV<lambda_b8c45f8f788dd370798f47cfe8ac3a86>@@AEAV<lambda_4e60a939b0d047cfe11ddc22648dfba9>@@$$QEAV<lambda_332c3edc96d0294ec56c57d38c1cdfd5>@@@Z@4HA 000000018002ad64 f   libucrt:onexit.obj
 0001:00029d64       ?fin$0@?0???$?RV<lambda_99476a1ad63dd22509b5d3e65b0ffc95>@@AEAV<lambda_ad1ced32f4ac17aa236e5ef05d6b3b7c>@@V<lambda_f7424dd8d45958661754dc4f2697e9c3>@@@?$__crt_seh_guarded_call@X@@QEAAX$$QEAV<lambda_99476a1ad63dd22509b5d3e65b0ffc95>@@AEAV<lambda_ad1ced32f4ac17aa236e5ef05d6b3b7c>@@$$QEAV<lambda_f7424dd8d45958661754dc4f2697e9c3>@@@Z@4HA 000000018002ad64 f   libucrt:mbctype.obj
 0001:00029d64       ?fin$0@?0???$?RV<lambda_c36588078e9f5dfd39652860aa6b3aaf>@@AEAV<lambda_ec61778202f4f5fc7e7711acc23c3bca>@@V<lambda_dc9d2797ccde5d239b4a0efae8ebd7db>@@@?$__crt_seh_guarded_call@P6AXH@Z@@QEAAP6AXH@Z$$QEAV<lambda_c36588078e9f5dfd39652860aa6b3aaf>@@AEAV<lambda_ec61778202f4f5fc7e7711acc23c3bca>@@$$QEAV<lambda_dc9d2797ccde5d239b4a0efae8ebd7db>@@@Z@4HA 000000018002ad64 f   libucrt:signal.obj
 0001:00029d64       ?fin$0@?0???$?RV<lambda_5e887d1dcbef67a5eb4283622ba103bf>@@AEAV<lambda_4466841279450cc726390878d4a41900>@@V<lambda_341c25c0346d94847f1f3c463c57e077>@@@?$__crt_seh_guarded_call@X@@QEAAX$$QEAV<lambda_5e887d1dcbef67a5eb4283622ba103bf>@@AEAV<lambda_4466841279450cc726390878d4a41900>@@$$QEAV<lambda_341c25c0346d94847f1f3c463c57e077>@@@Z@4HA 000000018002ad64 f   libucrt:per_thread_data.obj
 0001:00029d7e       raise$fin$0                000000018002ad7e f   libucrt:signal.obj
 0001:00029da2       __acrt_update_thread_locale_data$fin$0 000000018002ada2 f   libucrt:locale_refcounting.obj
 0001:00029da2       __acrt_uninitialize_locale$fin$0 000000018002ada2 f   libucrt:wsetlocale.obj
 0001:00029dbb       __acrt_lowio_ensure_fh_exists$fin$0 000000018002adbb f   libucrt:osfinfo.obj
 0001:00029dbb       __acrt_initialize_lowio$fin$0 000000018002adbb f   libucrt:ioinit.obj
 0001:00029dd4       common_flush_all$fin$0     000000018002add4 f   libucrt:fflush.obj
 0001:00029dee       common_flush_all$fin$1     000000018002adee f   libucrt:fflush.obj
 0001:00029e07       _fcloseall$fin$0           000000018002ae07 f   libucrt:closeall.obj
 0001:00029e20       _write$fin$0               000000018002ae20 f   libucrt:write.obj
 0001:00029e37       fclose$fin$0               000000018002ae37 f   libucrt:fclose.obj
 0001:00029e4f       ?fin$0@?0???$?RV<lambda_b521505b218e5242e90febf6bfebc422>@@AEAV<lambda_6978c1fb23f02e42e1d9e99668cc68aa>@@V<lambda_314360699dd331753a4119843814e9a7>@@@?$__crt_seh_guarded_call@H@@QEAAH$$QEAV<lambda_b521505b218e5242e90febf6bfebc422>@@AEAV<lambda_6978c1fb23f02e42e1d9e99668cc68aa>@@$$QEAV<lambda_314360699dd331753a4119843814e9a7>@@@Z@4HA 000000018002ae4f f   libucrt:commit.obj
 0001:00029e4f       ?fin$0@?0???$?RV<lambda_bfedae4ebbf01fab1bb6dcc6a9e276e0>@@AEAV<lambda_2fe9b910cf3cbf4a0ab98a02ba45b3ec>@@V<lambda_237c231691f317818eb88cc1d5d642d6>@@@?$__crt_seh_guarded_call@H@@QEAAH$$QEAV<lambda_bfedae4ebbf01fab1bb6dcc6a9e276e0>@@AEAV<lambda_2fe9b910cf3cbf4a0ab98a02ba45b3ec>@@$$QEAV<lambda_237c231691f317818eb88cc1d5d642d6>@@@Z@4HA 000000018002ae4f f   libucrt:close.obj
 0001:00029e69       _ctrlfp$filt$0             000000018002ae69 f   libucrt:fpctrl.obj
 0001:00029ea0       _IsNonwritableInCurrentImage$filt$0 000000018002aea0 f   LIBCMT:pesect.obj
 0002:00000248       .idata$5                   000000018002b248     libvips:ddcis00699.o
 0002:00000250       .idata$5                   000000018002b250     libvips:ddcis00881.o
 0002:00000258       .idata$5                   000000018002b258     libvips:ddcis00894.o
 0002:00000260       .idata$5                   000000018002b260     libvips:ddcis00900.o
 0002:00000268       .idata$5                   000000018002b268     libvips:ddcis00950.o
 0002:00000270       .idata$5                   000000018002b270     libvips:ddcis00951.o
 0002:00000278       .idata$5                   000000018002b278     libvips:ddcis01003.o
 0002:00000280       .idata$5                   000000018002b280     libvips:ddcis01200.o
 0002:00000288       .idata$5                   000000018002b288     libvips:ddcis01210.o
 0002:00000290       .idata$5                   000000018002b290     libvips:ddcis01211.o
 0002:00000298       .idata$5                   000000018002b298     libvips:ddcis01254.o
 0002:000002a0       .idata$5                   000000018002b2a0     libvips:ddcis01255.o
 0002:000002a8       .idata$5                   000000018002b2a8     libvips:ddcis01256.o
 0002:000002b0       .idata$5                   000000018002b2b0     libvips:ddcis01257.o
 0002:000002b8       .idata$5                   000000018002b2b8     libvips:ddcis01337.o
 0002:000002c0       .idata$5                   000000018002b2c0     libvips:ddcis01436.o
 0002:000002c8       .idata$5                   000000018002b2c8     libvips:ddcis01437.o
 0002:000002d0       .idata$5                   000000018002b2d0     libvips:ddcis01438.o
 0002:000002d8       .idata$5                   000000018002b2d8     libvips:ddcis01439.o
 0002:000002e0       .idata$5                   000000018002b2e0     libvips:ddcis01440.o
 0002:000002e8       .idata$5                   000000018002b2e8     libvips:ddcis01442.o
 0002:000002f0       .idata$5                   000000018002b2f0     libvips:ddcis01443.o
 0002:000002f8       .idata$5                   000000018002b2f8     libvips:ddcis01444.o
 0002:00000300       .idata$5                   000000018002b300     libvips:ddcis01446.o
 0002:00000308       .idata$5                   000000018002b308     libvips:ddcis01447.o
 0002:00000310       .idata$5                   000000018002b310     libvips:ddcis01451.o
 0002:00000318       .idata$5                   000000018002b318     libvips:ddcis01452.o
 0002:00000320       .idata$5                   000000018002b320     libvips:ddcis01453.o
 0002:00000328       .idata$5                   000000018002b328     libvips:ddcis01454.o
 0002:00000330       .idata$5                   000000018002b330     libvips:ddcis01455.o
 0002:00000338       .idata$5                   000000018002b338     libvips:ddcis01456.o
 0002:00000340       .idata$5                   000000018002b340     libvips:ddcis01457.o
 0002:00000348       .idata$5                   000000018002b348     libvips:ddcis01458.o
 0002:00000350       .idata$5                   000000018002b350     libvips:ddcis01460.o
 0002:00000358       .idata$5                   000000018002b358     libvips:ddcis01482.o
 0002:00000360       .idata$5                   000000018002b360     libvips:ddcis01484.o
 0002:00000368       .idata$5                   000000018002b368     libvips:ddcis01485.o
 0002:00000370       .idata$5                   000000018002b370     libvips:ddcis01487.o
 0002:00000378       .idata$5                   000000018002b378     libvips:ddcis01489.o
 0002:00000380       .idata$5                   000000018002b380     libvips:ddcis01502.o
 0002:00000388       .idata$5                   000000018002b388     libvips:ddcis01504.o
 0002:00000390       .idata$5                   000000018002b390     libvips:ddcis01505.o
 0002:00000398       .idata$5                   000000018002b398     libvips:ddcis01508.o
 0002:000003a0       .idata$5                   000000018002b3a0     libvips:ddcis01511.o
 0002:000003a8       .idata$5                   000000018002b3a8     libvips:ddcis01516.o
 0002:000003b0       .idata$5                   000000018002b3b0     libvips:ddcis01531.o
 0002:000003b8       .idata$5                   000000018002b3b8     libvips:ddcis01538.o
 0002:000003c0       .idata$5                   000000018002b3c0     libvips:ddcis01664.o
 0002:000003c8       .idata$5                   000000018002b3c8     libvips:ddcis01670.o
 0002:000003d0       .idata$5                   000000018002b3d0     libvips:ddcis01687.o
 0002:000003d8       .idata$5                   000000018002b3d8     libvips:ddcis01694.o
 0002:000003e0       .idata$5                   000000018002b3e0     libvips:ddcis01709.o
 0002:000003e8       .idata$5                   000000018002b3e8     libvips:ddcis01968.o
 0002:000003f0       .idata$5                   000000018002b3f0     libvips:ddcis01969.o
 0002:000003f8       .idata$5                   000000018002b3f8     libvips:ddcis01978.o
 0002:00000400       .idata$5                   000000018002b400     libvips:ddcis01979.o
 0002:00000410       .idata$5                   000000018002b410     libgobject-2.0:dhzhs00125.o
 0002:00000418       .idata$5                   000000018002b418     libgobject-2.0:dhzhs00138.o
 0002:00000420       .idata$5                   000000018002b420     libgobject-2.0:dhzhs00148.o
 0002:00000428       .idata$5                   000000018002b428     libgobject-2.0:dhzhs00155.o
 0002:00000430       .idata$5                   000000018002b430     libgobject-2.0:dhzhs00196.o
 0002:00000438       .idata$5                   000000018002b438     libgobject-2.0:dhzhs00271.o
 0002:00000440       .idata$5                   000000018002b440     libgobject-2.0:dhzhs00272.o
 0002:00000448       .idata$5                   000000018002b448     libgobject-2.0:dhzhs00353.o
 0002:00000450       .idata$5                   000000018002b450     libgobject-2.0:dhzhs00359.o
 0002:00000458       .idata$5                   000000018002b458     libgobject-2.0:dhzhs00362.o
 0002:00000460       .idata$5                   000000018002b460     libgobject-2.0:dhzhs00367.o
 0002:00000468       .idata$5                   000000018002b468     libgobject-2.0:dhzhs00370.o
 0002:00000470       .idata$5                   000000018002b470     libgobject-2.0:dhzhs00374.o
 0002:00000478       .idata$5                   000000018002b478     libgobject-2.0:dhzhs00381.o
 0002:00000480       .idata$5                   000000018002b480     libgobject-2.0:dhzhs00386.o
 0002:00000488       .idata$5                   000000018002b488     libgobject-2.0:dhzhs00387.o
 0002:00000490       .idata$5                   000000018002b490     libgobject-2.0:dhzhs00390.o
 0002:00000498       .idata$5                   000000018002b498     libgobject-2.0:dhzhs00391.o
 0002:000004a0       .idata$5                   000000018002b4a0     libgobject-2.0:dhzhs00396.o
 0002:000004a8       .idata$5                   000000018002b4a8     libgobject-2.0:dhzhs00399.o
 0002:000004b0       .idata$5                   000000018002b4b0     libgobject-2.0:dhzhs00407.o
 0002:000004b8       .idata$5                   000000018002b4b8     libgobject-2.0:dhzhs00422.o
 0002:000004c8       .idata$5                   000000018002b4c8     libglib-2.0:dxyhs00041.o
 0002:000004d0       .idata$5                   000000018002b4d0     libglib-2.0:dxyhs00617.o
 0002:00000508       ?__scrt_initialize_tss_var@@3P6AHXZEA 000000018002b508     LIBCMT:thread_safe_statics.obj
 0002:00000640       ?_Win_errtab@std@@3QBU_Win_errtab_t@1@B 000000018002b640     libcpmt:syserror.obj
 0002:00000890       ?_Sys_errtab@std@@3QBU_Sys_errtab_t@1@B 000000018002b890     libcpmt:syserror.obj
 0002:000014c8       GS_ExceptionPointers       000000018002c4c8     LIBCMT:gs_report.obj
 0002:00001540       ?ExceptionTemplate@?1??_CxxThrowException@@9@4UEHExceptionRecord@@B 000000018002c540     libvcruntime:throw.obj
 0002:00001580       ?ExceptionTemplate@?1??_UnwindNestedFrames@@9@4U_EXCEPTION_RECORD@@B 000000018002c580     libvcruntime:trnsctrl.obj
 0002:00001618       ?module_names@?A0x679b24ab@@3QBQEB_WB 000000018002c618     libvcruntime:winapi_downlevel.obj
 0002:000016e8       ?candidate_modules@?1??try_get_FlsAlloc@@YAP6AKP6AXPEAX@Z@ZXZ@4QBW4module_id@?A0x679b24ab@@B 000000018002c6e8     libvcruntime:winapi_downlevel.obj
 0002:00001700       ?candidate_modules@?1??try_get_FlsFree@@YAP6AHK@ZXZ@4QBW4module_id@?A0x679b24ab@@B 000000018002c700     libvcruntime:winapi_downlevel.obj
 0002:00001710       ?candidate_modules@?1??try_get_FlsGetValue@@YAP6APEAXK@ZXZ@4QBW4module_id@?A0x679b24ab@@B 000000018002c710     libvcruntime:winapi_downlevel.obj
 0002:00001728       ?candidate_modules@?1??try_get_FlsSetValue@@YAP6AHKPEAX@ZXZ@4QBW4module_id@?A0x679b24ab@@B 000000018002c728     libvcruntime:winapi_downlevel.obj
 0002:00001740       ?candidate_modules@?1??try_get_InitializeCriticalSectionEx@@YAP6AHPEAU_RTL_CRITICAL_SECTION@@KK@ZXZ@4QBW4module_id@?A0x679b24ab@@B 000000018002c740     libvcruntime:winapi_downlevel.obj
 0002:00001770       ?tokenTable@@3QBQEBDB      000000018002c770     libvcruntime:undname.obj
 0002:000017e0       ?nameTable@@3QBQEBDB       000000018002c7e0     libvcruntime:undname.obj
 0002:00001a68       ?rttiTable@@3QBQEBDB       000000018002ca68     libvcruntime:undname.obj
 0002:000021f0       __acrt_initializers        000000018002d1f0     libucrt:initialization.obj
 0002:000022e0       errtable                   000000018002d2e0     libucrt:errno.obj
 0002:00002ad0       module_names               000000018002dad0     libucrt:winapi_thunks.obj
 0002:00003000       ?candidate_modules@?1??try_get_FlsAlloc@@YAP6AKP6AXPEAX@Z@ZXZ@4QBW4module_id@?A0x63058377@@B 000000018002e000     libucrt:winapi_thunks.obj
 0002:00003008       ?candidate_modules@?1??try_get_FlsFree@@YAP6AHK@ZXZ@4QBW4module_id@?A0x63058377@@B 000000018002e008     libucrt:winapi_thunks.obj
 0002:00003010       ?candidate_modules@?1??try_get_FlsGetValue@@YAP6APEAXK@ZXZ@4QBW4module_id@?A0x63058377@@B 000000018002e010     libucrt:winapi_thunks.obj
 0002:00003018       ?candidate_modules@?1??try_get_FlsSetValue@@YAP6AHKPEAX@ZXZ@4QBW4module_id@?A0x63058377@@B 000000018002e018     libucrt:winapi_thunks.obj
 0002:00003020       ?candidate_modules@?1??try_get_GetCurrentPackageId@@YAP6AJPEAIPEAE@ZXZ@4QBW4module_id@?A0x63058377@@B 000000018002e020     libucrt:winapi_thunks.obj
 0002:00003040       ?candidate_modules@?1??try_get_InitializeCriticalSectionEx@@YAP6AHPEAU_RTL_CRITICAL_SECTION@@KK@ZXZ@4QBW4module_id@?A0x63058377@@B 000000018002e040     libucrt:winapi_thunks.obj
 0002:00003048       ?candidate_modules@?1??try_get_LCMapStringEx@@YAP6AHPEB_WK0HPEA_WHPEAU_nlsversioninfo@@PEAX_J@ZXZ@4QBW4module_id@?A0x63058377@@B 000000018002e048     libucrt:winapi_thunks.obj
 0002:00003060       ?candidate_modules@?1??try_get_LocaleNameToLCID@@YAP6AKPEB_WK@ZXZ@4QBW4module_id@?A0x63058377@@B 000000018002e060     libucrt:winapi_thunks.obj
 0002:00003080       _mb_locale_names           000000018002e080     libucrt:mbctype.obj
 0002:000036f0       LcidToLocaleNameTable      000000018002e6f0     libucrt:lcidtoname_downlevel.obj
 0002:00005150       LocaleNameToIndexTable     0000000180030150     libucrt:lcidtoname_downlevel.obj
 0002:000069f0       __real_ninf                00000001800319f0     libucrt:log10.obj
 0002:00006a00       __real_inf                 0000000180031a00     libucrt:log10.obj
 0002:00006a10       __real_neg_qnan            0000000180031a10     libucrt:log10.obj
 0002:00006a20       __real_qnanbit             0000000180031a20     libucrt:log10.obj
 0002:00006a30       __int_1023                 0000000180031a30     libucrt:log10.obj
 0002:00006a40       __mask_001                 0000000180031a40     libucrt:log10.obj
 0002:00006a50       __mask_mant                0000000180031a50     libucrt:log10.obj
 0002:00006a60       __mask_mant_top8           0000000180031a60     libucrt:log10.obj
 0002:00006a70       __mask_mant9               0000000180031a70     libucrt:log10.obj
 0002:00006a80       __real_log10_e             0000000180031a80     libucrt:log10.obj
 0002:00006a90       __real_log10_e_lead        0000000180031a90     libucrt:log10.obj
 0002:00006aa0       __real_log10_e_tail        0000000180031aa0     libucrt:log10.obj
 0002:00006ab0       __real_log10_2_lead        0000000180031ab0     libucrt:log10.obj
 0002:00006ac0       __real_log10_2_tail        0000000180031ac0     libucrt:log10.obj
 0002:00006ad0       __real_two                 0000000180031ad0     libucrt:log10.obj
 0002:00006ae0       __real_one                 0000000180031ae0     libucrt:log10.obj
 0002:00006af0       __real_half                0000000180031af0     libucrt:log10.obj
 0002:00006b00       __mask_100                 0000000180031b00     libucrt:log10.obj
 0002:00006b10       __real_1_over_512          0000000180031b10     libucrt:log10.obj
 0002:00006b20       __real_1_over_2            0000000180031b20     libucrt:log10.obj
 0002:00006b30       __real_1_over_3            0000000180031b30     libucrt:log10.obj
 0002:00006b40       __real_1_over_4            0000000180031b40     libucrt:log10.obj
 0002:00006b50       __real_1_over_5            0000000180031b50     libucrt:log10.obj
 0002:00006b60       __real_1_over_6            0000000180031b60     libucrt:log10.obj
 0002:00006b70       __real_neg_1023            0000000180031b70     libucrt:log10.obj
 0002:00006b80       __mask_2045                0000000180031b80     libucrt:log10.obj
 0002:00006b90       __real_threshold           0000000180031b90     libucrt:log10.obj
 0002:00006ba0       __real_near_one_lt         0000000180031ba0     libucrt:log10.obj
 0002:00006bb0       __real_near_one_gt         0000000180031bb0     libucrt:log10.obj
 0002:00006bc0       __real_min_norm            0000000180031bc0     libucrt:log10.obj
 0002:00006bd0       __real_notsign             0000000180031bd0     libucrt:log10.obj
 0002:00006be0       __real_ca1                 0000000180031be0     libucrt:log10.obj
 0002:00006bf0       __real_ca2                 0000000180031bf0     libucrt:log10.obj
 0002:00006c00       __real_ca3                 0000000180031c00     libucrt:log10.obj
 0002:00006c10       __real_ca4                 0000000180031c10     libucrt:log10.obj
 0002:00006c20       __mask_lower               0000000180031c20     libucrt:log10.obj
 0002:00006c30       __flag_x_zero              0000000180031c30     libucrt:log10.obj
 0002:00006c34       __flag_x_neg               0000000180031c34     libucrt:log10.obj
 0002:00006c38       __flag_x_nan               0000000180031c38     libucrt:log10.obj
 0002:00008490       __real@433fffffffffffff    0000000180033490     libucrt:fpsr.obj
 0002:00008498       __real@c33fffffffffffff    0000000180033498     libucrt:fpsr.obj
 0002:00009660       $cppxdata$?flush@?$basic_ostream@DU?$char_traits@D@std@@@std@@QEAAAEAV12@XZ 0000000180034660     VError.obj
 0002:00009688       $cppxdata$??0sentry@?$basic_ostream@DU?$char_traits@D@std@@@std@@QEAA@AEAV12@@Z 0000000180034688     VError.obj
 0002:000096b0       $cppxdata$??$?6DU?$char_traits@D@std@@V?$allocator@D@1@@std@@YAAEAV?$basic_ostream@DU?$char_traits@D@std@@@0@AEAV10@AEBV?$basic_string@DU?$char_traits@D@std@@V?$allocator@D@2@@0@@Z 00000001800346b0     VError.obj
 0002:000096d8       $cppxdata$??0?$list@PEAUPair@VOption@vips@@V?$allocator@PEAUPair@VOption@vips@@@std@@@std@@QEAA@AEBV01@@Z 00000001800346d8     VError.obj
 0002:00009700       $cppxdata$?ifthenelse@VImage@vips@@QEAA?AV12@NNPEAVVOption@2@@Z 0000000180034700     VError.obj
 0002:00009728       $cppxdata$?ifthenelse@VImage@vips@@QEAA?AV12@V12@NPEAVVOption@2@@Z 0000000180034728     VError.obj
 0002:00009750       $cppxdata$?ifthenelse@VImage@vips@@QEAA?AV12@NV12@PEAVVOption@2@@Z 0000000180034750     VError.obj
 0002:00009778       $cppxdata$?ifthenelse@VImage@vips@@QEAA?AV12@V?$vector@NV?$allocator@N@std@@@std@@0PEAVVOption@2@@Z 0000000180034778     VError.obj
 0002:000097a0       $cppxdata$?ifthenelse@VImage@vips@@QEAA?AV12@V12@V?$vector@NV?$allocator@N@std@@@std@@PEAVVOption@2@@Z 00000001800347a0     VError.obj
 0002:000097c8       $cppxdata$?ifthenelse@VImage@vips@@QEAA?AV12@V?$vector@NV?$allocator@N@std@@@std@@V12@PEAVVOption@2@@Z 00000001800347c8     VError.obj
 0002:000097f0       $cppxdata$?wop@VImage@vips@@QEAA?AV12@V?$vector@NV?$allocator@N@std@@@std@@PEAVVOption@2@@Z 00000001800347f0     VError.obj
 0002:00009818       $cppxdata$?wop@VImage@vips@@QEAA?AV12@V12@PEAVVOption@2@@Z 0000000180034818     VError.obj
 0002:00009840       $cppxdata$?pow@VImage@vips@@QEAA?AV12@V?$vector@NV?$allocator@N@std@@@std@@PEAVVOption@2@@Z 0000000180034840     VError.obj
 0002:00009868       $cppxdata$?pow@VImage@vips@@QEAA?AV12@V12@PEAVVOption@2@@Z 0000000180034868     VError.obj
 0002:00009890       $cppxdata$?erode@VImage@vips@@QEAA?AV12@V12@PEAVVOption@2@@Z 0000000180034890     VError.obj
 0002:000098b8       $cppxdata$?dilate@VImage@vips@@QEAA?AV12@V12@PEAVVOption@2@@Z 00000001800348b8     VError.obj
 0002:000098e0       $cppxdata$?bandjoin@VImage@vips@@QEAA?AV12@V?$vector@NV?$allocator@N@std@@@std@@PEAVVOption@2@@Z 00000001800348e0     VError.obj
 0002:00009908       $cppxdata$?linear@VImage@vips@@QEAA?AV12@NV?$vector@NV?$allocator@N@std@@@std@@PEAVVOption@2@@Z 0000000180034908     VError.obj
 0002:00009930       $cppxdata$?linear@VImage@vips@@QEAA?AV12@V?$vector@NV?$allocator@N@std@@@std@@NPEAVVOption@2@@Z 0000000180034930     VError.obj
 0002:00009958       $cppxdata$?linear@VImage@vips@@QEAA?AV12@NNPEAVVOption@2@@Z 0000000180034958     VError.obj
 0002:00009980       $cppxdata$?write_to_memory@VImage@vips@@QEAAPEAXPEA_K@Z 0000000180034980     VError.obj
 0002:000099a8       $cppxdata$?new_matrix@VImage@vips@@SA?AV12@HHPEANH@Z 00000001800349a8     VError.obj
 0002:000099d0       $cppxdata$?new_from_memory@VImage@vips@@SA?AV12@PEAX_KHHHW4VipsBandFormat@@@Z 00000001800349d0     VError.obj
 0002:000099f8       $cppxdata$?new_temp_file@VImage@vips@@SA?AV12@PEBD@Z 00000001800349f8     VError.obj
 0002:00009a20       $cppxdata$?option@VImage@vips@@SAPEAVVOption@2@XZ 0000000180034a20     VError.obj
 0002:00009a48       $cppxdata$?get_blob@VImage@vips@@QEAAPEBXPEBDPEA_K@Z 0000000180034a48     VError.obj
 0002:00009a70       $cppxdata$?get_string@VImage@vips@@QEAAPEBDPEBD@Z 0000000180034a70     VError.obj
 0002:00009a98       $cppxdata$?get_double@VImage@vips@@QEAANPEBD@Z 0000000180034a98     VError.obj
 0002:00009ac0       $cppxdata$?get_int@VImage@vips@@QEAAHPEBD@Z 0000000180034ac0     VError.obj
 0002:00009ae8       $cppxdata$??_EVOption@vips@@UEAAPEAXI@Z 0000000180034ae8     VError.obj
 0002:00009b10       $cppxdata$??0VError@vips@@QEAA@AEBV01@@Z 0000000180034b10     VError.obj
 0002:00009b38       $cppxdata$??0VError@vips@@QEAA@XZ 0000000180034b38     VError.obj
 0002:00009b60       $cppxdata$??0VError@vips@@QEAA@V?$basic_string@DU?$char_traits@D@std@@V?$allocator@D@2@@std@@@Z 0000000180034b60     VError.obj
 0002:00009b88       $cppxdata$?clear@ios_base@std@@QEAAXH_N@Z 0000000180034b88     VError.obj
 0002:00009bb0       $cppxdata$?_Makestr@_System_error@std@@CA?AV?$basic_string@DU?$char_traits@D@std@@V?$allocator@D@2@@2@Verror_code@2@V32@@Z 0000000180034bb0     VError.obj
 0002:00009c00       $cppxdata$?set@VOption@vips@@QEAAPEAV12@PEBDVVInterpolate@2@@Z 0000000180034c00     VInterpolate.obj
 0002:00009c28       $cppxdata$?new_from_name@VInterpolate@vips@@SA?AV12@PEBDPEAVVOption@2@@Z 0000000180034c28     VInterpolate.obj
 0002:00009c50       $cppxdata$??5vips@@YA?AVVImage@0@V10@V?$vector@NV?$allocator@N@std@@@std@@@Z 0000000180034c50     VImage.obj
 0002:00009c78       $cppxdata$??5vips@@YA?AVVImage@0@V10@N@Z 0000000180034c78     VImage.obj
 0002:00009ca0       $cppxdata$??5vips@@YA?AVVImage@0@V10@0@Z 0000000180034ca0     VImage.obj
 0002:00009cc8       $cppxdata$??_3vips@@YAAEAVVImage@0@AEAV10@V?$vector@NV?$allocator@N@std@@@std@@@Z 0000000180034cc8     VImage.obj
 0002:00009cc8       $cppxdata$??_2vips@@YAAEAVVImage@0@AEAV10@V?$vector@NV?$allocator@N@std@@@std@@@Z 0000000180034cc8     VImage.obj
 0002:00009cf0       $cppxdata$??_2vips@@YAAEAVVImage@0@AEAV10@V10@@Z 0000000180034cf0     VImage.obj
 0002:00009cf0       $cppxdata$??_3vips@@YAAEAVVImage@0@AEAV10@V10@@Z 0000000180034cf0     VImage.obj
 0002:00009d18       $cppxdata$??6vips@@YA?AVVImage@0@V10@V?$vector@NV?$allocator@N@std@@@std@@@Z 0000000180034d18     VImage.obj
 0002:00009d40       $cppxdata$??6vips@@YA?AVVImage@0@V10@N@Z 0000000180034d40     VImage.obj
 0002:00009d68       $cppxdata$??6vips@@YA?AVVImage@0@V10@0@Z 0000000180034d68     VImage.obj
 0002:00009d90       $cppxdata$??_6vips@@YAAEAVVImage@0@AEAV10@V?$vector@NV?$allocator@N@std@@@std@@@Z 0000000180034d90     VImage.obj
 0002:00009db8       $cppxdata$??_6vips@@YAAEAVVImage@0@AEAV10@V10@@Z 0000000180034db8     VImage.obj
 0002:00009de0       $cppxdata$??Tvips@@YA?AVVImage@0@V10@V?$vector@NV?$allocator@N@std@@@std@@@Z 0000000180034de0     VImage.obj
 0002:00009e08       $cppxdata$??Tvips@@YA?AVVImage@0@V?$vector@NV?$allocator@N@std@@@std@@V10@@Z 0000000180034e08     VImage.obj
 0002:00009e30       $cppxdata$??Tvips@@YA?AVVImage@0@V10@N@Z 0000000180034e30     VImage.obj
 0002:00009e58       $cppxdata$??Tvips@@YA?AVVImage@0@NV10@@Z 0000000180034e58     VImage.obj
 0002:00009e80       $cppxdata$??Tvips@@YA?AVVImage@0@V10@0@Z 0000000180034e80     VImage.obj
 0002:00009ea8       $cppxdata$??_5vips@@YAAEAVVImage@0@AEAV10@V?$vector@NV?$allocator@N@std@@@std@@@Z 0000000180034ea8     VImage.obj
 0002:00009ed0       $cppxdata$??_5vips@@YAAEAVVImage@0@AEAV10@V10@@Z 0000000180034ed0     VImage.obj
 0002:00009ef8       $cppxdata$??Uvips@@YA?AVVImage@0@V10@V?$vector@NV?$allocator@N@std@@@std@@@Z 0000000180034ef8     VImage.obj
 0002:00009f20       $cppxdata$??Uvips@@YA?AVVImage@0@V?$vector@NV?$allocator@N@std@@@std@@V10@@Z 0000000180034f20     VImage.obj
 0002:00009f48       $cppxdata$??Uvips@@YA?AVVImage@0@V10@N@Z 0000000180034f48     VImage.obj
 0002:00009f70       $cppxdata$??Uvips@@YA?AVVImage@0@NV10@@Z 0000000180034f70     VImage.obj
 0002:00009f98       $cppxdata$??Uvips@@YA?AVVImage@0@V10@0@Z 0000000180034f98     VImage.obj
 0002:00009fc0       $cppxdata$??_4vips@@YAAEAVVImage@0@AEAV10@V?$vector@NV?$allocator@N@std@@@std@@@Z 0000000180034fc0     VImage.obj
 0002:00009fe8       $cppxdata$??_4vips@@YAAEAVVImage@0@AEAV10@V10@@Z 0000000180034fe8     VImage.obj
 0002:0000a010       $cppxdata$??Ivips@@YA?AVVImage@0@V10@V?$vector@NV?$allocator@N@std@@@std@@@Z 0000000180035010     VImage.obj
 0002:0000a038       $cppxdata$??Ivips@@YA?AVVImage@0@V?$vector@NV?$allocator@N@std@@@std@@V10@@Z 0000000180035038     VImage.obj
 0002:0000a060       $cppxdata$??Ivips@@YA?AVVImage@0@V10@N@Z 0000000180035060     VImage.obj
 0002:0000a088       $cppxdata$??Ivips@@YA?AVVImage@0@NV10@@Z 0000000180035088     VImage.obj
 0002:0000a0b0       $cppxdata$??Ivips@@YA?AVVImage@0@V10@0@Z 00000001800350b0     VImage.obj
 0002:0000a0d8       $cppxdata$??9vips@@YA?AVVImage@0@V10@V?$vector@NV?$allocator@N@std@@@std@@@Z 00000001800350d8     VImage.obj
 0002:0000a100       $cppxdata$??9vips@@YA?AVVImage@0@V?$vector@NV?$allocator@N@std@@@std@@V10@@Z 0000000180035100     VImage.obj
 0002:0000a128       $cppxdata$??9vips@@YA?AVVImage@0@V10@N@Z 0000000180035128     VImage.obj
 0002:0000a150       $cppxdata$??9vips@@YA?AVVImage@0@NV10@@Z 0000000180035150     VImage.obj
 0002:0000a178       $cppxdata$??9vips@@YA?AVVImage@0@V10@0@Z 0000000180035178     VImage.obj
 0002:0000a1a0       $cppxdata$??8vips@@YA?AVVImage@0@V10@V?$vector@NV?$allocator@N@std@@@std@@@Z 00000001800351a0     VImage.obj
 0002:0000a1c8       $cppxdata$??8vips@@YA?AVVImage@0@V?$vector@NV?$allocator@N@std@@@std@@V10@@Z 00000001800351c8     VImage.obj
 0002:0000a1f0       $cppxdata$??8vips@@YA?AVVImage@0@V10@N@Z 00000001800351f0     VImage.obj
 0002:0000a218       $cppxdata$??8vips@@YA?AVVImage@0@NV10@@Z 0000000180035218     VImage.obj
 0002:0000a240       $cppxdata$??8vips@@YA?AVVImage@0@V10@0@Z 0000000180035240     VImage.obj
 0002:0000a268       $cppxdata$??Pvips@@YA?AVVImage@0@V10@V?$vector@NV?$allocator@N@std@@@std@@@Z 0000000180035268     VImage.obj
 0002:0000a290       $cppxdata$??Pvips@@YA?AVVImage@0@V?$vector@NV?$allocator@N@std@@@std@@V10@@Z 0000000180035290     VImage.obj
 0002:0000a2b8       $cppxdata$??Pvips@@YA?AVVImage@0@V10@N@Z 00000001800352b8     VImage.obj
 0002:0000a2e0       $cppxdata$??Pvips@@YA?AVVImage@0@NV10@@Z 00000001800352e0     VImage.obj
 0002:0000a308       $cppxdata$??Pvips@@YA?AVVImage@0@V10@0@Z 0000000180035308     VImage.obj
 0002:0000a330       $cppxdata$??Ovips@@YA?AVVImage@0@V10@V?$vector@NV?$allocator@N@std@@@std@@@Z 0000000180035330     VImage.obj
 0002:0000a358       $cppxdata$??Ovips@@YA?AVVImage@0@V?$vector@NV?$allocator@N@std@@@std@@V10@@Z 0000000180035358     VImage.obj
 0002:0000a380       $cppxdata$??Ovips@@YA?AVVImage@0@V10@N@Z 0000000180035380     VImage.obj
 0002:0000a3a8       $cppxdata$??Ovips@@YA?AVVImage@0@NV10@@Z 00000001800353a8     VImage.obj
 0002:0000a3d0       $cppxdata$??Ovips@@YA?AVVImage@0@V10@0@Z 00000001800353d0     VImage.obj
 0002:0000a3f8       $cppxdata$??Nvips@@YA?AVVImage@0@V10@V?$vector@NV?$allocator@N@std@@@std@@@Z 00000001800353f8     VImage.obj
 0002:0000a420       $cppxdata$??Nvips@@YA?AVVImage@0@V?$vector@NV?$allocator@N@std@@@std@@V10@@Z 0000000180035420     VImage.obj
 0002:0000a448       $cppxdata$??Nvips@@YA?AVVImage@0@V10@N@Z 0000000180035448     VImage.obj
 0002:0000a470       $cppxdata$??Nvips@@YA?AVVImage@0@NV10@@Z 0000000180035470     VImage.obj
 0002:0000a498       $cppxdata$??Nvips@@YA?AVVImage@0@V10@0@Z 0000000180035498     VImage.obj
 0002:0000a4c0       $cppxdata$??Mvips@@YA?AVVImage@0@V10@V?$vector@NV?$allocator@N@std@@@std@@@Z 00000001800354c0     VImage.obj
 0002:0000a4e8       $cppxdata$??Mvips@@YA?AVVImage@0@V?$vector@NV?$allocator@N@std@@@std@@V10@@Z 00000001800354e8     VImage.obj
 0002:0000a510       $cppxdata$??Mvips@@YA?AVVImage@0@V10@N@Z 0000000180035510     VImage.obj
 0002:0000a538       $cppxdata$??Mvips@@YA?AVVImage@0@NV10@@Z 0000000180035538     VImage.obj
 0002:0000a560       $cppxdata$??Mvips@@YA?AVVImage@0@V10@0@Z 0000000180035560     VImage.obj
 0002:0000a588       $cppxdata$??_1vips@@YAAEAVVImage@0@AEAV10@V?$vector@NV?$allocator@N@std@@@std@@@Z 0000000180035588     VImage.obj
 0002:0000a5b0       $cppxdata$??_1vips@@YAAEAVVImage@0@AEAV10@V10@@Z 00000001800355b0     VImage.obj
 0002:0000a5d8       $cppxdata$??Lvips@@YA?AVVImage@0@V10@V?$vector@NV?$allocator@N@std@@@std@@@Z 00000001800355d8     VImage.obj
 0002:0000a600       $cppxdata$??Lvips@@YA?AVVImage@0@V10@N@Z 0000000180035600     VImage.obj
 0002:0000a628       $cppxdata$??Lvips@@YA?AVVImage@0@V10@0@Z 0000000180035628     VImage.obj
 0002:0000a650       $cppxdata$??_0vips@@YAAEAVVImage@0@AEAV10@V?$vector@NV?$allocator@N@std@@@std@@@Z 0000000180035650     VImage.obj
 0002:0000a678       $cppxdata$??_0vips@@YAAEAVVImage@0@AEAV10@V10@@Z 0000000180035678     VImage.obj
 0002:0000a6a0       $cppxdata$??Kvips@@YA?AVVImage@0@V10@V?$vector@NV?$allocator@N@std@@@std@@@Z 00000001800356a0     VImage.obj
 0002:0000a6c8       $cppxdata$??Kvips@@YA?AVVImage@0@V?$vector@NV?$allocator@N@std@@@std@@V10@@Z 00000001800356c8     VImage.obj
 0002:0000a6f0       $cppxdata$??Kvips@@YA?AVVImage@0@V10@N@Z 00000001800356f0     VImage.obj
 0002:0000a718       $cppxdata$??Kvips@@YA?AVVImage@0@NV10@@Z 0000000180035718     VImage.obj
 0002:0000a740       $cppxdata$??Kvips@@YA?AVVImage@0@V10@0@Z 0000000180035740     VImage.obj
 0002:0000a768       $cppxdata$??Xvips@@YAAEAVVImage@0@AEAV10@V?$vector@NV?$allocator@N@std@@@std@@@Z 0000000180035768     VImage.obj
 0002:0000a790       $cppxdata$??Xvips@@YAAEAVVImage@0@AEAV10@V10@@Z 0000000180035790     VImage.obj
 0002:0000a7b8       $cppxdata$??Dvips@@YA?AVVImage@0@V10@V?$vector@NV?$allocator@N@std@@@std@@@Z 00000001800357b8     VImage.obj
 0002:0000a7e0       $cppxdata$??Dvips@@YA?AVVImage@0@V?$vector@NV?$allocator@N@std@@@std@@V10@@Z 00000001800357e0     VImage.obj
 0002:0000a808       $cppxdata$??Dvips@@YA?AVVImage@0@V10@N@Z 0000000180035808     VImage.obj
 0002:0000a830       $cppxdata$??Dvips@@YA?AVVImage@0@NV10@@Z 0000000180035830     VImage.obj
 0002:0000a858       $cppxdata$??Dvips@@YA?AVVImage@0@V10@0@Z 0000000180035858     VImage.obj
 0002:0000a880       $cppxdata$??Gvips@@YA?AVVImage@0@V10@@Z 0000000180035880     VImage.obj
 0002:0000a8a8       $cppxdata$??Zvips@@YAAEAVVImage@0@AEAV10@V?$vector@NV?$allocator@N@std@@@std@@@Z 00000001800358a8     VImage.obj
 0002:0000a8d0       $cppxdata$??Zvips@@YAAEAVVImage@0@AEAV10@V10@@Z 00000001800358d0     VImage.obj
 0002:0000a8f8       $cppxdata$??Gvips@@YA?AVVImage@0@V10@V?$vector@NV?$allocator@N@std@@@std@@@Z 00000001800358f8     VImage.obj
 0002:0000a920       $cppxdata$??Gvips@@YA?AVVImage@0@V?$vector@NV?$allocator@N@std@@@std@@V10@@Z 0000000180035920     VImage.obj
 0002:0000a948       $cppxdata$??Gvips@@YA?AVVImage@0@V10@N@Z 0000000180035948     VImage.obj
 0002:0000a970       $cppxdata$??Gvips@@YA?AVVImage@0@NV10@@Z 0000000180035970     VImage.obj
 0002:0000a998       $cppxdata$??Gvips@@YA?AVVImage@0@V10@0@Z 0000000180035998     VImage.obj
 0002:0000a9c0       $cppxdata$??Yvips@@YAAEAVVImage@0@AEAV10@V?$vector@NV?$allocator@N@std@@@std@@@Z 00000001800359c0     VImage.obj
 0002:0000a9e8       $cppxdata$??Yvips@@YAAEAVVImage@0@AEAV10@V10@@Z 00000001800359e8     VImage.obj
 0002:0000aa10       $cppxdata$??Hvips@@YA?AVVImage@0@V10@V?$vector@NV?$allocator@N@std@@@std@@@Z 0000000180035a10     VImage.obj
 0002:0000aa38       $cppxdata$??Hvips@@YA?AVVImage@0@V?$vector@NV?$allocator@N@std@@@std@@V10@@Z 0000000180035a38     VImage.obj
 0002:0000aa60       $cppxdata$??Hvips@@YA?AVVImage@0@V10@N@Z 0000000180035a60     VImage.obj
 0002:0000aa88       $cppxdata$??Hvips@@YA?AVVImage@0@NV10@@Z 0000000180035a88     VImage.obj
 0002:0000aab0       $cppxdata$??Hvips@@YA?AVVImage@0@V10@0@Z 0000000180035ab0     VImage.obj
 0002:0000aad8       $cppxdata$?bandsplit@VImage@vips@@QEAA?AV?$vector@VVImage@vips@@V?$allocator@VVImage@vips@@@std@@@std@@PEAVVOption@2@@Z 0000000180035ad8     VImage.obj
 0002:0000ab00       $cppxdata$?globalbalance@VImage@vips@@QEAA?AV12@PEAVVOption@2@@Z 0000000180035b00     VImage.obj
 0002:0000ab28       $cppxdata$?match@VImage@vips@@QEAA?AV12@V12@HHHHHHHHPEAVVOption@2@@Z 0000000180035b28     VImage.obj
 0002:0000ab50       $cppxdata$?mosaic1@VImage@vips@@QEAA?AV12@V12@W4VipsDirection@@HHHHHHHHPEAVVOption@2@@Z 0000000180035b50     VImage.obj
 0002:0000ab78       $cppxdata$?mosaic@VImage@vips@@QEAA?AV12@V12@W4VipsDirection@@HHHHPEAVVOption@2@@Z 0000000180035b78     VImage.obj
 0002:0000aba0       $cppxdata$?merge@VImage@vips@@QEAA?AV12@V12@W4VipsDirection@@HHPEAVVOption@2@@Z 0000000180035ba0     VImage.obj
 0002:0000abc8       $cppxdata$?draw_image@VImage@vips@@QEAAXV12@HHPEAVVOption@2@@Z 0000000180035bc8     VImage.obj
 0002:0000abf0       $cppxdata$?draw_flood@VImage@vips@@QEAAXV?$vector@NV?$allocator@N@std@@@std@@HHPEAVVOption@2@@Z 0000000180035bf0     VImage.obj
 0002:0000ac18       $cppxdata$?draw_circle@VImage@vips@@QEAAXV?$vector@NV?$allocator@N@std@@@std@@HHHPEAVVOption@2@@Z 0000000180035c18     VImage.obj
 0002:0000ac40       $cppxdata$?draw_line@VImage@vips@@QEAAXV?$vector@NV?$allocator@N@std@@@std@@HHHHPEAVVOption@2@@Z 0000000180035c40     VImage.obj
 0002:0000ac68       $cppxdata$?draw_mask@VImage@vips@@QEAAXV?$vector@NV?$allocator@N@std@@@std@@V12@HHPEAVVOption@2@@Z 0000000180035c68     VImage.obj
 0002:0000ac90       $cppxdata$?draw_rect@VImage@vips@@QEAAXV?$vector@NV?$allocator@N@std@@@std@@HHHHPEAVVOption@2@@Z 0000000180035c90     VImage.obj
 0002:0000acb8       $cppxdata$?labelregions@VImage@vips@@QEAA?AV12@PEAVVOption@2@@Z 0000000180035cb8     VImage.obj
 0002:0000ace0       $cppxdata$?phasecor@VImage@vips@@QEAA?AV12@V12@PEAVVOption@2@@Z 0000000180035ce0     VImage.obj
 0002:0000ad08       $cppxdata$?spectrum@VImage@vips@@QEAA?AV12@PEAVVOption@2@@Z 0000000180035d08     VImage.obj
 0002:0000ad30       $cppxdata$?freqmult@VImage@vips@@QEAA?AV12@V12@PEAVVOption@2@@Z 0000000180035d30     VImage.obj
 0002:0000ad58       $cppxdata$?invfft@VImage@vips@@QEAA?AV12@PEAVVOption@2@@Z 0000000180035d58     VImage.obj
 0002:0000ad80       $cppxdata$?fwfft@VImage@vips@@QEAA?AV12@PEAVVOption@2@@Z 0000000180035d80     VImage.obj
 0002:0000ada8       $cppxdata$?gaussblur@VImage@vips@@QEAA?AV12@NPEAVVOption@2@@Z 0000000180035da8     VImage.obj
 0002:0000add0       $cppxdata$?sharpen@VImage@vips@@QEAA?AV12@PEAVVOption@2@@Z 0000000180035dd0     VImage.obj
 0002:0000adf8       $cppxdata$?spcor@VImage@vips@@QEAA?AV12@V12@PEAVVOption@2@@Z 0000000180035df8     VImage.obj
 0002:0000ae20       $cppxdata$?fastcor@VImage@vips@@QEAA?AV12@V12@PEAVVOption@2@@Z 0000000180035e20     VImage.obj
 0002:0000ae48       $cppxdata$?convasep@VImage@vips@@QEAA?AV12@V12@PEAVVOption@2@@Z 0000000180035e48     VImage.obj
 0002:0000ae70       $cppxdata$?convsep@VImage@vips@@QEAA?AV12@V12@PEAVVOption@2@@Z 0000000180035e70     VImage.obj
 0002:0000ae98       $cppxdata$?compass@VImage@vips@@QEAA?AV12@V12@PEAVVOption@2@@Z 0000000180035e98     VImage.obj
 0002:0000aec0       $cppxdata$?convi@VImage@vips@@QEAA?AV12@V12@PEAVVOption@2@@Z 0000000180035ec0     VImage.obj
 0002:0000aee8       $cppxdata$?convf@VImage@vips@@QEAA?AV12@V12@PEAVVOption@2@@Z 0000000180035ee8     VImage.obj
 0002:0000af10       $cppxdata$?conva@VImage@vips@@QEAA?AV12@V12@PEAVVOption@2@@Z 0000000180035f10     VImage.obj
 0002:0000af38       $cppxdata$?conv@VImage@vips@@QEAA?AV12@V12@PEAVVOption@2@@Z 0000000180035f38     VImage.obj
 0002:0000af60       $cppxdata$?hist_local@VImage@vips@@QEAA?AV12@HHPEAVVOption@2@@Z 0000000180035f60     VImage.obj
 0002:0000af88       $cppxdata$?hist_plot@VImage@vips@@QEAA?AV12@PEAVVOption@2@@Z 0000000180035f88     VImage.obj
 0002:0000afb0       $cppxdata$?hist_equal@VImage@vips@@QEAA?AV12@PEAVVOption@2@@Z 0000000180035fb0     VImage.obj
 0002:0000afd8       $cppxdata$?hist_norm@VImage@vips@@QEAA?AV12@PEAVVOption@2@@Z 0000000180035fd8     VImage.obj
 0002:0000b000       $cppxdata$?hist_match@VImage@vips@@QEAA?AV12@V12@PEAVVOption@2@@Z 0000000180036000     VImage.obj
 0002:0000b028       $cppxdata$?hist_cum@VImage@vips@@QEAA?AV12@PEAVVOption@2@@Z 0000000180036028     VImage.obj
 0002:0000b050       $cppxdata$?stdif@VImage@vips@@QEAA?AV12@HHPEAVVOption@2@@Z 0000000180036050     VImage.obj
 0002:0000b078       $cppxdata$?maplut@VImage@vips@@QEAA?AV12@V12@PEAVVOption@2@@Z 0000000180036078     VImage.obj
 0002:0000b0a0       $cppxdata$?scRGB2sRGB@VImage@vips@@QEAA?AV12@PEAVVOption@2@@Z 00000001800360a0     VImage.obj
 0002:0000b0c8       $cppxdata$?scRGB2BW@VImage@vips@@QEAA?AV12@PEAVVOption@2@@Z 00000001800360c8     VImage.obj
 0002:0000b0f0       $cppxdata$?sRGB2scRGB@VImage@vips@@QEAA?AV12@PEAVVOption@2@@Z 00000001800360f0     VImage.obj
 0002:0000b118       $cppxdata$?dECMC@VImage@vips@@QEAA?AV12@V12@PEAVVOption@2@@Z 0000000180036118     VImage.obj
 0002:0000b140       $cppxdata$?dE00@VImage@vips@@QEAA?AV12@V12@PEAVVOption@2@@Z 0000000180036140     VImage.obj
 0002:0000b168       $cppxdata$?dE76@VImage@vips@@QEAA?AV12@V12@PEAVVOption@2@@Z 0000000180036168     VImage.obj
 0002:0000b190       $cppxdata$?icc_transform@VImage@vips@@QEAA?AV12@PEADPEAVVOption@2@@Z 0000000180036190     VImage.obj
 0002:0000b1b8       $cppxdata$?icc_export@VImage@vips@@QEAA?AV12@PEAVVOption@2@@Z 00000001800361b8     VImage.obj
 0002:0000b1e0       $cppxdata$?icc_import@VImage@vips@@QEAA?AV12@PEAVVOption@2@@Z 00000001800361e0     VImage.obj
 0002:0000b208       $cppxdata$?HSV2sRGB@VImage@vips@@QEAA?AV12@PEAVVOption@2@@Z 0000000180036208     VImage.obj
 0002:0000b230       $cppxdata$?sRGB2HSV@VImage@vips@@QEAA?AV12@PEAVVOption@2@@Z 0000000180036230     VImage.obj
 0002:0000b258       $cppxdata$?LabQ2sRGB@VImage@vips@@QEAA?AV12@PEAVVOption@2@@Z 0000000180036258     VImage.obj
 0002:0000b280       $cppxdata$?float2rad@VImage@vips@@QEAA?AV12@PEAVVOption@2@@Z 0000000180036280     VImage.obj
 0002:0000b2a8       $cppxdata$?rad2float@VImage@vips@@QEAA?AV12@PEAVVOption@2@@Z 00000001800362a8     VImage.obj
 0002:0000b2d0       $cppxdata$?Lab2LabS@VImage@vips@@QEAA?AV12@PEAVVOption@2@@Z 00000001800362d0     VImage.obj
 0002:0000b2f8       $cppxdata$?LabS2Lab@VImage@vips@@QEAA?AV12@PEAVVOption@2@@Z 00000001800362f8     VImage.obj
 0002:0000b320       $cppxdata$?LabS2LabQ@VImage@vips@@QEAA?AV12@PEAVVOption@2@@Z 0000000180036320     VImage.obj
 0002:0000b348       $cppxdata$?LabQ2LabS@VImage@vips@@QEAA?AV12@PEAVVOption@2@@Z 0000000180036348     VImage.obj
 0002:0000b370       $cppxdata$?Lab2LabQ@VImage@vips@@QEAA?AV12@PEAVVOption@2@@Z 0000000180036370     VImage.obj
 0002:0000b398       $cppxdata$?LabQ2Lab@VImage@vips@@QEAA?AV12@PEAVVOption@2@@Z 0000000180036398     VImage.obj
 0002:0000b3c0       $cppxdata$?XYZ2scRGB@VImage@vips@@QEAA?AV12@PEAVVOption@2@@Z 00000001800363c0     VImage.obj
 0002:0000b3e8       $cppxdata$?scRGB2XYZ@VImage@vips@@QEAA?AV12@PEAVVOption@2@@Z 00000001800363e8     VImage.obj
 0002:0000b410       $cppxdata$?Yxy2XYZ@VImage@vips@@QEAA?AV12@PEAVVOption@2@@Z 0000000180036410     VImage.obj
 0002:0000b438       $cppxdata$?XYZ2Yxy@VImage@vips@@QEAA?AV12@PEAVVOption@2@@Z 0000000180036438     VImage.obj
 0002:0000b460       $cppxdata$?CMC2LCh@VImage@vips@@QEAA?AV12@PEAVVOption@2@@Z 0000000180036460     VImage.obj
 0002:0000b488       $cppxdata$?LCh2CMC@VImage@vips@@QEAA?AV12@PEAVVOption@2@@Z 0000000180036488     VImage.obj
 0002:0000b4b0       $cppxdata$?LCh2Lab@VImage@vips@@QEAA?AV12@PEAVVOption@2@@Z 00000001800364b0     VImage.obj
 0002:0000b4d8       $cppxdata$?Lab2LCh@VImage@vips@@QEAA?AV12@PEAVVOption@2@@Z 00000001800364d8     VImage.obj
 0002:0000b500       $cppxdata$?XYZ2Lab@VImage@vips@@QEAA?AV12@PEAVVOption@2@@Z 0000000180036500     VImage.obj
 0002:0000b528       $cppxdata$?Lab2XYZ@VImage@vips@@QEAA?AV12@PEAVVOption@2@@Z 0000000180036528     VImage.obj
 0002:0000b550       $cppxdata$?colourspace@VImage@vips@@QEAA?AV12@W4VipsInterpretation@@PEAVVOption@2@@Z 0000000180036550     VImage.obj
 0002:0000b578       $cppxdata$?resize@VImage@vips@@QEAA?AV12@NPEAVVOption@2@@Z 0000000180036578     VImage.obj
 0002:0000b5a0       $cppxdata$?similarity@VImage@vips@@QEAA?AV12@PEAVVOption@2@@Z 00000001800365a0     VImage.obj
 0002:0000b5c8       $cppxdata$?affine@VImage@vips@@QEAA?AV12@V?$vector@NV?$allocator@N@std@@@std@@PEAVVOption@2@@Z 00000001800365c8     VImage.obj
 0002:0000b5f0       $cppxdata$?quadratic@VImage@vips@@QEAA?AV12@V12@PEAVVOption@2@@Z 00000001800365f0     VImage.obj
 0002:0000b618       $cppxdata$?reduce@VImage@vips@@QEAA?AV12@NNPEAVVOption@2@@Z 0000000180036618     VImage.obj
 0002:0000b640       $cppxdata$?reducev@VImage@vips@@QEAA?AV12@NPEAVVOption@2@@Z 0000000180036640     VImage.obj
 0002:0000b668       $cppxdata$?reduceh@VImage@vips@@QEAA?AV12@NPEAVVOption@2@@Z 0000000180036668     VImage.obj
 0002:0000b690       $cppxdata$?shrinkv@VImage@vips@@QEAA?AV12@HPEAVVOption@2@@Z 0000000180036690     VImage.obj
 0002:0000b6b8       $cppxdata$?shrinkh@VImage@vips@@QEAA?AV12@HPEAVVOption@2@@Z 00000001800366b8     VImage.obj
 0002:0000b6e0       $cppxdata$?shrink@VImage@vips@@QEAA?AV12@NNPEAVVOption@2@@Z 00000001800366e0     VImage.obj
 0002:0000b708       $cppxdata$?mapim@VImage@vips@@QEAA?AV12@V12@PEAVVOption@2@@Z 0000000180036708     VImage.obj
 0002:0000b730       $cppxdata$?thumbnail_buffer@VImage@vips@@SA?AV12@PEAU_VipsBlob@@HPEAVVOption@2@@Z 0000000180036730     VImage.obj
 0002:0000b758       $cppxdata$?thumbnail@VImage@vips@@SA?AV12@PEADHPEAVVOption@2@@Z 0000000180036758     VImage.obj
 0002:0000b780       $cppxdata$?openexrload@VImage@vips@@SA?AV12@PEADPEAVVOption@2@@Z 0000000180036780     VImage.obj
 0002:0000b7a8       $cppxdata$?fitsload@VImage@vips@@SA?AV12@PEADPEAVVOption@2@@Z 00000001800367a8     VImage.obj
 0002:0000b7d0       $cppxdata$?magickload_buffer@VImage@vips@@SA?AV12@PEAU_VipsBlob@@PEAVVOption@2@@Z 00000001800367d0     VImage.obj
 0002:0000b7f8       $cppxdata$?magickload@VImage@vips@@SA?AV12@PEADPEAVVOption@2@@Z 00000001800367f8     VImage.obj
 0002:0000b820       $cppxdata$?openslideload@VImage@vips@@SA?AV12@PEADPEAVVOption@2@@Z 0000000180036820     VImage.obj
 0002:0000b848       $cppxdata$?tiffload_buffer@VImage@vips@@SA?AV12@PEAU_VipsBlob@@PEAVVOption@2@@Z 0000000180036848     VImage.obj
 0002:0000b870       $cppxdata$?tiffload@VImage@vips@@SA?AV12@PEADPEAVVOption@2@@Z 0000000180036870     VImage.obj
 0002:0000b898       $cppxdata$?webpload_buffer@VImage@vips@@SA?AV12@PEAU_VipsBlob@@PEAVVOption@2@@Z 0000000180036898     VImage.obj
 0002:0000b8c0       $cppxdata$?webpload@VImage@vips@@SA?AV12@PEADPEAVVOption@2@@Z 00000001800368c0     VImage.obj
 0002:0000b8e8       $cppxdata$?jpegload_buffer@VImage@vips@@SA?AV12@PEAU_VipsBlob@@PEAVVOption@2@@Z 00000001800368e8     VImage.obj
 0002:0000b910       $cppxdata$?jpegload@VImage@vips@@SA?AV12@PEADPEAVVOption@2@@Z 0000000180036910     VImage.obj
 0002:0000b938       $cppxdata$?matload@VImage@vips@@SA?AV12@PEADPEAVVOption@2@@Z 0000000180036938     VImage.obj
 0002:0000b960       $cppxdata$?pngload_buffer@VImage@vips@@SA?AV12@PEAU_VipsBlob@@PEAVVOption@2@@Z 0000000180036960     VImage.obj
 0002:0000b988       $cppxdata$?pngload@VImage@vips@@SA?AV12@PEADPEAVVOption@2@@Z 0000000180036988     VImage.obj
 0002:0000b9b0       $cppxdata$?gifload_buffer@VImage@vips@@SA?AV12@PEAU_VipsBlob@@PEAVVOption@2@@Z 00000001800369b0     VImage.obj
 0002:0000b9d8       $cppxdata$?gifload@VImage@vips@@SA?AV12@PEADPEAVVOption@2@@Z 00000001800369d8     VImage.obj
 0002:0000ba00       $cppxdata$?svgload_buffer@VImage@vips@@SA?AV12@PEAU_VipsBlob@@PEAVVOption@2@@Z 0000000180036a00     VImage.obj
 0002:0000ba28       $cppxdata$?svgload@VImage@vips@@SA?AV12@PEADPEAVVOption@2@@Z 0000000180036a28     VImage.obj
 0002:0000ba50       $cppxdata$?pdfload_buffer@VImage@vips@@SA?AV12@PEAU_VipsBlob@@PEAVVOption@2@@Z 0000000180036a50     VImage.obj
 0002:0000ba78       $cppxdata$?pdfload@VImage@vips@@SA?AV12@PEADPEAVVOption@2@@Z 0000000180036a78     VImage.obj
 0002:0000baa0       $cppxdata$?radload@VImage@vips@@SA?AV12@PEADPEAVVOption@2@@Z 0000000180036aa0     VImage.obj
 0002:0000bac8       $cppxdata$?ppmload@VImage@vips@@SA?AV12@PEADPEAVVOption@2@@Z 0000000180036ac8     VImage.obj
 0002:0000baf0       $cppxdata$?analyzeload@VImage@vips@@SA?AV12@PEADPEAVVOption@2@@Z 0000000180036af0     VImage.obj
 0002:0000bb18       $cppxdata$?vipsload@VImage@vips@@SA?AV12@PEADPEAVVOption@2@@Z 0000000180036b18     VImage.obj
 0002:0000bb40       $cppxdata$?rawload@VImage@vips@@SA?AV12@PEADHHHPEAVVOption@2@@Z 0000000180036b40     VImage.obj
 0002:0000bb68       $cppxdata$?matrixload@VImage@vips@@SA?AV12@PEADPEAVVOption@2@@Z 0000000180036b68     VImage.obj
 0002:0000bb90       $cppxdata$?csvload@VImage@vips@@SA?AV12@PEADPEAVVOption@2@@Z 0000000180036b90     VImage.obj
 0002:0000bbb8       $cppxdata$?perlin@VImage@vips@@SA?AV12@HHPEAVVOption@2@@Z 0000000180036bb8     VImage.obj
 0002:0000bbe0       $cppxdata$?worley@VImage@vips@@SA?AV12@HHPEAVVOption@2@@Z 0000000180036be0     VImage.obj
 0002:0000bc08       $cppxdata$?fractsurf@VImage@vips@@SA?AV12@HHNPEAVVOption@2@@Z 0000000180036c08     VImage.obj
 0002:0000bc30       $cppxdata$?identity@VImage@vips@@SA?AV12@PEAVVOption@2@@Z 0000000180036c30     VImage.obj
 0002:0000bc58       $cppxdata$?tonelut@VImage@vips@@SA?AV12@PEAVVOption@2@@Z 0000000180036c58     VImage.obj
 0002:0000bc80       $cppxdata$?invertlut@VImage@vips@@QEAA?AV12@PEAVVOption@2@@Z 0000000180036c80     VImage.obj
 0002:0000bca8       $cppxdata$?buildlut@VImage@vips@@QEAA?AV12@PEAVVOption@2@@Z 0000000180036ca8     VImage.obj
 0002:0000bcd0       $cppxdata$?mask_fractal@VImage@vips@@SA?AV12@HHNPEAVVOption@2@@Z 0000000180036cd0     VImage.obj
 0002:0000bcf8       $cppxdata$?mask_gaussian_band@VImage@vips@@SA?AV12@HHNNNNPEAVVOption@2@@Z 0000000180036cf8     VImage.obj
 0002:0000bd20       $cppxdata$?mask_gaussian_ring@VImage@vips@@SA?AV12@HHNNNPEAVVOption@2@@Z 0000000180036d20     VImage.obj
 0002:0000bd48       $cppxdata$?mask_gaussian@VImage@vips@@SA?AV12@HHNNPEAVVOption@2@@Z 0000000180036d48     VImage.obj
 0002:0000bd70       $cppxdata$?mask_butterworth_band@VImage@vips@@SA?AV12@HHNNNNNPEAVVOption@2@@Z 0000000180036d70     VImage.obj
 0002:0000bd98       $cppxdata$?mask_butterworth_ring@VImage@vips@@SA?AV12@HHNNNNPEAVVOption@2@@Z 0000000180036d98     VImage.obj
 0002:0000bdc0       $cppxdata$?mask_butterworth@VImage@vips@@SA?AV12@HHNNNPEAVVOption@2@@Z 0000000180036dc0     VImage.obj
 0002:0000bde8       $cppxdata$?mask_ideal_band@VImage@vips@@SA?AV12@HHNNNPEAVVOption@2@@Z 0000000180036de8     VImage.obj
 0002:0000be10       $cppxdata$?mask_ideal_ring@VImage@vips@@SA?AV12@HHNNPEAVVOption@2@@Z 0000000180036e10     VImage.obj
 0002:0000be38       $cppxdata$?mask_ideal@VImage@vips@@SA?AV12@HHNPEAVVOption@2@@Z 0000000180036e38     VImage.obj
 0002:0000be60       $cppxdata$?sines@VImage@vips@@SA?AV12@HHPEAVVOption@2@@Z 0000000180036e60     VImage.obj
 0002:0000be88       $cppxdata$?zone@VImage@vips@@SA?AV12@HHPEAVVOption@2@@Z 0000000180036e88     VImage.obj
 0002:0000beb0       $cppxdata$?grey@VImage@vips@@SA?AV12@HHPEAVVOption@2@@Z 0000000180036eb0     VImage.obj
 0002:0000bed8       $cppxdata$?eye@VImage@vips@@SA?AV12@HHPEAVVOption@2@@Z 0000000180036ed8     VImage.obj
 0002:0000bf00       $cppxdata$?logmat@VImage@vips@@SA?AV12@NNPEAVVOption@2@@Z 0000000180036f00     VImage.obj
 0002:0000bf28       $cppxdata$?gaussmat@VImage@vips@@SA?AV12@NNPEAVVOption@2@@Z 0000000180036f28     VImage.obj
 0002:0000bf50       $cppxdata$?xyz@VImage@vips@@SA?AV12@HHPEAVVOption@2@@Z 0000000180036f50     VImage.obj
 0002:0000bf78       $cppxdata$?text@VImage@vips@@SA?AV12@PEADPEAVVOption@2@@Z 0000000180036f78     VImage.obj
 0002:0000bfa0       $cppxdata$?gaussnoise@VImage@vips@@SA?AV12@HHPEAVVOption@2@@Z 0000000180036fa0     VImage.obj
 0002:0000bfc8       $cppxdata$?black@VImage@vips@@SA?AV12@HHPEAVVOption@2@@Z 0000000180036fc8     VImage.obj
 0002:0000bff0       $cppxdata$?gamma@VImage@vips@@QEAA?AV12@PEAVVOption@2@@Z 0000000180036ff0     VImage.obj
 0002:0000c018       $cppxdata$?falsecolour@VImage@vips@@QEAA?AV12@PEAVVOption@2@@Z 0000000180037018     VImage.obj
 0002:0000c040       $cppxdata$?byteswap@VImage@vips@@QEAA?AV12@PEAVVOption@2@@Z 0000000180037040     VImage.obj
 0002:0000c068       $cppxdata$?msb@VImage@vips@@QEAA?AV12@PEAVVOption@2@@Z 0000000180037068     VImage.obj
 0002:0000c090       $cppxdata$?subsample@VImage@vips@@QEAA?AV12@HHPEAVVOption@2@@Z 0000000180037090     VImage.obj
 0002:0000c0b8       $cppxdata$?zoom@VImage@vips@@QEAA?AV12@HHPEAVVOption@2@@Z 00000001800370b8     VImage.obj
 0002:0000c0e0       $cppxdata$?wrap@VImage@vips@@QEAA?AV12@PEAVVOption@2@@Z 00000001800370e0     VImage.obj
 0002:0000c108       $cppxdata$?scale@VImage@vips@@QEAA?AV12@PEAVVOption@2@@Z 0000000180037108     VImage.obj
 0002:0000c130       $cppxdata$?grid@VImage@vips@@QEAA?AV12@HHHPEAVVOption@2@@Z 0000000180037130     VImage.obj
 0002:0000c158       $cppxdata$?unpremultiply@VImage@vips@@QEAA?AV12@PEAVVOption@2@@Z 0000000180037158     VImage.obj
 0002:0000c180       $cppxdata$?premultiply@VImage@vips@@QEAA?AV12@PEAVVOption@2@@Z 0000000180037180     VImage.obj
 0002:0000c1a8       $cppxdata$?flatten@VImage@vips@@QEAA?AV12@PEAVVOption@2@@Z 00000001800371a8     VImage.obj
 0002:0000c1d0       $cppxdata$?bandunfold@VImage@vips@@QEAA?AV12@PEAVVOption@2@@Z 00000001800371d0     VImage.obj
 0002:0000c1f8       $cppxdata$?bandfold@VImage@vips@@QEAA?AV12@PEAVVOption@2@@Z 00000001800371f8     VImage.obj
 0002:0000c220       $cppxdata$?recomb@VImage@vips@@QEAA?AV12@V12@PEAVVOption@2@@Z 0000000180037220     VImage.obj
 0002:0000c248       $cppxdata$?autorot@VImage@vips@@QEAA?AV12@PEAVVOption@2@@Z 0000000180037248     VImage.obj
 0002:0000c270       $cppxdata$?rot45@VImage@vips@@QEAA?AV12@PEAVVOption@2@@Z 0000000180037270     VImage.obj
 0002:0000c298       $cppxdata$?cast@VImage@vips@@QEAA?AV12@W4VipsBandFormat@@PEAVVOption@2@@Z 0000000180037298     VImage.obj
 0002:0000c2c0       $cppxdata$?replicate@VImage@vips@@QEAA?AV12@HHPEAVVOption@2@@Z 00000001800372c0     VImage.obj
 0002:0000c2e8       $cppxdata$?bandbool@VImage@vips@@QEAA?AV12@W4VipsOperationBoolean@@PEAVVOption@2@@Z 00000001800372e8     VImage.obj
 0002:0000c310       $cppxdata$?bandmean@VImage@vips@@QEAA?AV12@PEAVVOption@2@@Z 0000000180037310     VImage.obj
 0002:0000c338       $cppxdata$?bandrank@VImage@vips@@SA?AV12@V?$vector@VVImage@vips@@V?$allocator@VVImage@vips@@@std@@@std@@PEAVVOption@2@@Z 0000000180037338     VImage.obj
 0002:0000c360       $cppxdata$?bandjoin_const@VImage@vips@@QEAA?AV12@V?$vector@NV?$allocator@N@std@@@std@@PEAVVOption@2@@Z 0000000180037360     VImage.obj
 0002:0000c388       $cppxdata$?bandjoin@VImage@vips@@SA?AV12@V?$vector@VVImage@vips@@V?$allocator@VVImage@vips@@@std@@@std@@PEAVVOption@2@@Z 0000000180037388     VImage.obj
 0002:0000c3b0       $cppxdata$?extract_band@VImage@vips@@QEAA?AV12@HPEAVVOption@2@@Z 00000001800373b0     VImage.obj
 0002:0000c3d8       $cppxdata$?smartcrop@VImage@vips@@QEAA?AV12@HHPEAVVOption@2@@Z 00000001800373d8     VImage.obj
 0002:0000c400       $cppxdata$?extract_area@VImage@vips@@QEAA?AV12@HHHHPEAVVOption@2@@Z 0000000180037400     VImage.obj
 0002:0000c428       $cppxdata$?arrayjoin@VImage@vips@@SA?AV12@V?$vector@VVImage@vips@@V?$allocator@VVImage@vips@@@std@@@std@@PEAVVOption@2@@Z 0000000180037428     VImage.obj
 0002:0000c450       $cppxdata$?join@VImage@vips@@QEAA?AV12@V12@W4VipsDirection@@PEAVVOption@2@@Z 0000000180037450     VImage.obj
 0002:0000c478       $cppxdata$?insert@VImage@vips@@QEAA?AV12@V12@HHPEAVVOption@2@@Z 0000000180037478     VImage.obj
 0002:0000c4a0       $cppxdata$?embed@VImage@vips@@QEAA?AV12@HHHHPEAVVOption@2@@Z 00000001800374a0     VImage.obj
 0002:0000c4c8       $cppxdata$?cache@VImage@vips@@QEAA?AV12@PEAVVOption@2@@Z 00000001800374c8     VImage.obj
 0002:0000c4f0       $cppxdata$?sequential@VImage@vips@@QEAA?AV12@PEAVVOption@2@@Z 00000001800374f0     VImage.obj
 0002:0000c518       $cppxdata$?linecache@VImage@vips@@QEAA?AV12@PEAVVOption@2@@Z 0000000180037518     VImage.obj
 0002:0000c540       $cppxdata$?tilecache@VImage@vips@@QEAA?AV12@PEAVVOption@2@@Z 0000000180037540     VImage.obj
 0002:0000c568       $cppxdata$?copy@VImage@vips@@QEAA?AV12@PEAVVOption@2@@Z 0000000180037568     VImage.obj
 0002:0000c590       $cppxdata$?getpoint@VImage@vips@@QEAA?AV?$vector@NV?$allocator@N@std@@@std@@HHPEAVVOption@2@@Z 0000000180037590     VImage.obj
 0002:0000c5b8       $cppxdata$?measure@VImage@vips@@QEAA?AV12@HHPEAVVOption@2@@Z 00000001800375b8     VImage.obj
 0002:0000c5e0       $cppxdata$?profile@VImage@vips@@QEAA?AV12@PEAV12@PEAVVOption@2@@Z 00000001800375e0     VImage.obj
 0002:0000c608       $cppxdata$?project@VImage@vips@@QEAA?AV12@PEAV12@PEAVVOption@2@@Z 0000000180037608     VImage.obj
 0002:0000c630       $cppxdata$?hough_circle@VImage@vips@@QEAA?AV12@PEAVVOption@2@@Z 0000000180037630     VImage.obj
 0002:0000c658       $cppxdata$?hough_line@VImage@vips@@QEAA?AV12@PEAVVOption@2@@Z 0000000180037658     VImage.obj
 0002:0000c680       $cppxdata$?hist_find_indexed@VImage@vips@@QEAA?AV12@V12@PEAVVOption@2@@Z 0000000180037680     VImage.obj
 0002:0000c6a8       $cppxdata$?hist_find_ndim@VImage@vips@@QEAA?AV12@PEAVVOption@2@@Z 00000001800376a8     VImage.obj
 0002:0000c6d0       $cppxdata$?hist_find@VImage@vips@@QEAA?AV12@PEAVVOption@2@@Z 00000001800376d0     VImage.obj
 0002:0000c6f8       $cppxdata$?stats@VImage@vips@@QEAA?AV12@PEAVVOption@2@@Z 00000001800376f8     VImage.obj
 0002:0000c720       $cppxdata$?boolean_const@VImage@vips@@QEAA?AV12@W4VipsOperationBoolean@@V?$vector@NV?$allocator@N@std@@@std@@PEAVVOption@2@@Z 0000000180037720     VImage.obj
 0002:0000c748       $cppxdata$?remainder_const@VImage@vips@@QEAA?AV12@V?$vector@NV?$allocator@N@std@@@std@@PEAVVOption@2@@Z 0000000180037748     VImage.obj
 0002:0000c770       $cppxdata$?relational_const@VImage@vips@@QEAA?AV12@W4VipsOperationRelational@@V?$vector@NV?$allocator@N@std@@@std@@PEAVVOption@2@@Z 0000000180037770     VImage.obj
 0002:0000c798       $cppxdata$?sign@VImage@vips@@QEAA?AV12@PEAVVOption@2@@Z 0000000180037798     VImage.obj
 0002:0000c7c0       $cppxdata$?abs@VImage@vips@@QEAA?AV12@PEAVVOption@2@@Z 00000001800377c0     VImage.obj
 0002:0000c7e8       $cppxdata$?invert@VImage@vips@@QEAA?AV12@PEAVVOption@2@@Z 00000001800377e8     VImage.obj
 0002:0000c810       $cppxdata$?sum@VImage@vips@@SA?AV12@V?$vector@VVImage@vips@@V?$allocator@VVImage@vips@@@std@@@std@@PEAVVOption@2@@Z 0000000180037810     VImage.obj
 0002:0000c838       $cppxdata$?complexform@VImage@vips@@QEAA?AV12@V12@PEAVVOption@2@@Z 0000000180037838     VImage.obj
 0002:0000c860       $cppxdata$?complex2@VImage@vips@@QEAA?AV12@V12@W4VipsOperationComplex2@@PEAVVOption@2@@Z 0000000180037860     VImage.obj
 0002:0000c888       $cppxdata$?boolean@VImage@vips@@QEAA?AV12@V12@W4VipsOperationBoolean@@PEAVVOption@2@@Z 0000000180037888     VImage.obj
 0002:0000c8b0       $cppxdata$?remainder@VImage@vips@@QEAA?AV12@V12@PEAVVOption@2@@Z 00000001800378b0     VImage.obj
 0002:0000c8d8       $cppxdata$?relational@VImage@vips@@QEAA?AV12@V12@W4VipsOperationRelational@@PEAVVOption@2@@Z 00000001800378d8     VImage.obj
 0002:0000c900       $cppxdata$?divide@VImage@vips@@QEAA?AV12@V12@PEAVVOption@2@@Z 0000000180037900     VImage.obj
 0002:0000c928       $cppxdata$?multiply@VImage@vips@@QEAA?AV12@V12@PEAVVOption@2@@Z 0000000180037928     VImage.obj
 0002:0000c950       $cppxdata$?subtract@VImage@vips@@QEAA?AV12@V12@PEAVVOption@2@@Z 0000000180037950     VImage.obj
 0002:0000c978       $cppxdata$?add@VImage@vips@@QEAA?AV12@V12@PEAVVOption@2@@Z 0000000180037978     VImage.obj
 0002:0000c9a0       $cppxdata$?write_to_buffer@VImage@vips@@QEAAXPEBDPEAPEAXPEA_KPEAVVOption@2@@Z 00000001800379a0     VImage.obj
 0002:0000c9c8       $cppxdata$?write_to_file@VImage@vips@@QEAAXPEBDPEAVVOption@2@@Z 00000001800379c8     VImage.obj
 0002:0000c9f0       $cppxdata$?write@VImage@vips@@QEAA?AV12@V12@@Z 00000001800379f0     VImage.obj
 0002:0000ca18       $cppxdata$?new_from_buffer@VImage@vips@@SA?AV12@PEAX_KPEBDPEAVVOption@2@@Z 0000000180037a18     VImage.obj
 0002:0000ca40       $cppxdata$?new_from_file@VImage@vips@@SA?AV12@PEBDPEAVVOption@2@@Z 0000000180037a40     VImage.obj
 0002:0000ca68       $cppxdata$?call_option_string@VImage@vips@@SAXPEBD0PEAVVOption@2@@Z 0000000180037a68     VImage.obj
 0002:0000ca90       $cppxdata$?set@VOption@vips@@QEAAPEAV12@PEBDV?$vector@VVImage@vips@@V?$allocator@VVImage@vips@@@std@@@std@@@Z 0000000180037a90     VImage.obj
 0002:0000cab8       $cppxdata$?set@VOption@vips@@QEAAPEAV12@PEBDV?$vector@NV?$allocator@N@std@@@std@@@Z 0000000180037ab8     VImage.obj
 0002:0000cae0       $cppxdata$?set@VOption@vips@@QEAAPEAV12@PEBDVVImage@2@@Z 0000000180037ae0     VImage.obj
 0002:0000cb08       $cppxdata$?invert@vips@@YA?AV?$vector@NV?$allocator@N@std@@@std@@V23@@Z 0000000180037b08     VImage.obj
 0002:0000cb30       $cppxdata$?negate@vips@@YA?AV?$vector@NV?$allocator@N@std@@@std@@V23@@Z 0000000180037b30     VImage.obj
 0002:0000cb58       $cppxdata$?rank@VImage@vips@@QEAA?AV12@HHHPEAVVOption@2@@Z 0000000180037b58     VImage.obj
 0002:0000cb80       $cppxdata$?morph@VImage@vips@@QEAA?AV12@V12@W4VipsOperationMorphology@@PEAVVOption@2@@Z 0000000180037b80     VImage.obj
 0002:0000cba8       $cppxdata$?ifthenelse@VImage@vips@@QEAA?AV12@V12@0PEAVVOption@2@@Z 0000000180037ba8     VImage.obj
 0002:0000cbd0       $cppxdata$?rot@VImage@vips@@QEAA?AV12@W4VipsAngle@@PEAVVOption@2@@Z 0000000180037bd0     VImage.obj
 0002:0000cbf8       $cppxdata$?bandjoin@VImage@vips@@QEAA?AV12@V12@PEAVVOption@2@@Z 0000000180037bf8     VImage.obj
 0002:0000cc20       $cppxdata$?flip@VImage@vips@@QEAA?AV12@W4VipsDirection@@PEAVVOption@2@@Z 0000000180037c20     VImage.obj
 0002:0000cc48       $cppxdata$?complexget@VImage@vips@@QEAA?AV12@W4VipsOperationComplexget@@PEAVVOption@2@@Z 0000000180037c48     VImage.obj
 0002:0000cc70       $cppxdata$?complex@VImage@vips@@QEAA?AV12@W4VipsOperationComplex@@PEAVVOption@2@@Z 0000000180037c70     VImage.obj
 0002:0000cc98       $cppxdata$?math2_const@VImage@vips@@QEAA?AV12@W4VipsOperationMath2@@V?$vector@NV?$allocator@N@std@@@std@@PEAVVOption@2@@Z 0000000180037c98     VImage.obj
 0002:0000ccc0       $cppxdata$?round@VImage@vips@@QEAA?AV12@W4VipsOperationRound@@PEAVVOption@2@@Z 0000000180037cc0     VImage.obj
 0002:0000cce8       $cppxdata$?math@VImage@vips@@QEAA?AV12@W4VipsOperationMath@@PEAVVOption@2@@Z 0000000180037ce8     VImage.obj
 0002:0000cd10       $cppxdata$?linear@VImage@vips@@QEAA?AV12@V?$vector@NV?$allocator@N@std@@@std@@0PEAVVOption@2@@Z 0000000180037d10     VImage.obj
 0002:0000cd38       $cppxdata$?math2@VImage@vips@@QEAA?AV12@V12@W4VipsOperationMath2@@PEAVVOption@2@@Z 0000000180037d38     VImage.obj
 0002:0000cd60       $cppxdata$?new_from_image@VImage@vips@@QEAA?AV12@V?$vector@NV?$allocator@N@std@@@std@@@Z 0000000180037d60     VImage.obj
 0002:0000d770       $unwind$??AVImage@vips@@QEAA?AV01@H@Z 0000000180038770     VImage.obj
 0002:0000d770       $unwind$?fliphor@VImage@vips@@QEAA?AV12@PEAVVOption@2@@Z 0000000180038770     VError.obj
 0002:0000d770       $unwind$??1VImage@vips@@QEAA@XZ 0000000180038770     VError.obj
 0002:0000d770       $unwind$?flipver@VImage@vips@@QEAA?AV12@PEAVVOption@2@@Z 0000000180038770     VError.obj
 0002:0000d770       $unwind$?rot90@VImage@vips@@QEAA?AV12@PEAVVOption@2@@Z 0000000180038770     VError.obj
 0002:0000d770       $unwind$?rot180@VImage@vips@@QEAA?AV12@PEAVVOption@2@@Z 0000000180038770     VError.obj
 0002:0000d770       $unwind$?rot270@VImage@vips@@QEAA?AV12@PEAVVOption@2@@Z 0000000180038770     VError.obj
 0002:0000d770       $unwind$?get_interpolate@VInterpolate@vips@@QEAAPEAU_VipsInterpolate@@XZ 0000000180038770     VError.obj
 0002:0000d770       $unwind$?floor@VImage@vips@@QEAA?AV12@PEAVVOption@2@@Z 0000000180038770     VError.obj
 0002:0000d770       $unwind$?ceil@VImage@vips@@QEAA?AV12@PEAVVOption@2@@Z 0000000180038770     VError.obj
 0002:0000d770       $unwind$?data@VImage@vips@@QEAAPEBXXZ 0000000180038770     VError.obj
 0002:0000d770       $unwind$?rint@VImage@vips@@QEAA?AV12@PEAVVOption@2@@Z 0000000180038770     VError.obj
 0002:0000d770       $unwind$?filename@VImage@vips@@QEAAPEBDXZ 0000000180038770     VError.obj
 0002:0000d770       $unwind$?real@VImage@vips@@QEAA?AV12@PEAVVOption@2@@Z 0000000180038770     VError.obj
 0002:0000d770       $unwind$?yoffset@VImage@vips@@QEAANXZ 0000000180038770     VError.obj
 0002:0000d770       $unwind$?xoffset@VImage@vips@@QEAANXZ 0000000180038770     VError.obj
 0002:0000d770       $unwind$?_Raise@exception@stdext@@QEBAXXZ 0000000180038770     VError.obj
 0002:0000d770       $unwind$?yres@VImage@vips@@QEAANXZ 0000000180038770     VError.obj
 0002:0000d770       $unwind$?xres@VImage@vips@@QEAANXZ 0000000180038770     VError.obj
 0002:0000d770       $unwind$?guess_interpretation@VImage@vips@@QEAA?AW4VipsInterpretation@@XZ 0000000180038770     VError.obj
 0002:0000d770       $unwind$?interpretation@VImage@vips@@QEAA?AW4VipsInterpretation@@XZ 0000000180038770     VError.obj
 0002:0000d770       $unwind$?coding@VImage@vips@@QEAA?AW4VipsCoding@@XZ 0000000180038770     VError.obj
 0002:0000d770       $unwind$?format@VImage@vips@@QEAA?AW4VipsBandFormat@@XZ 0000000180038770     VError.obj
 0002:0000d770       $unwind$?message@error_code@std@@QEBA?AV?$basic_string@DU?$char_traits@D@std@@V?$allocator@D@2@@2@XZ 0000000180038770     VError.obj
 0002:0000d770       $unwind$?equivalent@error_category@std@@UEBA_NHAEBVerror_condition@2@@Z 0000000180038770     VError.obj
 0002:0000d770       $unwind$?imag@VImage@vips@@QEAA?AV12@PEAVVOption@2@@Z 0000000180038770     VError.obj
 0002:0000d770       $unwind$?bands@VImage@vips@@QEAAHXZ 0000000180038770     VError.obj
 0002:0000d770       $unwind$?height@VImage@vips@@QEAAHXZ 0000000180038770     VError.obj
 0002:0000d770       $unwind$??0out_of_range@std@@QEAA@PEBD@Z 0000000180038770     libcpmt:xthrow.obj
 0002:0000d770       $unwind$?width@VImage@vips@@QEAAHXZ 0000000180038770     VError.obj
 0002:0000d770       $unwind$?get_image@VImage@vips@@QEAAPEAU_VipsImage@@XZ 0000000180038770     VError.obj
 0002:0000d770       $unwind$?polar@VImage@vips@@QEAA?AV12@PEAVVOption@2@@Z 0000000180038770     VError.obj
 0002:0000d770       $unwind$?rect@VImage@vips@@QEAA?AV12@PEAVVOption@2@@Z 0000000180038770     VError.obj
 0002:0000d770       $unwind$?message@_Iostream_error_category@std@@UEBA?AV?$basic_string@DU?$char_traits@D@std@@V?$allocator@D@2@@2@H@Z 0000000180038770     VError.obj
 0002:0000d770       $unwind$?conj@VImage@vips@@QEAA?AV12@PEAVVOption@2@@Z 0000000180038770     VError.obj
 0002:0000d770       $unwind$??1VInterpolate@vips@@QEAA@XZ 0000000180038770     VError.obj
 0002:0000d770       $unwind$?sin@VImage@vips@@QEAA?AV12@PEAVVOption@2@@Z 0000000180038770     VError.obj
 0002:0000d770       $unwind$?to_vector@vips@@YA?AV?$vector@NV?$allocator@N@std@@@std@@N@Z 0000000180038770     VImage.obj
 0002:0000d770       $unwind$?cos@VImage@vips@@QEAA?AV12@PEAVVOption@2@@Z 0000000180038770     VError.obj
 0002:0000d770       $unwind$?tan@VImage@vips@@QEAA?AV12@PEAVVOption@2@@Z 0000000180038770     VError.obj
 0002:0000d770       $unwind$?asin@VImage@vips@@QEAA?AV12@PEAVVOption@2@@Z 0000000180038770     VError.obj
 0002:0000d770       $unwind$?acos@VImage@vips@@QEAA?AV12@PEAVVOption@2@@Z 0000000180038770     VError.obj
 0002:0000d770       $unwind$?atan@VImage@vips@@QEAA?AV12@PEAVVOption@2@@Z 0000000180038770     VError.obj
 0002:0000d770       $unwind$?log@VImage@vips@@QEAA?AV12@PEAVVOption@2@@Z 0000000180038770     VError.obj
 0002:0000d770       $unwind$?log10@VImage@vips@@QEAA?AV12@PEAVVOption@2@@Z 0000000180038770     VError.obj
 0002:0000d770       $unwind$?exp@VImage@vips@@QEAA?AV12@PEAVVOption@2@@Z 0000000180038770     VError.obj
 0002:0000d770       $unwind$?exp10@VImage@vips@@QEAA?AV12@PEAVVOption@2@@Z 0000000180038770     VError.obj
 0002:0000d770       $unwind$??0length_error@std@@QEAA@PEBD@Z 0000000180038770     libcpmt:xthrow.obj
 0002:0000d778       $unwind$??4VInterpolate@vips@@QEAAAEAV01@$$QEAV01@@Z 0000000180038778     VError.obj
 0002:0000d778       $unwind$??0logic_error@std@@QEAA@AEBV01@@Z 0000000180038778     libcpmt:xthrow.obj
 0002:0000d778       $unwind$_SetImageBase      0000000180038778     libvcruntime:trnsctrl.obj
 0002:0000d778       $unwind$??1VError@vips@@UEAA@XZ 0000000180038778     VError.obj
 0002:0000d778       $unwind$??4VInterpolate@vips@@QEAAAEAV01@AEBV01@@Z 0000000180038778     VError.obj
 0002:0000d778       $unwind$_SetThrowImageBase 0000000180038778     libvcruntime:trnsctrl.obj
 0002:0000d778       $unwind$?system@VImage@vips@@SAXPEADPEAVVOption@2@@Z 0000000180038778     VImage.obj
 0002:0000d778       $unwind$??0bad_alloc@std@@QEAA@AEBV01@@Z 0000000180038778     libcpmt:xthrow.obj
 0002:0000d778       $unwind$??4VError@vips@@QEAAAEAV01@AEBV01@@Z 0000000180038778     VError.obj
 0002:0000d778       $unwind$??_Gfailure@ios_base@std@@UEAAPEAXI@Z 0000000180038778     VError.obj
 0002:0000d778       $unwind$_CreateFrameInfo   0000000180038778     libvcruntime:trnsctrl.obj
 0002:0000d778       $unwind$__acrt_uninitialize_locks 0000000180038778     libucrt:locks.obj
 0002:0000d778       $unwind$??1?$basic_string@DU?$char_traits@D@std@@V?$allocator@D@2@@std@@QEAA@XZ 0000000180038778     VError.obj
 0002:0000d778       $unwind$_IsExceptionObjectToBeDestroyed 0000000180038778     libvcruntime:trnsctrl.obj
 0002:0000d778       $unwind$__acrt_uninitialize_winapi_thunks 0000000180038778     libucrt:winapi_thunks.obj
 0002:0000d778       $unwind$??_G_Iostream_error_category@std@@UEAAPEAXI@Z 0000000180038778     VError.obj
 0002:0000d778       $unwind$__vcrt_initialize_locks 0000000180038778     libvcruntime:locks.obj
 0002:0000d778       $unwind$??0VOption@vips@@QEAA@AEBV01@@Z 0000000180038778     VError.obj
 0002:0000d778       $unwind$??4VOption@vips@@QEAAAEAV01@AEBV01@@Z 0000000180038778     VError.obj
 0002:0000d778       $unwind$__raise_securityfailure 0000000180038778     LIBCMT:gs_report.obj
 0002:0000d778       $unwind$_calloc_base       0000000180038778     libucrt:calloc_base.obj
 0002:0000d778       $unwind$??0VImage@vips@@QEAA@PEAU_VipsImage@@W4VSteal@1@@Z 0000000180038778     VError.obj
 0002:0000d778       $unwind$_onexit            0000000180038778     LIBCMT:utility.obj
 0002:0000d778       $unwind$_clrfp             0000000180038778     libucrt:fpctrl.obj
 0002:0000d778       $unwind$?__StateFromIp@@YAHPEBU_s_FuncInfo@@PEAU_xDISPATCHER_CONTEXT@@_J@Z 0000000180038778     libvcruntime:ehstate.obj
 0002:0000d778       $unwind$??_G_System_error@std@@UEAAPEAXI@Z 0000000180038778     VError.obj
 0002:0000d778       $unwind$__acrt_allocate_buffer_for_argv 0000000180038778     libucrt:argv_parsing.obj
 0002:0000d778       $unwind$__acrt_initialize_locks 0000000180038778     libucrt:locks.obj
 0002:0000d778       $unwind$??0out_of_range@std@@QEAA@AEBV01@@Z 0000000180038778     libcpmt:xthrow.obj
 0002:0000d778       $unwind$__std_type_info_destroy_list 0000000180038778     libvcruntime:std_type_info.obj
 0002:0000d778       $unwind$??4VImage@vips@@QEAAAEAV01@$$QEAV01@@Z 0000000180038778     VError.obj
 0002:0000d778       $unwind$??_Gerror_category@std@@UEAAPEAXI@Z 0000000180038778     VError.obj
 0002:0000d778       $unwind$??_Gruntime_error@std@@UEAAPEAXI@Z 0000000180038778     VError.obj
 0002:0000d778       $unwind$_set_statfp        0000000180038778     libucrt:fpctrl.obj
 0002:0000d778       $unwind$__scrt_release_startup_lock 0000000180038778     LIBCMT:utility.obj
 0002:0000d778       $unwind$??_Gexception@stdext@@UEAAPEAXI@Z 0000000180038778     VError.obj
 0002:0000d778       $unwind$__std_exception_destroy 0000000180038778     libvcruntime:std_exception.obj
 0002:0000d778       $unwind$?__GetUnwindTryBlock@@YAHPEA_KPEAU_xDISPATCHER_CONTEXT@@PEBU_s_FuncInfo@@@Z 0000000180038778     libvcruntime:ehstate.obj
 0002:0000d778       $unwind$?exit_or_terminate_process@@YAXI@Z 0000000180038778     libucrt:exit.obj
 0002:0000d778       $unwind$__scrt_initialize_crt 0000000180038778     LIBCMT:utility.obj
 0002:0000d778       $unwind$uninitialize_allocated_memory 0000000180038778     libucrt:initialization.obj
 0002:0000d778       $unwind$__scrt_uninitialize_crt 0000000180038778     LIBCMT:utility.obj
 0002:0000d778       $unwind$??0exception@std@@QEAA@AEBV01@@Z 0000000180038778     libcpmt:xthrow.obj
 0002:0000d778       $unwind$??4VImage@vips@@QEAAAEAV01@AEBV01@@Z 0000000180038778     VError.obj
 0002:0000d778       $unwind$??1?$vector@VVImage@vips@@V?$allocator@VVImage@vips@@@std@@@std@@QEAA@XZ 0000000180038778     VImage.obj
 0002:0000d778       $unwind$_malloc_base       0000000180038778     libucrt:malloc_base.obj
 0002:0000d778       $unwind$__vcrt_uninitialize_locks 0000000180038778     libvcruntime:locks.obj
 0002:0000d778       $unwind$_Init_thread_footer 0000000180038778     LIBCMT:thread_safe_statics.obj
 0002:0000d778       $unwind$??0bad_array_new_length@std@@QEAA@AEBV01@@Z 0000000180038778     LIBCMT:throw_bad_alloc.obj
 0002:0000d778       $unwind$_purecall          0000000180038778     libvcruntime:purevirt.obj
 0002:0000d778       $unwind$??_Gtype_info@@UEAAPEAXI@Z 0000000180038778     LIBCMT:std_type_info_static.obj
 0002:0000d778       $unwind$__acrt_freeptd     0000000180038778     libucrt:per_thread_data.obj
 0002:0000d778       $unwind$??0bad_exception@std@@QEAA@AEBV01@@Z 0000000180038778     libvcruntime:frame.obj
 0002:0000d778       $unwind$strcpy_s           0000000180038778     libucrt:strcpy_s.obj
 0002:0000d778       $unwind$__acrt_stdio_free_buffer_nolock 0000000180038778     libucrt:_freebuf.obj
 0002:0000d778       $unwind$__acrt_uninitialize_stdio 0000000180038778     libucrt:_file.obj
 0002:0000d778       $unwind$_Init_thread_header 0000000180038778     LIBCMT:thread_safe_statics.obj
 0002:0000d778       $unwind$initialize_pointers 0000000180038778     libucrt:initialization.obj
 0002:0000d778       $unwind$??0VInterpolate@vips@@QEAA@PEAU_VipsInterpolate@@W4VSteal@1@@Z 0000000180038778     VError.obj
 0002:0000d778       $unwind$_Init_thread_notify 0000000180038778     LIBCMT:thread_safe_statics.obj
 0002:0000d778       $unwind$__acrt_update_multibyte_info 0000000180038778     libucrt:locale_update.obj
 0002:0000d778       $unwind$??0length_error@std@@QEAA@AEBV01@@Z 0000000180038778     libcpmt:xthrow.obj
 0002:0000d778       $unwind$__acrt_update_locale_info 0000000180038778     libucrt:locale_update.obj
 0002:0000d778       $unwind$__vcrt_freeptd     0000000180038778     libvcruntime:per_thread_data.obj
 0002:0000d778       $unwind$??1?$vector@NV?$allocator@N@std@@@std@@QEAA@XZ 0000000180038778     VError.obj
 0002:0000d778       $unwind$_fflush_nolock     0000000180038778     libucrt:fflush.obj
 0002:0000d778       $unwind$??2@YAPEAX_K@Z     0000000180038778     LIBCMT:new_scalar.obj
 0002:0000d780       $unwind$?_Doraise@runtime_error@std@@MEBAXXZ 0000000180038780     VError.obj
 0002:0000d780       $unwind$_log10_special     0000000180038780     libucrt:log_special.obj
 0002:0000d780       $unwind$_invalid_parameter_noinfo 0000000180038780     libucrt:invalid_parameter.obj
 0002:0000d780       $unwind$?_Doraise@failure@ios_base@std@@MEBAXXZ 0000000180038780     VError.obj
 0002:0000d780       $unwind$_invalid_parameter_noinfo_noreturn 0000000180038780     libucrt:invalid_parameter.obj
 0002:0000d788       $unwind$?_Makestr@_System_error@std@@CA?AV?$basic_string@DU?$char_traits@D@std@@V?$allocator@D@2@@2@Verror_code@2@V32@@Z 0000000180038788     VError.obj
 0002:0000d7a0       $stateUnwindMap$?_Makestr@_System_error@std@@CA?AV?$basic_string@DU?$char_traits@D@std@@V?$allocator@D@2@@2@Verror_code@2@V32@@Z 00000001800387a0     VError.obj
 0002:0000d7b0       $ip2state$?_Makestr@_System_error@std@@CA?AV?$basic_string@DU?$char_traits@D@std@@V?$allocator@D@2@@2@Verror_code@2@V32@@Z 00000001800387b0     VError.obj
 0002:0000d7d8       $unwind$??0VInterpolate@vips@@QEAA@AEBV01@@Z 00000001800387d8     VError.obj
 0002:0000d7d8       $unwind$?new_matrix@VImage@vips@@SA?AV12@HH@Z 00000001800387d8     VImage.obj
 0002:0000d7d8       $unwind$?message@_Generic_error_category@std@@UEBA?AV?$basic_string@DU?$char_traits@D@std@@V?$allocator@D@2@@2@H@Z 00000001800387d8     VError.obj
 0002:0000d7d8       $unwind$??0VImage@vips@@QEAA@AEBV01@@Z 00000001800387d8     VError.obj
 0002:0000d7d8       $unwind$??0VInterpolate@vips@@QEAA@$$QEAV01@@Z 00000001800387d8     VError.obj
 0002:0000d7d8       $unwind$??0VImage@vips@@QEAA@$$QEAV01@@Z 00000001800387d8     VError.obj
 0002:0000d7d8       $unwind$?new_memory@VImage@vips@@SA?AV12@XZ 00000001800387d8     VError.obj
 0002:0000d7d8       $unwind$?get_typeof@VImage@vips@@QEAA_KPEBD@Z 00000001800387d8     VError.obj
 0002:0000d7e4       $unwind$?clear@ios_base@std@@QEAAXH_N@Z 00000001800387e4     VError.obj
 0002:0000d804       $stateUnwindMap$?clear@ios_base@std@@QEAAXH_N@Z 0000000180038804     VError.obj
 0002:0000d840       $ip2state$?clear@ios_base@std@@QEAAXH_N@Z 0000000180038840     VError.obj
 0002:0000d8a8       $unwind$??0VError@vips@@QEAA@V?$basic_string@DU?$char_traits@D@std@@V?$allocator@D@2@@std@@@Z 00000001800388a8     VError.obj
 0002:0000d8c0       $stateUnwindMap$??0VError@vips@@QEAA@V?$basic_string@DU?$char_traits@D@std@@V?$allocator@D@2@@std@@@Z 00000001800388c0     VError.obj
 0002:0000d8d0       $ip2state$??0VError@vips@@QEAA@V?$basic_string@DU?$char_traits@D@std@@V?$allocator@D@2@@std@@@Z 00000001800388d0     VError.obj
 0002:0000d8f0       $unwind$??0VError@vips@@QEAA@XZ 00000001800388f0     VError.obj
 0002:0000d900       $stateUnwindMap$??0VError@vips@@QEAA@XZ 0000000180038900     VError.obj
 0002:0000d900       $stateUnwindMap$??0VError@vips@@QEAA@AEBV01@@Z 0000000180038900     VError.obj
 0002:0000d908       $ip2state$??0VError@vips@@QEAA@XZ 0000000180038908     VError.obj
 0002:0000d920       $unwind$??0VError@vips@@QEAA@AEBV01@@Z 0000000180038920     VError.obj
 0002:0000d930       $ip2state$??0VError@vips@@QEAA@AEBV01@@Z 0000000180038930     VError.obj
 0002:0000d948       $unwind$??_EVError@vips@@UEAAPEAXI@Z 0000000180038948     VError.obj
 0002:0000d954       $chain$0$??_EVError@vips@@UEAAPEAXI@Z 0000000180038954     VError.obj
 0002:0000d968       $chain$1$??_EVError@vips@@UEAAPEAXI@Z 0000000180038968     VError.obj
 0002:0000d978       $unwind$??0?$vector@VVImage@vips@@V?$allocator@VVImage@vips@@@std@@@std@@QEAA@AEBV01@@Z 0000000180038978     VImage.obj
 0002:0000d978       $unwind$?set@VImage@vips@@QEAAXPEBD0@Z 0000000180038978     VError.obj
 0002:0000d978       $unwind$??0VObject@vips@@QEAA@PEAU_VipsObject@@W4VSteal@1@@Z 0000000180038978     VError.obj
 0002:0000d978       $unwind$??4VObject@vips@@QEAAAEAV01@AEBV01@@Z 0000000180038978     VError.obj
 0002:0000d978       $unwind$?set@VImage@vips@@QEAAXPEBDH@Z 0000000180038978     VError.obj
 0002:0000d978       $unwind$?push_back@?$vector@VVImage@vips@@V?$allocator@VVImage@vips@@@std@@@std@@QEAAX$$QEAVVImage@vips@@@Z 0000000180038978     VImage.obj
 0002:0000d988       $unwind$__acrt_is_packaged_app 0000000180038988     libucrt:winapi_thunks.obj
 0002:0000d988       $unwind$??0VOption@vips@@QEAA@XZ 0000000180038988     VError.obj
 0002:0000d988       $unwind$??1VOption@vips@@UEAA@XZ 0000000180038988     VImage.obj
 0002:0000d994       $unwind$??_EVOption@vips@@UEAAPEAXI@Z 0000000180038994     VError.obj
 0002:0000d9b0       $ip2state$??_EVOption@vips@@UEAAPEAXI@Z 00000001800389b0     VError.obj
 0002:0000d9b8       $unwind$?set@VImage@vips@@QEAAXPEBDN@Z 00000001800389b8     VError.obj
 0002:0000d9c8       $unwind$?set@VImage@vips@@QEAAXPEBDP6AHPEAX1@Z1_K@Z 00000001800389c8     VError.obj
 0002:0000d9dc       $unwind$?get_int@VImage@vips@@QEAAHPEBD@Z 00000001800389dc     VError.obj
 0002:0000d9f4       $stateUnwindMap$?write_to_file@VImage@vips@@QEAAXPEBDPEAVVOption@2@@Z 00000001800389f4     VImage.obj
 0002:0000d9f4       $stateUnwindMap$?get_int@VImage@vips@@QEAAHPEBD@Z 00000001800389f4     VError.obj
 0002:0000d9f4       $stateUnwindMap$?new_matrix@VImage@vips@@SA?AV12@HHPEANH@Z 00000001800389f4     VError.obj
 0002:0000d9f4       $stateUnwindMap$?get_string@VImage@vips@@QEAAPEBDPEBD@Z 00000001800389f4     VError.obj
 0002:0000d9f4       $stateUnwindMap$?get_blob@VImage@vips@@QEAAPEBXPEBDPEA_K@Z 00000001800389f4     VError.obj
 0002:0000d9f4       $stateUnwindMap$?new_from_memory@VImage@vips@@SA?AV12@PEAX_KHHHW4VipsBandFormat@@@Z 00000001800389f4     VError.obj
 0002:0000d9f4       $stateUnwindMap$?get_double@VImage@vips@@QEAANPEBD@Z 00000001800389f4     VError.obj
 0002:0000d9f4       $stateUnwindMap$?new_from_name@VInterpolate@vips@@SA?AV12@PEBDPEAVVOption@2@@Z 00000001800389f4     VInterpolate.obj
 0002:0000d9f4       $stateUnwindMap$?new_temp_file@VImage@vips@@SA?AV12@PEBD@Z 00000001800389f4     VError.obj
 0002:0000da00       $ip2state$?get_int@VImage@vips@@QEAAHPEBD@Z 0000000180038a00     VError.obj
 0002:0000da18       $unwind$?get_double@VImage@vips@@QEAANPEBD@Z 0000000180038a18     VError.obj
 0002:0000da30       $ip2state$?get_double@VImage@vips@@QEAANPEBD@Z 0000000180038a30     VError.obj
 0002:0000da48       $unwind$?get_string@VImage@vips@@QEAAPEBDPEBD@Z 0000000180038a48     VError.obj
 0002:0000da60       $ip2state$?get_string@VImage@vips@@QEAAPEBDPEBD@Z 0000000180038a60     VError.obj
 0002:0000da78       $unwind$?get_blob@VImage@vips@@QEAAPEBXPEBDPEA_K@Z 0000000180038a78     VError.obj
 0002:0000da90       $ip2state$?get_blob@VImage@vips@@QEAAPEBXPEBDPEA_K@Z 0000000180038a90     VError.obj
 0002:0000daa8       $unwind$?option@VImage@vips@@SAPEAVVOption@2@XZ 0000000180038aa8     VError.obj
 0002:0000dabc       $stateUnwindMap$?option@VImage@vips@@SAPEAVVOption@2@XZ 0000000180038abc     VError.obj
 0002:0000dac8       $ip2state$?option@VImage@vips@@SAPEAVVOption@2@XZ 0000000180038ac8     VError.obj
 0002:0000dae0       $unwind$?dtor$1@?0??match@VImage@vips@@QEAA?AV12@V12@HHHHHHHHPEAVVOption@2@@Z@4HA 0000000180038ae0     VImage.obj
 0002:0000dae0       $unwind$?dtor$0@?0??scRGB2XYZ@VImage@vips@@QEAA?AV12@PEAVVOption@2@@Z@4HA 0000000180038ae0     VImage.obj
 0002:0000dae0       $unwind$?dtor$0@?0??hist_find@VImage@vips@@QEAA?AV12@PEAVVOption@2@@Z@4HA 0000000180038ae0     VImage.obj
 0002:0000dae0       $unwind$_write$fin$0       0000000180038ae0     libucrt:write.obj
 0002:0000dae0       $unwind$?fin$0@?0???$?RV<lambda_99476a1ad63dd22509b5d3e65b0ffc95>@@AEAV<lambda_ad1ced32f4ac17aa236e5ef05d6b3b7c>@@V<lambda_f7424dd8d45958661754dc4f2697e9c3>@@@?$__crt_seh_guarded_call@X@@QEAAX$$QEAV<lambda_99476a1ad63dd22509b5d3e65b0ffc95>@@AEAV<lambda_ad1ced32f4ac17aa236e5ef05d6b3b7c>@@$$QEAV<lambda_f7424dd8d45958661754dc4f2697e9c3>@@@Z@4HA 0000000180038ae0     libucrt:mbctype.obj
 0002:0000dae0       $unwind$?dtor$1@?0??boolean@VImage@vips@@QEAA?AV12@V12@W4VipsOperationBoolean@@PEAVVOption@2@@Z@4HA 0000000180038ae0     VImage.obj
 0002:0000dae0       $unwind$?dtor$0@?0??LabQ2Lab@VImage@vips@@QEAA?AV12@PEAVVOption@2@@Z@4HA 0000000180038ae0     VImage.obj
 0002:0000dae0       $unwind$?dtor$1@?0??mosaic1@VImage@vips@@QEAA?AV12@V12@W4VipsDirection@@HHHHHHHHPEAVVOption@2@@Z@4HA 0000000180038ae0     VImage.obj
 0002:0000dae0       $unwind$__acrt_update_thread_multibyte_data$fin$0 0000000180038ae0     libucrt:mbctype.obj
 0002:0000dae0       $unwind$?dtor$1@?0??relational_const@VImage@vips@@QEAA?AV12@W4VipsOperationRelational@@V?$vector@NV?$allocator@N@std@@@std@@PEAVVOption@2@@Z@4HA 0000000180038ae0     VImage.obj
 0002:0000dae0       $unwind$__acrt_lowio_ensure_fh_exists$fin$0 0000000180038ae0     libucrt:osfinfo.obj
 0002:0000dae0       $unwind$?dtor$0@?0??pngload_buffer@VImage@vips@@SA?AV12@PEAU_VipsBlob@@PEAVVOption@2@@Z@4HA 0000000180038ae0     VImage.obj
 0002:0000dae0       $unwind$?dtor$1@?0??remainder_const@VImage@vips@@QEAA?AV12@V?$vector@NV?$allocator@N@std@@@std@@PEAVVOption@2@@Z@4HA 0000000180038ae0     VImage.obj
 0002:0000dae0       $unwind$?dtor$0@?0??icc_transform@VImage@vips@@QEAA?AV12@PEADPEAVVOption@2@@Z@4HA 0000000180038ae0     VImage.obj
 0002:0000dae0       $unwind$?dtor$1@?0??mosaic@VImage@vips@@QEAA?AV12@V12@W4VipsDirection@@HHHHPEAVVOption@2@@Z@4HA 0000000180038ae0     VImage.obj
 0002:0000dae0       $unwind$?dtor$1@?0??multiply@VImage@vips@@QEAA?AV12@V12@PEAVVOption@2@@Z@4HA 0000000180038ae0     VImage.obj
 0002:0000dae0       $unwind$?dtor$0@?0??globalbalance@VImage@vips@@QEAA?AV12@PEAVVOption@2@@Z@4HA 0000000180038ae0     VImage.obj
 0002:0000dae0       $unwind$?dtor$0@?0??autorot@VImage@vips@@QEAA?AV12@PEAVVOption@2@@Z@4HA 0000000180038ae0     VImage.obj
 0002:0000dae0       $unwind$?dtor$1@?0??mapim@VImage@vips@@QEAA?AV12@V12@PEAVVOption@2@@Z@4HA 0000000180038ae0     VImage.obj
 0002:0000dae0       $unwind$?dtor$0@?0??analyzeload@VImage@vips@@SA?AV12@PEADPEAVVOption@2@@Z@4HA 0000000180038ae0     VImage.obj
 0002:0000dae0       $unwind$?dtor$0@?0??LabQ2sRGB@VImage@vips@@QEAA?AV12@PEAVVOption@2@@Z@4HA 0000000180038ae0     VImage.obj
 0002:0000dae0       $unwind$?dtor$1@?0??merge@VImage@vips@@QEAA?AV12@V12@W4VipsDirection@@HHPEAVVOption@2@@Z@4HA 0000000180038ae0     VImage.obj
 0002:0000dae0       $unwind$?dtor$0@?0??embed@VImage@vips@@QEAA?AV12@HHHHPEAVVOption@2@@Z@4HA 0000000180038ae0     VImage.obj
 0002:0000dae0       $unwind$?dtor$0@?0??rot45@VImage@vips@@QEAA?AV12@PEAVVOption@2@@Z@4HA 0000000180038ae0     VImage.obj
 0002:0000dae0       $unwind$?dtor$0@?0??hist_find_ndim@VImage@vips@@QEAA?AV12@PEAVVOption@2@@Z@4HA 0000000180038ae0     VImage.obj
 0002:0000dae0       $unwind$?dtor$0@?0??Yxy2XYZ@VImage@vips@@QEAA?AV12@PEAVVOption@2@@Z@4HA 0000000180038ae0     VImage.obj
 0002:0000dae0       $unwind$?dtor$0@?0??bandsplit@VImage@vips@@QEAA?AV?$vector@VVImage@vips@@V?$allocator@VVImage@vips@@@std@@@std@@PEAVVOption@2@@Z@4HA 0000000180038ae0     VImage.obj
 0002:0000dae0       $unwind$?dtor$0@?0??icc_export@VImage@vips@@QEAA?AV12@PEAVVOption@2@@Z@4HA 0000000180038ae0     VImage.obj
 0002:0000dae0       $unwind$?dtor$0@?0??cast@VImage@vips@@QEAA?AV12@W4VipsBandFormat@@PEAVVOption@2@@Z@4HA 0000000180038ae0     VImage.obj
 0002:0000dae0       $unwind$?fin$0@?0???$?RV<lambda_bfedae4ebbf01fab1bb6dcc6a9e276e0>@@AEAV<lambda_2fe9b910cf3cbf4a0ab98a02ba45b3ec>@@V<lambda_237c231691f317818eb88cc1d5d642d6>@@@?$__crt_seh_guarded_call@H@@QEAAH$$QEAV<lambda_bfedae4ebbf01fab1bb6dcc6a9e276e0>@@AEAV<lambda_2fe9b910cf3cbf4a0ab98a02ba45b3ec>@@$$QEAV<lambda_237c231691f317818eb88cc1d5d642d6>@@@Z@4HA 0000000180038ae0     libucrt:close.obj
 0002:0000dae0       $unwind$?dtor$1@?0??insert@VImage@vips@@QEAA?AV12@V12@HHPEAVVOption@2@@Z@4HA 0000000180038ae0     VImage.obj
 0002:0000dae0       $unwind$?dtor$1@?0??boolean_const@VImage@vips@@QEAA?AV12@W4VipsOperationBoolean@@V?$vector@NV?$allocator@N@std@@@std@@PEAVVOption@2@@Z@4HA 0000000180038ae0     VImage.obj
 0002:0000dae0       $unwind$?dtor$0@?0??XYZ2scRGB@VImage@vips@@QEAA?AV12@PEAVVOption@2@@Z@4HA 0000000180038ae0     VImage.obj
 0002:0000dae0       $unwind$?dtor$0@?0??thumbnail_buffer@VImage@vips@@SA?AV12@PEAU_VipsBlob@@HPEAVVOption@2@@Z@4HA 0000000180038ae0     VImage.obj
 0002:0000dae0       $unwind$?dtor$1@?0??dE76@VImage@vips@@QEAA?AV12@V12@PEAVVOption@2@@Z@4HA 0000000180038ae0     VImage.obj
 0002:0000dae0       $unwind$?dtor$1@?0??subtract@VImage@vips@@QEAA?AV12@V12@PEAVVOption@2@@Z@4HA 0000000180038ae0     VImage.obj
 0002:0000dae0       $unwind$?dtor$1@?0??recomb@VImage@vips@@QEAA?AV12@V12@PEAVVOption@2@@Z@4HA 0000000180038ae0     VImage.obj
 0002:0000dae0       $unwind$__acrt_update_thread_locale_data$fin$0 0000000180038ae0     libucrt:locale_refcounting.obj
 0002:0000dae0       $unwind$?dtor$1@?0??complexform@VImage@vips@@QEAA?AV12@V12@PEAVVOption@2@@Z@4HA 0000000180038ae0     VImage.obj
 0002:0000dae0       $unwind$?dtor$0@?0??bandmean@VImage@vips@@QEAA?AV12@PEAVVOption@2@@Z@4HA 0000000180038ae0     VImage.obj
 0002:0000dae0       $unwind$_query_new_handler$fin$0 0000000180038ae0     libucrt:new_handler.obj
 0002:0000dae0       $unwind$?dtor$1@?0??dE00@VImage@vips@@QEAA?AV12@V12@PEAVVOption@2@@Z@4HA 0000000180038ae0     VImage.obj
 0002:0000dae0       $unwind$?dtor$0@?0??bandfold@VImage@vips@@QEAA?AV12@PEAVVOption@2@@Z@4HA 0000000180038ae0     VImage.obj
 0002:0000dae0       $unwind$?dtor$0@?0??thumbnail@VImage@vips@@SA?AV12@PEADHPEAVVOption@2@@Z@4HA 0000000180038ae0     VImage.obj
 0002:0000dae0       $unwind$?dtor$0@?0??shrinkv@VImage@vips@@QEAA?AV12@HPEAVVOption@2@@Z@4HA 0000000180038ae0     VImage.obj
 0002:0000dae0       $unwind$?dtor$1@?0??add@VImage@vips@@QEAA?AV12@V12@PEAVVOption@2@@Z@4HA 0000000180038ae0     VImage.obj
 0002:0000dae0       $unwind$?dtor$1@?0??divide@VImage@vips@@QEAA?AV12@V12@PEAVVOption@2@@Z@4HA 0000000180038ae0     VImage.obj
 0002:0000dae0       $unwind$?dtor$0@?0??shrink@VImage@vips@@QEAA?AV12@NNPEAVVOption@2@@Z@4HA 0000000180038ae0     VImage.obj
 0002:0000dae0       $unwind$?dtor$1@?0??dECMC@VImage@vips@@QEAA?AV12@V12@PEAVVOption@2@@Z@4HA 0000000180038ae0     VImage.obj
 0002:0000dae0       $unwind$?fin$0@?0???$?RV<lambda_c36588078e9f5dfd39652860aa6b3aaf>@@AEAV<lambda_ec61778202f4f5fc7e7711acc23c3bca>@@V<lambda_dc9d2797ccde5d239b4a0efae8ebd7db>@@@?$__crt_seh_guarded_call@P6AXH@Z@@QEAAP6AXH@Z$$QEAV<lambda_c36588078e9f5dfd39652860aa6b3aaf>@@AEAV<lambda_ec61778202f4f5fc7e7711acc23c3bca>@@$$QEAV<lambda_dc9d2797ccde5d239b4a0efae8ebd7db>@@@Z@4HA 0000000180038ae0     libucrt:signal.obj
 0002:0000dae0       $unwind$?dtor$0@?0??complexget@VImage@vips@@QEAA?AV12@W4VipsOperationComplexget@@PEAVVOption@2@@Z@4HA 0000000180038ae0     VImage.obj
 0002:0000dae0       $unwind$?dtor$0@?0??bandunfold@VImage@vips@@QEAA?AV12@PEAVVOption@2@@Z@4HA 0000000180038ae0     VImage.obj
 0002:0000dae0       $unwind$?dtor$0@?0??rad2float@VImage@vips@@QEAA?AV12@PEAVVOption@2@@Z@4HA 0000000180038ae0     VImage.obj
 0002:0000dae0       $unwind$raise$fin$0        0000000180038ae0     libucrt:signal.obj
 0002:0000dae0       $unwind$?dtor$0@?0??flatten@VImage@vips@@QEAA?AV12@PEAVVOption@2@@Z@4HA 0000000180038ae0     VImage.obj
 0002:0000dae0       $unwind$?dtor$0@?0??icc_import@VImage@vips@@QEAA?AV12@PEAVVOption@2@@Z@4HA 0000000180038ae0     VImage.obj
 0002:0000dae0       $unwind$?fin$0@?0???_M@YAXPEAX_K1P6AX0@Z@Z@4HA 0000000180038ae0     LIBCMT:ehvecdtr.obj
 0002:0000dae0       $unwind$?dtor$0@?0??extract_band@VImage@vips@@QEAA?AV12@HPEAVVOption@2@@Z@4HA 0000000180038ae0     VImage.obj
 0002:0000dae0       $unwind$?dtor$0@?0??vipsload@VImage@vips@@SA?AV12@PEADPEAVVOption@2@@Z@4HA 0000000180038ae0     VImage.obj
 0002:0000dae0       $unwind$?dtor$6@?0??new_from_image@VImage@vips@@QEAA?AV12@V?$vector@NV?$allocator@N@std@@@std@@@Z@4HA 0000000180038ae0     VImage.obj
 0002:0000dae0       $unwind$?dtor$0@?0??labelregions@VImage@vips@@QEAA?AV12@PEAVVOption@2@@Z@4HA 0000000180038ae0     VImage.obj
 0002:0000dae0       $unwind$?dtor$0@?0??matload@VImage@vips@@SA?AV12@PEADPEAVVOption@2@@Z@4HA 0000000180038ae0     VImage.obj
 0002:0000dae0       $unwind$__acrt_initialize_lowio$fin$0 0000000180038ae0     libucrt:ioinit.obj
 0002:0000dae0       $unwind$?dtor$0@?0??stats@VImage@vips@@QEAA?AV12@PEAVVOption@2@@Z@4HA 0000000180038ae0     VImage.obj
 0002:0000dae0       $unwind$?dtor$0@?0??rawload@VImage@vips@@SA?AV12@PEADHHHPEAVVOption@2@@Z@4HA 0000000180038ae0     VImage.obj
 0002:0000dae0       $unwind$?dtor$0@?0??replicate@VImage@vips@@QEAA?AV12@HHPEAVVOption@2@@Z@4HA 0000000180038ae0     VImage.obj
 0002:0000dae0       $unwind$?dtor$0@?0??sRGB2scRGB@VImage@vips@@QEAA?AV12@PEAVVOption@2@@Z@4HA 0000000180038ae0     VImage.obj
 0002:0000dae0       $unwind$?dtor$1@?0??hist_find_indexed@VImage@vips@@QEAA?AV12@V12@PEAVVOption@2@@Z@4HA 0000000180038ae0     VImage.obj
 0002:0000dae0       $unwind$?dtor$0@?0??sign@VImage@vips@@QEAA?AV12@PEAVVOption@2@@Z@4HA 0000000180038ae0     VImage.obj
 0002:0000dae0       $unwind$?dtor$1@?0??phasecor@VImage@vips@@QEAA?AV12@V12@PEAVVOption@2@@Z@4HA 0000000180038ae0     VImage.obj
 0002:0000dae0       $unwind$?dtor$0@?0??matrixload@VImage@vips@@SA?AV12@PEADPEAVVOption@2@@Z@4HA 0000000180038ae0     VImage.obj
 0002:0000dae0       $unwind$?dtor$1@?0??relational@VImage@vips@@QEAA?AV12@V12@W4VipsOperationRelational@@PEAVVOption@2@@Z@4HA 0000000180038ae0     VImage.obj
 0002:0000dae0       $unwind$?dtor$0@?0??svgload@VImage@vips@@SA?AV12@PEADPEAVVOption@2@@Z@4HA 0000000180038ae0     VImage.obj
 0002:0000dae0       $unwind$?dtor$0@?0??resize@VImage@vips@@QEAA?AV12@NPEAVVOption@2@@Z@4HA 0000000180038ae0     VImage.obj
 0002:0000dae0       $unwind$?dtor$0@?0??jpegload@VImage@vips@@SA?AV12@PEADPEAVVOption@2@@Z@4HA 0000000180038ae0     VImage.obj
 0002:0000dae0       $unwind$?dtor$2@?0??linear@VImage@vips@@QEAA?AV12@V?$vector@NV?$allocator@N@std@@@std@@0PEAVVOption@2@@Z@4HA 0000000180038ae0     VImage.obj
 0002:0000dae0       $unwind$?dtor$0@?0??spectrum@VImage@vips@@QEAA?AV12@PEAVVOption@2@@Z@4HA 0000000180038ae0     VImage.obj
 0002:0000dae0       $unwind$?dtor$0@?0??csvload@VImage@vips@@SA?AV12@PEADPEAVVOption@2@@Z@4HA 0000000180038ae0     VImage.obj
 0002:0000dae0       $unwind$?dtor$0@?0??Lab2LabQ@VImage@vips@@QEAA?AV12@PEAVVOption@2@@Z@4HA 0000000180038ae0     VImage.obj
 0002:0000dae0       $unwind$?dtor$0@?0??shrinkh@VImage@vips@@QEAA?AV12@HPEAVVOption@2@@Z@4HA 0000000180038ae0     VImage.obj
 0002:0000dae0       $unwind$?dtor$0@?0??premultiply@VImage@vips@@QEAA?AV12@PEAVVOption@2@@Z@4HA 0000000180038ae0     VImage.obj
 0002:0000dae0       $unwind$?dtor$0@?0??perlin@VImage@vips@@SA?AV12@HHPEAVVOption@2@@Z@4HA 0000000180038ae0     VImage.obj
 0002:0000dae0       $unwind$?dtor$0@?0??similarity@VImage@vips@@QEAA?AV12@PEAVVOption@2@@Z@4HA 0000000180038ae0     VImage.obj
 0002:0000dae0       $unwind$?dtor$1@?0??freqmult@VImage@vips@@QEAA?AV12@V12@PEAVVOption@2@@Z@4HA 0000000180038ae0     VImage.obj
 0002:0000dae0       $unwind$?dtor$0@?0??math@VImage@vips@@QEAA?AV12@W4VipsOperationMath@@PEAVVOption@2@@Z@4HA 0000000180038ae0     VImage.obj
 0002:0000dae0       $unwind$?dtor$0@?0??worley@VImage@vips@@SA?AV12@HHPEAVVOption@2@@Z@4HA 0000000180038ae0     VImage.obj
 0002:0000dae0       $unwind$?dtor$0@?0??HSV2sRGB@VImage@vips@@QEAA?AV12@PEAVVOption@2@@Z@4HA 0000000180038ae0     VImage.obj
 0002:0000dae0       $unwind$?dtor$1@?0??bandrank@VImage@vips@@SA?AV12@V?$vector@VVImage@vips@@V?$allocator@VVImage@vips@@@std@@@std@@PEAVVOption@2@@Z@4HA 0000000180038ae0     VImage.obj
 0002:0000dae0       $unwind$?dtor$0@?0??jpegload_buffer@VImage@vips@@SA?AV12@PEAU_VipsBlob@@PEAVVOption@2@@Z@4HA 0000000180038ae0     VImage.obj
 0002:0000dae0       $unwind$?dtor$1@?0??join@VImage@vips@@QEAA?AV12@V12@W4VipsDirection@@PEAVVOption@2@@Z@4HA 0000000180038ae0     VImage.obj
 0002:0000dae0       $unwind$?dtor$0@?0??invfft@VImage@vips@@QEAA?AV12@PEAVVOption@2@@Z@4HA 0000000180038ae0     VImage.obj
 0002:0000dae0       $unwind$?dtor$0@?0??round@VImage@vips@@QEAA?AV12@W4VipsOperationRound@@PEAVVOption@2@@Z@4HA 0000000180038ae0     VImage.obj
 0002:0000dae0       $unwind$?dtor$0@?0??fractsurf@VImage@vips@@SA?AV12@HHNPEAVVOption@2@@Z@4HA 0000000180038ae0     VImage.obj
 0002:0000dae0       $unwind$?fin$1@?0??common_exit@@YAXHW4_crt_exit_cleanup_mode@@W4_crt_exit_return_mode@@@Z@4HA 0000000180038ae0     libucrt:exit.obj
 0002:0000dae0       $unwind$?fin$0@?0???$?RV<lambda_b521505b218e5242e90febf6bfebc422>@@AEAV<lambda_6978c1fb23f02e42e1d9e99668cc68aa>@@V<lambda_314360699dd331753a4119843814e9a7>@@@?$__crt_seh_guarded_call@H@@QEAAH$$QEAV<lambda_b521505b218e5242e90febf6bfebc422>@@AEAV<lambda_6978c1fb23f02e42e1d9e99668cc68aa>@@$$QEAV<lambda_314360699dd331753a4119843814e9a7>@@@Z@4HA 0000000180038ae0     libucrt:commit.obj
 0002:0000dae0       $unwind$?filt$0@?0??common_exit@@YAXHW4_crt_exit_cleanup_mode@@W4_crt_exit_return_mode@@@Z@4HA 0000000180038ae0     libucrt:exit.obj
 0002:0000dae0       $unwind$?dtor$1@?0??math2_const@VImage@vips@@QEAA?AV12@W4VipsOperationMath2@@V?$vector@NV?$allocator@N@std@@@std@@PEAVVOption@2@@Z@4HA 0000000180038ae0     VImage.obj
 0002:0000dae0       $unwind$?dtor$0@?0??fwfft@VImage@vips@@QEAA?AV12@PEAVVOption@2@@Z@4HA 0000000180038ae0     VImage.obj
 0002:0000dae0       $unwind$?dtor$0@?0??radload@VImage@vips@@SA?AV12@PEADPEAVVOption@2@@Z@4HA 0000000180038ae0     VImage.obj
 0002:0000dae0       $unwind$?dtor$0@?0??complex@VImage@vips@@QEAA?AV12@W4VipsOperationComplex@@PEAVVOption@2@@Z@4HA 0000000180038ae0     VImage.obj
 0002:0000dae0       $unwind$?dtor$0@?0??identity@VImage@vips@@SA?AV12@PEAVVOption@2@@Z@4HA 0000000180038ae0     VImage.obj
 0002:0000dae0       $unwind$?dtor$0@?0??bandbool@VImage@vips@@QEAA?AV12@W4VipsOperationBoolean@@PEAVVOption@2@@Z@4HA 0000000180038ae0     VImage.obj
 0002:0000dae0       $unwind$?dtor$1@?0??affine@VImage@vips@@QEAA?AV12@V?$vector@NV?$allocator@N@std@@@std@@PEAVVOption@2@@Z@4HA 0000000180038ae0     VImage.obj
 0002:0000dae0       $unwind$?dtor$0@?0??XYZ2Yxy@VImage@vips@@QEAA?AV12@PEAVVOption@2@@Z@4HA 0000000180038ae0     VImage.obj
 0002:0000dae0       $unwind$?dtor$0@?0??gaussblur@VImage@vips@@QEAA?AV12@NPEAVVOption@2@@Z@4HA 0000000180038ae0     VImage.obj
 0002:0000dae0       $unwind$?dtor$0@?0??reduceh@VImage@vips@@QEAA?AV12@NPEAVVOption@2@@Z@4HA 0000000180038ae0     VImage.obj
 0002:0000dae0       $unwind$?dtor$0@?0??webpload@VImage@vips@@SA?AV12@PEADPEAVVOption@2@@Z@4HA 0000000180038ae0     VImage.obj
 0002:0000dae0       $unwind$?dtor$0@?0??pdfload@VImage@vips@@SA?AV12@PEADPEAVVOption@2@@Z@4HA 0000000180038ae0     VImage.obj
 0002:0000dae0       $unwind$?dtor$0@?0??unpremultiply@VImage@vips@@QEAA?AV12@PEAVVOption@2@@Z@4HA 0000000180038ae0     VImage.obj
 0002:0000dae0       $unwind$?dtor$0@?0??tonelut@VImage@vips@@SA?AV12@PEAVVOption@2@@Z@4HA 0000000180038ae0     VImage.obj
 0002:0000dae0       $unwind$?dtor$0@?0??flip@VImage@vips@@QEAA?AV12@W4VipsDirection@@PEAVVOption@2@@Z@4HA 0000000180038ae0     VImage.obj
 0002:0000dae0       $unwind$?dtor$0@?0??sharpen@VImage@vips@@QEAA?AV12@PEAVVOption@2@@Z@4HA 0000000180038ae0     VImage.obj
 0002:0000dae0       $unwind$__DestructExceptionObject$filt$0 0000000180038ae0     libvcruntime:frame.obj
 0002:0000dae0       $unwind$__acrt_uninitialize_locale$fin$0 0000000180038ae0     libucrt:wsetlocale.obj
 0002:0000dae0       $unwind$?dtor$6@?0??bandjoin@VImage@vips@@QEAA?AV12@V12@PEAVVOption@2@@Z@4HA 0000000180038ae0     VImage.obj
 0002:0000dae0       $unwind$?dtor$0@?0??abs@VImage@vips@@QEAA?AV12@PEAVVOption@2@@Z@4HA 0000000180038ae0     VImage.obj
 0002:0000dae0       $unwind$?dtor$0@?0??invertlut@VImage@vips@@QEAA?AV12@PEAVVOption@2@@Z@4HA 0000000180038ae0     VImage.obj
 0002:0000dae0       $unwind$?dtor$3@?0??bandjoin@VImage@vips@@QEAA?AV12@V12@PEAVVOption@2@@Z@4HA 0000000180038ae0     VImage.obj
 0002:0000dae0       $unwind$?dtor$1@?0??spcor@VImage@vips@@QEAA?AV12@V12@PEAVVOption@2@@Z@4HA 0000000180038ae0     VImage.obj
 0002:0000dae0       $unwind$?dtor$1@?0??bandjoin_const@VImage@vips@@QEAA?AV12@V?$vector@NV?$allocator@N@std@@@std@@PEAVVOption@2@@Z@4HA 0000000180038ae0     VImage.obj
 0002:0000dae0       $unwind$?dtor$0@?0??rot@VImage@vips@@QEAA?AV12@W4VipsAngle@@PEAVVOption@2@@Z@4HA 0000000180038ae0     VImage.obj
 0002:0000dae0       $unwind$?filt$0@?0??__ArrayUnwind@@YAXPEAX_K1P6AX0@Z@Z@4HA 0000000180038ae0     LIBCMT:ehvecdtr.obj
 0002:0000dae0       $unwind$?dtor$0@?0??scRGB2BW@VImage@vips@@QEAA?AV12@PEAVVOption@2@@Z@4HA 0000000180038ae0     VImage.obj
 0002:0000dae0       $unwind$?dtor$0@?0??webpload_buffer@VImage@vips@@SA?AV12@PEAU_VipsBlob@@PEAVVOption@2@@Z@4HA 0000000180038ae0     VImage.obj
 0002:0000dae0       $unwind$?fin$0@?0???$?RV<lambda_e24bbb7b643b32fcea6fa61b31d4c984>@@AEAV<lambda_275893d493268fdec8709772e3fcec0e>@@V<lambda_9d71df4d7cf3f480f8d633942495c3b0>@@@?$__crt_seh_guarded_call@H@@QEAAH$$QEAV<lambda_e24bbb7b643b32fcea6fa61b31d4c984>@@AEAV<lambda_275893d493268fdec8709772e3fcec0e>@@$$QEAV<lambda_9d71df4d7cf3f480f8d633942495c3b0>@@@Z@4HA 0000000180038ae0     libucrt:onexit.obj
 0002:0000dae0       $unwind$?dtor$1@?0??fastcor@VImage@vips@@QEAA?AV12@V12@PEAVVOption@2@@Z@4HA 0000000180038ae0     VImage.obj
 0002:0000dae0       $unwind$?dtor$2@?0??ifthenelse@VImage@vips@@QEAA?AV12@V12@0PEAVVOption@2@@Z@4HA 0000000180038ae0     VImage.obj
 0002:0000dae0       $unwind$?fin$0@?0???$?RV<lambda_b8c45f8f788dd370798f47cfe8ac3a86>@@AEAV<lambda_4e60a939b0d047cfe11ddc22648dfba9>@@V<lambda_332c3edc96d0294ec56c57d38c1cdfd5>@@@?$__crt_seh_guarded_call@H@@QEAAH$$QEAV<lambda_b8c45f8f788dd370798f47cfe8ac3a86>@@AEAV<lambda_4e60a939b0d047cfe11ddc22648dfba9>@@$$QEAV<lambda_332c3edc96d0294ec56c57d38c1cdfd5>@@@Z@4HA 0000000180038ae0     libucrt:onexit.obj
 0002:0000dae0       $unwind$?dtor$1@?0??morph@VImage@vips@@QEAA?AV12@V12@W4VipsOperationMorphology@@PEAVVOption@2@@Z@4HA 0000000180038ae0     VImage.obj
 0002:0000dae0       $unwind$?dtor$0@?0??LabQ2LabS@VImage@vips@@QEAA?AV12@PEAVVOption@2@@Z@4HA 0000000180038ae0     VImage.obj
 0002:0000dae0       $unwind$?dtor$0@?0??buildlut@VImage@vips@@QEAA?AV12@PEAVVOption@2@@Z@4HA 0000000180038ae0     VImage.obj
 0002:0000dae0       $unwind$_fcloseall$fin$0   0000000180038ae0     libucrt:closeall.obj
 0002:0000dae0       $unwind$?dtor$1@?0??convasep@VImage@vips@@QEAA?AV12@V12@PEAVVOption@2@@Z@4HA 0000000180038ae0     VImage.obj
 0002:0000dae0       $unwind$?dtor$0@?0??hough_line@VImage@vips@@QEAA?AV12@PEAVVOption@2@@Z@4HA 0000000180038ae0     VImage.obj
 0002:0000dae0       $unwind$?dtor$0@?0??rank@VImage@vips@@QEAA?AV12@HHHPEAVVOption@2@@Z@4HA 0000000180038ae0     VImage.obj
 0002:0000dae0       $unwind$?dtor$1@?0??arrayjoin@VImage@vips@@SA?AV12@V?$vector@VVImage@vips@@V?$allocator@VVImage@vips@@@std@@@std@@PEAVVOption@2@@Z@4HA 0000000180038ae0     VImage.obj
 0002:0000dae0       $unwind$fclose$fin$0       0000000180038ae0     libucrt:fclose.obj
 0002:0000dae0       $unwind$?dtor$0@?0??mask_fractal@VImage@vips@@SA?AV12@HHNPEAVVOption@2@@Z@4HA 0000000180038ae0     VImage.obj
 0002:0000dae0       $unwind$common_flush_all$fin$1 0000000180038ae0     libucrt:fflush.obj
 0002:0000dae0       $unwind$?dtor$1@?0??convsep@VImage@vips@@QEAA?AV12@V12@PEAVVOption@2@@Z@4HA 0000000180038ae0     VImage.obj
 0002:0000dae0       $unwind$__FrameUnwindToState$fin$1 0000000180038ae0     libvcruntime:frame.obj
 0002:0000dae0       $unwind$?dtor$0@?0??tiffload@VImage@vips@@SA?AV12@PEADPEAVVOption@2@@Z@4HA 0000000180038ae0     VImage.obj
 0002:0000dae0       $unwind$?dtor$0@?0??reducev@VImage@vips@@QEAA?AV12@NPEAVVOption@2@@Z@4HA 0000000180038ae0     VImage.obj
 0002:0000dae0       $unwind$common_flush_all$fin$0 0000000180038ae0     libucrt:fflush.obj
 0002:0000dae0       $unwind$?dtor$0@?0??mask_gaussian_band@VImage@vips@@SA?AV12@HHNNNNPEAVVOption@2@@Z@4HA 0000000180038ae0     VImage.obj
 0002:0000dae0       $unwind$__FrameUnwindToState$filt$0 0000000180038ae0     libvcruntime:frame.obj
 0002:0000dae0       $unwind$?dtor$1@?0??compass@VImage@vips@@QEAA?AV12@V12@PEAVVOption@2@@Z@4HA 0000000180038ae0     VImage.obj
 0002:0000dae0       $unwind$?dtor$0@?0??mask_gaussian_ring@VImage@vips@@SA?AV12@HHNNNPEAVVOption@2@@Z@4HA 0000000180038ae0     VImage.obj
 0002:0000dae0       $unwind$?dtor$0@?0??cache@VImage@vips@@QEAA?AV12@PEAVVOption@2@@Z@4HA 0000000180038ae0     VImage.obj
 0002:0000dae0       $unwind$?dtor$0@?0??mask_gaussian@VImage@vips@@SA?AV12@HHNNPEAVVOption@2@@Z@4HA 0000000180038ae0     VImage.obj
 0002:0000dae0       $unwind$?dtor$0@?0??gifload@VImage@vips@@SA?AV12@PEADPEAVVOption@2@@Z@4HA 0000000180038ae0     VImage.obj
 0002:0000dae0       $unwind$?dtor$0@?0??tiffload_buffer@VImage@vips@@SA?AV12@PEAU_VipsBlob@@PEAVVOption@2@@Z@4HA 0000000180038ae0     VImage.obj
 0002:0000dae0       $unwind$?dtor$0@?0??CMC2LCh@VImage@vips@@QEAA?AV12@PEAVVOption@2@@Z@4HA 0000000180038ae0     VImage.obj
 0002:0000dae0       $unwind$?dtor$1@?0??convi@VImage@vips@@QEAA?AV12@V12@PEAVVOption@2@@Z@4HA 0000000180038ae0     VImage.obj
 0002:0000dae0       $unwind$?dtor$0@?0??mask_butterworth_band@VImage@vips@@SA?AV12@HHNNNNNPEAVVOption@2@@Z@4HA 0000000180038ae0     VImage.obj
 0002:0000dae0       $unwind$?dtor$0@?0??hough_circle@VImage@vips@@QEAA?AV12@PEAVVOption@2@@Z@4HA 0000000180038ae0     VImage.obj
 0002:0000dae0       $unwind$__CxxCallCatchBlock$filt$0 0000000180038ae0     libvcruntime:frame.obj
 0002:0000dae0       $unwind$?dtor$0@?0??colourspace@VImage@vips@@QEAA?AV12@W4VipsInterpretation@@PEAVVOption@2@@Z@4HA 0000000180038ae0     VImage.obj
 0002:0000dae0       $unwind$?dtor$0@?0??mask_butterworth_ring@VImage@vips@@SA?AV12@HHNNNNPEAVVOption@2@@Z@4HA 0000000180038ae0     VImage.obj
 0002:0000dae0       $unwind$?dtor$0@?0??invert@VImage@vips@@QEAA?AV12@PEAVVOption@2@@Z@4HA 0000000180038ae0     VImage.obj
 0002:0000dae0       $unwind$?dtor$1@?0??convf@VImage@vips@@QEAA?AV12@V12@PEAVVOption@2@@Z@4HA 0000000180038ae0     VImage.obj
 0002:0000dae0       $unwind$?dtor$0@?0??openslideload@VImage@vips@@SA?AV12@PEADPEAVVOption@2@@Z@4HA 0000000180038ae0     VImage.obj
 0002:0000dae0       $unwind$?dtor$0@?0??sequential@VImage@vips@@QEAA?AV12@PEAVVOption@2@@Z@4HA 0000000180038ae0     VImage.obj
 0002:0000dae0       $unwind$?dtor$0@?0??mask_butterworth@VImage@vips@@SA?AV12@HHNNNPEAVVOption@2@@Z@4HA 0000000180038ae0     VImage.obj
 0002:0000dae0       $unwind$?dtor$1@?0??bandjoin@VImage@vips@@SA?AV12@V?$vector@VVImage@vips@@V?$allocator@VVImage@vips@@@std@@@std@@PEAVVOption@2@@Z@4HA 0000000180038ae0     VImage.obj
 0002:0000dae0       $unwind$?dtor$0@?0??LabS2LabQ@VImage@vips@@QEAA?AV12@PEAVVOption@2@@Z@4HA 0000000180038ae0     VImage.obj
 0002:0000dae0       $unwind$?dtor$1@?0??quadratic@VImage@vips@@QEAA?AV12@V12@PEAVVOption@2@@Z@4HA 0000000180038ae0     VImage.obj
 0002:0000dae0       $unwind$?dtor$1@?0??conva@VImage@vips@@QEAA?AV12@V12@PEAVVOption@2@@Z@4HA 0000000180038ae0     VImage.obj
 0002:0000dae0       $unwind$?dtor$0@?0??mask_ideal_band@VImage@vips@@SA?AV12@HHNNNPEAVVOption@2@@Z@4HA 0000000180038ae0     VImage.obj
 0002:0000dae0       $unwind$?dtor$0@?0??extract_area@VImage@vips@@QEAA?AV12@HHHHPEAVVOption@2@@Z@4HA 0000000180038ae0     VImage.obj
 0002:0000dae0       $unwind$?dtor$0@?0??mask_ideal_ring@VImage@vips@@SA?AV12@HHNNPEAVVOption@2@@Z@4HA 0000000180038ae0     VImage.obj
 0002:0000dae0       $unwind$?dtor$0@?0??project@VImage@vips@@QEAA?AV12@PEAV12@PEAVVOption@2@@Z@4HA 0000000180038ae0     VImage.obj
 0002:0000dae0       $unwind$?dtor$0@?0??magickload@VImage@vips@@SA?AV12@PEADPEAVVOption@2@@Z@4HA 0000000180038ae0     VImage.obj
 0002:0000dae0       $unwind$?dtor$0@?0??LCh2CMC@VImage@vips@@QEAA?AV12@PEAVVOption@2@@Z@4HA 0000000180038ae0     VImage.obj
 0002:0000dae0       $unwind$?dtor$1@?0??conv@VImage@vips@@QEAA?AV12@V12@PEAVVOption@2@@Z@4HA 0000000180038ae0     VImage.obj
 0002:0000dae0       $unwind$?dtor$0@?0??mask_ideal@VImage@vips@@SA?AV12@HHNPEAVVOption@2@@Z@4HA 0000000180038ae0     VImage.obj
 0002:0000dae0       $unwind$?dtor$1@?0??remainder@VImage@vips@@QEAA?AV12@V12@PEAVVOption@2@@Z@4HA 0000000180038ae0     VImage.obj
 0002:0000dae0       $unwind$?dtor$1@?0??math2@VImage@vips@@QEAA?AV12@V12@W4VipsOperationMath2@@PEAVVOption@2@@Z@4HA 0000000180038ae0     VImage.obj
 0002:0000dae0       $unwind$?dtor$0@?0??LabS2Lab@VImage@vips@@QEAA?AV12@PEAVVOption@2@@Z@4HA 0000000180038ae0     VImage.obj
 0002:0000dae0       $unwind$?dtor$0@?0??sines@VImage@vips@@SA?AV12@HHPEAVVOption@2@@Z@4HA 0000000180038ae0     VImage.obj
 0002:0000dae0       $unwind$?dtor$0@?0??profile@VImage@vips@@QEAA?AV12@PEAV12@PEAVVOption@2@@Z@4HA 0000000180038ae0     VImage.obj
 0002:0000dae0       $unwind$?dtor$1@?0??sum@VImage@vips@@SA?AV12@V?$vector@VVImage@vips@@V?$allocator@VVImage@vips@@@std@@@std@@PEAVVOption@2@@Z@4HA 0000000180038ae0     VImage.obj
 0002:0000dae0       $unwind$_IsNonwritableInCurrentImage$filt$0 0000000180038ae0     LIBCMT:pesect.obj
 0002:0000dae0       $unwind$?dtor$0@?0??magickload_buffer@VImage@vips@@SA?AV12@PEAU_VipsBlob@@PEAVVOption@2@@Z@4HA 0000000180038ae0     VImage.obj
 0002:0000dae0       $unwind$?dtor$0@?0??zone@VImage@vips@@SA?AV12@HHPEAVVOption@2@@Z@4HA 0000000180038ae0     VImage.obj
 0002:0000dae0       $unwind$?dtor$0@?0??hist_local@VImage@vips@@QEAA?AV12@HHPEAVVOption@2@@Z@4HA 0000000180038ae0     VImage.obj
 0002:0000dae0       $unwind$?dtor$0@?0??linecache@VImage@vips@@QEAA?AV12@PEAVVOption@2@@Z@4HA 0000000180038ae0     VImage.obj
 0002:0000dae0       $unwind$?dtor$0@?0??LCh2Lab@VImage@vips@@QEAA?AV12@PEAVVOption@2@@Z@4HA 0000000180038ae0     VImage.obj
 0002:0000dae0       $unwind$?dtor$0@?0??grey@VImage@vips@@SA?AV12@HHPEAVVOption@2@@Z@4HA 0000000180038ae0     VImage.obj
 0002:0000dae0       $unwind$?fin$0@?0???$?RV<lambda_72d1df2b273a38828b1ce30cbf4cdab5>@@AEAV<lambda_876a65b173b8412d3a47c70a915b0cf4>@@V<lambda_41932305e351933ebe8f8be3ed8bb5dc>@@@?$__crt_seh_guarded_call@X@@QEAAX$$QEAV<lambda_72d1df2b273a38828b1ce30cbf4cdab5>@@AEAV<lambda_876a65b173b8412d3a47c70a915b0cf4>@@$$QEAV<lambda_41932305e351933ebe8f8be3ed8bb5dc>@@@Z@4HA 0000000180038ae0     libucrt:per_thread_data.obj
 0002:0000dae0       $unwind$?dtor$0@?0??pngload@VImage@vips@@SA?AV12@PEADPEAVVOption@2@@Z@4HA 0000000180038ae0     VImage.obj
 0002:0000dae0       $unwind$?dtor$0@?0??eye@VImage@vips@@SA?AV12@HHPEAVVOption@2@@Z@4HA 0000000180038ae0     VImage.obj
 0002:0000dae0       $unwind$?dtor$0@?0??hist_plot@VImage@vips@@QEAA?AV12@PEAVVOption@2@@Z@4HA 0000000180038ae0     VImage.obj
 0002:0000dae0       $unwind$?dtor$0@?0??fitsload@VImage@vips@@SA?AV12@PEADPEAVVOption@2@@Z@4HA 0000000180038ae0     VImage.obj
 0002:0000dae0       $unwind$?dtor$0@?0??float2rad@VImage@vips@@QEAA?AV12@PEAVVOption@2@@Z@4HA 0000000180038ae0     VImage.obj
 0002:0000dae0       $unwind$?dtor$0@?0??smartcrop@VImage@vips@@QEAA?AV12@HHPEAVVOption@2@@Z@4HA 0000000180038ae0     VImage.obj
 0002:0000dae0       $unwind$?dtor$0@?0??measure@VImage@vips@@QEAA?AV12@HHPEAVVOption@2@@Z@4HA 0000000180038ae0     VImage.obj
 0002:0000dae0       $unwind$?dtor$0@?0??logmat@VImage@vips@@SA?AV12@NNPEAVVOption@2@@Z@4HA 0000000180038ae0     VImage.obj
 0002:0000dae0       $unwind$_ctrlfp$filt$0     0000000180038ae0     libucrt:fpctrl.obj
 0002:0000dae0       $unwind$?dtor$0@?0??hist_equal@VImage@vips@@QEAA?AV12@PEAVVOption@2@@Z@4HA 0000000180038ae0     VImage.obj
 0002:0000dae0       $unwind$?dtor$0@?0??reduce@VImage@vips@@QEAA?AV12@NNPEAVVOption@2@@Z@4HA 0000000180038ae0     VImage.obj
 0002:0000dae0       $unwind$?dtor$0@?0??gaussmat@VImage@vips@@SA?AV12@NNPEAVVOption@2@@Z@4HA 0000000180038ae0     VImage.obj
 0002:0000dae0       $unwind$?dtor$0@?0??svgload_buffer@VImage@vips@@SA?AV12@PEAU_VipsBlob@@PEAVVOption@2@@Z@4HA 0000000180038ae0     VImage.obj
 0002:0000dae0       $unwind$?fin$0@?0???$?RV<lambda_5e887d1dcbef67a5eb4283622ba103bf>@@AEAV<lambda_4466841279450cc726390878d4a41900>@@V<lambda_341c25c0346d94847f1f3c463c57e077>@@@?$__crt_seh_guarded_call@X@@QEAAX$$QEAV<lambda_5e887d1dcbef67a5eb4283622ba103bf>@@AEAV<lambda_4466841279450cc726390878d4a41900>@@$$QEAV<lambda_341c25c0346d94847f1f3c463c57e077>@@@Z@4HA 0000000180038ae0     libucrt:per_thread_data.obj
 0002:0000dae0       $unwind$?dtor$0@?0??openexrload@VImage@vips@@SA?AV12@PEADPEAVVOption@2@@Z@4HA 0000000180038ae0     VImage.obj
 0002:0000dae0       $unwind$?dtor$0@?0??xyz@VImage@vips@@SA?AV12@HHPEAVVOption@2@@Z@4HA 0000000180038ae0     VImage.obj
 0002:0000dae0       $unwind$?dtor$0@?0??hist_norm@VImage@vips@@QEAA?AV12@PEAVVOption@2@@Z@4HA 0000000180038ae0     VImage.obj
 0002:0000dae0       $unwind$?dtor$0@?0??sRGB2HSV@VImage@vips@@QEAA?AV12@PEAVVOption@2@@Z@4HA 0000000180038ae0     VImage.obj
 0002:0000dae0       $unwind$?dtor$0@?0??text@VImage@vips@@SA?AV12@PEADPEAVVOption@2@@Z@4HA 0000000180038ae0     VImage.obj
 0002:0000dae0       $unwind$?dtor$0@?0??Lab2XYZ@VImage@vips@@QEAA?AV12@PEAVVOption@2@@Z@4HA 0000000180038ae0     VImage.obj
 0002:0000dae0       $unwind$?dtor$0@?0??pdfload_buffer@VImage@vips@@SA?AV12@PEAU_VipsBlob@@PEAVVOption@2@@Z@4HA 0000000180038ae0     VImage.obj
 0002:0000dae0       $unwind$?dtor$0@?0??gaussnoise@VImage@vips@@SA?AV12@HHPEAVVOption@2@@Z@4HA 0000000180038ae0     VImage.obj
 0002:0000dae0       $unwind$?dtor$0@?0??grid@VImage@vips@@QEAA?AV12@HHHPEAVVOption@2@@Z@4HA 0000000180038ae0     VImage.obj
 0002:0000dae0       $unwind$?dtor$1@?0??hist_match@VImage@vips@@QEAA?AV12@V12@PEAVVOption@2@@Z@4HA 0000000180038ae0     VImage.obj
 0002:0000dae0       $unwind$?dtor$0@?0??black@VImage@vips@@SA?AV12@HHPEAVVOption@2@@Z@4HA 0000000180038ae0     VImage.obj
 0002:0000dae0       $unwind$?dtor$0@?0??Lab2LCh@VImage@vips@@QEAA?AV12@PEAVVOption@2@@Z@4HA 0000000180038ae0     VImage.obj
 0002:0000dae0       $unwind$?dtor$0@?0??gamma@VImage@vips@@QEAA?AV12@PEAVVOption@2@@Z@4HA 0000000180038ae0     VImage.obj
 0002:0000dae0       $unwind$?fin$0@?0???$?RV<lambda_46352004c1216016012b18bd6f87e700>@@AEAV<lambda_3bd07e1a1191394380780325891bf33f>@@V<lambda_334532d3f185bcaa59b5be82d7d22bff>@@@?$__crt_seh_guarded_call@X@@QEAAX$$QEAV<lambda_46352004c1216016012b18bd6f87e700>@@AEAV<lambda_3bd07e1a1191394380780325891bf33f>@@$$QEAV<lambda_334532d3f185bcaa59b5be82d7d22bff>@@@Z@4HA 0000000180038ae0     libucrt:per_thread_data.obj
 0002:0000dae0       $unwind$?fin$0@?0??dllmain_crt_process_detach@@YAH_N@Z@4HA 0000000180038ae0     LIBCMT:dll_dllmain.obj
 0002:0000dae0       $unwind$?dtor$0@?0??getpoint@VImage@vips@@QEAA?AV?$vector@NV?$allocator@N@std@@@std@@HHPEAVVOption@2@@Z@4HA 0000000180038ae0     VImage.obj
 0002:0000dae0       $unwind$?dtor$0@?0??hist_cum@VImage@vips@@QEAA?AV12@PEAVVOption@2@@Z@4HA 0000000180038ae0     VImage.obj
 0002:0000dae0       $unwind$?dtor$0@?0??falsecolour@VImage@vips@@QEAA?AV12@PEAVVOption@2@@Z@4HA 0000000180038ae0     VImage.obj
 0002:0000dae0       $unwind$?dtor$0@?0??new_from_file@VImage@vips@@SA?AV12@PEBDPEAVVOption@2@@Z@4HA 0000000180038ae0     VImage.obj
 0002:0000dae0       $unwind$?fin$0@?0??dllmain_crt_process_attach@@YAHQEAUHINSTANCE__@@QEAX@Z@4HA 0000000180038ae0     LIBCMT:dll_dllmain.obj
 0002:0000dae0       $unwind$?dtor$1@?0??complex2@VImage@vips@@QEAA?AV12@V12@W4VipsOperationComplex2@@PEAVVOption@2@@Z@4HA 0000000180038ae0     VImage.obj
 0002:0000dae0       $unwind$?dtor$0@?0??byteswap@VImage@vips@@QEAA?AV12@PEAVVOption@2@@Z@4HA 0000000180038ae0     VImage.obj
 0002:0000dae0       $unwind$?dtor$0@?0??gifload_buffer@VImage@vips@@SA?AV12@PEAU_VipsBlob@@PEAVVOption@2@@Z@4HA 0000000180038ae0     VImage.obj
 0002:0000dae0       $unwind$?dtor$0@?0??stdif@VImage@vips@@QEAA?AV12@HHPEAVVOption@2@@Z@4HA 0000000180038ae0     VImage.obj
 0002:0000dae0       $unwind$?dtor$0@?0??copy@VImage@vips@@QEAA?AV12@PEAVVOption@2@@Z@4HA 0000000180038ae0     VImage.obj
 0002:0000dae0       $unwind$?dtor$0@?0??msb@VImage@vips@@QEAA?AV12@PEAVVOption@2@@Z@4HA 0000000180038ae0     VImage.obj
 0002:0000dae0       $unwind$?dtor$0@?0??new_from_buffer@VImage@vips@@SA?AV12@PEAX_KPEBDPEAVVOption@2@@Z@4HA 0000000180038ae0     VImage.obj
 0002:0000dae0       $unwind$?dtor$0@?0??scale@VImage@vips@@QEAA?AV12@PEAVVOption@2@@Z@4HA 0000000180038ae0     VImage.obj
 0002:0000dae0       $unwind$?dtor$0@?0??subsample@VImage@vips@@QEAA?AV12@HHPEAVVOption@2@@Z@4HA 0000000180038ae0     VImage.obj
 0002:0000dae0       $unwind$?fin$0@?0???$?RV<lambda_fb3a7dec4e47f37f22dae91bb15c9095>@@AEAV<lambda_698284760c8add0bfb0756c19673e34b>@@V<lambda_dfb8eca1e75fef3034a8fb18dd509707>@@@?$__crt_seh_guarded_call@X@@QEAAX$$QEAV<lambda_fb3a7dec4e47f37f22dae91bb15c9095>@@AEAV<lambda_698284760c8add0bfb0756c19673e34b>@@$$QEAV<lambda_dfb8eca1e75fef3034a8fb18dd509707>@@@Z@4HA 0000000180038ae0     libucrt:per_thread_data.obj
 0002:0000dae0       $unwind$?dtor$0@?0??Lab2LabS@VImage@vips@@QEAA?AV12@PEAVVOption@2@@Z@4HA 0000000180038ae0     VImage.obj
 0002:0000dae0       $unwind$?dtor$0@?0??tilecache@VImage@vips@@QEAA?AV12@PEAVVOption@2@@Z@4HA 0000000180038ae0     VImage.obj
 0002:0000dae0       $unwind$?dtor$1@?0??maplut@VImage@vips@@QEAA?AV12@V12@PEAVVOption@2@@Z@4HA 0000000180038ae0     VImage.obj
 0002:0000dae0       $unwind$?dtor$0@?0??zoom@VImage@vips@@QEAA?AV12@HHPEAVVOption@2@@Z@4HA 0000000180038ae0     VImage.obj
 0002:0000dae0       $unwind$?dtor$0@?0??option@VImage@vips@@SAPEAVVOption@2@XZ@4HA 0000000180038ae0     VError.obj
 0002:0000dae0       $unwind$?dtor$0@?0??XYZ2Lab@VImage@vips@@QEAA?AV12@PEAVVOption@2@@Z@4HA 0000000180038ae0     VImage.obj
 0002:0000dae0       $unwind$?dtor$0@?0??ppmload@VImage@vips@@SA?AV12@PEADPEAVVOption@2@@Z@4HA 0000000180038ae0     VImage.obj
 0002:0000dae0       $unwind$?dtor$0@?0??wrap@VImage@vips@@QEAA?AV12@PEAVVOption@2@@Z@4HA 0000000180038ae0     VImage.obj
 0002:0000dae0       $unwind$?dtor$0@?0??scRGB2sRGB@VImage@vips@@QEAA?AV12@PEAVVOption@2@@Z@4HA 0000000180038ae0     VImage.obj
 0002:0000dae8       $unwind$?new_temp_file@VImage@vips@@SA?AV12@PEBD@Z 0000000180038ae8     VError.obj
 0002:0000db08       $ip2state$?new_temp_file@VImage@vips@@SA?AV12@PEBD@Z 0000000180038b08     VError.obj
 0002:0000db20       $unwind$?new_from_memory@VImage@vips@@SA?AV12@PEAX_KHHHW4VipsBandFormat@@@Z 0000000180038b20     VError.obj
 0002:0000db40       $ip2state$?new_from_memory@VImage@vips@@SA?AV12@PEAX_KHHHW4VipsBandFormat@@@Z 0000000180038b40     VError.obj
 0002:0000db58       $unwind$?new_matrix@VImage@vips@@SA?AV12@HHPEANH@Z 0000000180038b58     VError.obj
 0002:0000db70       $ip2state$?new_matrix@VImage@vips@@SA?AV12@HHPEANH@Z 0000000180038b70     VError.obj
 0002:0000db88       $unwind$?write_to_memory@VImage@vips@@QEAAPEAXPEA_K@Z 0000000180038b88     VError.obj
 0002:0000dba0       $stateUnwindMap$?write_to_memory@VImage@vips@@QEAAPEAXPEA_K@Z 0000000180038ba0     VError.obj
 0002:0000dba8       $ip2state$?write_to_memory@VImage@vips@@QEAAPEAXPEA_K@Z 0000000180038ba8     VError.obj
 0002:0000dbc0       $unwind$?linear@VImage@vips@@QEAA?AV12@NNPEAVVOption@2@@Z 0000000180038bc0     VError.obj
 0002:0000dbe0       $stateUnwindMap$?linear@VImage@vips@@QEAA?AV12@NNPEAVVOption@2@@Z 0000000180038be0     VError.obj
 0002:0000dbe0       $stateUnwindMap$?ifthenelse@VImage@vips@@QEAA?AV12@NNPEAVVOption@2@@Z 0000000180038be0     VError.obj
 0002:0000dbe8       $ip2state$?linear@VImage@vips@@QEAA?AV12@NNPEAVVOption@2@@Z 0000000180038be8     VError.obj
 0002:0000dc00       $unwind$?linear@VImage@vips@@QEAA?AV12@V?$vector@NV?$allocator@N@std@@@std@@NPEAVVOption@2@@Z 0000000180038c00     VError.obj
 0002:0000dc1c       $stateUnwindMap$?linear@VImage@vips@@QEAA?AV12@V?$vector@NV?$allocator@N@std@@@std@@NPEAVVOption@2@@Z 0000000180038c1c     VError.obj
 0002:0000dc30       $ip2state$?linear@VImage@vips@@QEAA?AV12@V?$vector@NV?$allocator@N@std@@@std@@NPEAVVOption@2@@Z 0000000180038c30     VError.obj
 0002:0000dc58       $unwind$?linear@VImage@vips@@QEAA?AV12@NV?$vector@NV?$allocator@N@std@@@std@@PEAVVOption@2@@Z 0000000180038c58     VError.obj
 0002:0000dc7c       $stateUnwindMap$?linear@VImage@vips@@QEAA?AV12@NV?$vector@NV?$allocator@N@std@@@std@@PEAVVOption@2@@Z 0000000180038c7c     VError.obj
 0002:0000dc90       $ip2state$?linear@VImage@vips@@QEAA?AV12@NV?$vector@NV?$allocator@N@std@@@std@@PEAVVOption@2@@Z 0000000180038c90     VError.obj
 0002:0000dcb8       $unwind$?bandjoin@VImage@vips@@QEAA?AV12@NPEAVVOption@2@@Z 0000000180038cb8     VError.obj
 0002:0000dcc8       $unwind$?bandjoin@VImage@vips@@QEAA?AV12@V?$vector@NV?$allocator@N@std@@@std@@PEAVVOption@2@@Z 0000000180038cc8     VError.obj
 0002:0000dce4       $stateUnwindMap$?bandjoin@VImage@vips@@QEAA?AV12@V?$vector@NV?$allocator@N@std@@@std@@PEAVVOption@2@@Z 0000000180038ce4     VError.obj
 0002:0000dcf0       $ip2state$?bandjoin@VImage@vips@@QEAA?AV12@V?$vector@NV?$allocator@N@std@@@std@@PEAVVOption@2@@Z 0000000180038cf0     VError.obj
 0002:0000dd08       $unwind$?dilate@VImage@vips@@QEAA?AV12@V12@PEAVVOption@2@@Z 0000000180038d08     VError.obj
 0002:0000dd20       $stateUnwindMap$?dilate@VImage@vips@@QEAA?AV12@V12@PEAVVOption@2@@Z 0000000180038d20     VError.obj
 0002:0000dd20       $stateUnwindMap$?wop@VImage@vips@@QEAA?AV12@V12@PEAVVOption@2@@Z 0000000180038d20     VError.obj
 0002:0000dd20       $stateUnwindMap$?erode@VImage@vips@@QEAA?AV12@V12@PEAVVOption@2@@Z 0000000180038d20     VError.obj
 0002:0000dd20       $stateUnwindMap$?pow@VImage@vips@@QEAA?AV12@V12@PEAVVOption@2@@Z 0000000180038d20     VError.obj
 0002:0000dd28       $ip2state$?dilate@VImage@vips@@QEAA?AV12@V12@PEAVVOption@2@@Z 0000000180038d28     VError.obj
 0002:0000dd40       $unwind$?erode@VImage@vips@@QEAA?AV12@V12@PEAVVOption@2@@Z 0000000180038d40     VError.obj
 0002:0000dd58       $ip2state$?erode@VImage@vips@@QEAA?AV12@V12@PEAVVOption@2@@Z 0000000180038d58     VError.obj
 0002:0000dd70       $unwind$??RVImage@vips@@QEAA?AV?$vector@NV?$allocator@N@std@@@std@@HH@Z 0000000180038d70     VImage.obj
 0002:0000dd70       $unwind$_isleadbyte_l      0000000180038d70     libucrt:_wctype.obj
 0002:0000dd70       $unwind$?getSystemCP@@YAHH@Z 0000000180038d70     libucrt:mbctype.obj
 0002:0000dd70       $unwind$?median@VImage@vips@@QEAA?AV12@HPEAVVOption@2@@Z 0000000180038d70     VError.obj
 0002:0000dd78       $unwind$?pow@VImage@vips@@QEAA?AV12@V12@PEAVVOption@2@@Z 0000000180038d78     VError.obj
 0002:0000dd90       $ip2state$?pow@VImage@vips@@QEAA?AV12@V12@PEAVVOption@2@@Z 0000000180038d90     VError.obj
 0002:0000dda8       $unwind$?pow@VImage@vips@@QEAA?AV12@NPEAVVOption@2@@Z 0000000180038da8     VError.obj
 0002:0000dda8       $unwind$?wop@VImage@vips@@QEAA?AV12@NPEAVVOption@2@@Z 0000000180038da8     VError.obj
 0002:0000ddb8       $unwind$?pow@VImage@vips@@QEAA?AV12@V?$vector@NV?$allocator@N@std@@@std@@PEAVVOption@2@@Z 0000000180038db8     VError.obj
 0002:0000ddd4       $stateUnwindMap$?pow@VImage@vips@@QEAA?AV12@V?$vector@NV?$allocator@N@std@@@std@@PEAVVOption@2@@Z 0000000180038dd4     VError.obj
 0002:0000ddd4       $stateUnwindMap$?wop@VImage@vips@@QEAA?AV12@V?$vector@NV?$allocator@N@std@@@std@@PEAVVOption@2@@Z 0000000180038dd4     VError.obj
 0002:0000dde0       $ip2state$?pow@VImage@vips@@QEAA?AV12@V?$vector@NV?$allocator@N@std@@@std@@PEAVVOption@2@@Z 0000000180038de0     VError.obj
 0002:0000ddf8       $unwind$?wop@VImage@vips@@QEAA?AV12@V12@PEAVVOption@2@@Z 0000000180038df8     VError.obj
 0002:0000de10       $ip2state$?wop@VImage@vips@@QEAA?AV12@V12@PEAVVOption@2@@Z 0000000180038e10     VError.obj
 0002:0000de28       $unwind$?wop@VImage@vips@@QEAA?AV12@V?$vector@NV?$allocator@N@std@@@std@@PEAVVOption@2@@Z 0000000180038e28     VError.obj
 0002:0000de48       $ip2state$?wop@VImage@vips@@QEAA?AV12@V?$vector@NV?$allocator@N@std@@@std@@PEAVVOption@2@@Z 0000000180038e48     VError.obj
 0002:0000de60       $unwind$?ifthenelse@VImage@vips@@QEAA?AV12@V?$vector@NV?$allocator@N@std@@@std@@V12@PEAVVOption@2@@Z 0000000180038e60     VError.obj
 0002:0000de78       $stateUnwindMap$?ifthenelse@VImage@vips@@QEAA?AV12@V?$vector@NV?$allocator@N@std@@@std@@V12@PEAVVOption@2@@Z 0000000180038e78     VError.obj
 0002:0000de90       $ip2state$?ifthenelse@VImage@vips@@QEAA?AV12@V?$vector@NV?$allocator@N@std@@@std@@V12@PEAVVOption@2@@Z 0000000180038e90     VError.obj
 0002:0000dec0       $unwind$?ifthenelse@VImage@vips@@QEAA?AV12@V12@V?$vector@NV?$allocator@N@std@@@std@@PEAVVOption@2@@Z 0000000180038ec0     VError.obj
 0002:0000dedc       $stateUnwindMap$?ifthenelse@VImage@vips@@QEAA?AV12@V12@V?$vector@NV?$allocator@N@std@@@std@@PEAVVOption@2@@Z 0000000180038edc     VError.obj
 0002:0000def0       $ip2state$?ifthenelse@VImage@vips@@QEAA?AV12@V12@V?$vector@NV?$allocator@N@std@@@std@@PEAVVOption@2@@Z 0000000180038ef0     VError.obj
 0002:0000df10       $unwind$?ifthenelse@VImage@vips@@QEAA?AV12@V?$vector@NV?$allocator@N@std@@@std@@0PEAVVOption@2@@Z 0000000180038f10     VError.obj
 0002:0000df2c       $stateUnwindMap$?ifthenelse@VImage@vips@@QEAA?AV12@V?$vector@NV?$allocator@N@std@@@std@@0PEAVVOption@2@@Z 0000000180038f2c     VError.obj
 0002:0000df48       $ip2state$?ifthenelse@VImage@vips@@QEAA?AV12@V?$vector@NV?$allocator@N@std@@@std@@0PEAVVOption@2@@Z 0000000180038f48     VError.obj
 0002:0000df78       $unwind$?ifthenelse@VImage@vips@@QEAA?AV12@NV12@PEAVVOption@2@@Z 0000000180038f78     VError.obj
 0002:0000df94       $stateUnwindMap$?ifthenelse@VImage@vips@@QEAA?AV12@NV12@PEAVVOption@2@@Z 0000000180038f94     VError.obj
 0002:0000dfa8       $ip2state$?ifthenelse@VImage@vips@@QEAA?AV12@NV12@PEAVVOption@2@@Z 0000000180038fa8     VError.obj
 0002:0000dfd0       $unwind$?ifthenelse@VImage@vips@@QEAA?AV12@V12@NPEAVVOption@2@@Z 0000000180038fd0     VError.obj
 0002:0000dfe8       $stateUnwindMap$?ifthenelse@VImage@vips@@QEAA?AV12@V12@NPEAVVOption@2@@Z 0000000180038fe8     VError.obj
 0002:0000dff0       $ip2state$?ifthenelse@VImage@vips@@QEAA?AV12@V12@NPEAVVOption@2@@Z 0000000180038ff0     VError.obj
 0002:0000e008       $unwind$?ifthenelse@VImage@vips@@QEAA?AV12@NNPEAVVOption@2@@Z 0000000180039008     VError.obj
 0002:0000e028       $ip2state$?ifthenelse@VImage@vips@@QEAA?AV12@NNPEAVVOption@2@@Z 0000000180039028     VError.obj
 0002:0000e040       $unwind$??0?$list@PEAUPair@VOption@vips@@V?$allocator@PEAUPair@VOption@vips@@@std@@@std@@QEAA@AEBV01@@Z 0000000180039040     VError.obj
 0002:0000e05c       $stateUnwindMap$??0?$list@PEAUPair@VOption@vips@@V?$allocator@PEAUPair@VOption@vips@@@std@@@std@@QEAA@AEBV01@@Z 000000018003905c     VError.obj
 0002:0000e068       $ip2state$??0?$list@PEAUPair@VOption@vips@@V?$allocator@PEAUPair@VOption@vips@@@std@@@std@@QEAA@AEBV01@@Z 0000000180039068     VError.obj
 0002:0000e080       $unwind$??0?$vector@NV?$allocator@N@std@@@std@@QEAA@AEBV01@@Z 0000000180039080     VError.obj
 0002:0000e090       $chain$0$??0?$vector@NV?$allocator@N@std@@@std@@QEAA@AEBV01@@Z 0000000180039090     VError.obj
 0002:0000e0a4       $chain$1$??0?$vector@NV?$allocator@N@std@@@std@@QEAA@AEBV01@@Z 00000001800390a4     VError.obj
 0002:0000e0b4       $unwind$__vcrt_getptd_noexit 00000001800390b4     libvcruntime:per_thread_data.obj
 0002:0000e0b4       $unwind$?free_crt_array_internal@@YAXQEAPEBX_K@Z 00000001800390b4     libucrt:inittime.obj
 0002:0000e0b4       $unwind$__acrt_getptd_noexit 00000001800390b4     libucrt:per_thread_data.obj
 0002:0000e0b4       $unwind$_RTC_Terminate     00000001800390b4     LIBCMT:_initsect_.obj
 0002:0000e0b4       $unwind$__acrt_LocaleNameToLCID 00000001800390b4     libucrt:winapi_thunks.obj
 0002:0000e0b4       $unwind$?assign@?$basic_string@DU?$char_traits@D@std@@V?$allocator@D@2@@std@@QEAAAEAV12@PEBD_K@Z 00000001800390b4     VError.obj
 0002:0000e0b4       $unwind$_DllMainCRTStartup 00000001800390b4     LIBCMT:dll_dllmain.obj
 0002:0000e0b4       $unwind$??$common_lseek_nolock@_J@@YA_JH_JH@Z 00000001800390b4     libucrt:lseek.obj
 0002:0000e0b4       $unwind$??R<lambda_ad1ced32f4ac17aa236e5ef05d6b3b7c>@@QEBAXXZ 00000001800390b4     libucrt:mbctype.obj
 0002:0000e0b4       $unwind$_RTC_Initialize    00000001800390b4     LIBCMT:_initsect_.obj
 0002:0000e0b4       $unwind$?__scrt_initialize_thread_safe_statics@@YAHXZ 00000001800390b4     LIBCMT:thread_safe_statics.obj
 0002:0000e0b4       $unwind$__acrt_FlsSetValue 00000001800390b4     libucrt:winapi_thunks.obj
 0002:0000e0b4       $unwind$_initterm_e        00000001800390b4     libucrt:initterm.obj
 0002:0000e0b4       $unwind$__acrt_stdio_flush_nolock 00000001800390b4     libucrt:fflush.obj
 0002:0000e0b4       $unwind$_exception_enabled 00000001800390b4     libucrt:libm_error.obj
 0002:0000e0b4       $unwind$__acrt_execute_uninitializers 00000001800390b4     libucrt:shared_initialization.obj
 0002:0000e0b4       $unwind$__vcrt_FlsSetValue 00000001800390b4     libvcruntime:winapi_downlevel.obj
 0002:0000e0b4       $unwind$_Init_thread_wait  00000001800390b4     LIBCMT:thread_safe_statics.obj
 0002:0000e0c4       $unwind$_free_osfhnd       00000001800390c4     libucrt:osfinfo.obj
 0002:0000e0c4       $unwind$?assign@?$basic_string@DU?$char_traits@D@std@@V?$allocator@D@2@@std@@QEAAAEAV12@AEBV12@_K1@Z 00000001800390c4     VError.obj
 0002:0000e0c4       $unwind$??$_Insert@AEBQEAUPair@VOption@vips@@@?$list@PEAUPair@VOption@vips@@V?$allocator@PEAUPair@VOption@vips@@@std@@@std@@QEAAXV?$_List_unchecked_const_iterator@V?$_List_val@U?$_List_simple_types@PEAUPair@VOption@vips@@@std@@@std@@U_Iterator_base0@2@@1@AEBQEAUPair@VOption@vips@@@Z 00000001800390c4     VError.obj
 0002:0000e0c4       $unwind$__std_exception_copy 00000001800390c4     libvcruntime:std_exception.obj
 0002:0000e0c4       $unwind$?initialize_stdio_handles_nolock@@YAXXZ 00000001800390c4     libucrt:ioinit.obj
 0002:0000e0d8       $unwind$?append@?$basic_string@DU?$char_traits@D@std@@V?$allocator@D@2@@std@@QEAAAEAV12@PEBD_K@Z 00000001800390d8     VError.obj
 0002:0000e0e8       $chain$0$?append@?$basic_string@DU?$char_traits@D@std@@V?$allocator@D@2@@std@@QEAAAEAV12@PEBD_K@Z 00000001800390e8     VError.obj
 0002:0000e0fc       $chain$1$?append@?$basic_string@DU?$char_traits@D@std@@V?$allocator@D@2@@std@@QEAAAEAV12@PEBD_K@Z 00000001800390fc     VError.obj
 0002:0000e10c       $chain$2$?append@?$basic_string@DU?$char_traits@D@std@@V?$allocator@D@2@@std@@QEAAAEAV12@PEBD_K@Z 000000018003910c     VError.obj
 0002:0000e120       $unwind$?append@?$basic_string@DU?$char_traits@D@std@@V?$allocator@D@2@@std@@QEAAAEAV12@AEBV12@_K1@Z 0000000180039120     VError.obj
 0002:0000e134       $chain$0$?append@?$basic_string@DU?$char_traits@D@std@@V?$allocator@D@2@@std@@QEAAAEAV12@AEBV12@_K1@Z 0000000180039134     VError.obj
 0002:0000e148       $chain$1$?append@?$basic_string@DU?$char_traits@D@std@@V?$allocator@D@2@@std@@QEAAAEAV12@AEBV12@_K1@Z 0000000180039148     VError.obj
 0002:0000e158       $chain$2$?append@?$basic_string@DU?$char_traits@D@std@@V?$allocator@D@2@@std@@QEAAAEAV12@AEBV12@_K1@Z 0000000180039158     VError.obj
 0002:0000e16c       $unwind$?__SetUnwindTryBlock@@YAXPEA_KPEAU_xDISPATCHER_CONTEXT@@PEBU_s_FuncInfo@@H@Z 000000018003916c     libvcruntime:ehstate.obj
 0002:0000e16c       $unwind$_FindAndUnlinkFrame 000000018003916c     libvcruntime:trnsctrl.obj
 0002:0000e16c       $unwind$??$common_initialize_environment_nolock@D@@YAHXZ 000000018003916c     libucrt:environment_initialization.obj
 0002:0000e16c       $unwind$__vcrt_FlsGetValue 000000018003916c     libvcruntime:winapi_downlevel.obj
 0002:0000e16c       $unwind$__acrt_invoke_user_matherr 000000018003916c     libucrt:matherr.obj
 0002:0000e16c       $unwind$__vcrt_FlsFree     000000018003916c     libvcruntime:winapi_downlevel.obj
 0002:0000e16c       $unwind$?resize@?$vector@NV?$allocator@N@std@@@std@@QEAAX_K@Z 000000018003916c     VImage.obj
 0002:0000e16c       $unwind$?replace_current_thread_locale_nolock@@YAXQEAU__acrt_ptd@@QEAU__crt_locale_data@@@Z 000000018003916c     libucrt:per_thread_data.obj
 0002:0000e16c       $unwind$_realloc_base      000000018003916c     libucrt:realloc_base.obj
 0002:0000e16c       $unwind$??0?$vector@NV?$allocator@N@std@@@std@@QEAA@_K@Z 000000018003916c     VImage.obj
 0002:0000e16c       $unwind$??1sentry@?$basic_ostream@DU?$char_traits@D@std@@@std@@QEAA@XZ 000000018003916c     VError.obj
 0002:0000e16c       $unwind$strncpy_s          000000018003916c     libucrt:strncpy_s.obj
 0002:0000e16c       $unwind$??_Gout_of_range@std@@UEAAPEAXI@Z 000000018003916c     libcpmt:xthrow.obj
 0002:0000e16c       $unwind$??_Gbad_exception@std@@UEAAPEAXI@Z 000000018003916c     libvcruntime:frame.obj
 0002:0000e16c       $unwind$??_Gexception@std@@UEAAPEAXI@Z 000000018003916c     libcpmt:xthrow.obj
 0002:0000e16c       $unwind$??_Gbad_array_new_length@std@@UEAAPEAXI@Z 000000018003916c     LIBCMT:throw_bad_alloc.obj
 0002:0000e16c       $unwind$_fclose_nolock     000000018003916c     libucrt:fclose.obj
 0002:0000e16c       $unwind$?try_cor_exit_process@@YAXI@Z 000000018003916c     libucrt:exit.obj
 0002:0000e16c       $unwind$__acrt_getptd      000000018003916c     libucrt:per_thread_data.obj
 0002:0000e16c       $unwind$?ExFilterRethrow@@YAHPEAU_EXCEPTION_POINTERS@@PEAUEHExceptionRecord@@PEAH@Z 000000018003916c     libvcruntime:frame.obj
 0002:0000e16c       $unwind$__acrt_errno_map_os_error 000000018003916c     libucrt:errno.obj
 0002:0000e16c       $unwind$??_Glogic_error@std@@UEAAPEAXI@Z 000000018003916c     libcpmt:xthrow.obj
 0002:0000e16c       $unwind$??_Gbad_alloc@std@@UEAAPEAXI@Z 000000018003916c     libcpmt:xthrow.obj
 0002:0000e16c       $unwind$__vcrt_FlsAlloc    000000018003916c     libvcruntime:winapi_downlevel.obj
 0002:0000e16c       $unwind$_callnewh          000000018003916c     libucrt:new_handler.obj
 0002:0000e16c       $unwind$?_Assign_rv@?$basic_string@DU?$char_traits@D@std@@V?$allocator@D@2@@std@@QEAAX$$QEAV12@@Z 000000018003916c     VError.obj
 0002:0000e16c       $unwind$??_Glength_error@std@@UEAAPEAXI@Z 000000018003916c     libcpmt:xthrow.obj
 0002:0000e16c       $unwind$__acrt_uninitialize_lowio 000000018003916c     libucrt:ioinit.obj
 0002:0000e16c       $unwind$?erase@?$basic_string@DU?$char_traits@D@std@@V?$allocator@D@2@@std@@QEAAAEAV12@_K0@Z 000000018003916c     VError.obj
 0002:0000e16c       $unwind$_close_nolock      000000018003916c     libucrt:close.obj
 0002:0000e16c       $unwind$?maxpos@VImage@vips@@QEAA?AV?$complex@N@std@@PEAVVOption@2@@Z 000000018003916c     VImage.obj
 0002:0000e16c       $unwind$__acrt_FlsGetValue 000000018003916c     libucrt:winapi_thunks.obj
 0002:0000e16c       $unwind$__acrt_FlsFree     000000018003916c     libucrt:winapi_thunks.obj
 0002:0000e16c       $unwind$__acrt_FlsAlloc    000000018003916c     libucrt:winapi_thunks.obj
 0002:0000e16c       $unwind$_updatetlocinfoEx_nolock 000000018003916c     libucrt:locale_refcounting.obj
 0002:0000e16c       $unwind$?minpos@VImage@vips@@QEAA?AV?$complex@N@std@@PEAVVOption@2@@Z 000000018003916c     VImage.obj
 0002:0000e16c       $unwind$??0_LocaleUpdate@@QEAA@QEAU__crt_locale_pointers@@@Z 000000018003916c     libucrt:stricmp.obj
 0002:0000e178       $unwind$__acrt_DownlevelLocaleNameToLCID 0000000180039178     libucrt:lcidtoname_downlevel.obj
 0002:0000e178       $unwind$__pctype_func      0000000180039178     libucrt:ctype.obj
 0002:0000e178       $unwind$__vcrt_thread_detach 0000000180039178     libvcruntime:initialization.obj
 0002:0000e178       $unwind$__acrt_release_locale_ref 0000000180039178     libucrt:locale_refcounting.obj
 0002:0000e178       $unwind$__acrt_uninitialize_critical 0000000180039178     libucrt:initialization.obj
 0002:0000e178       $unwind$__vcrt_thread_attach 0000000180039178     libvcruntime:initialization.obj
 0002:0000e178       $unwind$__acrt_thread_attach 0000000180039178     libucrt:initialization.obj
 0002:0000e178       $unwind$?deallocate@?$_Wrap_alloc@V?$allocator@N@std@@@std@@QEAAXPEAN_K@Z 0000000180039178     VError.obj
 0002:0000e178       $unwind$_isatty            0000000180039178     libucrt:isatty.obj
 0002:0000e178       $unwind$__vcrt_uninitialize 0000000180039178     libvcruntime:initialization.obj
 0002:0000e178       $unwind$_get_osfhandle     0000000180039178     libucrt:osfinfo.obj
 0002:0000e178       $unwind$__vcrt_initialize  0000000180039178     libvcruntime:initialization.obj
 0002:0000e178       $unwind$__acrt_initialize_multibyte 0000000180039178     libucrt:mbctype.obj
 0002:0000e178       $unwind$__acrt_initialize_ptd 0000000180039178     libucrt:per_thread_data.obj
 0002:0000e178       $unwind$__acrt_uninitialize_ptd 0000000180039178     libucrt:per_thread_data.obj
 0002:0000e178       $unwind$__doserrno         0000000180039178     libucrt:errno.obj
 0002:0000e178       $unwind$_errno             0000000180039178     libucrt:errno.obj
 0002:0000e178       $unwind$__scrt_initialize_default_local_stdio_options 0000000180039178     LIBCMT:default_local_stdio_options.obj
 0002:0000e178       $unwind$_invoke_watson     0000000180039178     libucrt:invalid_parameter.obj
 0002:0000e178       $unwind$abort              0000000180039178     libucrt:abort.obj
 0002:0000e178       $unwind$__acrt_thread_detach 0000000180039178     libucrt:initialization.obj
 0002:0000e178       $unwind$__acrt_initialize_command_line 0000000180039178     libucrt:argv_data.obj
 0002:0000e178       $unwind$__acrt_initialize_heap 0000000180039178     libucrt:heap_handle.obj
 0002:0000e178       $unwind$__vcrt_initialize_ptd 0000000180039178     libvcruntime:per_thread_data.obj
 0002:0000e178       $unwind$__vcrt_uninitialize_ptd 0000000180039178     libvcruntime:per_thread_data.obj
 0002:0000e178       $unwind$__FrameUnwindFilter 0000000180039178     libvcruntime:frame.obj
 0002:0000e178       $unwind$_fileno            0000000180039178     libucrt:fileno.obj
 0002:0000e178       $unwind$?initialize_multibyte@@YAHXZ 0000000180039178     libucrt:multibyte_initializer.obj
 0002:0000e178       $unwind$__GSHandlerCheck   0000000180039178     LIBCMT:_gshandler_.obj
 0002:0000e178       $unwind$__scrt_dllmain_crt_thread_detach 0000000180039178     LIBCMT:utility.obj
 0002:0000e178       $unwind$__scrt_dllmain_crt_thread_attach 0000000180039178     LIBCMT:utility.obj
 0002:0000e178       $unwind$_set_errno_from_matherr 0000000180039178     libucrt:fpexcept.obj
 0002:0000e178       $unwind$?allocate@?$_Wrap_alloc@V?$allocator@VVImage@vips@@@std@@@std@@QEAAPEAVVImage@vips@@_K@Z 0000000180039178     VImage.obj
 0002:0000e178       $unwind$?deallocate@?$_Wrap_alloc@V?$allocator@VVImage@vips@@@std@@@std@@QEAAXPEAVVImage@vips@@_K@Z 0000000180039178     VImage.obj
 0002:0000e178       $unwind$initialize_c       0000000180039178     libucrt:initialization.obj
 0002:0000e178       $unwind$?_Reserve@?$vector@VVImage@vips@@V?$allocator@VVImage@vips@@@std@@@std@@IEAAX_K@Z 0000000180039178     VImage.obj
 0002:0000e178       $unwind$__scrt_dllmain_uninitialize_critical 0000000180039178     LIBCMT:utility.obj
 0002:0000e178       $unwind$__scrt_dllmain_uninitialize_c 0000000180039178     LIBCMT:utility.obj
 0002:0000e178       $unwind$?allocate@?$_Wrap_alloc@V?$allocator@N@std@@@std@@QEAAPEAN_K@Z 0000000180039178     VError.obj
 0002:0000e178       $unwind$__scrt_dllmain_after_initialize_c 0000000180039178     LIBCMT:utility.obj
 0002:0000e178       $unwind$__dcrt_terminate_console_output 0000000180039178     libucrt:initcon.obj
 0002:0000e178       $unwind$__scrt_dllmain_before_initialize_c 0000000180039178     LIBCMT:utility.obj
 0002:0000e178       $unwind$??$uninitialize_environment_internal@_W@@YAXAEAPEAPEA_W@Z 0000000180039178     libucrt:environment_initialization.obj
 0002:0000e178       $unwind$??$uninitialize_environment_internal@D@@YAXAEAPEAPEAD@Z 0000000180039178     libucrt:environment_initialization.obj
 0002:0000e178       $unwind$__vcrt_uninitialize_critical 0000000180039178     libvcruntime:initialization.obj
 0002:0000e178       $unwind$__dcrt_uninitialize_environments_nolock 0000000180039178     libucrt:environment_initialization.obj
 0002:0000e178       $unwind$_statfp            0000000180039178     libucrt:fpctrl.obj
 0002:0000e178       $unwind$_msize             0000000180039178     libucrt:msize.obj
 0002:0000e178       $unwind$uninitialize_environment 0000000180039178     libucrt:initialization.obj
 0002:0000e178       $unwind$_GetThrowImageBase 0000000180039178     libvcruntime:trnsctrl.obj
 0002:0000e178       $unwind$_GetImageBase      0000000180039178     libvcruntime:trnsctrl.obj
 0002:0000e178       $unwind$__scrt_acquire_startup_lock 0000000180039178     LIBCMT:utility.obj
 0002:0000e178       $unwind$?__GetCurrentState@@YAHPEA_KPEAU_xDISPATCHER_CONTEXT@@PEBU_s_FuncInfo@@@Z 0000000180039178     libvcruntime:ehstate.obj
 0002:0000e178       $unwind$__vcrt_getptd      0000000180039178     libvcruntime:per_thread_data.obj
 0002:0000e178       $unwind$atexit             0000000180039178     LIBCMT:utility.obj
 0002:0000e178       $unwind$?dllmain_crt_dispatch@@YAHQEAUHINSTANCE__@@KQEAX@Z 0000000180039178     LIBCMT:dll_dllmain.obj
 0002:0000e178       $unwind$?__scrt_uninitialize_thread_safe_statics@@YAXXZ 0000000180039178     LIBCMT:thread_safe_statics.obj
 0002:0000e178       $unwind$??$_Immortalize@V_Iostream_error_category@std@@@std@@YAAEAV_Iostream_error_category@0@XZ 0000000180039178     VError.obj
 0002:0000e178       $unwind$__vcrt_freefls     0000000180039178     libvcruntime:per_thread_data.obj
 0002:0000e178       $unwind$__report_rangecheckfailure 0000000180039178     LIBCMT:gs_report.obj
 0002:0000e180       $unwind$?_Copy@?$basic_string@DU?$char_traits@D@std@@V?$allocator@D@2@@std@@QEAAX_K0@Z 0000000180039180     VError.obj
 0002:0000e194       $unwind$??$?6DU?$char_traits@D@std@@V?$allocator@D@1@@std@@YAAEAV?$basic_ostream@DU?$char_traits@D@std@@@0@AEAV10@AEBV?$basic_string@DU?$char_traits@D@std@@V?$allocator@D@2@@0@@Z 0000000180039194     VError.obj
 0002:0000e1b4       $stateUnwindMap$??$?6DU?$char_traits@D@std@@V?$allocator@D@1@@std@@YAAEAV?$basic_ostream@DU?$char_traits@D@std@@@0@AEAV10@AEBV?$basic_string@DU?$char_traits@D@std@@V?$allocator@D@2@@0@@Z 00000001800391b4     VError.obj
 0002:0000e1c8       $ip2state$??$?6DU?$char_traits@D@std@@V?$allocator@D@1@@std@@YAAEAV?$basic_ostream@DU?$char_traits@D@std@@@0@AEAV10@AEBV?$basic_string@DU?$char_traits@D@std@@V?$allocator@D@2@@0@@Z 00000001800391c8     VError.obj
 0002:0000e1e8       $unwind$??$assign@V?$_List_const_iterator@V?$_List_val@U?$_List_simple_types@PEAUPair@VOption@vips@@@std@@@std@@@std@@@?$list@PEAUPair@VOption@vips@@V?$allocator@PEAUPair@VOption@vips@@@std@@@std@@QEAAXV?$_List_const_iterator@V?$_List_val@U?$_List_simple_types@PEAUPair@VOption@vips@@@std@@@std@@@1@0@Z 00000001800391e8     VError.obj
 0002:0000e1f8       $unwind$??0sentry@?$basic_ostream@DU?$char_traits@D@std@@@std@@QEAA@AEAV12@@Z 00000001800391f8     VError.obj
 0002:0000e20c       $stateUnwindMap$??0sentry@?$basic_ostream@DU?$char_traits@D@std@@@std@@QEAA@AEAV12@@Z 000000018003920c     VError.obj
 0002:0000e218       $ip2state$??0sentry@?$basic_ostream@DU?$char_traits@D@std@@@std@@QEAA@AEAV12@@Z 0000000180039218     VError.obj
 0002:0000e230       $unwind$?flush@?$basic_ostream@DU?$char_traits@D@std@@@std@@QEAAAEAV12@XZ 0000000180039230     VError.obj
 0002:0000e244       $stateUnwindMap$?flush@?$basic_ostream@DU?$char_traits@D@std@@@std@@QEAAAEAV12@XZ 0000000180039244     VError.obj
 0002:0000e250       $ip2state$?flush@?$basic_ostream@DU?$char_traits@D@std@@@std@@QEAAAEAV12@XZ 0000000180039250     VError.obj
 0002:0000e268       $unwind$?new_from_name@VInterpolate@vips@@SA?AV12@PEBDPEAVVOption@2@@Z 0000000180039268     VInterpolate.obj
 0002:0000e288       $ip2state$?new_from_name@VInterpolate@vips@@SA?AV12@PEBDPEAVVOption@2@@Z 0000000180039288     VInterpolate.obj
 0002:0000e2a0       $unwind$?set@VOption@vips@@QEAAPEAV12@PEBDVVInterpolate@2@@Z 00000001800392a0     VInterpolate.obj
 0002:0000e2bc       $stateUnwindMap$??Mvips@@YA?AVVImage@0@NV10@@Z 00000001800392bc     VImage.obj
 0002:0000e2bc       $stateUnwindMap$??Pvips@@YA?AVVImage@0@NV10@@Z 00000001800392bc     VImage.obj
 0002:0000e2bc       $stateUnwindMap$??Tvips@@YA?AVVImage@0@NV10@@Z 00000001800392bc     VImage.obj
 0002:0000e2bc       $stateUnwindMap$??Ivips@@YA?AVVImage@0@NV10@@Z 00000001800392bc     VImage.obj
 0002:0000e2bc       $stateUnwindMap$??Ovips@@YA?AVVImage@0@NV10@@Z 00000001800392bc     VImage.obj
 0002:0000e2bc       $stateUnwindMap$??Nvips@@YA?AVVImage@0@NV10@@Z 00000001800392bc     VImage.obj
 0002:0000e2bc       $stateUnwindMap$??9vips@@YA?AVVImage@0@NV10@@Z 00000001800392bc     VImage.obj
 0002:0000e2bc       $stateUnwindMap$?set@VOption@vips@@QEAAPEAV12@PEBDVVInterpolate@2@@Z 00000001800392bc     VInterpolate.obj
 0002:0000e2bc       $stateUnwindMap$??Uvips@@YA?AVVImage@0@NV10@@Z 00000001800392bc     VImage.obj
 0002:0000e2bc       $stateUnwindMap$??8vips@@YA?AVVImage@0@NV10@@Z 00000001800392bc     VImage.obj
 0002:0000e2bc       $stateUnwindMap$?set@VOption@vips@@QEAAPEAV12@PEBDVVImage@2@@Z 00000001800392bc     VImage.obj
 0002:0000e2c8       $ip2state$?set@VOption@vips@@QEAAPEAV12@PEBDVVInterpolate@2@@Z 00000001800392c8     VInterpolate.obj
 0002:0000e2e0       $unwind$?to_vectorv@vips@@YA?AV?$vector@NV?$allocator@N@std@@@std@@HZZ 00000001800392e0     VImage.obj
 0002:0000e2ec       $unwind$?to_vector@vips@@YA?AV?$vector@NV?$allocator@N@std@@@std@@HQEAN@Z 00000001800392ec     VImage.obj
 0002:0000e300       $chain$0$?to_vector@vips@@YA?AV?$vector@NV?$allocator@N@std@@@std@@HQEAN@Z 0000000180039300     VImage.obj
 0002:0000e314       $chain$1$?to_vector@vips@@YA?AV?$vector@NV?$allocator@N@std@@@std@@HQEAN@Z 0000000180039314     VImage.obj
 0002:0000e324       $unwind$?negate@vips@@YA?AV?$vector@NV?$allocator@N@std@@@std@@V23@@Z 0000000180039324     VImage.obj
 0002:0000e33c       $stateUnwindMap$?invert@vips@@YA?AV?$vector@NV?$allocator@N@std@@@std@@V23@@Z 000000018003933c     VImage.obj
 0002:0000e33c       $stateUnwindMap$?negate@vips@@YA?AV?$vector@NV?$allocator@N@std@@@std@@V23@@Z 000000018003933c     VImage.obj
 0002:0000e348       $ip2state$?negate@vips@@YA?AV?$vector@NV?$allocator@N@std@@@std@@V23@@Z 0000000180039348     VImage.obj
 0002:0000e360       $unwind$?invert@vips@@YA?AV?$vector@NV?$allocator@N@std@@@std@@V23@@Z 0000000180039360     VImage.obj
 0002:0000e378       $ip2state$?invert@vips@@YA?AV?$vector@NV?$allocator@N@std@@@std@@V23@@Z 0000000180039378     VImage.obj
 0002:0000e390       $chain$0$??1VOption@vips@@UEAA@XZ 0000000180039390     VImage.obj
 0002:0000e3a4       $chain$1$??1VOption@vips@@UEAA@XZ 00000001800393a4     VImage.obj
 0002:0000e3b4       $unwind$?set@VOption@vips@@QEAAPEAV12@PEBDPEAH@Z 00000001800393b4     VImage.obj
 0002:0000e3b4       $unwind$?set@VOption@vips@@QEAAPEAV12@PEBDH@Z 00000001800393b4     VImage.obj
 0002:0000e3b4       $unwind$?set@VOption@vips@@QEAAPEAV12@PEBDPEAU_VipsBlob@@@Z 00000001800393b4     VImage.obj
 0002:0000e3b4       $unwind$?set@VOption@vips@@QEAAPEAV12@PEBD_N@Z 00000001800393b4     VImage.obj
 0002:0000e3b4       $unwind$?set@VOption@vips@@QEAAPEAV12@PEBDPEAVVImage@2@@Z 00000001800393b4     VImage.obj
 0002:0000e3b4       $unwind$?set@VOption@vips@@QEAAPEAV12@PEBD0@Z 00000001800393b4     VImage.obj
 0002:0000e3b4       $unwind$?set@VOption@vips@@QEAAPEAV12@PEBDPEAN@Z 00000001800393b4     VImage.obj
 0002:0000e3b4       $unwind$?set@VOption@vips@@QEAAPEAV12@PEBDPEAV?$vector@NV?$allocator@N@std@@@std@@@Z 00000001800393b4     VImage.obj
 0002:0000e3b4       $unwind$?set@VOption@vips@@QEAAPEAV12@PEBDPEAPEAU_VipsBlob@@@Z 00000001800393b4     VImage.obj
 0002:0000e3b4       $unwind$?set@VOption@vips@@QEAAPEAV12@PEBDPEA_N@Z 00000001800393b4     VImage.obj
 0002:0000e3c8       $unwind$?set@VOption@vips@@QEAAPEAV12@PEBDN@Z 00000001800393c8     VImage.obj
 0002:0000e3e0       $unwind$?set@VOption@vips@@QEAAPEAV12@PEBDVVImage@2@@Z 00000001800393e0     VImage.obj
 0002:0000e400       $ip2state$?set@VOption@vips@@QEAAPEAV12@PEBDVVImage@2@@Z 0000000180039400     VImage.obj
 0002:0000e418       $unwind$?set@VOption@vips@@QEAAPEAV12@PEBDV?$vector@NV?$allocator@N@std@@@std@@@Z 0000000180039418     VImage.obj
 0002:0000e434       $stateUnwindMap$?set@VOption@vips@@QEAAPEAV12@PEBDV?$vector@NV?$allocator@N@std@@@std@@@Z 0000000180039434     VImage.obj
 0002:0000e440       $ip2state$?set@VOption@vips@@QEAAPEAV12@PEBDV?$vector@NV?$allocator@N@std@@@std@@@Z 0000000180039440     VImage.obj
 0002:0000e458       $unwind$?set@VOption@vips@@QEAAPEAV12@PEBDV?$vector@VVImage@vips@@V?$allocator@VVImage@vips@@@std@@@std@@@Z 0000000180039458     VImage.obj
 0002:0000e478       $stateUnwindMap$?set@VOption@vips@@QEAAPEAV12@PEBDV?$vector@VVImage@vips@@V?$allocator@VVImage@vips@@@std@@@std@@@Z 0000000180039478     VImage.obj
 0002:0000e480       $ip2state$?set@VOption@vips@@QEAAPEAV12@PEBDV?$vector@VVImage@vips@@V?$allocator@VVImage@vips@@@std@@@std@@@Z 0000000180039480     VImage.obj
 0002:0000e498       $unwind$?set_property@vips@@YAXPEAU_VipsObject@@PEBDPEBU_GValue@@@Z 0000000180039498     VImage.obj
 0002:0000e4b0       $unwind$?set_operation@VOption@vips@@QEAAXPEAU_VipsOperation@@@Z 00000001800394b0     VImage.obj
 0002:0000e4c0       $chain$1$?set_operation@VOption@vips@@QEAAXPEAU_VipsOperation@@@Z 00000001800394c0     VImage.obj
 0002:0000e4d8       $chain$2$?set_operation@VOption@vips@@QEAAXPEAU_VipsOperation@@@Z 00000001800394d8     VImage.obj
 0002:0000e4e8       $unwind$?get_operation@VOption@vips@@QEAAXPEAU_VipsOperation@@@Z 00000001800394e8     VImage.obj
 0002:0000e4f4       $chain$3$?get_operation@VOption@vips@@QEAAXPEAU_VipsOperation@@@Z 00000001800394f4     VImage.obj
 0002:0000e514       $chain$4$?get_operation@VOption@vips@@QEAAXPEAU_VipsOperation@@@Z 0000000180039514     VImage.obj
 0002:0000e524       $unwind$?call_option_string@VImage@vips@@SAXPEBD0PEAVVOption@2@@Z 0000000180039524     VImage.obj
 0002:0000e53c       $stateUnwindMap$?call_option_string@VImage@vips@@SAXPEBD0PEAVVOption@2@@Z 000000018003953c     VImage.obj
 0002:0000e558       $ip2state$?call_option_string@VImage@vips@@SAXPEBD0PEAVVOption@2@@Z 0000000180039558     VImage.obj
 0002:0000e590       $unwind$?new_from_file@VImage@vips@@SA?AV12@PEBDPEAVVOption@2@@Z 0000000180039590     VImage.obj
 0002:0000e5b0       $stateUnwindMap$?new_from_file@VImage@vips@@SA?AV12@PEBDPEAVVOption@2@@Z 00000001800395b0     VImage.obj
 0002:0000e5b0       $stateUnwindMap$?new_from_buffer@VImage@vips@@SA?AV12@PEAX_KPEBDPEAVVOption@2@@Z 00000001800395b0     VImage.obj
 0002:0000e5c0       $ip2state$?new_from_file@VImage@vips@@SA?AV12@PEBDPEAVVOption@2@@Z 00000001800395c0     VImage.obj
 0002:0000e5e0       $unwind$?new_from_buffer@VImage@vips@@SA?AV12@PEAX_KPEBDPEAVVOption@2@@Z 00000001800395e0     VImage.obj
 0002:0000e600       $ip2state$?new_from_buffer@VImage@vips@@SA?AV12@PEAX_KPEBDPEAVVOption@2@@Z 0000000180039600     VImage.obj
 0002:0000e620       $unwind$?new_from_image@VImage@vips@@QEAA?AV12@V?$vector@NV?$allocator@N@std@@@std@@@Z 0000000180039620     VImage.obj
 0002:0000e650       $stateUnwindMap$?new_from_image@VImage@vips@@QEAA?AV12@V?$vector@NV?$allocator@N@std@@@std@@@Z 0000000180039650     VImage.obj
 0002:0000e670       $ip2state$?new_from_image@VImage@vips@@QEAA?AV12@V?$vector@NV?$allocator@N@std@@@std@@@Z 0000000180039670     VImage.obj
 0002:0000e6b0       $unwind$_mbsdec_l          00000001800396b0     libucrt:mbsdec.obj
 0002:0000e6b0       $unwind$?new_from_image@VImage@vips@@QEAA?AV12@N@Z 00000001800396b0     VImage.obj
 0002:0000e6bc       $unwind$?new_matrixv@VImage@vips@@SA?AV12@HHZZ 00000001800396bc     VImage.obj
 0002:0000e6d0       $chain$2$?new_matrixv@VImage@vips@@SA?AV12@HHZZ 00000001800396d0     VImage.obj
 0002:0000e6ec       $chain$3$?new_matrixv@VImage@vips@@SA?AV12@HHZZ 00000001800396ec     VImage.obj
 0002:0000e6fc       $unwind$?write@VImage@vips@@QEAA?AV12@V12@@Z 00000001800396fc     VImage.obj
 0002:0000e71c       $stateUnwindMap$?write@VImage@vips@@QEAA?AV12@V12@@Z 000000018003971c     VImage.obj
 0002:0000e730       $ip2state$?write@VImage@vips@@QEAA?AV12@V12@@Z 0000000180039730     VImage.obj
 0002:0000e758       $unwind$?write_to_file@VImage@vips@@QEAAXPEBDPEAVVOption@2@@Z 0000000180039758     VImage.obj
 0002:0000e778       $ip2state$?write_to_file@VImage@vips@@QEAAXPEBDPEAVVOption@2@@Z 0000000180039778     VImage.obj
 0002:0000e790       $unwind$?write_to_buffer@VImage@vips@@QEAAXPEBDPEAPEAXPEA_KPEAVVOption@2@@Z 0000000180039790     VImage.obj
 0002:0000e7b0       $stateUnwindMap$?write_to_buffer@VImage@vips@@QEAAXPEBDPEAPEAXPEA_KPEAVVOption@2@@Z 00000001800397b0     VImage.obj
 0002:0000e7b8       $ip2state$?write_to_buffer@VImage@vips@@QEAAXPEBDPEAPEAXPEA_KPEAVVOption@2@@Z 00000001800397b8     VImage.obj
 0002:0000e7d0       $unwind$?add@VImage@vips@@QEAA?AV12@V12@PEAVVOption@2@@Z 00000001800397d0     VImage.obj
 0002:0000e7e8       $stateUnwindMap$?remainder@VImage@vips@@QEAA?AV12@V12@PEAVVOption@2@@Z 00000001800397e8     VImage.obj
 0002:0000e7e8       $stateUnwindMap$?convsep@VImage@vips@@QEAA?AV12@V12@PEAVVOption@2@@Z 00000001800397e8     VImage.obj
 0002:0000e7e8       $stateUnwindMap$?hist_find_indexed@VImage@vips@@QEAA?AV12@V12@PEAVVOption@2@@Z 00000001800397e8     VImage.obj
 0002:0000e7e8       $stateUnwindMap$?phasecor@VImage@vips@@QEAA?AV12@V12@PEAVVOption@2@@Z 00000001800397e8     VImage.obj
 0002:0000e7e8       $stateUnwindMap$?compass@VImage@vips@@QEAA?AV12@V12@PEAVVOption@2@@Z 00000001800397e8     VImage.obj
 0002:0000e7e8       $stateUnwindMap$?subtract@VImage@vips@@QEAA?AV12@V12@PEAVVOption@2@@Z 00000001800397e8     VImage.obj
 0002:0000e7e8       $stateUnwindMap$?maplut@VImage@vips@@QEAA?AV12@V12@PEAVVOption@2@@Z 00000001800397e8     VImage.obj
 0002:0000e7e8       $stateUnwindMap$?dE76@VImage@vips@@QEAA?AV12@V12@PEAVVOption@2@@Z 00000001800397e8     VImage.obj
 0002:0000e7e8       $stateUnwindMap$?convasep@VImage@vips@@QEAA?AV12@V12@PEAVVOption@2@@Z 00000001800397e8     VImage.obj
 0002:0000e7e8       $stateUnwindMap$?divide@VImage@vips@@QEAA?AV12@V12@PEAVVOption@2@@Z 00000001800397e8     VImage.obj
 0002:0000e7e8       $stateUnwindMap$?add@VImage@vips@@QEAA?AV12@V12@PEAVVOption@2@@Z 00000001800397e8     VImage.obj
 0002:0000e7e8       $stateUnwindMap$?convi@VImage@vips@@QEAA?AV12@V12@PEAVVOption@2@@Z 00000001800397e8     VImage.obj
 0002:0000e7e8       $stateUnwindMap$?convf@VImage@vips@@QEAA?AV12@V12@PEAVVOption@2@@Z 00000001800397e8     VImage.obj
 0002:0000e7e8       $stateUnwindMap$?dE00@VImage@vips@@QEAA?AV12@V12@PEAVVOption@2@@Z 00000001800397e8     VImage.obj
 0002:0000e7e8       $stateUnwindMap$?multiply@VImage@vips@@QEAA?AV12@V12@PEAVVOption@2@@Z 00000001800397e8     VImage.obj
 0002:0000e7e8       $stateUnwindMap$?dECMC@VImage@vips@@QEAA?AV12@V12@PEAVVOption@2@@Z 00000001800397e8     VImage.obj
 0002:0000e7e8       $stateUnwindMap$?conva@VImage@vips@@QEAA?AV12@V12@PEAVVOption@2@@Z 00000001800397e8     VImage.obj
 0002:0000e7e8       $stateUnwindMap$?mapim@VImage@vips@@QEAA?AV12@V12@PEAVVOption@2@@Z 00000001800397e8     VImage.obj
 0002:0000e7e8       $stateUnwindMap$?fastcor@VImage@vips@@QEAA?AV12@V12@PEAVVOption@2@@Z 00000001800397e8     VImage.obj
 0002:0000e7e8       $stateUnwindMap$?freqmult@VImage@vips@@QEAA?AV12@V12@PEAVVOption@2@@Z 00000001800397e8     VImage.obj
 0002:0000e7e8       $stateUnwindMap$?spcor@VImage@vips@@QEAA?AV12@V12@PEAVVOption@2@@Z 00000001800397e8     VImage.obj
 0002:0000e7e8       $stateUnwindMap$?quadratic@VImage@vips@@QEAA?AV12@V12@PEAVVOption@2@@Z 00000001800397e8     VImage.obj
 0002:0000e7e8       $stateUnwindMap$?hist_match@VImage@vips@@QEAA?AV12@V12@PEAVVOption@2@@Z 00000001800397e8     VImage.obj
 0002:0000e7e8       $stateUnwindMap$?recomb@VImage@vips@@QEAA?AV12@V12@PEAVVOption@2@@Z 00000001800397e8     VImage.obj
 0002:0000e7e8       $stateUnwindMap$?conv@VImage@vips@@QEAA?AV12@V12@PEAVVOption@2@@Z 00000001800397e8     VImage.obj
 0002:0000e7e8       $stateUnwindMap$?complexform@VImage@vips@@QEAA?AV12@V12@PEAVVOption@2@@Z 00000001800397e8     VImage.obj
 0002:0000e800       $ip2state$?add@VImage@vips@@QEAA?AV12@V12@PEAVVOption@2@@Z 0000000180039800     VImage.obj
 0002:0000e830       $unwind$?subtract@VImage@vips@@QEAA?AV12@V12@PEAVVOption@2@@Z 0000000180039830     VImage.obj
 0002:0000e848       $ip2state$?subtract@VImage@vips@@QEAA?AV12@V12@PEAVVOption@2@@Z 0000000180039848     VImage.obj
 0002:0000e878       $unwind$?multiply@VImage@vips@@QEAA?AV12@V12@PEAVVOption@2@@Z 0000000180039878     VImage.obj
 0002:0000e890       $ip2state$?multiply@VImage@vips@@QEAA?AV12@V12@PEAVVOption@2@@Z 0000000180039890     VImage.obj
 0002:0000e8c0       $unwind$?divide@VImage@vips@@QEAA?AV12@V12@PEAVVOption@2@@Z 00000001800398c0     VImage.obj
 0002:0000e8d8       $ip2state$?divide@VImage@vips@@QEAA?AV12@V12@PEAVVOption@2@@Z 00000001800398d8     VImage.obj
 0002:0000e908       $unwind$?relational@VImage@vips@@QEAA?AV12@V12@W4VipsOperationRelational@@PEAVVOption@2@@Z 0000000180039908     VImage.obj
 0002:0000e924       $stateUnwindMap$?join@VImage@vips@@QEAA?AV12@V12@W4VipsDirection@@PEAVVOption@2@@Z 0000000180039924     VImage.obj
 0002:0000e924       $stateUnwindMap$?morph@VImage@vips@@QEAA?AV12@V12@W4VipsOperationMorphology@@PEAVVOption@2@@Z 0000000180039924     VImage.obj
 0002:0000e924       $stateUnwindMap$?merge@VImage@vips@@QEAA?AV12@V12@W4VipsDirection@@HHPEAVVOption@2@@Z 0000000180039924     VImage.obj
 0002:0000e924       $stateUnwindMap$?mosaic@VImage@vips@@QEAA?AV12@V12@W4VipsDirection@@HHHHPEAVVOption@2@@Z 0000000180039924     VImage.obj
 0002:0000e924       $stateUnwindMap$?boolean@VImage@vips@@QEAA?AV12@V12@W4VipsOperationBoolean@@PEAVVOption@2@@Z 0000000180039924     VImage.obj
 0002:0000e924       $stateUnwindMap$?match@VImage@vips@@QEAA?AV12@V12@HHHHHHHHPEAVVOption@2@@Z 0000000180039924     VImage.obj
 0002:0000e924       $stateUnwindMap$?mosaic1@VImage@vips@@QEAA?AV12@V12@W4VipsDirection@@HHHHHHHHPEAVVOption@2@@Z 0000000180039924     VImage.obj
 0002:0000e924       $stateUnwindMap$?math2@VImage@vips@@QEAA?AV12@V12@W4VipsOperationMath2@@PEAVVOption@2@@Z 0000000180039924     VImage.obj
 0002:0000e924       $stateUnwindMap$?insert@VImage@vips@@QEAA?AV12@V12@HHPEAVVOption@2@@Z 0000000180039924     VImage.obj
 0002:0000e924       $stateUnwindMap$?relational@VImage@vips@@QEAA?AV12@V12@W4VipsOperationRelational@@PEAVVOption@2@@Z 0000000180039924     VImage.obj
 0002:0000e924       $stateUnwindMap$?complex2@VImage@vips@@QEAA?AV12@V12@W4VipsOperationComplex2@@PEAVVOption@2@@Z 0000000180039924     VImage.obj
 0002:0000e940       $ip2state$?relational@VImage@vips@@QEAA?AV12@V12@W4VipsOperationRelational@@PEAVVOption@2@@Z 0000000180039940     VImage.obj
 0002:0000e970       $unwind$?remainder@VImage@vips@@QEAA?AV12@V12@PEAVVOption@2@@Z 0000000180039970     VImage.obj
 0002:0000e988       $ip2state$?remainder@VImage@vips@@QEAA?AV12@V12@PEAVVOption@2@@Z 0000000180039988     VImage.obj
 0002:0000e9b8       $unwind$?boolean@VImage@vips@@QEAA?AV12@V12@W4VipsOperationBoolean@@PEAVVOption@2@@Z 00000001800399b8     VImage.obj
 0002:0000e9d8       $ip2state$?boolean@VImage@vips@@QEAA?AV12@V12@W4VipsOperationBoolean@@PEAVVOption@2@@Z 00000001800399d8     VImage.obj
 0002:0000ea08       $unwind$?math2@VImage@vips@@QEAA?AV12@V12@W4VipsOperationMath2@@PEAVVOption@2@@Z 0000000180039a08     VImage.obj
 0002:0000ea28       $ip2state$?math2@VImage@vips@@QEAA?AV12@V12@W4VipsOperationMath2@@PEAVVOption@2@@Z 0000000180039a28     VImage.obj
 0002:0000ea58       $unwind$?complex2@VImage@vips@@QEAA?AV12@V12@W4VipsOperationComplex2@@PEAVVOption@2@@Z 0000000180039a58     VImage.obj
 0002:0000ea78       $ip2state$?complex2@VImage@vips@@QEAA?AV12@V12@W4VipsOperationComplex2@@PEAVVOption@2@@Z 0000000180039a78     VImage.obj
 0002:0000eaa8       $unwind$?complexform@VImage@vips@@QEAA?AV12@V12@PEAVVOption@2@@Z 0000000180039aa8     VImage.obj
 0002:0000eac0       $ip2state$?complexform@VImage@vips@@QEAA?AV12@V12@PEAVVOption@2@@Z 0000000180039ac0     VImage.obj
 0002:0000eaf0       $unwind$?sum@VImage@vips@@SA?AV12@V?$vector@VVImage@vips@@V?$allocator@VVImage@vips@@@std@@@std@@PEAVVOption@2@@Z 0000000180039af0     VImage.obj
 0002:0000eb08       $stateUnwindMap$?sum@VImage@vips@@SA?AV12@V?$vector@VVImage@vips@@V?$allocator@VVImage@vips@@@std@@@std@@PEAVVOption@2@@Z 0000000180039b08     VImage.obj
 0002:0000eb08       $stateUnwindMap$?bandjoin@VImage@vips@@SA?AV12@V?$vector@VVImage@vips@@V?$allocator@VVImage@vips@@@std@@@std@@PEAVVOption@2@@Z 0000000180039b08     VImage.obj
 0002:0000eb08       $stateUnwindMap$?arrayjoin@VImage@vips@@SA?AV12@V?$vector@VVImage@vips@@V?$allocator@VVImage@vips@@@std@@@std@@PEAVVOption@2@@Z 0000000180039b08     VImage.obj
 0002:0000eb08       $stateUnwindMap$?bandrank@VImage@vips@@SA?AV12@V?$vector@VVImage@vips@@V?$allocator@VVImage@vips@@@std@@@std@@PEAVVOption@2@@Z 0000000180039b08     VImage.obj
 0002:0000eb18       $ip2state$?sum@VImage@vips@@SA?AV12@V?$vector@VVImage@vips@@V?$allocator@VVImage@vips@@@std@@@std@@PEAVVOption@2@@Z 0000000180039b18     VImage.obj
 0002:0000eb38       $unwind$?invert@VImage@vips@@QEAA?AV12@PEAVVOption@2@@Z 0000000180039b38     VImage.obj
 0002:0000eb50       $stateUnwindMap$?bandmean@VImage@vips@@QEAA?AV12@PEAVVOption@2@@Z 0000000180039b50     VImage.obj
 0002:0000eb50       $stateUnwindMap$?autorot@VImage@vips@@QEAA?AV12@PEAVVOption@2@@Z 0000000180039b50     VImage.obj
 0002:0000eb50       $stateUnwindMap$?LabQ2sRGB@VImage@vips@@QEAA?AV12@PEAVVOption@2@@Z 0000000180039b50     VImage.obj
 0002:0000eb50       $stateUnwindMap$?rot45@VImage@vips@@QEAA?AV12@PEAVVOption@2@@Z 0000000180039b50     VImage.obj
 0002:0000eb50       $stateUnwindMap$?hist_equal@VImage@vips@@QEAA?AV12@PEAVVOption@2@@Z 0000000180039b50     VImage.obj
 0002:0000eb50       $stateUnwindMap$?copy@VImage@vips@@QEAA?AV12@PEAVVOption@2@@Z 0000000180039b50     VImage.obj
 0002:0000eb50       $stateUnwindMap$?bandfold@VImage@vips@@QEAA?AV12@PEAVVOption@2@@Z 0000000180039b50     VImage.obj
 0002:0000eb50       $stateUnwindMap$?wrap@VImage@vips@@QEAA?AV12@PEAVVOption@2@@Z 0000000180039b50     VImage.obj
 0002:0000eb50       $stateUnwindMap$?hist_plot@VImage@vips@@QEAA?AV12@PEAVVOption@2@@Z 0000000180039b50     VImage.obj
 0002:0000eb50       $stateUnwindMap$?hist_norm@VImage@vips@@QEAA?AV12@PEAVVOption@2@@Z 0000000180039b50     VImage.obj
 0002:0000eb50       $stateUnwindMap$?scRGB2sRGB@VImage@vips@@QEAA?AV12@PEAVVOption@2@@Z 0000000180039b50     VImage.obj
 0002:0000eb50       $stateUnwindMap$?msb@VImage@vips@@QEAA?AV12@PEAVVOption@2@@Z 0000000180039b50     VImage.obj
 0002:0000eb50       $stateUnwindMap$?bandunfold@VImage@vips@@QEAA?AV12@PEAVVOption@2@@Z 0000000180039b50     VImage.obj
 0002:0000eb50       $stateUnwindMap$?rad2float@VImage@vips@@QEAA?AV12@PEAVVOption@2@@Z 0000000180039b50     VImage.obj
 0002:0000eb50       $stateUnwindMap$?scRGB2BW@VImage@vips@@QEAA?AV12@PEAVVOption@2@@Z 0000000180039b50     VImage.obj
 0002:0000eb50       $stateUnwindMap$?byteswap@VImage@vips@@QEAA?AV12@PEAVVOption@2@@Z 0000000180039b50     VImage.obj
 0002:0000eb50       $stateUnwindMap$?Lab2LabS@VImage@vips@@QEAA?AV12@PEAVVOption@2@@Z 0000000180039b50     VImage.obj
 0002:0000eb50       $stateUnwindMap$?HSV2sRGB@VImage@vips@@QEAA?AV12@PEAVVOption@2@@Z 0000000180039b50     VImage.obj
 0002:0000eb50       $stateUnwindMap$?icc_export@VImage@vips@@QEAA?AV12@PEAVVOption@2@@Z 0000000180039b50     VImage.obj
 0002:0000eb50       $stateUnwindMap$?LabS2Lab@VImage@vips@@QEAA?AV12@PEAVVOption@2@@Z 0000000180039b50     VImage.obj
 0002:0000eb50       $stateUnwindMap$?float2rad@VImage@vips@@QEAA?AV12@PEAVVOption@2@@Z 0000000180039b50     VImage.obj
 0002:0000eb50       $stateUnwindMap$?globalbalance@VImage@vips@@QEAA?AV12@PEAVVOption@2@@Z 0000000180039b50     VImage.obj
 0002:0000eb50       $stateUnwindMap$?LabS2LabQ@VImage@vips@@QEAA?AV12@PEAVVOption@2@@Z 0000000180039b50     VImage.obj
 0002:0000eb50       $stateUnwindMap$?icc_import@VImage@vips@@QEAA?AV12@PEAVVOption@2@@Z 0000000180039b50     VImage.obj
 0002:0000eb50       $stateUnwindMap$?invert@VImage@vips@@QEAA?AV12@PEAVVOption@2@@Z 0000000180039b50     VImage.obj
 0002:0000eb50       $stateUnwindMap$?falsecolour@VImage@vips@@QEAA?AV12@PEAVVOption@2@@Z 0000000180039b50     VImage.obj
 0002:0000eb50       $stateUnwindMap$?LabQ2LabS@VImage@vips@@QEAA?AV12@PEAVVOption@2@@Z 0000000180039b50     VImage.obj
 0002:0000eb50       $stateUnwindMap$?sRGB2HSV@VImage@vips@@QEAA?AV12@PEAVVOption@2@@Z 0000000180039b50     VImage.obj
 0002:0000eb50       $stateUnwindMap$?abs@VImage@vips@@QEAA?AV12@PEAVVOption@2@@Z 0000000180039b50     VImage.obj
 0002:0000eb50       $stateUnwindMap$?scale@VImage@vips@@QEAA?AV12@PEAVVOption@2@@Z 0000000180039b50     VImage.obj
 0002:0000eb50       $stateUnwindMap$?Lab2LabQ@VImage@vips@@QEAA?AV12@PEAVVOption@2@@Z 0000000180039b50     VImage.obj
 0002:0000eb50       $stateUnwindMap$?sign@VImage@vips@@QEAA?AV12@PEAVVOption@2@@Z 0000000180039b50     VImage.obj
 0002:0000eb50       $stateUnwindMap$?LabQ2Lab@VImage@vips@@QEAA?AV12@PEAVVOption@2@@Z 0000000180039b50     VImage.obj
 0002:0000eb50       $stateUnwindMap$?sRGB2scRGB@VImage@vips@@QEAA?AV12@PEAVVOption@2@@Z 0000000180039b50     VImage.obj
 0002:0000eb50       $stateUnwindMap$?XYZ2scRGB@VImage@vips@@QEAA?AV12@PEAVVOption@2@@Z 0000000180039b50     VImage.obj
 0002:0000eb50       $stateUnwindMap$?stats@VImage@vips@@QEAA?AV12@PEAVVOption@2@@Z 0000000180039b50     VImage.obj
 0002:0000eb50       $stateUnwindMap$?scRGB2XYZ@VImage@vips@@QEAA?AV12@PEAVVOption@2@@Z 0000000180039b50     VImage.obj
 0002:0000eb50       $stateUnwindMap$?similarity@VImage@vips@@QEAA?AV12@PEAVVOption@2@@Z 0000000180039b50     VImage.obj
 0002:0000eb50       $stateUnwindMap$?hist_find@VImage@vips@@QEAA?AV12@PEAVVOption@2@@Z 0000000180039b50     VImage.obj
 0002:0000eb50       $stateUnwindMap$?Yxy2XYZ@VImage@vips@@QEAA?AV12@PEAVVOption@2@@Z 0000000180039b50     VImage.obj
 0002:0000eb50       $stateUnwindMap$?hist_find_ndim@VImage@vips@@QEAA?AV12@PEAVVOption@2@@Z 0000000180039b50     VImage.obj
 0002:0000eb50       $stateUnwindMap$?XYZ2Yxy@VImage@vips@@QEAA?AV12@PEAVVOption@2@@Z 0000000180039b50     VImage.obj
 0002:0000eb50       $stateUnwindMap$?cache@VImage@vips@@QEAA?AV12@PEAVVOption@2@@Z 0000000180039b50     VImage.obj
 0002:0000eb50       $stateUnwindMap$?hough_line@VImage@vips@@QEAA?AV12@PEAVVOption@2@@Z 0000000180039b50     VImage.obj
 0002:0000eb50       $stateUnwindMap$?labelregions@VImage@vips@@QEAA?AV12@PEAVVOption@2@@Z 0000000180039b50     VImage.obj
 0002:0000eb50       $stateUnwindMap$?premultiply@VImage@vips@@QEAA?AV12@PEAVVOption@2@@Z 0000000180039b50     VImage.obj
 0002:0000eb50       $stateUnwindMap$?CMC2LCh@VImage@vips@@QEAA?AV12@PEAVVOption@2@@Z 0000000180039b50     VImage.obj
 0002:0000eb50       $stateUnwindMap$?buildlut@VImage@vips@@QEAA?AV12@PEAVVOption@2@@Z 0000000180039b50     VImage.obj
 0002:0000eb50       $stateUnwindMap$?sequential@VImage@vips@@QEAA?AV12@PEAVVOption@2@@Z 0000000180039b50     VImage.obj
 0002:0000eb50       $stateUnwindMap$?hough_circle@VImage@vips@@QEAA?AV12@PEAVVOption@2@@Z 0000000180039b50     VImage.obj
 0002:0000eb50       $stateUnwindMap$?LCh2CMC@VImage@vips@@QEAA?AV12@PEAVVOption@2@@Z 0000000180039b50     VImage.obj
 0002:0000eb50       $stateUnwindMap$?invertlut@VImage@vips@@QEAA?AV12@PEAVVOption@2@@Z 0000000180039b50     VImage.obj
 0002:0000eb50       $stateUnwindMap$?LCh2Lab@VImage@vips@@QEAA?AV12@PEAVVOption@2@@Z 0000000180039b50     VImage.obj
 0002:0000eb50       $stateUnwindMap$?linecache@VImage@vips@@QEAA?AV12@PEAVVOption@2@@Z 0000000180039b50     VImage.obj
 0002:0000eb50       $stateUnwindMap$?sharpen@VImage@vips@@QEAA?AV12@PEAVVOption@2@@Z 0000000180039b50     VImage.obj
 0002:0000eb50       $stateUnwindMap$?Lab2LCh@VImage@vips@@QEAA?AV12@PEAVVOption@2@@Z 0000000180039b50     VImage.obj
 0002:0000eb50       $stateUnwindMap$?Lab2XYZ@VImage@vips@@QEAA?AV12@PEAVVOption@2@@Z 0000000180039b50     VImage.obj
 0002:0000eb50       $stateUnwindMap$?gamma@VImage@vips@@QEAA?AV12@PEAVVOption@2@@Z 0000000180039b50     VImage.obj
 0002:0000eb50       $stateUnwindMap$?fwfft@VImage@vips@@QEAA?AV12@PEAVVOption@2@@Z 0000000180039b50     VImage.obj
 0002:0000eb50       $stateUnwindMap$?XYZ2Lab@VImage@vips@@QEAA?AV12@PEAVVOption@2@@Z 0000000180039b50     VImage.obj
 0002:0000eb50       $stateUnwindMap$?unpremultiply@VImage@vips@@QEAA?AV12@PEAVVOption@2@@Z 0000000180039b50     VImage.obj
 0002:0000eb50       $stateUnwindMap$?hist_cum@VImage@vips@@QEAA?AV12@PEAVVOption@2@@Z 0000000180039b50     VImage.obj
 0002:0000eb50       $stateUnwindMap$?invfft@VImage@vips@@QEAA?AV12@PEAVVOption@2@@Z 0000000180039b50     VImage.obj
 0002:0000eb50       $stateUnwindMap$?spectrum@VImage@vips@@QEAA?AV12@PEAVVOption@2@@Z 0000000180039b50     VImage.obj
 0002:0000eb50       $stateUnwindMap$?tilecache@VImage@vips@@QEAA?AV12@PEAVVOption@2@@Z 0000000180039b50     VImage.obj
 0002:0000eb50       $stateUnwindMap$?flatten@VImage@vips@@QEAA?AV12@PEAVVOption@2@@Z 0000000180039b50     VImage.obj
 0002:0000eb58       $ip2state$?invert@VImage@vips@@QEAA?AV12@PEAVVOption@2@@Z 0000000180039b58     VImage.obj
 0002:0000eb68       $unwind$?linear@VImage@vips@@QEAA?AV12@V?$vector@NV?$allocator@N@std@@@std@@0PEAVVOption@2@@Z 0000000180039b68     VImage.obj
 0002:0000eb88       $stateUnwindMap$?linear@VImage@vips@@QEAA?AV12@V?$vector@NV?$allocator@N@std@@@std@@0PEAVVOption@2@@Z 0000000180039b88     VImage.obj
 0002:0000ebb0       $ip2state$?linear@VImage@vips@@QEAA?AV12@V?$vector@NV?$allocator@N@std@@@std@@0PEAVVOption@2@@Z 0000000180039bb0     VImage.obj
 0002:0000ebf8       $unwind$?math@VImage@vips@@QEAA?AV12@W4VipsOperationMath@@PEAVVOption@2@@Z 0000000180039bf8     VImage.obj
 0002:0000ec10       $stateUnwindMap$?round@VImage@vips@@QEAA?AV12@W4VipsOperationRound@@PEAVVOption@2@@Z 0000000180039c10     VImage.obj
 0002:0000ec10       $stateUnwindMap$?complex@VImage@vips@@QEAA?AV12@W4VipsOperationComplex@@PEAVVOption@2@@Z 0000000180039c10     VImage.obj
 0002:0000ec10       $stateUnwindMap$?gaussblur@VImage@vips@@QEAA?AV12@NPEAVVOption@2@@Z 0000000180039c10     VImage.obj
 0002:0000ec10       $stateUnwindMap$?math@VImage@vips@@QEAA?AV12@W4VipsOperationMath@@PEAVVOption@2@@Z 0000000180039c10     VImage.obj
 0002:0000ec10       $stateUnwindMap$?flip@VImage@vips@@QEAA?AV12@W4VipsDirection@@PEAVVOption@2@@Z 0000000180039c10     VImage.obj
 0002:0000ec10       $stateUnwindMap$?rot@VImage@vips@@QEAA?AV12@W4VipsAngle@@PEAVVOption@2@@Z 0000000180039c10     VImage.obj
 0002:0000ec10       $stateUnwindMap$?rank@VImage@vips@@QEAA?AV12@HHHPEAVVOption@2@@Z 0000000180039c10     VImage.obj
 0002:0000ec10       $stateUnwindMap$?hist_local@VImage@vips@@QEAA?AV12@HHPEAVVOption@2@@Z 0000000180039c10     VImage.obj
 0002:0000ec10       $stateUnwindMap$?stdif@VImage@vips@@QEAA?AV12@HHPEAVVOption@2@@Z 0000000180039c10     VImage.obj
 0002:0000ec10       $stateUnwindMap$?complexget@VImage@vips@@QEAA?AV12@W4VipsOperationComplexget@@PEAVVOption@2@@Z 0000000180039c10     VImage.obj
 0002:0000ec10       $stateUnwindMap$?grid@VImage@vips@@QEAA?AV12@HHHPEAVVOption@2@@Z 0000000180039c10     VImage.obj
 0002:0000ec10       $stateUnwindMap$?icc_transform@VImage@vips@@QEAA?AV12@PEADPEAVVOption@2@@Z 0000000180039c10     VImage.obj
 0002:0000ec10       $stateUnwindMap$?cast@VImage@vips@@QEAA?AV12@W4VipsBandFormat@@PEAVVOption@2@@Z 0000000180039c10     VImage.obj
 0002:0000ec10       $stateUnwindMap$?replicate@VImage@vips@@QEAA?AV12@HHPEAVVOption@2@@Z 0000000180039c10     VImage.obj
 0002:0000ec10       $stateUnwindMap$?bandbool@VImage@vips@@QEAA?AV12@W4VipsOperationBoolean@@PEAVVOption@2@@Z 0000000180039c10     VImage.obj
 0002:0000ec10       $stateUnwindMap$?shrinkh@VImage@vips@@QEAA?AV12@HPEAVVOption@2@@Z 0000000180039c10     VImage.obj
 0002:0000ec10       $stateUnwindMap$?shrinkv@VImage@vips@@QEAA?AV12@HPEAVVOption@2@@Z 0000000180039c10     VImage.obj
 0002:0000ec10       $stateUnwindMap$?reduceh@VImage@vips@@QEAA?AV12@NPEAVVOption@2@@Z 0000000180039c10     VImage.obj
 0002:0000ec10       $stateUnwindMap$?reducev@VImage@vips@@QEAA?AV12@NPEAVVOption@2@@Z 0000000180039c10     VImage.obj
 0002:0000ec10       $stateUnwindMap$?extract_band@VImage@vips@@QEAA?AV12@HPEAVVOption@2@@Z 0000000180039c10     VImage.obj
 0002:0000ec10       $stateUnwindMap$?smartcrop@VImage@vips@@QEAA?AV12@HHPEAVVOption@2@@Z 0000000180039c10     VImage.obj
 0002:0000ec10       $stateUnwindMap$?extract_area@VImage@vips@@QEAA?AV12@HHHHPEAVVOption@2@@Z 0000000180039c10     VImage.obj
 0002:0000ec10       $stateUnwindMap$?subsample@VImage@vips@@QEAA?AV12@HHPEAVVOption@2@@Z 0000000180039c10     VImage.obj
 0002:0000ec10       $stateUnwindMap$?embed@VImage@vips@@QEAA?AV12@HHHHPEAVVOption@2@@Z 0000000180039c10     VImage.obj
 0002:0000ec10       $stateUnwindMap$?resize@VImage@vips@@QEAA?AV12@NPEAVVOption@2@@Z 0000000180039c10     VImage.obj
 0002:0000ec10       $stateUnwindMap$?colourspace@VImage@vips@@QEAA?AV12@W4VipsInterpretation@@PEAVVOption@2@@Z 0000000180039c10     VImage.obj
 0002:0000ec10       $stateUnwindMap$?project@VImage@vips@@QEAA?AV12@PEAV12@PEAVVOption@2@@Z 0000000180039c10     VImage.obj
 0002:0000ec10       $stateUnwindMap$?profile@VImage@vips@@QEAA?AV12@PEAV12@PEAVVOption@2@@Z 0000000180039c10     VImage.obj
 0002:0000ec10       $stateUnwindMap$?measure@VImage@vips@@QEAA?AV12@HHPEAVVOption@2@@Z 0000000180039c10     VImage.obj
 0002:0000ec10       $stateUnwindMap$?zoom@VImage@vips@@QEAA?AV12@HHPEAVVOption@2@@Z 0000000180039c10     VImage.obj
 0002:0000ec18       $ip2state$?math@VImage@vips@@QEAA?AV12@W4VipsOperationMath@@PEAVVOption@2@@Z 0000000180039c18     VImage.obj
 0002:0000ec28       $unwind$?abs@VImage@vips@@QEAA?AV12@PEAVVOption@2@@Z 0000000180039c28     VImage.obj
 0002:0000ec40       $ip2state$?abs@VImage@vips@@QEAA?AV12@PEAVVOption@2@@Z 0000000180039c40     VImage.obj
 0002:0000ec50       $unwind$?sign@VImage@vips@@QEAA?AV12@PEAVVOption@2@@Z 0000000180039c50     VImage.obj
 0002:0000ec68       $ip2state$?sign@VImage@vips@@QEAA?AV12@PEAVVOption@2@@Z 0000000180039c68     VImage.obj
 0002:0000ec78       $unwind$?round@VImage@vips@@QEAA?AV12@W4VipsOperationRound@@PEAVVOption@2@@Z 0000000180039c78     VImage.obj
 0002:0000ec90       $ip2state$?round@VImage@vips@@QEAA?AV12@W4VipsOperationRound@@PEAVVOption@2@@Z 0000000180039c90     VImage.obj
 0002:0000eca0       $unwind$?relational_const@VImage@vips@@QEAA?AV12@W4VipsOperationRelational@@V?$vector@NV?$allocator@N@std@@@std@@PEAVVOption@2@@Z 0000000180039ca0     VImage.obj
 0002:0000ecbc       $stateUnwindMap$?relational_const@VImage@vips@@QEAA?AV12@W4VipsOperationRelational@@V?$vector@NV?$allocator@N@std@@@std@@PEAVVOption@2@@Z 0000000180039cbc     VImage.obj
 0002:0000ecbc       $stateUnwindMap$?math2_const@VImage@vips@@QEAA?AV12@W4VipsOperationMath2@@V?$vector@NV?$allocator@N@std@@@std@@PEAVVOption@2@@Z 0000000180039cbc     VImage.obj
 0002:0000ecbc       $stateUnwindMap$?boolean_const@VImage@vips@@QEAA?AV12@W4VipsOperationBoolean@@V?$vector@NV?$allocator@N@std@@@std@@PEAVVOption@2@@Z 0000000180039cbc     VImage.obj
 0002:0000ecd8       $ip2state$?relational_const@VImage@vips@@QEAA?AV12@W4VipsOperationRelational@@V?$vector@NV?$allocator@N@std@@@std@@PEAVVOption@2@@Z 0000000180039cd8     VImage.obj
 0002:0000ed08       $unwind$?remainder_const@VImage@vips@@QEAA?AV12@V?$vector@NV?$allocator@N@std@@@std@@PEAVVOption@2@@Z 0000000180039d08     VImage.obj
 0002:0000ed24       $stateUnwindMap$?remainder_const@VImage@vips@@QEAA?AV12@V?$vector@NV?$allocator@N@std@@@std@@PEAVVOption@2@@Z 0000000180039d24     VImage.obj
 0002:0000ed24       $stateUnwindMap$?affine@VImage@vips@@QEAA?AV12@V?$vector@NV?$allocator@N@std@@@std@@PEAVVOption@2@@Z 0000000180039d24     VImage.obj
 0002:0000ed24       $stateUnwindMap$?bandjoin_const@VImage@vips@@QEAA?AV12@V?$vector@NV?$allocator@N@std@@@std@@PEAVVOption@2@@Z 0000000180039d24     VImage.obj
 0002:0000ed40       $ip2state$?remainder_const@VImage@vips@@QEAA?AV12@V?$vector@NV?$allocator@N@std@@@std@@PEAVVOption@2@@Z 0000000180039d40     VImage.obj
 0002:0000ed70       $unwind$?boolean_const@VImage@vips@@QEAA?AV12@W4VipsOperationBoolean@@V?$vector@NV?$allocator@N@std@@@std@@PEAVVOption@2@@Z 0000000180039d70     VImage.obj
 0002:0000ed90       $ip2state$?boolean_const@VImage@vips@@QEAA?AV12@W4VipsOperationBoolean@@V?$vector@NV?$allocator@N@std@@@std@@PEAVVOption@2@@Z 0000000180039d90     VImage.obj
 0002:0000edc0       $unwind$?math2_const@VImage@vips@@QEAA?AV12@W4VipsOperationMath2@@V?$vector@NV?$allocator@N@std@@@std@@PEAVVOption@2@@Z 0000000180039dc0     VImage.obj
 0002:0000ede0       $ip2state$?math2_const@VImage@vips@@QEAA?AV12@W4VipsOperationMath2@@V?$vector@NV?$allocator@N@std@@@std@@PEAVVOption@2@@Z 0000000180039de0     VImage.obj
 0002:0000ee10       $unwind$?complex@VImage@vips@@QEAA?AV12@W4VipsOperationComplex@@PEAVVOption@2@@Z 0000000180039e10     VImage.obj
 0002:0000ee28       $ip2state$?complex@VImage@vips@@QEAA?AV12@W4VipsOperationComplex@@PEAVVOption@2@@Z 0000000180039e28     VImage.obj
 0002:0000ee38       $unwind$?complexget@VImage@vips@@QEAA?AV12@W4VipsOperationComplexget@@PEAVVOption@2@@Z 0000000180039e38     VImage.obj
 0002:0000ee50       $ip2state$?complexget@VImage@vips@@QEAA?AV12@W4VipsOperationComplexget@@PEAVVOption@2@@Z 0000000180039e50     VImage.obj
 0002:0000ee60       $unwind$?hist_ismonotonic@VImage@vips@@QEAA_NPEAVVOption@2@@Z 0000000180039e60     VImage.obj
 0002:0000ee60       $unwind$?webpsave_buffer@VImage@vips@@QEAAPEAU_VipsBlob@@PEAVVOption@2@@Z 0000000180039e60     VImage.obj
 0002:0000ee60       $unwind$?tiffsave_buffer@VImage@vips@@QEAAPEAU_VipsBlob@@PEAVVOption@2@@Z 0000000180039e60     VImage.obj
 0002:0000ee60       $unwind$?deviate@VImage@vips@@QEAANPEAVVOption@2@@Z 0000000180039e60     VImage.obj
 0002:0000ee60       $unwind$?avg@VImage@vips@@QEAANPEAVVOption@2@@Z 0000000180039e60     VImage.obj
 0002:0000ee60       $unwind$?min@VImage@vips@@QEAANPEAVVOption@2@@Z 0000000180039e60     VImage.obj
 0002:0000ee60       $unwind$?radsave_buffer@VImage@vips@@QEAAPEAU_VipsBlob@@PEAVVOption@2@@Z 0000000180039e60     VImage.obj
 0002:0000ee60       $unwind$?pngsave_buffer@VImage@vips@@QEAAPEAU_VipsBlob@@PEAVVOption@2@@Z 0000000180039e60     VImage.obj
 0002:0000ee60       $unwind$?max@VImage@vips@@QEAANPEAVVOption@2@@Z 0000000180039e60     VImage.obj
 0002:0000ee60       $unwind$?dzsave_buffer@VImage@vips@@QEAAPEAU_VipsBlob@@PEAVVOption@2@@Z 0000000180039e60     VImage.obj
 0002:0000ee60       $unwind$?hist_entropy@VImage@vips@@QEAANPEAVVOption@2@@Z 0000000180039e60     VImage.obj
 0002:0000ee60       $unwind$?jpegsave_buffer@VImage@vips@@QEAAPEAU_VipsBlob@@PEAVVOption@2@@Z 0000000180039e60     VImage.obj
 0002:0000ee6c       $unwind$?stats@VImage@vips@@QEAA?AV12@PEAVVOption@2@@Z 0000000180039e6c     VImage.obj
 0002:0000ee88       $ip2state$?stats@VImage@vips@@QEAA?AV12@PEAVVOption@2@@Z 0000000180039e88     VImage.obj
 0002:0000ee98       $unwind$?hist_find@VImage@vips@@QEAA?AV12@PEAVVOption@2@@Z 0000000180039e98     VImage.obj
 0002:0000eeb0       $ip2state$?hist_find@VImage@vips@@QEAA?AV12@PEAVVOption@2@@Z 0000000180039eb0     VImage.obj
 0002:0000eec0       $unwind$?hist_find_ndim@VImage@vips@@QEAA?AV12@PEAVVOption@2@@Z 0000000180039ec0     VImage.obj
 0002:0000eed8       $ip2state$?hist_find_ndim@VImage@vips@@QEAA?AV12@PEAVVOption@2@@Z 0000000180039ed8     VImage.obj
 0002:0000eee8       $unwind$?hist_find_indexed@VImage@vips@@QEAA?AV12@V12@PEAVVOption@2@@Z 0000000180039ee8     VImage.obj
 0002:0000ef00       $ip2state$?hist_find_indexed@VImage@vips@@QEAA?AV12@V12@PEAVVOption@2@@Z 0000000180039f00     VImage.obj
 0002:0000ef30       $unwind$?hough_line@VImage@vips@@QEAA?AV12@PEAVVOption@2@@Z 0000000180039f30     VImage.obj
 0002:0000ef48       $ip2state$?hough_line@VImage@vips@@QEAA?AV12@PEAVVOption@2@@Z 0000000180039f48     VImage.obj
 0002:0000ef58       $unwind$?hough_circle@VImage@vips@@QEAA?AV12@PEAVVOption@2@@Z 0000000180039f58     VImage.obj
 0002:0000ef70       $ip2state$?hough_circle@VImage@vips@@QEAA?AV12@PEAVVOption@2@@Z 0000000180039f70     VImage.obj
 0002:0000ef80       $unwind$?project@VImage@vips@@QEAA?AV12@PEAV12@PEAVVOption@2@@Z 0000000180039f80     VImage.obj
 0002:0000ef98       $ip2state$?project@VImage@vips@@QEAA?AV12@PEAV12@PEAVVOption@2@@Z 0000000180039f98     VImage.obj
 0002:0000efa8       $unwind$?profile@VImage@vips@@QEAA?AV12@PEAV12@PEAVVOption@2@@Z 0000000180039fa8     VImage.obj
 0002:0000efc0       $ip2state$?profile@VImage@vips@@QEAA?AV12@PEAV12@PEAVVOption@2@@Z 0000000180039fc0     VImage.obj
 0002:0000efd0       $unwind$?measure@VImage@vips@@QEAA?AV12@HHPEAVVOption@2@@Z 0000000180039fd0     VImage.obj
 0002:0000eff0       $ip2state$?measure@VImage@vips@@QEAA?AV12@HHPEAVVOption@2@@Z 0000000180039ff0     VImage.obj
 0002:0000f000       $unwind$?getpoint@VImage@vips@@QEAA?AV?$vector@NV?$allocator@N@std@@@std@@HHPEAVVOption@2@@Z 000000018003a000     VImage.obj
 0002:0000f01c       $stateUnwindMap$?getpoint@VImage@vips@@QEAA?AV?$vector@NV?$allocator@N@std@@@std@@HHPEAVVOption@2@@Z 000000018003a01c     VImage.obj
 0002:0000f028       $ip2state$?getpoint@VImage@vips@@QEAA?AV?$vector@NV?$allocator@N@std@@@std@@HHPEAVVOption@2@@Z 000000018003a028     VImage.obj
 0002:0000f038       $unwind$?copy@VImage@vips@@QEAA?AV12@PEAVVOption@2@@Z 000000018003a038     VImage.obj
 0002:0000f050       $ip2state$?copy@VImage@vips@@QEAA?AV12@PEAVVOption@2@@Z 000000018003a050     VImage.obj
 0002:0000f060       $unwind$?tilecache@VImage@vips@@QEAA?AV12@PEAVVOption@2@@Z 000000018003a060     VImage.obj
 0002:0000f078       $ip2state$?tilecache@VImage@vips@@QEAA?AV12@PEAVVOption@2@@Z 000000018003a078     VImage.obj
 0002:0000f088       $unwind$?linecache@VImage@vips@@QEAA?AV12@PEAVVOption@2@@Z 000000018003a088     VImage.obj
 0002:0000f0a0       $ip2state$?linecache@VImage@vips@@QEAA?AV12@PEAVVOption@2@@Z 000000018003a0a0     VImage.obj
 0002:0000f0b0       $unwind$?sequential@VImage@vips@@QEAA?AV12@PEAVVOption@2@@Z 000000018003a0b0     VImage.obj
 0002:0000f0c8       $ip2state$?sequential@VImage@vips@@QEAA?AV12@PEAVVOption@2@@Z 000000018003a0c8     VImage.obj
 0002:0000f0d8       $unwind$?cache@VImage@vips@@QEAA?AV12@PEAVVOption@2@@Z 000000018003a0d8     VImage.obj
 0002:0000f0f0       $ip2state$?cache@VImage@vips@@QEAA?AV12@PEAVVOption@2@@Z 000000018003a0f0     VImage.obj
 0002:0000f100       $unwind$?embed@VImage@vips@@QEAA?AV12@HHHHPEAVVOption@2@@Z 000000018003a100     VImage.obj
 0002:0000f120       $ip2state$?embed@VImage@vips@@QEAA?AV12@HHHHPEAVVOption@2@@Z 000000018003a120     VImage.obj
 0002:0000f130       $unwind$?flip@VImage@vips@@QEAA?AV12@W4VipsDirection@@PEAVVOption@2@@Z 000000018003a130     VImage.obj
 0002:0000f148       $ip2state$?flip@VImage@vips@@QEAA?AV12@W4VipsDirection@@PEAVVOption@2@@Z 000000018003a148     VImage.obj
 0002:0000f158       $unwind$?insert@VImage@vips@@QEAA?AV12@V12@HHPEAVVOption@2@@Z 000000018003a158     VImage.obj
 0002:0000f178       $ip2state$?insert@VImage@vips@@QEAA?AV12@V12@HHPEAVVOption@2@@Z 000000018003a178     VImage.obj
 0002:0000f1a8       $unwind$?join@VImage@vips@@QEAA?AV12@V12@W4VipsDirection@@PEAVVOption@2@@Z 000000018003a1a8     VImage.obj
 0002:0000f1c8       $ip2state$?join@VImage@vips@@QEAA?AV12@V12@W4VipsDirection@@PEAVVOption@2@@Z 000000018003a1c8     VImage.obj
 0002:0000f1f8       $unwind$?arrayjoin@VImage@vips@@SA?AV12@V?$vector@VVImage@vips@@V?$allocator@VVImage@vips@@@std@@@std@@PEAVVOption@2@@Z 000000018003a1f8     VImage.obj
 0002:0000f210       $ip2state$?arrayjoin@VImage@vips@@SA?AV12@V?$vector@VVImage@vips@@V?$allocator@VVImage@vips@@@std@@@std@@PEAVVOption@2@@Z 000000018003a210     VImage.obj
 0002:0000f230       $unwind$?extract_area@VImage@vips@@QEAA?AV12@HHHHPEAVVOption@2@@Z 000000018003a230     VImage.obj
 0002:0000f250       $ip2state$?extract_area@VImage@vips@@QEAA?AV12@HHHHPEAVVOption@2@@Z 000000018003a250     VImage.obj
 0002:0000f260       $unwind$?smartcrop@VImage@vips@@QEAA?AV12@HHPEAVVOption@2@@Z 000000018003a260     VImage.obj
 0002:0000f280       $ip2state$?smartcrop@VImage@vips@@QEAA?AV12@HHPEAVVOption@2@@Z 000000018003a280     VImage.obj
 0002:0000f290       $unwind$?extract_band@VImage@vips@@QEAA?AV12@HPEAVVOption@2@@Z 000000018003a290     VImage.obj
 0002:0000f2a8       $ip2state$?extract_band@VImage@vips@@QEAA?AV12@HPEAVVOption@2@@Z 000000018003a2a8     VImage.obj
 0002:0000f2b8       $unwind$?bandjoin@VImage@vips@@SA?AV12@V?$vector@VVImage@vips@@V?$allocator@VVImage@vips@@@std@@@std@@PEAVVOption@2@@Z 000000018003a2b8     VImage.obj
 0002:0000f2d0       $ip2state$?bandjoin@VImage@vips@@SA?AV12@V?$vector@VVImage@vips@@V?$allocator@VVImage@vips@@@std@@@std@@PEAVVOption@2@@Z 000000018003a2d0     VImage.obj
 0002:0000f2f0       $unwind$?bandjoin_const@VImage@vips@@QEAA?AV12@V?$vector@NV?$allocator@N@std@@@std@@PEAVVOption@2@@Z 000000018003a2f0     VImage.obj
 0002:0000f310       $ip2state$?bandjoin_const@VImage@vips@@QEAA?AV12@V?$vector@NV?$allocator@N@std@@@std@@PEAVVOption@2@@Z 000000018003a310     VImage.obj
 0002:0000f340       $unwind$?bandrank@VImage@vips@@SA?AV12@V?$vector@VVImage@vips@@V?$allocator@VVImage@vips@@@std@@@std@@PEAVVOption@2@@Z 000000018003a340     VImage.obj
 0002:0000f358       $ip2state$?bandrank@VImage@vips@@SA?AV12@V?$vector@VVImage@vips@@V?$allocator@VVImage@vips@@@std@@@std@@PEAVVOption@2@@Z 000000018003a358     VImage.obj
 0002:0000f378       $unwind$?bandmean@VImage@vips@@QEAA?AV12@PEAVVOption@2@@Z 000000018003a378     VImage.obj
 0002:0000f390       $ip2state$?bandmean@VImage@vips@@QEAA?AV12@PEAVVOption@2@@Z 000000018003a390     VImage.obj
 0002:0000f3a0       $unwind$?bandbool@VImage@vips@@QEAA?AV12@W4VipsOperationBoolean@@PEAVVOption@2@@Z 000000018003a3a0     VImage.obj
 0002:0000f3b8       $ip2state$?bandbool@VImage@vips@@QEAA?AV12@W4VipsOperationBoolean@@PEAVVOption@2@@Z 000000018003a3b8     VImage.obj
 0002:0000f3c8       $unwind$?replicate@VImage@vips@@QEAA?AV12@HHPEAVVOption@2@@Z 000000018003a3c8     VImage.obj
 0002:0000f3e8       $ip2state$?replicate@VImage@vips@@QEAA?AV12@HHPEAVVOption@2@@Z 000000018003a3e8     VImage.obj
 0002:0000f3f8       $unwind$?cast@VImage@vips@@QEAA?AV12@W4VipsBandFormat@@PEAVVOption@2@@Z 000000018003a3f8     VImage.obj
 0002:0000f410       $ip2state$?cast@VImage@vips@@QEAA?AV12@W4VipsBandFormat@@PEAVVOption@2@@Z 000000018003a410     VImage.obj
 0002:0000f420       $unwind$?rot@VImage@vips@@QEAA?AV12@W4VipsAngle@@PEAVVOption@2@@Z 000000018003a420     VImage.obj
 0002:0000f438       $ip2state$?rot@VImage@vips@@QEAA?AV12@W4VipsAngle@@PEAVVOption@2@@Z 000000018003a438     VImage.obj
 0002:0000f448       $unwind$?rot45@VImage@vips@@QEAA?AV12@PEAVVOption@2@@Z 000000018003a448     VImage.obj
 0002:0000f460       $ip2state$?rot45@VImage@vips@@QEAA?AV12@PEAVVOption@2@@Z 000000018003a460     VImage.obj
 0002:0000f470       $unwind$?autorot@VImage@vips@@QEAA?AV12@PEAVVOption@2@@Z 000000018003a470     VImage.obj
 0002:0000f488       $ip2state$?autorot@VImage@vips@@QEAA?AV12@PEAVVOption@2@@Z 000000018003a488     VImage.obj
 0002:0000f498       $unwind$?ifthenelse@VImage@vips@@QEAA?AV12@V12@0PEAVVOption@2@@Z 000000018003a498     VImage.obj
 0002:0000f4b4       $stateUnwindMap$?ifthenelse@VImage@vips@@QEAA?AV12@V12@0PEAVVOption@2@@Z 000000018003a4b4     VImage.obj
 0002:0000f4e0       $ip2state$?ifthenelse@VImage@vips@@QEAA?AV12@V12@0PEAVVOption@2@@Z 000000018003a4e0     VImage.obj
 0002:0000f528       $unwind$?recomb@VImage@vips@@QEAA?AV12@V12@PEAVVOption@2@@Z 000000018003a528     VImage.obj
 0002:0000f540       $ip2state$?recomb@VImage@vips@@QEAA?AV12@V12@PEAVVOption@2@@Z 000000018003a540     VImage.obj
 0002:0000f570       $unwind$?bandfold@VImage@vips@@QEAA?AV12@PEAVVOption@2@@Z 000000018003a570     VImage.obj
 0002:0000f588       $ip2state$?bandfold@VImage@vips@@QEAA?AV12@PEAVVOption@2@@Z 000000018003a588     VImage.obj
 0002:0000f598       $unwind$?bandunfold@VImage@vips@@QEAA?AV12@PEAVVOption@2@@Z 000000018003a598     VImage.obj
 0002:0000f5b0       $ip2state$?bandunfold@VImage@vips@@QEAA?AV12@PEAVVOption@2@@Z 000000018003a5b0     VImage.obj
 0002:0000f5c0       $unwind$?flatten@VImage@vips@@QEAA?AV12@PEAVVOption@2@@Z 000000018003a5c0     VImage.obj
 0002:0000f5d8       $ip2state$?flatten@VImage@vips@@QEAA?AV12@PEAVVOption@2@@Z 000000018003a5d8     VImage.obj
 0002:0000f5e8       $unwind$?premultiply@VImage@vips@@QEAA?AV12@PEAVVOption@2@@Z 000000018003a5e8     VImage.obj
 0002:0000f600       $ip2state$?premultiply@VImage@vips@@QEAA?AV12@PEAVVOption@2@@Z 000000018003a600     VImage.obj
 0002:0000f610       $unwind$?unpremultiply@VImage@vips@@QEAA?AV12@PEAVVOption@2@@Z 000000018003a610     VImage.obj
 0002:0000f628       $ip2state$?unpremultiply@VImage@vips@@QEAA?AV12@PEAVVOption@2@@Z 000000018003a628     VImage.obj
 0002:0000f638       $unwind$?grid@VImage@vips@@QEAA?AV12@HHHPEAVVOption@2@@Z 000000018003a638     VImage.obj
 0002:0000f658       $ip2state$?grid@VImage@vips@@QEAA?AV12@HHHPEAVVOption@2@@Z 000000018003a658     VImage.obj
 0002:0000f668       $unwind$?scale@VImage@vips@@QEAA?AV12@PEAVVOption@2@@Z 000000018003a668     VImage.obj
 0002:0000f680       $ip2state$?scale@VImage@vips@@QEAA?AV12@PEAVVOption@2@@Z 000000018003a680     VImage.obj
 0002:0000f690       $unwind$?wrap@VImage@vips@@QEAA?AV12@PEAVVOption@2@@Z 000000018003a690     VImage.obj
 0002:0000f6a8       $ip2state$?wrap@VImage@vips@@QEAA?AV12@PEAVVOption@2@@Z 000000018003a6a8     VImage.obj
 0002:0000f6b8       $unwind$?zoom@VImage@vips@@QEAA?AV12@HHPEAVVOption@2@@Z 000000018003a6b8     VImage.obj
 0002:0000f6d8       $ip2state$?zoom@VImage@vips@@QEAA?AV12@HHPEAVVOption@2@@Z 000000018003a6d8     VImage.obj
 0002:0000f6e8       $unwind$?subsample@VImage@vips@@QEAA?AV12@HHPEAVVOption@2@@Z 000000018003a6e8     VImage.obj
 0002:0000f708       $ip2state$?subsample@VImage@vips@@QEAA?AV12@HHPEAVVOption@2@@Z 000000018003a708     VImage.obj
 0002:0000f718       $unwind$?msb@VImage@vips@@QEAA?AV12@PEAVVOption@2@@Z 000000018003a718     VImage.obj
 0002:0000f730       $ip2state$?msb@VImage@vips@@QEAA?AV12@PEAVVOption@2@@Z 000000018003a730     VImage.obj
 0002:0000f740       $unwind$?byteswap@VImage@vips@@QEAA?AV12@PEAVVOption@2@@Z 000000018003a740     VImage.obj
 0002:0000f758       $ip2state$?byteswap@VImage@vips@@QEAA?AV12@PEAVVOption@2@@Z 000000018003a758     VImage.obj
 0002:0000f768       $unwind$?falsecolour@VImage@vips@@QEAA?AV12@PEAVVOption@2@@Z 000000018003a768     VImage.obj
 0002:0000f780       $ip2state$?falsecolour@VImage@vips@@QEAA?AV12@PEAVVOption@2@@Z 000000018003a780     VImage.obj
 0002:0000f790       $unwind$?gamma@VImage@vips@@QEAA?AV12@PEAVVOption@2@@Z 000000018003a790     VImage.obj
 0002:0000f7a8       $ip2state$?gamma@VImage@vips@@QEAA?AV12@PEAVVOption@2@@Z 000000018003a7a8     VImage.obj
 0002:0000f7b8       $unwind$?black@VImage@vips@@SA?AV12@HHPEAVVOption@2@@Z 000000018003a7b8     VImage.obj
 0002:0000f7d0       $stateUnwindMap$?jpegload@VImage@vips@@SA?AV12@PEADPEAVVOption@2@@Z 000000018003a7d0     VImage.obj
 0002:0000f7d0       $stateUnwindMap$?text@VImage@vips@@SA?AV12@PEADPEAVVOption@2@@Z 000000018003a7d0     VImage.obj
 0002:0000f7d0       $stateUnwindMap$?pdfload@VImage@vips@@SA?AV12@PEADPEAVVOption@2@@Z 000000018003a7d0     VImage.obj
 0002:0000f7d0       $stateUnwindMap$?worley@VImage@vips@@SA?AV12@HHPEAVVOption@2@@Z 000000018003a7d0     VImage.obj
 0002:0000f7d0       $stateUnwindMap$?openexrload@VImage@vips@@SA?AV12@PEADPEAVVOption@2@@Z 000000018003a7d0     VImage.obj
 0002:0000f7d0       $stateUnwindMap$?sines@VImage@vips@@SA?AV12@HHPEAVVOption@2@@Z 000000018003a7d0     VImage.obj
 0002:0000f7d0       $stateUnwindMap$?gifload_buffer@VImage@vips@@SA?AV12@PEAU_VipsBlob@@PEAVVOption@2@@Z 000000018003a7d0     VImage.obj
 0002:0000f7d0       $stateUnwindMap$?magickload@VImage@vips@@SA?AV12@PEADPEAVVOption@2@@Z 000000018003a7d0     VImage.obj
 0002:0000f7d0       $stateUnwindMap$?pngload@VImage@vips@@SA?AV12@PEADPEAVVOption@2@@Z 000000018003a7d0     VImage.obj
 0002:0000f7d0       $stateUnwindMap$?tiffload@VImage@vips@@SA?AV12@PEADPEAVVOption@2@@Z 000000018003a7d0     VImage.obj
 0002:0000f7d0       $stateUnwindMap$?gaussnoise@VImage@vips@@SA?AV12@HHPEAVVOption@2@@Z 000000018003a7d0     VImage.obj
 0002:0000f7d0       $stateUnwindMap$?svgload_buffer@VImage@vips@@SA?AV12@PEAU_VipsBlob@@PEAVVOption@2@@Z 000000018003a7d0     VImage.obj
 0002:0000f7d0       $stateUnwindMap$?matrixload@VImage@vips@@SA?AV12@PEADPEAVVOption@2@@Z 000000018003a7d0     VImage.obj
 0002:0000f7d0       $stateUnwindMap$?xyz@VImage@vips@@SA?AV12@HHPEAVVOption@2@@Z 000000018003a7d0     VImage.obj
 0002:0000f7d0       $stateUnwindMap$?webpload_buffer@VImage@vips@@SA?AV12@PEAU_VipsBlob@@PEAVVOption@2@@Z 000000018003a7d0     VImage.obj
 0002:0000f7d0       $stateUnwindMap$?svgload@VImage@vips@@SA?AV12@PEADPEAVVOption@2@@Z 000000018003a7d0     VImage.obj
 0002:0000f7d0       $stateUnwindMap$?matload@VImage@vips@@SA?AV12@PEADPEAVVOption@2@@Z 000000018003a7d0     VImage.obj
 0002:0000f7d0       $stateUnwindMap$?magickload_buffer@VImage@vips@@SA?AV12@PEAU_VipsBlob@@PEAVVOption@2@@Z 000000018003a7d0     VImage.obj
 0002:0000f7d0       $stateUnwindMap$?grey@VImage@vips@@SA?AV12@HHPEAVVOption@2@@Z 000000018003a7d0     VImage.obj
 0002:0000f7d0       $stateUnwindMap$?thumbnail_buffer@VImage@vips@@SA?AV12@PEAU_VipsBlob@@HPEAVVOption@2@@Z 000000018003a7d0     VImage.obj
 0002:0000f7d0       $stateUnwindMap$?rawload@VImage@vips@@SA?AV12@PEADHHHPEAVVOption@2@@Z 000000018003a7d0     VImage.obj
 0002:0000f7d0       $stateUnwindMap$?perlin@VImage@vips@@SA?AV12@HHPEAVVOption@2@@Z 000000018003a7d0     VImage.obj
 0002:0000f7d0       $stateUnwindMap$?black@VImage@vips@@SA?AV12@HHPEAVVOption@2@@Z 000000018003a7d0     VImage.obj
 0002:0000f7d0       $stateUnwindMap$?vipsload@VImage@vips@@SA?AV12@PEADPEAVVOption@2@@Z 000000018003a7d0     VImage.obj
 0002:0000f7d0       $stateUnwindMap$?jpegload_buffer@VImage@vips@@SA?AV12@PEAU_VipsBlob@@PEAVVOption@2@@Z 000000018003a7d0     VImage.obj
 0002:0000f7d0       $stateUnwindMap$?radload@VImage@vips@@SA?AV12@PEADPEAVVOption@2@@Z 000000018003a7d0     VImage.obj
 0002:0000f7d0       $stateUnwindMap$?tiffload_buffer@VImage@vips@@SA?AV12@PEAU_VipsBlob@@PEAVVOption@2@@Z 000000018003a7d0     VImage.obj
 0002:0000f7d0       $stateUnwindMap$?webpload@VImage@vips@@SA?AV12@PEADPEAVVOption@2@@Z 000000018003a7d0     VImage.obj
 0002:0000f7d0       $stateUnwindMap$?fitsload@VImage@vips@@SA?AV12@PEADPEAVVOption@2@@Z 000000018003a7d0     VImage.obj
 0002:0000f7d0       $stateUnwindMap$?analyzeload@VImage@vips@@SA?AV12@PEADPEAVVOption@2@@Z 000000018003a7d0     VImage.obj
 0002:0000f7d0       $stateUnwindMap$?pngload_buffer@VImage@vips@@SA?AV12@PEAU_VipsBlob@@PEAVVOption@2@@Z 000000018003a7d0     VImage.obj
 0002:0000f7d0       $stateUnwindMap$?identity@VImage@vips@@SA?AV12@PEAVVOption@2@@Z 000000018003a7d0     VImage.obj
 0002:0000f7d0       $stateUnwindMap$?thumbnail@VImage@vips@@SA?AV12@PEADHPEAVVOption@2@@Z 000000018003a7d0     VImage.obj
 0002:0000f7d0       $stateUnwindMap$?openslideload@VImage@vips@@SA?AV12@PEADPEAVVOption@2@@Z 000000018003a7d0     VImage.obj
 0002:0000f7d0       $stateUnwindMap$?tonelut@VImage@vips@@SA?AV12@PEAVVOption@2@@Z 000000018003a7d0     VImage.obj
 0002:0000f7d0       $stateUnwindMap$?ppmload@VImage@vips@@SA?AV12@PEADPEAVVOption@2@@Z 000000018003a7d0     VImage.obj
 0002:0000f7d0       $stateUnwindMap$?gifload@VImage@vips@@SA?AV12@PEADPEAVVOption@2@@Z 000000018003a7d0     VImage.obj
 0002:0000f7d0       $stateUnwindMap$?pdfload_buffer@VImage@vips@@SA?AV12@PEAU_VipsBlob@@PEAVVOption@2@@Z 000000018003a7d0     VImage.obj
 0002:0000f7d0       $stateUnwindMap$?csvload@VImage@vips@@SA?AV12@PEADPEAVVOption@2@@Z 000000018003a7d0     VImage.obj
 0002:0000f7d0       $stateUnwindMap$?eye@VImage@vips@@SA?AV12@HHPEAVVOption@2@@Z 000000018003a7d0     VImage.obj
 0002:0000f7d0       $stateUnwindMap$?zone@VImage@vips@@SA?AV12@HHPEAVVOption@2@@Z 000000018003a7d0     VImage.obj
 0002:0000f7d8       $ip2state$?black@VImage@vips@@SA?AV12@HHPEAVVOption@2@@Z 000000018003a7d8     VImage.obj
 0002:0000f7e8       $unwind$?gaussnoise@VImage@vips@@SA?AV12@HHPEAVVOption@2@@Z 000000018003a7e8     VImage.obj
 0002:0000f800       $ip2state$?gaussnoise@VImage@vips@@SA?AV12@HHPEAVVOption@2@@Z 000000018003a800     VImage.obj
 0002:0000f810       $unwind$?text@VImage@vips@@SA?AV12@PEADPEAVVOption@2@@Z 000000018003a810     VImage.obj
 0002:0000f828       $ip2state$?text@VImage@vips@@SA?AV12@PEADPEAVVOption@2@@Z 000000018003a828     VImage.obj
 0002:0000f838       $unwind$?xyz@VImage@vips@@SA?AV12@HHPEAVVOption@2@@Z 000000018003a838     VImage.obj
 0002:0000f850       $ip2state$?xyz@VImage@vips@@SA?AV12@HHPEAVVOption@2@@Z 000000018003a850     VImage.obj
 0002:0000f860       $unwind$?gaussmat@VImage@vips@@SA?AV12@NNPEAVVOption@2@@Z 000000018003a860     VImage.obj
 0002:0000f878       $stateUnwindMap$?gaussmat@VImage@vips@@SA?AV12@NNPEAVVOption@2@@Z 000000018003a878     VImage.obj
 0002:0000f878       $stateUnwindMap$?logmat@VImage@vips@@SA?AV12@NNPEAVVOption@2@@Z 000000018003a878     VImage.obj
 0002:0000f880       $ip2state$?gaussmat@VImage@vips@@SA?AV12@NNPEAVVOption@2@@Z 000000018003a880     VImage.obj
 0002:0000f890       $unwind$?logmat@VImage@vips@@SA?AV12@NNPEAVVOption@2@@Z 000000018003a890     VImage.obj
 0002:0000f8a8       $ip2state$?logmat@VImage@vips@@SA?AV12@NNPEAVVOption@2@@Z 000000018003a8a8     VImage.obj
 0002:0000f8b8       $unwind$?eye@VImage@vips@@SA?AV12@HHPEAVVOption@2@@Z 000000018003a8b8     VImage.obj
 0002:0000f8d0       $ip2state$?eye@VImage@vips@@SA?AV12@HHPEAVVOption@2@@Z 000000018003a8d0     VImage.obj
 0002:0000f8e0       $unwind$?grey@VImage@vips@@SA?AV12@HHPEAVVOption@2@@Z 000000018003a8e0     VImage.obj
 0002:0000f8f8       $ip2state$?grey@VImage@vips@@SA?AV12@HHPEAVVOption@2@@Z 000000018003a8f8     VImage.obj
 0002:0000f908       $unwind$?zone@VImage@vips@@SA?AV12@HHPEAVVOption@2@@Z 000000018003a908     VImage.obj
 0002:0000f920       $ip2state$?zone@VImage@vips@@SA?AV12@HHPEAVVOption@2@@Z 000000018003a920     VImage.obj
 0002:0000f930       $unwind$?sines@VImage@vips@@SA?AV12@HHPEAVVOption@2@@Z 000000018003a930     VImage.obj
 0002:0000f948       $ip2state$?sines@VImage@vips@@SA?AV12@HHPEAVVOption@2@@Z 000000018003a948     VImage.obj
 0002:0000f958       $unwind$?mask_ideal@VImage@vips@@SA?AV12@HHNPEAVVOption@2@@Z 000000018003a958     VImage.obj
 0002:0000f974       $stateUnwindMap$?mask_gaussian_band@VImage@vips@@SA?AV12@HHNNNNPEAVVOption@2@@Z 000000018003a974     VImage.obj
 0002:0000f974       $stateUnwindMap$?mask_ideal_band@VImage@vips@@SA?AV12@HHNNNPEAVVOption@2@@Z 000000018003a974     VImage.obj
 0002:0000f974       $stateUnwindMap$?mask_fractal@VImage@vips@@SA?AV12@HHNPEAVVOption@2@@Z 000000018003a974     VImage.obj
 0002:0000f974       $stateUnwindMap$?mask_gaussian@VImage@vips@@SA?AV12@HHNNPEAVVOption@2@@Z 000000018003a974     VImage.obj
 0002:0000f974       $stateUnwindMap$?mask_ideal@VImage@vips@@SA?AV12@HHNPEAVVOption@2@@Z 000000018003a974     VImage.obj
 0002:0000f974       $stateUnwindMap$?mask_butterworth_band@VImage@vips@@SA?AV12@HHNNNNNPEAVVOption@2@@Z 000000018003a974     VImage.obj
 0002:0000f974       $stateUnwindMap$?mask_gaussian_ring@VImage@vips@@SA?AV12@HHNNNPEAVVOption@2@@Z 000000018003a974     VImage.obj
 0002:0000f974       $stateUnwindMap$?mask_butterworth_ring@VImage@vips@@SA?AV12@HHNNNNPEAVVOption@2@@Z 000000018003a974     VImage.obj
 0002:0000f974       $stateUnwindMap$?mask_ideal_ring@VImage@vips@@SA?AV12@HHNNPEAVVOption@2@@Z 000000018003a974     VImage.obj
 0002:0000f974       $stateUnwindMap$?fractsurf@VImage@vips@@SA?AV12@HHNPEAVVOption@2@@Z 000000018003a974     VImage.obj
 0002:0000f974       $stateUnwindMap$?mask_butterworth@VImage@vips@@SA?AV12@HHNNNPEAVVOption@2@@Z 000000018003a974     VImage.obj
 0002:0000f980       $ip2state$?mask_ideal@VImage@vips@@SA?AV12@HHNPEAVVOption@2@@Z 000000018003a980     VImage.obj
 0002:0000f990       $unwind$?mask_ideal_ring@VImage@vips@@SA?AV12@HHNNPEAVVOption@2@@Z 000000018003a990     VImage.obj
 0002:0000f9b0       $ip2state$?mask_ideal_ring@VImage@vips@@SA?AV12@HHNNPEAVVOption@2@@Z 000000018003a9b0     VImage.obj
 0002:0000f9c0       $unwind$?mask_ideal_band@VImage@vips@@SA?AV12@HHNNNPEAVVOption@2@@Z 000000018003a9c0     VImage.obj
 0002:0000f9e0       $ip2state$?mask_ideal_band@VImage@vips@@SA?AV12@HHNNNPEAVVOption@2@@Z 000000018003a9e0     VImage.obj
 0002:0000f9f0       $unwind$?mask_butterworth@VImage@vips@@SA?AV12@HHNNNPEAVVOption@2@@Z 000000018003a9f0     VImage.obj
 0002:0000fa10       $ip2state$?mask_butterworth@VImage@vips@@SA?AV12@HHNNNPEAVVOption@2@@Z 000000018003aa10     VImage.obj
 0002:0000fa20       $unwind$?mask_butterworth_ring@VImage@vips@@SA?AV12@HHNNNNPEAVVOption@2@@Z 000000018003aa20     VImage.obj
 0002:0000fa40       $ip2state$?mask_butterworth_ring@VImage@vips@@SA?AV12@HHNNNNPEAVVOption@2@@Z 000000018003aa40     VImage.obj
 0002:0000fa50       $unwind$?mask_butterworth_band@VImage@vips@@SA?AV12@HHNNNNNPEAVVOption@2@@Z 000000018003aa50     VImage.obj
 0002:0000fa70       $ip2state$?mask_butterworth_band@VImage@vips@@SA?AV12@HHNNNNNPEAVVOption@2@@Z 000000018003aa70     VImage.obj
 0002:0000fa80       $unwind$?mask_gaussian@VImage@vips@@SA?AV12@HHNNPEAVVOption@2@@Z 000000018003aa80     VImage.obj
 0002:0000faa0       $ip2state$?mask_gaussian@VImage@vips@@SA?AV12@HHNNPEAVVOption@2@@Z 000000018003aaa0     VImage.obj
 0002:0000fab0       $unwind$?mask_gaussian_ring@VImage@vips@@SA?AV12@HHNNNPEAVVOption@2@@Z 000000018003aab0     VImage.obj
 0002:0000fad0       $ip2state$?mask_gaussian_ring@VImage@vips@@SA?AV12@HHNNNPEAVVOption@2@@Z 000000018003aad0     VImage.obj
 0002:0000fae0       $unwind$?mask_gaussian_band@VImage@vips@@SA?AV12@HHNNNNPEAVVOption@2@@Z 000000018003aae0     VImage.obj
 0002:0000fb00       $ip2state$?mask_gaussian_band@VImage@vips@@SA?AV12@HHNNNNPEAVVOption@2@@Z 000000018003ab00     VImage.obj
 0002:0000fb10       $unwind$?mask_fractal@VImage@vips@@SA?AV12@HHNPEAVVOption@2@@Z 000000018003ab10     VImage.obj
 0002:0000fb30       $ip2state$?mask_fractal@VImage@vips@@SA?AV12@HHNPEAVVOption@2@@Z 000000018003ab30     VImage.obj
 0002:0000fb40       $unwind$?buildlut@VImage@vips@@QEAA?AV12@PEAVVOption@2@@Z 000000018003ab40     VImage.obj
 0002:0000fb58       $ip2state$?buildlut@VImage@vips@@QEAA?AV12@PEAVVOption@2@@Z 000000018003ab58     VImage.obj
 0002:0000fb68       $unwind$?invertlut@VImage@vips@@QEAA?AV12@PEAVVOption@2@@Z 000000018003ab68     VImage.obj
 0002:0000fb80       $ip2state$?invertlut@VImage@vips@@QEAA?AV12@PEAVVOption@2@@Z 000000018003ab80     VImage.obj
 0002:0000fb90       $unwind$?tonelut@VImage@vips@@SA?AV12@PEAVVOption@2@@Z 000000018003ab90     VImage.obj
 0002:0000fba0       $ip2state$?tonelut@VImage@vips@@SA?AV12@PEAVVOption@2@@Z 000000018003aba0     VImage.obj
 0002:0000fbb0       $unwind$?identity@VImage@vips@@SA?AV12@PEAVVOption@2@@Z 000000018003abb0     VImage.obj
 0002:0000fbc0       $ip2state$?identity@VImage@vips@@SA?AV12@PEAVVOption@2@@Z 000000018003abc0     VImage.obj
 0002:0000fbd0       $unwind$?fractsurf@VImage@vips@@SA?AV12@HHNPEAVVOption@2@@Z 000000018003abd0     VImage.obj
 0002:0000fbf0       $ip2state$?fractsurf@VImage@vips@@SA?AV12@HHNPEAVVOption@2@@Z 000000018003abf0     VImage.obj
 0002:0000fc00       $unwind$?worley@VImage@vips@@SA?AV12@HHPEAVVOption@2@@Z 000000018003ac00     VImage.obj
 0002:0000fc18       $ip2state$?worley@VImage@vips@@SA?AV12@HHPEAVVOption@2@@Z 000000018003ac18     VImage.obj
 0002:0000fc28       $unwind$?perlin@VImage@vips@@SA?AV12@HHPEAVVOption@2@@Z 000000018003ac28     VImage.obj
 0002:0000fc40       $ip2state$?perlin@VImage@vips@@SA?AV12@HHPEAVVOption@2@@Z 000000018003ac40     VImage.obj
 0002:0000fc50       $unwind$?csvload@VImage@vips@@SA?AV12@PEADPEAVVOption@2@@Z 000000018003ac50     VImage.obj
 0002:0000fc68       $ip2state$?csvload@VImage@vips@@SA?AV12@PEADPEAVVOption@2@@Z 000000018003ac68     VImage.obj
 0002:0000fc78       $unwind$?matrixload@VImage@vips@@SA?AV12@PEADPEAVVOption@2@@Z 000000018003ac78     VImage.obj
 0002:0000fc90       $ip2state$?matrixload@VImage@vips@@SA?AV12@PEADPEAVVOption@2@@Z 000000018003ac90     VImage.obj
 0002:0000fca0       $unwind$?rawload@VImage@vips@@SA?AV12@PEADHHHPEAVVOption@2@@Z 000000018003aca0     VImage.obj
 0002:0000fcc0       $ip2state$?rawload@VImage@vips@@SA?AV12@PEADHHHPEAVVOption@2@@Z 000000018003acc0     VImage.obj
 0002:0000fcd0       $unwind$?vipsload@VImage@vips@@SA?AV12@PEADPEAVVOption@2@@Z 000000018003acd0     VImage.obj
 0002:0000fce8       $ip2state$?vipsload@VImage@vips@@SA?AV12@PEADPEAVVOption@2@@Z 000000018003ace8     VImage.obj
 0002:0000fcf8       $unwind$?analyzeload@VImage@vips@@SA?AV12@PEADPEAVVOption@2@@Z 000000018003acf8     VImage.obj
 0002:0000fd10       $ip2state$?analyzeload@VImage@vips@@SA?AV12@PEADPEAVVOption@2@@Z 000000018003ad10     VImage.obj
 0002:0000fd20       $unwind$?ppmload@VImage@vips@@SA?AV12@PEADPEAVVOption@2@@Z 000000018003ad20     VImage.obj
 0002:0000fd38       $ip2state$?ppmload@VImage@vips@@SA?AV12@PEADPEAVVOption@2@@Z 000000018003ad38     VImage.obj
 0002:0000fd48       $unwind$?radload@VImage@vips@@SA?AV12@PEADPEAVVOption@2@@Z 000000018003ad48     VImage.obj
 0002:0000fd60       $ip2state$?radload@VImage@vips@@SA?AV12@PEADPEAVVOption@2@@Z 000000018003ad60     VImage.obj
 0002:0000fd70       $unwind$?pdfload@VImage@vips@@SA?AV12@PEADPEAVVOption@2@@Z 000000018003ad70     VImage.obj
 0002:0000fd88       $ip2state$?pdfload@VImage@vips@@SA?AV12@PEADPEAVVOption@2@@Z 000000018003ad88     VImage.obj
 0002:0000fd98       $unwind$?pdfload_buffer@VImage@vips@@SA?AV12@PEAU_VipsBlob@@PEAVVOption@2@@Z 000000018003ad98     VImage.obj
 0002:0000fdb0       $ip2state$?pdfload_buffer@VImage@vips@@SA?AV12@PEAU_VipsBlob@@PEAVVOption@2@@Z 000000018003adb0     VImage.obj
 0002:0000fdc0       $unwind$?svgload@VImage@vips@@SA?AV12@PEADPEAVVOption@2@@Z 000000018003adc0     VImage.obj
 0002:0000fdd8       $ip2state$?svgload@VImage@vips@@SA?AV12@PEADPEAVVOption@2@@Z 000000018003add8     VImage.obj
 0002:0000fde8       $unwind$?svgload_buffer@VImage@vips@@SA?AV12@PEAU_VipsBlob@@PEAVVOption@2@@Z 000000018003ade8     VImage.obj
 0002:0000fe00       $ip2state$?svgload_buffer@VImage@vips@@SA?AV12@PEAU_VipsBlob@@PEAVVOption@2@@Z 000000018003ae00     VImage.obj
 0002:0000fe10       $unwind$?gifload@VImage@vips@@SA?AV12@PEADPEAVVOption@2@@Z 000000018003ae10     VImage.obj
 0002:0000fe28       $ip2state$?gifload@VImage@vips@@SA?AV12@PEADPEAVVOption@2@@Z 000000018003ae28     VImage.obj
 0002:0000fe38       $unwind$?gifload_buffer@VImage@vips@@SA?AV12@PEAU_VipsBlob@@PEAVVOption@2@@Z 000000018003ae38     VImage.obj
 0002:0000fe50       $ip2state$?gifload_buffer@VImage@vips@@SA?AV12@PEAU_VipsBlob@@PEAVVOption@2@@Z 000000018003ae50     VImage.obj
 0002:0000fe60       $unwind$?pngload@VImage@vips@@SA?AV12@PEADPEAVVOption@2@@Z 000000018003ae60     VImage.obj
 0002:0000fe78       $ip2state$?pngload@VImage@vips@@SA?AV12@PEADPEAVVOption@2@@Z 000000018003ae78     VImage.obj
 0002:0000fe88       $unwind$?pngload_buffer@VImage@vips@@SA?AV12@PEAU_VipsBlob@@PEAVVOption@2@@Z 000000018003ae88     VImage.obj
 0002:0000fea0       $ip2state$?pngload_buffer@VImage@vips@@SA?AV12@PEAU_VipsBlob@@PEAVVOption@2@@Z 000000018003aea0     VImage.obj
 0002:0000feb0       $unwind$?matload@VImage@vips@@SA?AV12@PEADPEAVVOption@2@@Z 000000018003aeb0     VImage.obj
 0002:0000fec8       $ip2state$?matload@VImage@vips@@SA?AV12@PEADPEAVVOption@2@@Z 000000018003aec8     VImage.obj
 0002:0000fed8       $unwind$?jpegload@VImage@vips@@SA?AV12@PEADPEAVVOption@2@@Z 000000018003aed8     VImage.obj
 0002:0000fef0       $ip2state$?jpegload@VImage@vips@@SA?AV12@PEADPEAVVOption@2@@Z 000000018003aef0     VImage.obj
 0002:0000ff00       $unwind$?jpegload_buffer@VImage@vips@@SA?AV12@PEAU_VipsBlob@@PEAVVOption@2@@Z 000000018003af00     VImage.obj
 0002:0000ff18       $ip2state$?jpegload_buffer@VImage@vips@@SA?AV12@PEAU_VipsBlob@@PEAVVOption@2@@Z 000000018003af18     VImage.obj
 0002:0000ff28       $unwind$?webpload@VImage@vips@@SA?AV12@PEADPEAVVOption@2@@Z 000000018003af28     VImage.obj
 0002:0000ff40       $ip2state$?webpload@VImage@vips@@SA?AV12@PEADPEAVVOption@2@@Z 000000018003af40     VImage.obj
 0002:0000ff50       $unwind$?webpload_buffer@VImage@vips@@SA?AV12@PEAU_VipsBlob@@PEAVVOption@2@@Z 000000018003af50     VImage.obj
 0002:0000ff68       $ip2state$?webpload_buffer@VImage@vips@@SA?AV12@PEAU_VipsBlob@@PEAVVOption@2@@Z 000000018003af68     VImage.obj
 0002:0000ff78       $unwind$?tiffload@VImage@vips@@SA?AV12@PEADPEAVVOption@2@@Z 000000018003af78     VImage.obj
 0002:0000ff90       $ip2state$?tiffload@VImage@vips@@SA?AV12@PEADPEAVVOption@2@@Z 000000018003af90     VImage.obj
 0002:0000ffa0       $unwind$?tiffload_buffer@VImage@vips@@SA?AV12@PEAU_VipsBlob@@PEAVVOption@2@@Z 000000018003afa0     VImage.obj
 0002:0000ffb8       $ip2state$?tiffload_buffer@VImage@vips@@SA?AV12@PEAU_VipsBlob@@PEAVVOption@2@@Z 000000018003afb8     VImage.obj
 0002:0000ffc8       $unwind$?openslideload@VImage@vips@@SA?AV12@PEADPEAVVOption@2@@Z 000000018003afc8     VImage.obj
 0002:0000ffe0       $ip2state$?openslideload@VImage@vips@@SA?AV12@PEADPEAVVOption@2@@Z 000000018003afe0     VImage.obj
 0002:0000fff0       $unwind$?magickload@VImage@vips@@SA?AV12@PEADPEAVVOption@2@@Z 000000018003aff0     VImage.obj
 0002:00010008       $ip2state$?magickload@VImage@vips@@SA?AV12@PEADPEAVVOption@2@@Z 000000018003b008     VImage.obj
 0002:00010018       $unwind$?magickload_buffer@VImage@vips@@SA?AV12@PEAU_VipsBlob@@PEAVVOption@2@@Z 000000018003b018     VImage.obj
 0002:00010030       $ip2state$?magickload_buffer@VImage@vips@@SA?AV12@PEAU_VipsBlob@@PEAVVOption@2@@Z 000000018003b030     VImage.obj
 0002:00010040       $unwind$?fitsload@VImage@vips@@SA?AV12@PEADPEAVVOption@2@@Z 000000018003b040     VImage.obj
 0002:00010058       $ip2state$?fitsload@VImage@vips@@SA?AV12@PEADPEAVVOption@2@@Z 000000018003b058     VImage.obj
 0002:00010068       $unwind$?openexrload@VImage@vips@@SA?AV12@PEADPEAVVOption@2@@Z 000000018003b068     VImage.obj
 0002:00010080       $ip2state$?openexrload@VImage@vips@@SA?AV12@PEADPEAVVOption@2@@Z 000000018003b080     VImage.obj
 0002:00010090       $unwind$?pngsave@VImage@vips@@QEAAXPEADPEAVVOption@2@@Z 000000018003b090     VImage.obj
 0002:00010090       $unwind$?webpsave@VImage@vips@@QEAAXPEADPEAVVOption@2@@Z 000000018003b090     VImage.obj
 0002:00010090       $unwind$?radsave@VImage@vips@@QEAAXPEADPEAVVOption@2@@Z 000000018003b090     VImage.obj
 0002:00010090       $unwind$?ppmsave@VImage@vips@@QEAAXPEADPEAVVOption@2@@Z 000000018003b090     VImage.obj
 0002:00010090       $unwind$?matrixsave@VImage@vips@@QEAAXPEADPEAVVOption@2@@Z 000000018003b090     VImage.obj
 0002:00010090       $unwind$?rawsave@VImage@vips@@QEAAXPEADPEAVVOption@2@@Z 000000018003b090     VImage.obj
 0002:00010090       $unwind$??$_Uninitialized_copy_al_unchecked1@PEBVVImage@vips@@PEAV12@V?$allocator@VVImage@vips@@@std@@@std@@YAPEAVVImage@vips@@PEBV12@0PEAV12@AEAU?$_Wrap_alloc@V?$allocator@VVImage@vips@@@std@@@0@U_General_ptr_iterator_tag@0@U_Any_tag@0@@Z 000000018003b090     VImage.obj
 0002:00010090       $unwind$?csvsave@VImage@vips@@QEAAXPEADPEAVVOption@2@@Z 000000018003b090     VImage.obj
 0002:00010090       $unwind$?_Reallocate@?$vector@VVImage@vips@@V?$allocator@VVImage@vips@@@std@@@std@@IEAAX_K@Z 000000018003b090     VImage.obj
 0002:00010090       $unwind$?tiffsave@VImage@vips@@QEAAXPEADPEAVVOption@2@@Z 000000018003b090     VImage.obj
 0002:00010090       $unwind$?dzsave@VImage@vips@@QEAAXPEADPEAVVOption@2@@Z 000000018003b090     VImage.obj
 0002:00010090       $unwind$?vipssave@VImage@vips@@QEAAXPEADPEAVVOption@2@@Z 000000018003b090     VImage.obj
 0002:00010090       $unwind$??$_Uninitialized_copy_al_unchecked1@PEAVVImage@vips@@PEAV12@V?$allocator@VVImage@vips@@@std@@@std@@YAPEAVVImage@vips@@PEAV12@00AEAU?$_Wrap_alloc@V?$allocator@VVImage@vips@@@std@@@0@U_General_ptr_iterator_tag@0@U_Any_tag@0@@Z 000000018003b090     VImage.obj
 0002:00010090       $unwind$??$_Uninitialized_move_al_unchecked1@PEAVVImage@vips@@PEAV12@V?$allocator@VVImage@vips@@@std@@@std@@YAPEAVVImage@vips@@PEAV12@00AEAU?$_Wrap_alloc@V?$allocator@VVImage@vips@@@std@@@0@U_General_ptr_iterator_tag@0@U_Any_tag@0@@Z 000000018003b090     VImage.obj
 0002:00010090       $unwind$?rawsave_fd@VImage@vips@@QEAAXHPEAVVOption@2@@Z 000000018003b090     VImage.obj
 0002:00010090       $unwind$?jpegsave@VImage@vips@@QEAAXPEADPEAVVOption@2@@Z 000000018003b090     VImage.obj
 0002:00010090       $unwind$?fitssave@VImage@vips@@QEAAXPEADPEAVVOption@2@@Z 000000018003b090     VImage.obj
 0002:000100a0       $unwind$?matrixprint@VImage@vips@@QEAAXPEAVVOption@2@@Z 000000018003b0a0     VImage.obj
 0002:000100a0       $unwind$?jpegsave_mime@VImage@vips@@QEAAXPEAVVOption@2@@Z 000000018003b0a0     VImage.obj
 0002:000100ac       $unwind$?thumbnail@VImage@vips@@SA?AV12@PEADHPEAVVOption@2@@Z 000000018003b0ac     VImage.obj
 0002:000100c8       $ip2state$?thumbnail@VImage@vips@@SA?AV12@PEADHPEAVVOption@2@@Z 000000018003b0c8     VImage.obj
 0002:000100d8       $unwind$?thumbnail_buffer@VImage@vips@@SA?AV12@PEAU_VipsBlob@@HPEAVVOption@2@@Z 000000018003b0d8     VImage.obj
 0002:000100f0       $ip2state$?thumbnail_buffer@VImage@vips@@SA?AV12@PEAU_VipsBlob@@HPEAVVOption@2@@Z 000000018003b0f0     VImage.obj
 0002:00010100       $unwind$?mapim@VImage@vips@@QEAA?AV12@V12@PEAVVOption@2@@Z 000000018003b100     VImage.obj
 0002:00010118       $ip2state$?mapim@VImage@vips@@QEAA?AV12@V12@PEAVVOption@2@@Z 000000018003b118     VImage.obj
 0002:00010148       $unwind$?shrink@VImage@vips@@QEAA?AV12@NNPEAVVOption@2@@Z 000000018003b148     VImage.obj
 0002:00010168       $stateUnwindMap$?shrink@VImage@vips@@QEAA?AV12@NNPEAVVOption@2@@Z 000000018003b168     VImage.obj
 0002:00010168       $stateUnwindMap$?reduce@VImage@vips@@QEAA?AV12@NNPEAVVOption@2@@Z 000000018003b168     VImage.obj
 0002:00010170       $ip2state$?shrink@VImage@vips@@QEAA?AV12@NNPEAVVOption@2@@Z 000000018003b170     VImage.obj
 0002:00010180       $unwind$?shrinkh@VImage@vips@@QEAA?AV12@HPEAVVOption@2@@Z 000000018003b180     VImage.obj
 0002:00010198       $ip2state$?shrinkh@VImage@vips@@QEAA?AV12@HPEAVVOption@2@@Z 000000018003b198     VImage.obj
 0002:000101a8       $unwind$?shrinkv@VImage@vips@@QEAA?AV12@HPEAVVOption@2@@Z 000000018003b1a8     VImage.obj
 0002:000101c0       $ip2state$?shrinkv@VImage@vips@@QEAA?AV12@HPEAVVOption@2@@Z 000000018003b1c0     VImage.obj
 0002:000101d0       $unwind$?reduceh@VImage@vips@@QEAA?AV12@NPEAVVOption@2@@Z 000000018003b1d0     VImage.obj
 0002:000101f0       $ip2state$?reduceh@VImage@vips@@QEAA?AV12@NPEAVVOption@2@@Z 000000018003b1f0     VImage.obj
 0002:00010200       $unwind$?reducev@VImage@vips@@QEAA?AV12@NPEAVVOption@2@@Z 000000018003b200     VImage.obj
 0002:00010220       $ip2state$?reducev@VImage@vips@@QEAA?AV12@NPEAVVOption@2@@Z 000000018003b220     VImage.obj
 0002:00010230       $unwind$?reduce@VImage@vips@@QEAA?AV12@NNPEAVVOption@2@@Z 000000018003b230     VImage.obj
 0002:00010250       $ip2state$?reduce@VImage@vips@@QEAA?AV12@NNPEAVVOption@2@@Z 000000018003b250     VImage.obj
 0002:00010260       $unwind$?quadratic@VImage@vips@@QEAA?AV12@V12@PEAVVOption@2@@Z 000000018003b260     VImage.obj
 0002:00010278       $ip2state$?quadratic@VImage@vips@@QEAA?AV12@V12@PEAVVOption@2@@Z 000000018003b278     VImage.obj
 0002:000102a8       $unwind$?affine@VImage@vips@@QEAA?AV12@V?$vector@NV?$allocator@N@std@@@std@@PEAVVOption@2@@Z 000000018003b2a8     VImage.obj
 0002:000102c8       $ip2state$?affine@VImage@vips@@QEAA?AV12@V?$vector@NV?$allocator@N@std@@@std@@PEAVVOption@2@@Z 000000018003b2c8     VImage.obj
 0002:000102f8       $unwind$?similarity@VImage@vips@@QEAA?AV12@PEAVVOption@2@@Z 000000018003b2f8     VImage.obj
 0002:00010310       $ip2state$?similarity@VImage@vips@@QEAA?AV12@PEAVVOption@2@@Z 000000018003b310     VImage.obj
 0002:00010320       $unwind$?resize@VImage@vips@@QEAA?AV12@NPEAVVOption@2@@Z 000000018003b320     VImage.obj
 0002:00010340       $ip2state$?resize@VImage@vips@@QEAA?AV12@NPEAVVOption@2@@Z 000000018003b340     VImage.obj
 0002:00010350       $unwind$?colourspace@VImage@vips@@QEAA?AV12@W4VipsInterpretation@@PEAVVOption@2@@Z 000000018003b350     VImage.obj
 0002:00010368       $ip2state$?colourspace@VImage@vips@@QEAA?AV12@W4VipsInterpretation@@PEAVVOption@2@@Z 000000018003b368     VImage.obj
 0002:00010378       $unwind$?Lab2XYZ@VImage@vips@@QEAA?AV12@PEAVVOption@2@@Z 000000018003b378     VImage.obj
 0002:00010390       $ip2state$?Lab2XYZ@VImage@vips@@QEAA?AV12@PEAVVOption@2@@Z 000000018003b390     VImage.obj
 0002:000103a0       $unwind$?XYZ2Lab@VImage@vips@@QEAA?AV12@PEAVVOption@2@@Z 000000018003b3a0     VImage.obj
 0002:000103b8       $ip2state$?XYZ2Lab@VImage@vips@@QEAA?AV12@PEAVVOption@2@@Z 000000018003b3b8     VImage.obj
 0002:000103c8       $unwind$?Lab2LCh@VImage@vips@@QEAA?AV12@PEAVVOption@2@@Z 000000018003b3c8     VImage.obj
 0002:000103e0       $ip2state$?Lab2LCh@VImage@vips@@QEAA?AV12@PEAVVOption@2@@Z 000000018003b3e0     VImage.obj
 0002:000103f0       $unwind$?LCh2Lab@VImage@vips@@QEAA?AV12@PEAVVOption@2@@Z 000000018003b3f0     VImage.obj
 0002:00010408       $ip2state$?LCh2Lab@VImage@vips@@QEAA?AV12@PEAVVOption@2@@Z 000000018003b408     VImage.obj
 0002:00010418       $unwind$?LCh2CMC@VImage@vips@@QEAA?AV12@PEAVVOption@2@@Z 000000018003b418     VImage.obj
 0002:00010430       $ip2state$?LCh2CMC@VImage@vips@@QEAA?AV12@PEAVVOption@2@@Z 000000018003b430     VImage.obj
 0002:00010440       $unwind$?CMC2LCh@VImage@vips@@QEAA?AV12@PEAVVOption@2@@Z 000000018003b440     VImage.obj
 0002:00010458       $ip2state$?CMC2LCh@VImage@vips@@QEAA?AV12@PEAVVOption@2@@Z 000000018003b458     VImage.obj
 0002:00010468       $unwind$?XYZ2Yxy@VImage@vips@@QEAA?AV12@PEAVVOption@2@@Z 000000018003b468     VImage.obj
 0002:00010480       $ip2state$?XYZ2Yxy@VImage@vips@@QEAA?AV12@PEAVVOption@2@@Z 000000018003b480     VImage.obj
 0002:00010490       $unwind$?Yxy2XYZ@VImage@vips@@QEAA?AV12@PEAVVOption@2@@Z 000000018003b490     VImage.obj
 0002:000104a8       $ip2state$?Yxy2XYZ@VImage@vips@@QEAA?AV12@PEAVVOption@2@@Z 000000018003b4a8     VImage.obj
 0002:000104b8       $unwind$?scRGB2XYZ@VImage@vips@@QEAA?AV12@PEAVVOption@2@@Z 000000018003b4b8     VImage.obj
 0002:000104d0       $ip2state$?scRGB2XYZ@VImage@vips@@QEAA?AV12@PEAVVOption@2@@Z 000000018003b4d0     VImage.obj
 0002:000104e0       $unwind$?XYZ2scRGB@VImage@vips@@QEAA?AV12@PEAVVOption@2@@Z 000000018003b4e0     VImage.obj
 0002:000104f8       $ip2state$?XYZ2scRGB@VImage@vips@@QEAA?AV12@PEAVVOption@2@@Z 000000018003b4f8     VImage.obj
 0002:00010508       $unwind$?LabQ2Lab@VImage@vips@@QEAA?AV12@PEAVVOption@2@@Z 000000018003b508     VImage.obj
 0002:00010520       $ip2state$?LabQ2Lab@VImage@vips@@QEAA?AV12@PEAVVOption@2@@Z 000000018003b520     VImage.obj
 0002:00010530       $unwind$?Lab2LabQ@VImage@vips@@QEAA?AV12@PEAVVOption@2@@Z 000000018003b530     VImage.obj
 0002:00010548       $ip2state$?Lab2LabQ@VImage@vips@@QEAA?AV12@PEAVVOption@2@@Z 000000018003b548     VImage.obj
 0002:00010558       $unwind$?LabQ2LabS@VImage@vips@@QEAA?AV12@PEAVVOption@2@@Z 000000018003b558     VImage.obj
 0002:00010570       $ip2state$?LabQ2LabS@VImage@vips@@QEAA?AV12@PEAVVOption@2@@Z 000000018003b570     VImage.obj
 0002:00010580       $unwind$?LabS2LabQ@VImage@vips@@QEAA?AV12@PEAVVOption@2@@Z 000000018003b580     VImage.obj
 0002:00010598       $ip2state$?LabS2LabQ@VImage@vips@@QEAA?AV12@PEAVVOption@2@@Z 000000018003b598     VImage.obj
 0002:000105a8       $unwind$?LabS2Lab@VImage@vips@@QEAA?AV12@PEAVVOption@2@@Z 000000018003b5a8     VImage.obj
 0002:000105c0       $ip2state$?LabS2Lab@VImage@vips@@QEAA?AV12@PEAVVOption@2@@Z 000000018003b5c0     VImage.obj
 0002:000105d0       $unwind$?Lab2LabS@VImage@vips@@QEAA?AV12@PEAVVOption@2@@Z 000000018003b5d0     VImage.obj
 0002:000105e8       $ip2state$?Lab2LabS@VImage@vips@@QEAA?AV12@PEAVVOption@2@@Z 000000018003b5e8     VImage.obj
 0002:000105f8       $unwind$?rad2float@VImage@vips@@QEAA?AV12@PEAVVOption@2@@Z 000000018003b5f8     VImage.obj
 0002:00010610       $ip2state$?rad2float@VImage@vips@@QEAA?AV12@PEAVVOption@2@@Z 000000018003b610     VImage.obj
 0002:00010620       $unwind$?float2rad@VImage@vips@@QEAA?AV12@PEAVVOption@2@@Z 000000018003b620     VImage.obj
 0002:00010638       $ip2state$?float2rad@VImage@vips@@QEAA?AV12@PEAVVOption@2@@Z 000000018003b638     VImage.obj
 0002:00010648       $unwind$?LabQ2sRGB@VImage@vips@@QEAA?AV12@PEAVVOption@2@@Z 000000018003b648     VImage.obj
 0002:00010660       $ip2state$?LabQ2sRGB@VImage@vips@@QEAA?AV12@PEAVVOption@2@@Z 000000018003b660     VImage.obj
 0002:00010670       $unwind$?sRGB2HSV@VImage@vips@@QEAA?AV12@PEAVVOption@2@@Z 000000018003b670     VImage.obj
 0002:00010688       $ip2state$?sRGB2HSV@VImage@vips@@QEAA?AV12@PEAVVOption@2@@Z 000000018003b688     VImage.obj
 0002:00010698       $unwind$?HSV2sRGB@VImage@vips@@QEAA?AV12@PEAVVOption@2@@Z 000000018003b698     VImage.obj
 0002:000106b0       $ip2state$?HSV2sRGB@VImage@vips@@QEAA?AV12@PEAVVOption@2@@Z 000000018003b6b0     VImage.obj
 0002:000106c0       $unwind$?icc_import@VImage@vips@@QEAA?AV12@PEAVVOption@2@@Z 000000018003b6c0     VImage.obj
 0002:000106d8       $ip2state$?icc_import@VImage@vips@@QEAA?AV12@PEAVVOption@2@@Z 000000018003b6d8     VImage.obj
 0002:000106e8       $unwind$?icc_export@VImage@vips@@QEAA?AV12@PEAVVOption@2@@Z 000000018003b6e8     VImage.obj
 0002:00010700       $ip2state$?icc_export@VImage@vips@@QEAA?AV12@PEAVVOption@2@@Z 000000018003b700     VImage.obj
 0002:00010710       $unwind$?icc_transform@VImage@vips@@QEAA?AV12@PEADPEAVVOption@2@@Z 000000018003b710     VImage.obj
 0002:00010728       $ip2state$?icc_transform@VImage@vips@@QEAA?AV12@PEADPEAVVOption@2@@Z 000000018003b728     VImage.obj
 0002:00010738       $unwind$?dE76@VImage@vips@@QEAA?AV12@V12@PEAVVOption@2@@Z 000000018003b738     VImage.obj
 0002:00010750       $ip2state$?dE76@VImage@vips@@QEAA?AV12@V12@PEAVVOption@2@@Z 000000018003b750     VImage.obj
 0002:00010780       $unwind$?dE00@VImage@vips@@QEAA?AV12@V12@PEAVVOption@2@@Z 000000018003b780     VImage.obj
 0002:00010798       $ip2state$?dE00@VImage@vips@@QEAA?AV12@V12@PEAVVOption@2@@Z 000000018003b798     VImage.obj
 0002:000107c8       $unwind$?dECMC@VImage@vips@@QEAA?AV12@V12@PEAVVOption@2@@Z 000000018003b7c8     VImage.obj
 0002:000107e0       $ip2state$?dECMC@VImage@vips@@QEAA?AV12@V12@PEAVVOption@2@@Z 000000018003b7e0     VImage.obj
 0002:00010810       $unwind$?sRGB2scRGB@VImage@vips@@QEAA?AV12@PEAVVOption@2@@Z 000000018003b810     VImage.obj
 0002:00010828       $ip2state$?sRGB2scRGB@VImage@vips@@QEAA?AV12@PEAVVOption@2@@Z 000000018003b828     VImage.obj
 0002:00010838       $unwind$?scRGB2BW@VImage@vips@@QEAA?AV12@PEAVVOption@2@@Z 000000018003b838     VImage.obj
 0002:00010850       $ip2state$?scRGB2BW@VImage@vips@@QEAA?AV12@PEAVVOption@2@@Z 000000018003b850     VImage.obj
 0002:00010860       $unwind$?scRGB2sRGB@VImage@vips@@QEAA?AV12@PEAVVOption@2@@Z 000000018003b860     VImage.obj
 0002:00010878       $ip2state$?scRGB2sRGB@VImage@vips@@QEAA?AV12@PEAVVOption@2@@Z 000000018003b878     VImage.obj
 0002:00010888       $unwind$?maplut@VImage@vips@@QEAA?AV12@V12@PEAVVOption@2@@Z 000000018003b888     VImage.obj
 0002:000108a0       $ip2state$?maplut@VImage@vips@@QEAA?AV12@V12@PEAVVOption@2@@Z 000000018003b8a0     VImage.obj
 0002:000108d0       $unwind$?percent@VImage@vips@@QEAAHNPEAVVOption@2@@Z 000000018003b8d0     VImage.obj
 0002:000108e0       $unwind$?stdif@VImage@vips@@QEAA?AV12@HHPEAVVOption@2@@Z 000000018003b8e0     VImage.obj
 0002:00010900       $ip2state$?stdif@VImage@vips@@QEAA?AV12@HHPEAVVOption@2@@Z 000000018003b900     VImage.obj
 0002:00010910       $unwind$?hist_cum@VImage@vips@@QEAA?AV12@PEAVVOption@2@@Z 000000018003b910     VImage.obj
 0002:00010928       $ip2state$?hist_cum@VImage@vips@@QEAA?AV12@PEAVVOption@2@@Z 000000018003b928     VImage.obj
 0002:00010938       $unwind$?hist_match@VImage@vips@@QEAA?AV12@V12@PEAVVOption@2@@Z 000000018003b938     VImage.obj
 0002:00010950       $ip2state$?hist_match@VImage@vips@@QEAA?AV12@V12@PEAVVOption@2@@Z 000000018003b950     VImage.obj
 0002:00010980       $unwind$?hist_norm@VImage@vips@@QEAA?AV12@PEAVVOption@2@@Z 000000018003b980     VImage.obj
 0002:00010998       $ip2state$?hist_norm@VImage@vips@@QEAA?AV12@PEAVVOption@2@@Z 000000018003b998     VImage.obj
 0002:000109a8       $unwind$?hist_equal@VImage@vips@@QEAA?AV12@PEAVVOption@2@@Z 000000018003b9a8     VImage.obj
 0002:000109c0       $ip2state$?hist_equal@VImage@vips@@QEAA?AV12@PEAVVOption@2@@Z 000000018003b9c0     VImage.obj
 0002:000109d0       $unwind$?hist_plot@VImage@vips@@QEAA?AV12@PEAVVOption@2@@Z 000000018003b9d0     VImage.obj
 0002:000109e8       $ip2state$?hist_plot@VImage@vips@@QEAA?AV12@PEAVVOption@2@@Z 000000018003b9e8     VImage.obj
 0002:000109f8       $unwind$?hist_local@VImage@vips@@QEAA?AV12@HHPEAVVOption@2@@Z 000000018003b9f8     VImage.obj
 0002:00010a18       $ip2state$?hist_local@VImage@vips@@QEAA?AV12@HHPEAVVOption@2@@Z 000000018003ba18     VImage.obj
 0002:00010a28       $unwind$?conv@VImage@vips@@QEAA?AV12@V12@PEAVVOption@2@@Z 000000018003ba28     VImage.obj
 0002:00010a40       $ip2state$?conv@VImage@vips@@QEAA?AV12@V12@PEAVVOption@2@@Z 000000018003ba40     VImage.obj
 0002:00010a70       $unwind$?conva@VImage@vips@@QEAA?AV12@V12@PEAVVOption@2@@Z 000000018003ba70     VImage.obj
 0002:00010a88       $ip2state$?conva@VImage@vips@@QEAA?AV12@V12@PEAVVOption@2@@Z 000000018003ba88     VImage.obj
 0002:00010ab8       $unwind$?convf@VImage@vips@@QEAA?AV12@V12@PEAVVOption@2@@Z 000000018003bab8     VImage.obj
 0002:00010ad0       $ip2state$?convf@VImage@vips@@QEAA?AV12@V12@PEAVVOption@2@@Z 000000018003bad0     VImage.obj
 0002:00010b00       $unwind$?convi@VImage@vips@@QEAA?AV12@V12@PEAVVOption@2@@Z 000000018003bb00     VImage.obj
 0002:00010b18       $ip2state$?convi@VImage@vips@@QEAA?AV12@V12@PEAVVOption@2@@Z 000000018003bb18     VImage.obj
 0002:00010b48       $unwind$?compass@VImage@vips@@QEAA?AV12@V12@PEAVVOption@2@@Z 000000018003bb48     VImage.obj
 0002:00010b60       $ip2state$?compass@VImage@vips@@QEAA?AV12@V12@PEAVVOption@2@@Z 000000018003bb60     VImage.obj
 0002:00010b90       $unwind$?convsep@VImage@vips@@QEAA?AV12@V12@PEAVVOption@2@@Z 000000018003bb90     VImage.obj
 0002:00010ba8       $ip2state$?convsep@VImage@vips@@QEAA?AV12@V12@PEAVVOption@2@@Z 000000018003bba8     VImage.obj
 0002:00010bd8       $unwind$?convasep@VImage@vips@@QEAA?AV12@V12@PEAVVOption@2@@Z 000000018003bbd8     VImage.obj
 0002:00010bf0       $ip2state$?convasep@VImage@vips@@QEAA?AV12@V12@PEAVVOption@2@@Z 000000018003bbf0     VImage.obj
 0002:00010c20       $unwind$?fastcor@VImage@vips@@QEAA?AV12@V12@PEAVVOption@2@@Z 000000018003bc20     VImage.obj
 0002:00010c38       $ip2state$?fastcor@VImage@vips@@QEAA?AV12@V12@PEAVVOption@2@@Z 000000018003bc38     VImage.obj
 0002:00010c68       $unwind$?spcor@VImage@vips@@QEAA?AV12@V12@PEAVVOption@2@@Z 000000018003bc68     VImage.obj
 0002:00010c80       $ip2state$?spcor@VImage@vips@@QEAA?AV12@V12@PEAVVOption@2@@Z 000000018003bc80     VImage.obj
 0002:00010cb0       $unwind$?sharpen@VImage@vips@@QEAA?AV12@PEAVVOption@2@@Z 000000018003bcb0     VImage.obj
 0002:00010cc8       $ip2state$?sharpen@VImage@vips@@QEAA?AV12@PEAVVOption@2@@Z 000000018003bcc8     VImage.obj
 0002:00010cd8       $unwind$?gaussblur@VImage@vips@@QEAA?AV12@NPEAVVOption@2@@Z 000000018003bcd8     VImage.obj
 0002:00010cf8       $ip2state$?gaussblur@VImage@vips@@QEAA?AV12@NPEAVVOption@2@@Z 000000018003bcf8     VImage.obj
 0002:00010d08       $unwind$?fwfft@VImage@vips@@QEAA?AV12@PEAVVOption@2@@Z 000000018003bd08     VImage.obj
 0002:00010d20       $ip2state$?fwfft@VImage@vips@@QEAA?AV12@PEAVVOption@2@@Z 000000018003bd20     VImage.obj
 0002:00010d30       $unwind$?invfft@VImage@vips@@QEAA?AV12@PEAVVOption@2@@Z 000000018003bd30     VImage.obj
 0002:00010d48       $ip2state$?invfft@VImage@vips@@QEAA?AV12@PEAVVOption@2@@Z 000000018003bd48     VImage.obj
 0002:00010d58       $unwind$?freqmult@VImage@vips@@QEAA?AV12@V12@PEAVVOption@2@@Z 000000018003bd58     VImage.obj
 0002:00010d70       $ip2state$?freqmult@VImage@vips@@QEAA?AV12@V12@PEAVVOption@2@@Z 000000018003bd70     VImage.obj
 0002:00010da0       $unwind$?spectrum@VImage@vips@@QEAA?AV12@PEAVVOption@2@@Z 000000018003bda0     VImage.obj
 0002:00010db8       $ip2state$?spectrum@VImage@vips@@QEAA?AV12@PEAVVOption@2@@Z 000000018003bdb8     VImage.obj
 0002:00010dc8       $unwind$?phasecor@VImage@vips@@QEAA?AV12@V12@PEAVVOption@2@@Z 000000018003bdc8     VImage.obj
 0002:00010de0       $ip2state$?phasecor@VImage@vips@@QEAA?AV12@V12@PEAVVOption@2@@Z 000000018003bde0     VImage.obj
 0002:00010e10       $unwind$?morph@VImage@vips@@QEAA?AV12@V12@W4VipsOperationMorphology@@PEAVVOption@2@@Z 000000018003be10     VImage.obj
 0002:00010e30       $ip2state$?morph@VImage@vips@@QEAA?AV12@V12@W4VipsOperationMorphology@@PEAVVOption@2@@Z 000000018003be30     VImage.obj
 0002:00010e60       $unwind$?rank@VImage@vips@@QEAA?AV12@HHHPEAVVOption@2@@Z 000000018003be60     VImage.obj
 0002:00010e80       $ip2state$?rank@VImage@vips@@QEAA?AV12@HHHPEAVVOption@2@@Z 000000018003be80     VImage.obj
 0002:00010e90       $unwind$?countlines@VImage@vips@@QEAANW4VipsDirection@@PEAVVOption@2@@Z 000000018003be90     VImage.obj
 0002:00010ea0       $unwind$?labelregions@VImage@vips@@QEAA?AV12@PEAVVOption@2@@Z 000000018003bea0     VImage.obj
 0002:00010eb8       $ip2state$?labelregions@VImage@vips@@QEAA?AV12@PEAVVOption@2@@Z 000000018003beb8     VImage.obj
 0002:00010ec8       $unwind$?draw_rect@VImage@vips@@QEAAXV?$vector@NV?$allocator@N@std@@@std@@HHHHPEAVVOption@2@@Z 000000018003bec8     VImage.obj
 0002:00010ee4       $stateUnwindMap$?draw_rect@VImage@vips@@QEAAXV?$vector@NV?$allocator@N@std@@@std@@HHHHPEAVVOption@2@@Z 000000018003bee4     VImage.obj
 0002:00010ee4       $stateUnwindMap$?draw_line@VImage@vips@@QEAAXV?$vector@NV?$allocator@N@std@@@std@@HHHHPEAVVOption@2@@Z 000000018003bee4     VImage.obj
 0002:00010ee4       $stateUnwindMap$?draw_circle@VImage@vips@@QEAAXV?$vector@NV?$allocator@N@std@@@std@@HHHPEAVVOption@2@@Z 000000018003bee4     VImage.obj
 0002:00010ee4       $stateUnwindMap$?draw_flood@VImage@vips@@QEAAXV?$vector@NV?$allocator@N@std@@@std@@HHPEAVVOption@2@@Z 000000018003bee4     VImage.obj
 0002:00010ef8       $ip2state$?draw_rect@VImage@vips@@QEAAXV?$vector@NV?$allocator@N@std@@@std@@HHHHPEAVVOption@2@@Z 000000018003bef8     VImage.obj
 0002:00010f20       $unwind$?draw_mask@VImage@vips@@QEAAXV?$vector@NV?$allocator@N@std@@@std@@V12@HHPEAVVOption@2@@Z 000000018003bf20     VImage.obj
 0002:00010f3c       $stateUnwindMap$?draw_mask@VImage@vips@@QEAAXV?$vector@NV?$allocator@N@std@@@std@@V12@HHPEAVVOption@2@@Z 000000018003bf3c     VImage.obj
 0002:00010f60       $ip2state$?draw_mask@VImage@vips@@QEAAXV?$vector@NV?$allocator@N@std@@@std@@V12@HHPEAVVOption@2@@Z 000000018003bf60     VImage.obj
 0002:00010fa0       $unwind$?draw_line@VImage@vips@@QEAAXV?$vector@NV?$allocator@N@std@@@std@@HHHHPEAVVOption@2@@Z 000000018003bfa0     VImage.obj
 0002:00010fc0       $ip2state$?draw_line@VImage@vips@@QEAAXV?$vector@NV?$allocator@N@std@@@std@@HHHHPEAVVOption@2@@Z 000000018003bfc0     VImage.obj
 0002:00010fe8       $unwind$?draw_circle@VImage@vips@@QEAAXV?$vector@NV?$allocator@N@std@@@std@@HHHPEAVVOption@2@@Z 000000018003bfe8     VImage.obj
 0002:00011008       $ip2state$?draw_circle@VImage@vips@@QEAAXV?$vector@NV?$allocator@N@std@@@std@@HHHPEAVVOption@2@@Z 000000018003c008     VImage.obj
 0002:00011030       $unwind$?draw_flood@VImage@vips@@QEAAXV?$vector@NV?$allocator@N@std@@@std@@HHPEAVVOption@2@@Z 000000018003c030     VImage.obj
 0002:00011050       $ip2state$?draw_flood@VImage@vips@@QEAAXV?$vector@NV?$allocator@N@std@@@std@@HHPEAVVOption@2@@Z 000000018003c050     VImage.obj
 0002:00011078       $unwind$?draw_image@VImage@vips@@QEAAXV12@HHPEAVVOption@2@@Z 000000018003c078     VImage.obj
 0002:00011094       $stateUnwindMap$?draw_image@VImage@vips@@QEAAXV12@HHPEAVVOption@2@@Z 000000018003c094     VImage.obj
 0002:000110a8       $ip2state$?draw_image@VImage@vips@@QEAAXV12@HHPEAVVOption@2@@Z 000000018003c0a8     VImage.obj
 0002:000110d0       $unwind$?draw_smudge@VImage@vips@@QEAAXHHHHPEAVVOption@2@@Z 000000018003c0d0     VImage.obj
 0002:000110e4       $unwind$?merge@VImage@vips@@QEAA?AV12@V12@W4VipsDirection@@HHPEAVVOption@2@@Z 000000018003c0e4     VImage.obj
 0002:00011100       $ip2state$?merge@VImage@vips@@QEAA?AV12@V12@W4VipsDirection@@HHPEAVVOption@2@@Z 000000018003c100     VImage.obj
 0002:00011130       $unwind$?mosaic@VImage@vips@@QEAA?AV12@V12@W4VipsDirection@@HHHHPEAVVOption@2@@Z 000000018003c130     VImage.obj
 0002:00011150       $ip2state$?mosaic@VImage@vips@@QEAA?AV12@V12@W4VipsDirection@@HHHHPEAVVOption@2@@Z 000000018003c150     VImage.obj
 0002:00011180       $unwind$?mosaic1@VImage@vips@@QEAA?AV12@V12@W4VipsDirection@@HHHHHHHHPEAVVOption@2@@Z 000000018003c180     VImage.obj
 0002:000111a0       $ip2state$?mosaic1@VImage@vips@@QEAA?AV12@V12@W4VipsDirection@@HHHHHHHHPEAVVOption@2@@Z 000000018003c1a0     VImage.obj
 0002:000111d0       $unwind$?match@VImage@vips@@QEAA?AV12@V12@HHHHHHHHPEAVVOption@2@@Z 000000018003c1d0     VImage.obj
 0002:000111f0       $ip2state$?match@VImage@vips@@QEAA?AV12@V12@HHHHHHHHPEAVVOption@2@@Z 000000018003c1f0     VImage.obj
 0002:00011220       $unwind$?globalbalance@VImage@vips@@QEAA?AV12@PEAVVOption@2@@Z 000000018003c220     VImage.obj
 0002:00011238       $ip2state$?globalbalance@VImage@vips@@QEAA?AV12@PEAVVOption@2@@Z 000000018003c238     VImage.obj
 0002:00011248       $unwind$?bandsplit@VImage@vips@@QEAA?AV?$vector@VVImage@vips@@V?$allocator@VVImage@vips@@@std@@@std@@PEAVVOption@2@@Z 000000018003c248     VImage.obj
 0002:00011260       $stateUnwindMap$?bandsplit@VImage@vips@@QEAA?AV?$vector@VVImage@vips@@V?$allocator@VVImage@vips@@@std@@@std@@PEAVVOption@2@@Z 000000018003c260     VImage.obj
 0002:00011270       $ip2state$?bandsplit@VImage@vips@@QEAA?AV?$vector@VVImage@vips@@V?$allocator@VVImage@vips@@@std@@@std@@PEAVVOption@2@@Z 000000018003c270     VImage.obj
 0002:00011290       $unwind$?bandjoin@VImage@vips@@QEAA?AV12@V12@PEAVVOption@2@@Z 000000018003c290     VImage.obj
 0002:000112ac       $stateUnwindMap$?bandjoin@VImage@vips@@QEAA?AV12@V12@PEAVVOption@2@@Z 000000018003c2ac     VImage.obj
 0002:000112d0       $ip2state$?bandjoin@VImage@vips@@QEAA?AV12@V12@PEAVVOption@2@@Z 000000018003c2d0     VImage.obj
 0002:00011308       $unwind$??Hvips@@YA?AVVImage@0@V10@0@Z 000000018003c308     VImage.obj
 0002:00011320       $stateUnwindMap$??Tvips@@YA?AVVImage@0@V10@0@Z 000000018003c320     VImage.obj
 0002:00011320       $stateUnwindMap$??Dvips@@YA?AVVImage@0@V10@0@Z 000000018003c320     VImage.obj
 0002:00011320       $stateUnwindMap$??Hvips@@YA?AVVImage@0@V10@0@Z 000000018003c320     VImage.obj
 0002:00011320       $stateUnwindMap$??Uvips@@YA?AVVImage@0@V10@0@Z 000000018003c320     VImage.obj
 0002:00011320       $stateUnwindMap$??Nvips@@YA?AVVImage@0@V10@0@Z 000000018003c320     VImage.obj
 0002:00011320       $stateUnwindMap$??Gvips@@YA?AVVImage@0@V10@0@Z 000000018003c320     VImage.obj
 0002:00011320       $stateUnwindMap$??Pvips@@YA?AVVImage@0@V10@0@Z 000000018003c320     VImage.obj
 0002:00011320       $stateUnwindMap$??Lvips@@YA?AVVImage@0@V10@0@Z 000000018003c320     VImage.obj
 0002:00011320       $stateUnwindMap$??Ivips@@YA?AVVImage@0@V10@0@Z 000000018003c320     VImage.obj
 0002:00011320       $stateUnwindMap$??Mvips@@YA?AVVImage@0@V10@0@Z 000000018003c320     VImage.obj
 0002:00011320       $stateUnwindMap$??9vips@@YA?AVVImage@0@V10@0@Z 000000018003c320     VImage.obj
 0002:00011320       $stateUnwindMap$??6vips@@YA?AVVImage@0@V10@0@Z 000000018003c320     VImage.obj
 0002:00011320       $stateUnwindMap$??5vips@@YA?AVVImage@0@V10@0@Z 000000018003c320     VImage.obj
 0002:00011320       $stateUnwindMap$??8vips@@YA?AVVImage@0@V10@0@Z 000000018003c320     VImage.obj
 0002:00011320       $stateUnwindMap$??Ovips@@YA?AVVImage@0@V10@0@Z 000000018003c320     VImage.obj
 0002:00011320       $stateUnwindMap$??Kvips@@YA?AVVImage@0@V10@0@Z 000000018003c320     VImage.obj
 0002:00011330       $ip2state$??Hvips@@YA?AVVImage@0@V10@0@Z 000000018003c330     VImage.obj
 0002:00011350       $unwind$??Hvips@@YA?AVVImage@0@NV10@@Z 000000018003c350     VImage.obj
 0002:00011364       $stateUnwindMap$??Gvips@@YA?AVVImage@0@NV10@@Z 000000018003c364     VImage.obj
 0002:00011364       $stateUnwindMap$??Dvips@@YA?AVVImage@0@NV10@@Z 000000018003c364     VImage.obj
 0002:00011364       $stateUnwindMap$??Hvips@@YA?AVVImage@0@NV10@@Z 000000018003c364     VImage.obj
 0002:00011370       $ip2state$??Hvips@@YA?AVVImage@0@NV10@@Z 000000018003c370     VImage.obj
 0002:00011388       $unwind$??Hvips@@YA?AVVImage@0@V10@N@Z 000000018003c388     VImage.obj
 0002:0001139c       $stateUnwindMap$??Kvips@@YA?AVVImage@0@V10@N@Z 000000018003c39c     VImage.obj
 0002:0001139c       $stateUnwindMap$??Gvips@@YA?AVVImage@0@V10@N@Z 000000018003c39c     VImage.obj
 0002:0001139c       $stateUnwindMap$??Dvips@@YA?AVVImage@0@V10@N@Z 000000018003c39c     VImage.obj
 0002:0001139c       $stateUnwindMap$??Gvips@@YA?AVVImage@0@V10@@Z 000000018003c39c     VImage.obj
 0002:0001139c       $stateUnwindMap$??Hvips@@YA?AVVImage@0@V10@N@Z 000000018003c39c     VImage.obj
 0002:000113a8       $ip2state$??Hvips@@YA?AVVImage@0@V10@N@Z 000000018003c3a8     VImage.obj
 0002:000113c0       $unwind$??Hvips@@YA?AVVImage@0@V?$vector@NV?$allocator@N@std@@@std@@V10@@Z 000000018003c3c0     VImage.obj
 0002:000113d8       $stateUnwindMap$??Nvips@@YA?AVVImage@0@V?$vector@NV?$allocator@N@std@@@std@@V10@@Z 000000018003c3d8     VImage.obj
 0002:000113d8       $stateUnwindMap$??Ivips@@YA?AVVImage@0@V?$vector@NV?$allocator@N@std@@@std@@V10@@Z 000000018003c3d8     VImage.obj
 0002:000113d8       $stateUnwindMap$??Mvips@@YA?AVVImage@0@V?$vector@NV?$allocator@N@std@@@std@@V10@@Z 000000018003c3d8     VImage.obj
 0002:000113d8       $stateUnwindMap$??8vips@@YA?AVVImage@0@V?$vector@NV?$allocator@N@std@@@std@@V10@@Z 000000018003c3d8     VImage.obj
 0002:000113d8       $stateUnwindMap$??Hvips@@YA?AVVImage@0@V?$vector@NV?$allocator@N@std@@@std@@V10@@Z 000000018003c3d8     VImage.obj
 0002:000113d8       $stateUnwindMap$??Uvips@@YA?AVVImage@0@V?$vector@NV?$allocator@N@std@@@std@@V10@@Z 000000018003c3d8     VImage.obj
 0002:000113d8       $stateUnwindMap$??Pvips@@YA?AVVImage@0@V?$vector@NV?$allocator@N@std@@@std@@V10@@Z 000000018003c3d8     VImage.obj
 0002:000113d8       $stateUnwindMap$??Gvips@@YA?AVVImage@0@V?$vector@NV?$allocator@N@std@@@std@@V10@@Z 000000018003c3d8     VImage.obj
 0002:000113d8       $stateUnwindMap$??Ovips@@YA?AVVImage@0@V?$vector@NV?$allocator@N@std@@@std@@V10@@Z 000000018003c3d8     VImage.obj
 0002:000113d8       $stateUnwindMap$??Tvips@@YA?AVVImage@0@V?$vector@NV?$allocator@N@std@@@std@@V10@@Z 000000018003c3d8     VImage.obj
 0002:000113d8       $stateUnwindMap$??9vips@@YA?AVVImage@0@V?$vector@NV?$allocator@N@std@@@std@@V10@@Z 000000018003c3d8     VImage.obj
 0002:000113d8       $stateUnwindMap$??Dvips@@YA?AVVImage@0@V?$vector@NV?$allocator@N@std@@@std@@V10@@Z 000000018003c3d8     VImage.obj
 0002:000113e8       $ip2state$??Hvips@@YA?AVVImage@0@V?$vector@NV?$allocator@N@std@@@std@@V10@@Z 000000018003c3e8     VImage.obj
 0002:00011408       $unwind$??Hvips@@YA?AVVImage@0@V10@V?$vector@NV?$allocator@N@std@@@std@@@Z 000000018003c408     VImage.obj
 0002:00011420       $stateUnwindMap$??Tvips@@YA?AVVImage@0@V10@V?$vector@NV?$allocator@N@std@@@std@@@Z 000000018003c420     VImage.obj
 0002:00011420       $stateUnwindMap$??Ovips@@YA?AVVImage@0@V10@V?$vector@NV?$allocator@N@std@@@std@@@Z 000000018003c420     VImage.obj
 0002:00011420       $stateUnwindMap$??Uvips@@YA?AVVImage@0@V10@V?$vector@NV?$allocator@N@std@@@std@@@Z 000000018003c420     VImage.obj
 0002:00011420       $stateUnwindMap$??Ivips@@YA?AVVImage@0@V10@V?$vector@NV?$allocator@N@std@@@std@@@Z 000000018003c420     VImage.obj
 0002:00011420       $stateUnwindMap$??Mvips@@YA?AVVImage@0@V10@V?$vector@NV?$allocator@N@std@@@std@@@Z 000000018003c420     VImage.obj
 0002:00011420       $stateUnwindMap$??5vips@@YA?AVVImage@0@V10@V?$vector@NV?$allocator@N@std@@@std@@@Z 000000018003c420     VImage.obj
 0002:00011420       $stateUnwindMap$??Hvips@@YA?AVVImage@0@V10@V?$vector@NV?$allocator@N@std@@@std@@@Z 000000018003c420     VImage.obj
 0002:00011420       $stateUnwindMap$??Lvips@@YA?AVVImage@0@V10@V?$vector@NV?$allocator@N@std@@@std@@@Z 000000018003c420     VImage.obj
 0002:00011420       $stateUnwindMap$??Nvips@@YA?AVVImage@0@V10@V?$vector@NV?$allocator@N@std@@@std@@@Z 000000018003c420     VImage.obj
 0002:00011420       $stateUnwindMap$??6vips@@YA?AVVImage@0@V10@V?$vector@NV?$allocator@N@std@@@std@@@Z 000000018003c420     VImage.obj
 0002:00011420       $stateUnwindMap$??9vips@@YA?AVVImage@0@V10@V?$vector@NV?$allocator@N@std@@@std@@@Z 000000018003c420     VImage.obj
 0002:00011420       $stateUnwindMap$??8vips@@YA?AVVImage@0@V10@V?$vector@NV?$allocator@N@std@@@std@@@Z 000000018003c420     VImage.obj
 0002:00011420       $stateUnwindMap$??Pvips@@YA?AVVImage@0@V10@V?$vector@NV?$allocator@N@std@@@std@@@Z 000000018003c420     VImage.obj
 0002:00011420       $stateUnwindMap$??Dvips@@YA?AVVImage@0@V10@V?$vector@NV?$allocator@N@std@@@std@@@Z 000000018003c420     VImage.obj
 0002:00011430       $ip2state$??Hvips@@YA?AVVImage@0@V10@V?$vector@NV?$allocator@N@std@@@std@@@Z 000000018003c430     VImage.obj
 0002:00011450       $unwind$??Yvips@@YAAEAVVImage@0@AEAV10@V10@@Z 000000018003c450     VImage.obj
 0002:00011464       $stateUnwindMap$??_0vips@@YAAEAVVImage@0@AEAV10@V10@@Z 000000018003c464     VImage.obj
 0002:00011464       $stateUnwindMap$??_3vips@@YAAEAVVImage@0@AEAV10@V10@@Z 000000018003c464     VImage.obj
 0002:00011464       $stateUnwindMap$??_6vips@@YAAEAVVImage@0@AEAV10@V10@@Z 000000018003c464     VImage.obj
 0002:00011464       $stateUnwindMap$??Zvips@@YAAEAVVImage@0@AEAV10@V10@@Z 000000018003c464     VImage.obj
 0002:00011464       $stateUnwindMap$??_1vips@@YAAEAVVImage@0@AEAV10@V10@@Z 000000018003c464     VImage.obj
 0002:00011464       $stateUnwindMap$??_2vips@@YAAEAVVImage@0@AEAV10@V10@@Z 000000018003c464     VImage.obj
 0002:00011464       $stateUnwindMap$??_5vips@@YAAEAVVImage@0@AEAV10@V10@@Z 000000018003c464     VImage.obj
 0002:00011464       $stateUnwindMap$??_4vips@@YAAEAVVImage@0@AEAV10@V10@@Z 000000018003c464     VImage.obj
 0002:00011464       $stateUnwindMap$??Xvips@@YAAEAVVImage@0@AEAV10@V10@@Z 000000018003c464     VImage.obj
 0002:00011464       $stateUnwindMap$??Yvips@@YAAEAVVImage@0@AEAV10@V10@@Z 000000018003c464     VImage.obj
 0002:00011470       $ip2state$??Yvips@@YAAEAVVImage@0@AEAV10@V10@@Z 000000018003c470     VImage.obj
 0002:00011488       $unwind$??_4vips@@YAAEAVVImage@0@AEAV10@N@Z 000000018003c488     VImage.obj
 0002:00011488       $unwind$??Yvips@@YAAEAVVImage@0@AEAV10@N@Z 000000018003c488     VImage.obj
 0002:00011488       $unwind$??_3vips@@YAAEAVVImage@0@AEAV10@N@Z 000000018003c488     VImage.obj
 0002:00011488       $unwind$??_0vips@@YAAEAVVImage@0@AEAV10@N@Z 000000018003c488     VImage.obj
 0002:00011488       $unwind$??_6vips@@YAAEAVVImage@0@AEAV10@N@Z 000000018003c488     VImage.obj
 0002:00011488       $unwind$??_2vips@@YAAEAVVImage@0@AEAV10@N@Z 000000018003c488     VImage.obj
 0002:00011488       $unwind$??Zvips@@YAAEAVVImage@0@AEAV10@N@Z 000000018003c488     VImage.obj
 0002:00011488       $unwind$??_1vips@@YAAEAVVImage@0@AEAV10@N@Z 000000018003c488     VImage.obj
 0002:00011488       $unwind$??_5vips@@YAAEAVVImage@0@AEAV10@N@Z 000000018003c488     VImage.obj
 0002:00011488       $unwind$??Xvips@@YAAEAVVImage@0@AEAV10@N@Z 000000018003c488     VImage.obj
 0002:00011494       $unwind$??Yvips@@YAAEAVVImage@0@AEAV10@V?$vector@NV?$allocator@N@std@@@std@@@Z 000000018003c494     VImage.obj
 0002:000114a8       $stateUnwindMap$??_3vips@@YAAEAVVImage@0@AEAV10@V?$vector@NV?$allocator@N@std@@@std@@@Z 000000018003c4a8     VImage.obj
 0002:000114a8       $stateUnwindMap$??_6vips@@YAAEAVVImage@0@AEAV10@V?$vector@NV?$allocator@N@std@@@std@@@Z 000000018003c4a8     VImage.obj
 0002:000114a8       $stateUnwindMap$??Xvips@@YAAEAVVImage@0@AEAV10@V?$vector@NV?$allocator@N@std@@@std@@@Z 000000018003c4a8     VImage.obj
 0002:000114a8       $stateUnwindMap$??_5vips@@YAAEAVVImage@0@AEAV10@V?$vector@NV?$allocator@N@std@@@std@@@Z 000000018003c4a8     VImage.obj
 0002:000114a8       $stateUnwindMap$??_4vips@@YAAEAVVImage@0@AEAV10@V?$vector@NV?$allocator@N@std@@@std@@@Z 000000018003c4a8     VImage.obj
 0002:000114a8       $stateUnwindMap$??_1vips@@YAAEAVVImage@0@AEAV10@V?$vector@NV?$allocator@N@std@@@std@@@Z 000000018003c4a8     VImage.obj
 0002:000114a8       $stateUnwindMap$??_2vips@@YAAEAVVImage@0@AEAV10@V?$vector@NV?$allocator@N@std@@@std@@@Z 000000018003c4a8     VImage.obj
 0002:000114a8       $stateUnwindMap$??Yvips@@YAAEAVVImage@0@AEAV10@V?$vector@NV?$allocator@N@std@@@std@@@Z 000000018003c4a8     VImage.obj
 0002:000114a8       $stateUnwindMap$??Zvips@@YAAEAVVImage@0@AEAV10@V?$vector@NV?$allocator@N@std@@@std@@@Z 000000018003c4a8     VImage.obj
 0002:000114a8       $stateUnwindMap$??_0vips@@YAAEAVVImage@0@AEAV10@V?$vector@NV?$allocator@N@std@@@std@@@Z 000000018003c4a8     VImage.obj
 0002:000114b0       $ip2state$??Yvips@@YAAEAVVImage@0@AEAV10@V?$vector@NV?$allocator@N@std@@@std@@@Z 000000018003c4b0     VImage.obj
 0002:000114c8       $unwind$??Gvips@@YA?AVVImage@0@V10@0@Z 000000018003c4c8     VImage.obj
 0002:000114e0       $ip2state$??Gvips@@YA?AVVImage@0@V10@0@Z 000000018003c4e0     VImage.obj
 0002:00011500       $unwind$??Gvips@@YA?AVVImage@0@NV10@@Z 000000018003c500     VImage.obj
 0002:00011518       $ip2state$??Gvips@@YA?AVVImage@0@NV10@@Z 000000018003c518     VImage.obj
 0002:00011530       $unwind$??Gvips@@YA?AVVImage@0@V10@N@Z 000000018003c530     VImage.obj
 0002:00011548       $ip2state$??Gvips@@YA?AVVImage@0@V10@N@Z 000000018003c548     VImage.obj
 0002:00011560       $unwind$??Gvips@@YA?AVVImage@0@V?$vector@NV?$allocator@N@std@@@std@@V10@@Z 000000018003c560     VImage.obj
 0002:00011578       $ip2state$??Gvips@@YA?AVVImage@0@V?$vector@NV?$allocator@N@std@@@std@@V10@@Z 000000018003c578     VImage.obj
 0002:00011598       $unwind$??Gvips@@YA?AVVImage@0@V10@V?$vector@NV?$allocator@N@std@@@std@@@Z 000000018003c598     VImage.obj
 0002:000115b0       $stateUnwindMap$??Gvips@@YA?AVVImage@0@V10@V?$vector@NV?$allocator@N@std@@@std@@@Z 000000018003c5b0     VImage.obj
 0002:000115b0       $stateUnwindMap$??Kvips@@YA?AVVImage@0@V10@V?$vector@NV?$allocator@N@std@@@std@@@Z 000000018003c5b0     VImage.obj
 0002:000115c0       $ip2state$??Gvips@@YA?AVVImage@0@V10@V?$vector@NV?$allocator@N@std@@@std@@@Z 000000018003c5c0     VImage.obj
 0002:000115e0       $unwind$??Zvips@@YAAEAVVImage@0@AEAV10@V10@@Z 000000018003c5e0     VImage.obj
 0002:000115f8       $ip2state$??Zvips@@YAAEAVVImage@0@AEAV10@V10@@Z 000000018003c5f8     VImage.obj
 0002:00011610       $unwind$??Zvips@@YAAEAVVImage@0@AEAV10@V?$vector@NV?$allocator@N@std@@@std@@@Z 000000018003c610     VImage.obj
 0002:00011628       $ip2state$??Zvips@@YAAEAVVImage@0@AEAV10@V?$vector@NV?$allocator@N@std@@@std@@@Z 000000018003c628     VImage.obj
 0002:00011640       $unwind$??Gvips@@YA?AVVImage@0@V10@@Z 000000018003c640     VImage.obj
 0002:00011658       $ip2state$??Gvips@@YA?AVVImage@0@V10@@Z 000000018003c658     VImage.obj
 0002:00011670       $unwind$??Dvips@@YA?AVVImage@0@V10@0@Z 000000018003c670     VImage.obj
 0002:00011688       $ip2state$??Dvips@@YA?AVVImage@0@V10@0@Z 000000018003c688     VImage.obj
 0002:000116a8       $unwind$??Dvips@@YA?AVVImage@0@NV10@@Z 000000018003c6a8     VImage.obj
 0002:000116c0       $ip2state$??Dvips@@YA?AVVImage@0@NV10@@Z 000000018003c6c0     VImage.obj
 0002:000116d8       $unwind$??Dvips@@YA?AVVImage@0@V10@N@Z 000000018003c6d8     VImage.obj
 0002:000116f0       $ip2state$??Dvips@@YA?AVVImage@0@V10@N@Z 000000018003c6f0     VImage.obj
 0002:00011708       $unwind$??Dvips@@YA?AVVImage@0@V?$vector@NV?$allocator@N@std@@@std@@V10@@Z 000000018003c708     VImage.obj
 0002:00011720       $ip2state$??Dvips@@YA?AVVImage@0@V?$vector@NV?$allocator@N@std@@@std@@V10@@Z 000000018003c720     VImage.obj
 0002:00011740       $unwind$??Dvips@@YA?AVVImage@0@V10@V?$vector@NV?$allocator@N@std@@@std@@@Z 000000018003c740     VImage.obj
 0002:00011758       $ip2state$??Dvips@@YA?AVVImage@0@V10@V?$vector@NV?$allocator@N@std@@@std@@@Z 000000018003c758     VImage.obj
 0002:00011778       $unwind$??Xvips@@YAAEAVVImage@0@AEAV10@V10@@Z 000000018003c778     VImage.obj
 0002:00011790       $ip2state$??Xvips@@YAAEAVVImage@0@AEAV10@V10@@Z 000000018003c790     VImage.obj
 0002:000117a8       $unwind$??Xvips@@YAAEAVVImage@0@AEAV10@V?$vector@NV?$allocator@N@std@@@std@@@Z 000000018003c7a8     VImage.obj
 0002:000117c0       $ip2state$??Xvips@@YAAEAVVImage@0@AEAV10@V?$vector@NV?$allocator@N@std@@@std@@@Z 000000018003c7c0     VImage.obj
 0002:000117d8       $unwind$??Kvips@@YA?AVVImage@0@V10@0@Z 000000018003c7d8     VImage.obj
 0002:000117f0       $ip2state$??Kvips@@YA?AVVImage@0@V10@0@Z 000000018003c7f0     VImage.obj
 0002:00011810       $unwind$??Kvips@@YA?AVVImage@0@NV10@@Z 000000018003c810     VImage.obj
 0002:0001182c       $stateUnwindMap$??Kvips@@YA?AVVImage@0@NV10@@Z 000000018003c82c     VImage.obj
 0002:00011840       $ip2state$??Kvips@@YA?AVVImage@0@NV10@@Z 000000018003c840     VImage.obj
 0002:00011868       $unwind$??Kvips@@YA?AVVImage@0@V10@N@Z 000000018003c868     VImage.obj
 0002:00011880       $ip2state$??Kvips@@YA?AVVImage@0@V10@N@Z 000000018003c880     VImage.obj
 0002:00011898       $unwind$??Kvips@@YA?AVVImage@0@V?$vector@NV?$allocator@N@std@@@std@@V10@@Z 000000018003c898     VImage.obj
 0002:000118b0       $stateUnwindMap$??Kvips@@YA?AVVImage@0@V?$vector@NV?$allocator@N@std@@@std@@V10@@Z 000000018003c8b0     VImage.obj
 0002:000118d8       $ip2state$??Kvips@@YA?AVVImage@0@V?$vector@NV?$allocator@N@std@@@std@@V10@@Z 000000018003c8d8     VImage.obj
 0002:00011910       $unwind$??Kvips@@YA?AVVImage@0@V10@V?$vector@NV?$allocator@N@std@@@std@@@Z 000000018003c910     VImage.obj
 0002:00011928       $ip2state$??Kvips@@YA?AVVImage@0@V10@V?$vector@NV?$allocator@N@std@@@std@@@Z 000000018003c928     VImage.obj
 0002:00011948       $unwind$??_0vips@@YAAEAVVImage@0@AEAV10@V10@@Z 000000018003c948     VImage.obj
 0002:00011960       $ip2state$??_0vips@@YAAEAVVImage@0@AEAV10@V10@@Z 000000018003c960     VImage.obj
 0002:00011978       $unwind$??_0vips@@YAAEAVVImage@0@AEAV10@V?$vector@NV?$allocator@N@std@@@std@@@Z 000000018003c978     VImage.obj
 0002:00011990       $ip2state$??_0vips@@YAAEAVVImage@0@AEAV10@V?$vector@NV?$allocator@N@std@@@std@@@Z 000000018003c990     VImage.obj
 0002:000119a8       $unwind$??Lvips@@YA?AVVImage@0@V10@0@Z 000000018003c9a8     VImage.obj
 0002:000119c0       $ip2state$??Lvips@@YA?AVVImage@0@V10@0@Z 000000018003c9c0     VImage.obj
 0002:000119e0       $unwind$??Lvips@@YA?AVVImage@0@V10@N@Z 000000018003c9e0     VImage.obj
 0002:000119f4       $stateUnwindMap$??Tvips@@YA?AVVImage@0@V10@N@Z 000000018003c9f4     VImage.obj
 0002:000119f4       $stateUnwindMap$??6vips@@YA?AVVImage@0@V10@N@Z 000000018003c9f4     VImage.obj
 0002:000119f4       $stateUnwindMap$??Ovips@@YA?AVVImage@0@V10@N@Z 000000018003c9f4     VImage.obj
 0002:000119f4       $stateUnwindMap$??Pvips@@YA?AVVImage@0@V10@N@Z 000000018003c9f4     VImage.obj
 0002:000119f4       $stateUnwindMap$??8vips@@YA?AVVImage@0@V10@N@Z 000000018003c9f4     VImage.obj
 0002:000119f4       $stateUnwindMap$??9vips@@YA?AVVImage@0@V10@N@Z 000000018003c9f4     VImage.obj
 0002:000119f4       $stateUnwindMap$??Mvips@@YA?AVVImage@0@V10@N@Z 000000018003c9f4     VImage.obj
 0002:000119f4       $stateUnwindMap$??Uvips@@YA?AVVImage@0@V10@N@Z 000000018003c9f4     VImage.obj
 0002:000119f4       $stateUnwindMap$??Nvips@@YA?AVVImage@0@V10@N@Z 000000018003c9f4     VImage.obj
 0002:000119f4       $stateUnwindMap$??Lvips@@YA?AVVImage@0@V10@N@Z 000000018003c9f4     VImage.obj
 0002:000119f4       $stateUnwindMap$??5vips@@YA?AVVImage@0@V10@N@Z 000000018003c9f4     VImage.obj
 0002:000119f4       $stateUnwindMap$??Ivips@@YA?AVVImage@0@V10@N@Z 000000018003c9f4     VImage.obj
 0002:00011a00       $ip2state$??Lvips@@YA?AVVImage@0@V10@N@Z 000000018003ca00     VImage.obj
 0002:00011a18       $unwind$??Lvips@@YA?AVVImage@0@V10@V?$vector@NV?$allocator@N@std@@@std@@@Z 000000018003ca18     VImage.obj
 0002:00011a30       $ip2state$??Lvips@@YA?AVVImage@0@V10@V?$vector@NV?$allocator@N@std@@@std@@@Z 000000018003ca30     VImage.obj
 0002:00011a50       $unwind$??_1vips@@YAAEAVVImage@0@AEAV10@V10@@Z 000000018003ca50     VImage.obj
 0002:00011a68       $ip2state$??_1vips@@YAAEAVVImage@0@AEAV10@V10@@Z 000000018003ca68     VImage.obj
 0002:00011a80       $unwind$??_1vips@@YAAEAVVImage@0@AEAV10@V?$vector@NV?$allocator@N@std@@@std@@@Z 000000018003ca80     VImage.obj
 0002:00011a98       $ip2state$??_1vips@@YAAEAVVImage@0@AEAV10@V?$vector@NV?$allocator@N@std@@@std@@@Z 000000018003ca98     VImage.obj
 0002:00011ab0       $unwind$??Mvips@@YA?AVVImage@0@V10@0@Z 000000018003cab0     VImage.obj
 0002:00011ac8       $ip2state$??Mvips@@YA?AVVImage@0@V10@0@Z 000000018003cac8     VImage.obj
 0002:00011ae8       $unwind$??Mvips@@YA?AVVImage@0@NV10@@Z 000000018003cae8     VImage.obj
 0002:00011b00       $ip2state$??Mvips@@YA?AVVImage@0@NV10@@Z 000000018003cb00     VImage.obj
 0002:00011b18       $unwind$??Mvips@@YA?AVVImage@0@V10@N@Z 000000018003cb18     VImage.obj
 0002:00011b30       $ip2state$??Mvips@@YA?AVVImage@0@V10@N@Z 000000018003cb30     VImage.obj
 0002:00011b48       $unwind$??Mvips@@YA?AVVImage@0@V?$vector@NV?$allocator@N@std@@@std@@V10@@Z 000000018003cb48     VImage.obj
 0002:00011b60       $ip2state$??Mvips@@YA?AVVImage@0@V?$vector@NV?$allocator@N@std@@@std@@V10@@Z 000000018003cb60     VImage.obj
 0002:00011b80       $unwind$??Mvips@@YA?AVVImage@0@V10@V?$vector@NV?$allocator@N@std@@@std@@@Z 000000018003cb80     VImage.obj
 0002:00011b98       $ip2state$??Mvips@@YA?AVVImage@0@V10@V?$vector@NV?$allocator@N@std@@@std@@@Z 000000018003cb98     VImage.obj
 0002:00011bb8       $unwind$??Nvips@@YA?AVVImage@0@V10@0@Z 000000018003cbb8     VImage.obj
 0002:00011bd0       $ip2state$??Nvips@@YA?AVVImage@0@V10@0@Z 000000018003cbd0     VImage.obj
 0002:00011bf0       $unwind$??Nvips@@YA?AVVImage@0@NV10@@Z 000000018003cbf0     VImage.obj
 0002:00011c08       $ip2state$??Nvips@@YA?AVVImage@0@NV10@@Z 000000018003cc08     VImage.obj
 0002:00011c20       $unwind$??Nvips@@YA?AVVImage@0@V10@N@Z 000000018003cc20     VImage.obj
 0002:00011c38       $ip2state$??Nvips@@YA?AVVImage@0@V10@N@Z 000000018003cc38     VImage.obj
 0002:00011c50       $unwind$??Nvips@@YA?AVVImage@0@V?$vector@NV?$allocator@N@std@@@std@@V10@@Z 000000018003cc50     VImage.obj
 0002:00011c68       $ip2state$??Nvips@@YA?AVVImage@0@V?$vector@NV?$allocator@N@std@@@std@@V10@@Z 000000018003cc68     VImage.obj
 0002:00011c88       $unwind$??Nvips@@YA?AVVImage@0@V10@V?$vector@NV?$allocator@N@std@@@std@@@Z 000000018003cc88     VImage.obj
 0002:00011ca0       $ip2state$??Nvips@@YA?AVVImage@0@V10@V?$vector@NV?$allocator@N@std@@@std@@@Z 000000018003cca0     VImage.obj
 0002:00011cc0       $unwind$??Ovips@@YA?AVVImage@0@V10@0@Z 000000018003ccc0     VImage.obj
 0002:00011cd8       $ip2state$??Ovips@@YA?AVVImage@0@V10@0@Z 000000018003ccd8     VImage.obj
 0002:00011cf8       $unwind$??Ovips@@YA?AVVImage@0@NV10@@Z 000000018003ccf8     VImage.obj
 0002:00011d10       $ip2state$??Ovips@@YA?AVVImage@0@NV10@@Z 000000018003cd10     VImage.obj
 0002:00011d28       $unwind$??Ovips@@YA?AVVImage@0@V10@N@Z 000000018003cd28     VImage.obj
 0002:00011d40       $ip2state$??Ovips@@YA?AVVImage@0@V10@N@Z 000000018003cd40     VImage.obj
 0002:00011d58       $unwind$??Ovips@@YA?AVVImage@0@V?$vector@NV?$allocator@N@std@@@std@@V10@@Z 000000018003cd58     VImage.obj
 0002:00011d70       $ip2state$??Ovips@@YA?AVVImage@0@V?$vector@NV?$allocator@N@std@@@std@@V10@@Z 000000018003cd70     VImage.obj
 0002:00011d90       $unwind$??Ovips@@YA?AVVImage@0@V10@V?$vector@NV?$allocator@N@std@@@std@@@Z 000000018003cd90     VImage.obj
 0002:00011da8       $ip2state$??Ovips@@YA?AVVImage@0@V10@V?$vector@NV?$allocator@N@std@@@std@@@Z 000000018003cda8     VImage.obj
 0002:00011dc8       $unwind$??Pvips@@YA?AVVImage@0@V10@0@Z 000000018003cdc8     VImage.obj
 0002:00011de0       $ip2state$??Pvips@@YA?AVVImage@0@V10@0@Z 000000018003cde0     VImage.obj
 0002:00011e00       $unwind$??Pvips@@YA?AVVImage@0@NV10@@Z 000000018003ce00     VImage.obj
 0002:00011e18       $ip2state$??Pvips@@YA?AVVImage@0@NV10@@Z 000000018003ce18     VImage.obj
 0002:00011e30       $unwind$??Pvips@@YA?AVVImage@0@V10@N@Z 000000018003ce30     VImage.obj
 0002:00011e48       $ip2state$??Pvips@@YA?AVVImage@0@V10@N@Z 000000018003ce48     VImage.obj
 0002:00011e60       $unwind$??Pvips@@YA?AVVImage@0@V?$vector@NV?$allocator@N@std@@@std@@V10@@Z 000000018003ce60     VImage.obj
 0002:00011e78       $ip2state$??Pvips@@YA?AVVImage@0@V?$vector@NV?$allocator@N@std@@@std@@V10@@Z 000000018003ce78     VImage.obj
 0002:00011e98       $unwind$??Pvips@@YA?AVVImage@0@V10@V?$vector@NV?$allocator@N@std@@@std@@@Z 000000018003ce98     VImage.obj
 0002:00011eb0       $ip2state$??Pvips@@YA?AVVImage@0@V10@V?$vector@NV?$allocator@N@std@@@std@@@Z 000000018003ceb0     VImage.obj
 0002:00011ed0       $unwind$??8vips@@YA?AVVImage@0@V10@0@Z 000000018003ced0     VImage.obj
 0002:00011ee8       $ip2state$??8vips@@YA?AVVImage@0@V10@0@Z 000000018003cee8     VImage.obj
 0002:00011f08       $unwind$??8vips@@YA?AVVImage@0@NV10@@Z 000000018003cf08     VImage.obj
 0002:00011f20       $ip2state$??8vips@@YA?AVVImage@0@NV10@@Z 000000018003cf20     VImage.obj
 0002:00011f38       $unwind$??8vips@@YA?AVVImage@0@V10@N@Z 000000018003cf38     VImage.obj
 0002:00011f50       $ip2state$??8vips@@YA?AVVImage@0@V10@N@Z 000000018003cf50     VImage.obj
 0002:00011f68       $unwind$??8vips@@YA?AVVImage@0@V?$vector@NV?$allocator@N@std@@@std@@V10@@Z 000000018003cf68     VImage.obj
 0002:00011f80       $ip2state$??8vips@@YA?AVVImage@0@V?$vector@NV?$allocator@N@std@@@std@@V10@@Z 000000018003cf80     VImage.obj
 0002:00011fa0       $unwind$??8vips@@YA?AVVImage@0@V10@V?$vector@NV?$allocator@N@std@@@std@@@Z 000000018003cfa0     VImage.obj
 0002:00011fb8       $ip2state$??8vips@@YA?AVVImage@0@V10@V?$vector@NV?$allocator@N@std@@@std@@@Z 000000018003cfb8     VImage.obj
 0002:00011fd8       $unwind$??9vips@@YA?AVVImage@0@V10@0@Z 000000018003cfd8     VImage.obj
 0002:00011ff0       $ip2state$??9vips@@YA?AVVImage@0@V10@0@Z 000000018003cff0     VImage.obj
 0002:00012010       $unwind$??9vips@@YA?AVVImage@0@NV10@@Z 000000018003d010     VImage.obj
 0002:00012028       $ip2state$??9vips@@YA?AVVImage@0@NV10@@Z 000000018003d028     VImage.obj
 0002:00012040       $unwind$??9vips@@YA?AVVImage@0@V10@N@Z 000000018003d040     VImage.obj
 0002:00012058       $ip2state$??9vips@@YA?AVVImage@0@V10@N@Z 000000018003d058     VImage.obj
 0002:00012070       $unwind$??9vips@@YA?AVVImage@0@V?$vector@NV?$allocator@N@std@@@std@@V10@@Z 000000018003d070     VImage.obj
 0002:00012088       $ip2state$??9vips@@YA?AVVImage@0@V?$vector@NV?$allocator@N@std@@@std@@V10@@Z 000000018003d088     VImage.obj
 0002:000120a8       $unwind$??9vips@@YA?AVVImage@0@V10@V?$vector@NV?$allocator@N@std@@@std@@@Z 000000018003d0a8     VImage.obj
 0002:000120c0       $ip2state$??9vips@@YA?AVVImage@0@V10@V?$vector@NV?$allocator@N@std@@@std@@@Z 000000018003d0c0     VImage.obj
 0002:000120e0       $unwind$??Ivips@@YA?AVVImage@0@V10@0@Z 000000018003d0e0     VImage.obj
 0002:000120f8       $ip2state$??Ivips@@YA?AVVImage@0@V10@0@Z 000000018003d0f8     VImage.obj
 0002:00012118       $unwind$??Ivips@@YA?AVVImage@0@NV10@@Z 000000018003d118     VImage.obj
 0002:00012130       $ip2state$??Ivips@@YA?AVVImage@0@NV10@@Z 000000018003d130     VImage.obj
 0002:00012148       $unwind$??Ivips@@YA?AVVImage@0@V10@N@Z 000000018003d148     VImage.obj
 0002:00012160       $ip2state$??Ivips@@YA?AVVImage@0@V10@N@Z 000000018003d160     VImage.obj
 0002:00012178       $unwind$??Ivips@@YA?AVVImage@0@V?$vector@NV?$allocator@N@std@@@std@@V10@@Z 000000018003d178     VImage.obj
 0002:00012190       $ip2state$??Ivips@@YA?AVVImage@0@V?$vector@NV?$allocator@N@std@@@std@@V10@@Z 000000018003d190     VImage.obj
 0002:000121b0       $unwind$??Ivips@@YA?AVVImage@0@V10@V?$vector@NV?$allocator@N@std@@@std@@@Z 000000018003d1b0     VImage.obj
 0002:000121c8       $ip2state$??Ivips@@YA?AVVImage@0@V10@V?$vector@NV?$allocator@N@std@@@std@@@Z 000000018003d1c8     VImage.obj
 0002:000121e8       $unwind$??_4vips@@YAAEAVVImage@0@AEAV10@V10@@Z 000000018003d1e8     VImage.obj
 0002:00012200       $ip2state$??_4vips@@YAAEAVVImage@0@AEAV10@V10@@Z 000000018003d200     VImage.obj
 0002:00012218       $unwind$??_4vips@@YAAEAVVImage@0@AEAV10@V?$vector@NV?$allocator@N@std@@@std@@@Z 000000018003d218     VImage.obj
 0002:00012230       $ip2state$??_4vips@@YAAEAVVImage@0@AEAV10@V?$vector@NV?$allocator@N@std@@@std@@@Z 000000018003d230     VImage.obj
 0002:00012248       $unwind$??Uvips@@YA?AVVImage@0@V10@0@Z 000000018003d248     VImage.obj
 0002:00012260       $ip2state$??Uvips@@YA?AVVImage@0@V10@0@Z 000000018003d260     VImage.obj
 0002:00012280       $unwind$??Uvips@@YA?AVVImage@0@NV10@@Z 000000018003d280     VImage.obj
 0002:00012298       $ip2state$??Uvips@@YA?AVVImage@0@NV10@@Z 000000018003d298     VImage.obj
 0002:000122b0       $unwind$??Uvips@@YA?AVVImage@0@V10@N@Z 000000018003d2b0     VImage.obj
 0002:000122c8       $ip2state$??Uvips@@YA?AVVImage@0@V10@N@Z 000000018003d2c8     VImage.obj
 0002:000122e0       $unwind$??Uvips@@YA?AVVImage@0@V?$vector@NV?$allocator@N@std@@@std@@V10@@Z 000000018003d2e0     VImage.obj
 0002:000122f8       $ip2state$??Uvips@@YA?AVVImage@0@V?$vector@NV?$allocator@N@std@@@std@@V10@@Z 000000018003d2f8     VImage.obj
 0002:00012318       $unwind$??Uvips@@YA?AVVImage@0@V10@V?$vector@NV?$allocator@N@std@@@std@@@Z 000000018003d318     VImage.obj
 0002:00012330       $ip2state$??Uvips@@YA?AVVImage@0@V10@V?$vector@NV?$allocator@N@std@@@std@@@Z 000000018003d330     VImage.obj
 0002:00012350       $unwind$??_5vips@@YAAEAVVImage@0@AEAV10@V10@@Z 000000018003d350     VImage.obj
 0002:00012368       $ip2state$??_5vips@@YAAEAVVImage@0@AEAV10@V10@@Z 000000018003d368     VImage.obj
 0002:00012380       $unwind$??_5vips@@YAAEAVVImage@0@AEAV10@V?$vector@NV?$allocator@N@std@@@std@@@Z 000000018003d380     VImage.obj
 0002:00012398       $ip2state$??_5vips@@YAAEAVVImage@0@AEAV10@V?$vector@NV?$allocator@N@std@@@std@@@Z 000000018003d398     VImage.obj
 0002:000123b0       $unwind$??Tvips@@YA?AVVImage@0@V10@0@Z 000000018003d3b0     VImage.obj
 0002:000123c8       $ip2state$??Tvips@@YA?AVVImage@0@V10@0@Z 000000018003d3c8     VImage.obj
 0002:000123e8       $unwind$??Tvips@@YA?AVVImage@0@NV10@@Z 000000018003d3e8     VImage.obj
 0002:00012400       $ip2state$??Tvips@@YA?AVVImage@0@NV10@@Z 000000018003d400     VImage.obj
 0002:00012418       $unwind$??Tvips@@YA?AVVImage@0@V10@N@Z 000000018003d418     VImage.obj
 0002:00012430       $ip2state$??Tvips@@YA?AVVImage@0@V10@N@Z 000000018003d430     VImage.obj
 0002:00012448       $unwind$??Tvips@@YA?AVVImage@0@V?$vector@NV?$allocator@N@std@@@std@@V10@@Z 000000018003d448     VImage.obj
 0002:00012460       $ip2state$??Tvips@@YA?AVVImage@0@V?$vector@NV?$allocator@N@std@@@std@@V10@@Z 000000018003d460     VImage.obj
 0002:00012480       $unwind$??Tvips@@YA?AVVImage@0@V10@V?$vector@NV?$allocator@N@std@@@std@@@Z 000000018003d480     VImage.obj
 0002:00012498       $ip2state$??Tvips@@YA?AVVImage@0@V10@V?$vector@NV?$allocator@N@std@@@std@@@Z 000000018003d498     VImage.obj
 0002:000124b8       $unwind$??_6vips@@YAAEAVVImage@0@AEAV10@V10@@Z 000000018003d4b8     VImage.obj
 0002:000124d0       $ip2state$??_6vips@@YAAEAVVImage@0@AEAV10@V10@@Z 000000018003d4d0     VImage.obj
 0002:000124e8       $unwind$??_6vips@@YAAEAVVImage@0@AEAV10@V?$vector@NV?$allocator@N@std@@@std@@@Z 000000018003d4e8     VImage.obj
 0002:00012500       $ip2state$??_6vips@@YAAEAVVImage@0@AEAV10@V?$vector@NV?$allocator@N@std@@@std@@@Z 000000018003d500     VImage.obj
 0002:00012518       $unwind$??6vips@@YA?AVVImage@0@V10@0@Z 000000018003d518     VImage.obj
 0002:00012530       $ip2state$??6vips@@YA?AVVImage@0@V10@0@Z 000000018003d530     VImage.obj
 0002:00012550       $unwind$??6vips@@YA?AVVImage@0@V10@N@Z 000000018003d550     VImage.obj
 0002:00012568       $ip2state$??6vips@@YA?AVVImage@0@V10@N@Z 000000018003d568     VImage.obj
 0002:00012580       $unwind$??6vips@@YA?AVVImage@0@V10@V?$vector@NV?$allocator@N@std@@@std@@@Z 000000018003d580     VImage.obj
 0002:00012598       $ip2state$??6vips@@YA?AVVImage@0@V10@V?$vector@NV?$allocator@N@std@@@std@@@Z 000000018003d598     VImage.obj
 0002:000125b8       $unwind$??_3vips@@YAAEAVVImage@0@AEAV10@V10@@Z 000000018003d5b8     VImage.obj
 0002:000125b8       $unwind$??_2vips@@YAAEAVVImage@0@AEAV10@V10@@Z 000000018003d5b8     VImage.obj
 0002:000125d0       $ip2state$??_2vips@@YAAEAVVImage@0@AEAV10@V10@@Z 000000018003d5d0     VImage.obj
 0002:000125d0       $ip2state$??_3vips@@YAAEAVVImage@0@AEAV10@V10@@Z 000000018003d5d0     VImage.obj
 0002:000125e8       $unwind$??_3vips@@YAAEAVVImage@0@AEAV10@V?$vector@NV?$allocator@N@std@@@std@@@Z 000000018003d5e8     VImage.obj
 0002:000125e8       $unwind$??_2vips@@YAAEAVVImage@0@AEAV10@V?$vector@NV?$allocator@N@std@@@std@@@Z 000000018003d5e8     VImage.obj
 0002:00012600       $ip2state$??_3vips@@YAAEAVVImage@0@AEAV10@V?$vector@NV?$allocator@N@std@@@std@@@Z 000000018003d600     VImage.obj
 0002:00012600       $ip2state$??_2vips@@YAAEAVVImage@0@AEAV10@V?$vector@NV?$allocator@N@std@@@std@@@Z 000000018003d600     VImage.obj
 0002:00012618       $unwind$??5vips@@YA?AVVImage@0@V10@0@Z 000000018003d618     VImage.obj
 0002:00012630       $ip2state$??5vips@@YA?AVVImage@0@V10@0@Z 000000018003d630     VImage.obj
 0002:00012650       $unwind$??5vips@@YA?AVVImage@0@V10@N@Z 000000018003d650     VImage.obj
 0002:00012668       $ip2state$??5vips@@YA?AVVImage@0@V10@N@Z 000000018003d668     VImage.obj
 0002:00012680       $unwind$??5vips@@YA?AVVImage@0@V10@V?$vector@NV?$allocator@N@std@@@std@@@Z 000000018003d680     VImage.obj
 0002:00012698       $ip2state$??5vips@@YA?AVVImage@0@V10@V?$vector@NV?$allocator@N@std@@@std@@@Z 000000018003d698     VImage.obj
 0002:000126b8       $chain$0$?_Reallocate@?$vector@VVImage@vips@@V?$allocator@VVImage@vips@@@std@@@std@@IEAAX_K@Z 000000018003d6b8     VImage.obj
 0002:000126cc       $chain$1$?_Reallocate@?$vector@VVImage@vips@@V?$allocator@VVImage@vips@@@std@@@std@@IEAAX_K@Z 000000018003d6cc     VImage.obj
 0002:000126dc       $unwind$?_Reallocate@?$vector@NV?$allocator@N@std@@@std@@IEAAX_K@Z 000000018003d6dc     VImage.obj
 0002:000126ec       $chain$0$?_Reallocate@?$vector@NV?$allocator@N@std@@@std@@IEAAX_K@Z 000000018003d6ec     VImage.obj
 0002:00012700       $chain$1$?_Reallocate@?$vector@NV?$allocator@N@std@@@std@@IEAAX_K@Z 000000018003d700     VImage.obj
 0002:00012710       $unwind$??$_Destroy_range1@V?$allocator@VVImage@vips@@@std@@PEAVVImage@vips@@@std@@YAXPEAVVImage@vips@@0AEAU?$_Wrap_alloc@V?$allocator@VVImage@vips@@@std@@@0@U?$integral_constant@_N$0A@@0@@Z 000000018003d710     VImage.obj
 0002:0001271c       $chain$0$??$_Destroy_range1@V?$allocator@VVImage@vips@@@std@@PEAVVImage@vips@@@std@@YAXPEAVVImage@vips@@0AEAU?$_Wrap_alloc@V?$allocator@VVImage@vips@@@std@@@0@U?$integral_constant@_N$0A@@0@@Z 000000018003d71c     VImage.obj
 0002:00012730       $chain$1$??$_Destroy_range1@V?$allocator@VVImage@vips@@@std@@PEAVVImage@vips@@@std@@YAXPEAVVImage@vips@@0AEAU?$_Wrap_alloc@V?$allocator@VVImage@vips@@@std@@@0@U?$integral_constant@_N$0A@@0@@Z 000000018003d730     VImage.obj
 0002:00012740       $chain$0$??$_Uninitialized_move_al_unchecked1@PEAVVImage@vips@@PEAV12@V?$allocator@VVImage@vips@@@std@@@std@@YAPEAVVImage@vips@@PEAV12@00AEAU?$_Wrap_alloc@V?$allocator@VVImage@vips@@@std@@@0@U_General_ptr_iterator_tag@0@U_Any_tag@0@@Z 000000018003d740     VImage.obj
 0002:00012740       $chain$0$??$_Uninitialized_copy_al_unchecked1@PEBVVImage@vips@@PEAV12@V?$allocator@VVImage@vips@@@std@@@std@@YAPEAVVImage@vips@@PEBV12@0PEAV12@AEAU?$_Wrap_alloc@V?$allocator@VVImage@vips@@@std@@@0@U_General_ptr_iterator_tag@0@U_Any_tag@0@@Z 000000018003d740     VImage.obj
 0002:00012740       $chain$0$??$_Uninitialized_copy_al_unchecked1@PEAVVImage@vips@@PEAV12@V?$allocator@VVImage@vips@@@std@@@std@@YAPEAVVImage@vips@@PEAV12@00AEAU?$_Wrap_alloc@V?$allocator@VVImage@vips@@@std@@@0@U_General_ptr_iterator_tag@0@U_Any_tag@0@@Z 000000018003d740     VImage.obj
 0002:00012754       $chain$1$??$_Uninitialized_copy_al_unchecked1@PEAVVImage@vips@@PEAV12@V?$allocator@VVImage@vips@@@std@@@std@@YAPEAVVImage@vips@@PEAV12@00AEAU?$_Wrap_alloc@V?$allocator@VVImage@vips@@@std@@@0@U_General_ptr_iterator_tag@0@U_Any_tag@0@@Z 000000018003d754     VImage.obj
 0002:00012754       $chain$1$??$_Uninitialized_move_al_unchecked1@PEAVVImage@vips@@PEAV12@V?$allocator@VVImage@vips@@@std@@@std@@YAPEAVVImage@vips@@PEAV12@00AEAU?$_Wrap_alloc@V?$allocator@VVImage@vips@@@std@@@0@U_General_ptr_iterator_tag@0@U_Any_tag@0@@Z 000000018003d754     VImage.obj
 0002:00012754       $chain$1$??$_Uninitialized_copy_al_unchecked1@PEBVVImage@vips@@PEAV12@V?$allocator@VVImage@vips@@@std@@@std@@YAPEAVVImage@vips@@PEBV12@0PEAV12@AEAU?$_Wrap_alloc@V?$allocator@VVImage@vips@@@std@@@0@U_General_ptr_iterator_tag@0@U_Any_tag@0@@Z 000000018003d754     VImage.obj
 0002:00012764       $unwind$__dcrt_lowio_initialize_console_output 000000018003d764     libucrt:initcon.obj
 0002:00012764       $unwind$_raise_exc         000000018003d764     libucrt:fpexcept.obj
 0002:00012764       $unwind$?__scrt_throw_std_bad_array_new_length@@YAXXZ 000000018003d764     LIBCMT:throw_bad_alloc.obj
 0002:00012764       $unwind$?_Xout_of_range@std@@YAXPEBD@Z 000000018003d764     libcpmt:xthrow.obj
 0002:00012764       $unwind$?__scrt_throw_std_bad_alloc@@YAXXZ 000000018003d764     LIBCMT:throw_bad_alloc.obj
 0002:00012764       $unwind$?_Xlength_error@std@@YAXPEBD@Z 000000018003d764     libcpmt:xthrow.obj
 0002:00012764       $unwind$?_Xbad_alloc@std@@YAXXZ 000000018003d764     libcpmt:xthrow.obj
 0002:00012770       $xdatasym                  000000018003d770     LIBCMT:_amdsecgs_.obj
 0002:00012774       $unwind$??_M@YAXPEAX_K1P6AX0@Z@Z 000000018003d774     LIBCMT:ehvecdtr.obj
 0002:0001279c       $unwind$?__ArrayUnwind@@YAXPEAX_K1P6AX0@Z@Z 000000018003d79c     LIBCMT:ehvecdtr.obj
 0002:000127c8       $unwind$__scrt_is_nonwritable_in_current_image 000000018003d7c8     LIBCMT:utility.obj
 0002:000127e8       $unwind$__scrt_is_nonwritable_in_current_image$filt$0 000000018003d7e8     LIBCMT:utility.obj
 0002:000127f0       $unwind$__scrt_initialize_onexit_tables 000000018003d7f0     LIBCMT:utility.obj
 0002:000127fc       $unwind$?dllmain_crt_process_attach@@YAHQEAUHINSTANCE__@@QEAX@Z 000000018003d7fc     LIBCMT:dll_dllmain.obj
 0002:00012828       $unwind$?dllmain_crt_process_detach@@YAH_N@Z 000000018003d828     LIBCMT:dll_dllmain.obj
 0002:00012850       $unwind$?dllmain_dispatch@@YAHQEAUHINSTANCE__@@KQEAX@Z 000000018003d850     LIBCMT:dll_dllmain.obj
 0002:00012878       $unwind$?filt$0@?0??dllmain_dispatch@@YAHQEAUHINSTANCE__@@KQEAX@Z@4HA 000000018003d878     LIBCMT:dll_dllmain.obj
 0002:00012880       $unwind$__GSHandlerCheckCommon 000000018003d880     LIBCMT:_gshandler_.obj
 0002:00012888       $unwind$__report_securityfailure 000000018003d888     LIBCMT:gs_report.obj
 0002:00012890       $unwind$__report_gsfailure 000000018003d890     LIBCMT:gs_report.obj
 0002:00012890       $unwind$_putwch_nolock     000000018003d890     libucrt:putwch.obj
 0002:00012898       $unwind$capture_current_context 000000018003d898     LIBCMT:gs_report.obj
 0002:000128a4       $unwind$capture_previous_context 000000018003d8a4     LIBCMT:gs_report.obj
 0002:000128b0       $unwind$__scrt_fastfail    000000018003d8b0     LIBCMT:utility_desktop.obj
 0002:000128c0       $unwind$__isa_available_init 000000018003d8c0     LIBCMT:_cpu_disp_.obj
 0002:000128d0       $unwind$__security_init_cookie 000000018003d8d0     LIBCMT:gs_support.obj
 0002:000128e0       $xdatasym                  000000018003d8e0     LIBCMT:_guard_dispatch_.obj
 0002:000128e8       $xdatasym                  000000018003d8e8     libvcruntime:memcpy.obj
 0002:000128ec       $unwind$__CxxCallCatchBlock 000000018003d8ec     libvcruntime:frame.obj
 0002:00012928       $unwind$__CxxCallCatchBlock$fin$1 000000018003d928     libvcruntime:frame.obj
 0002:00012934       $unwind$__FrameUnwindToState 000000018003d934     libvcruntime:frame.obj
 0002:00012970       $unwind$?FindHandler@@YAXPEAUEHExceptionRecord@@PEA_KPEAU_CONTEXT@@PEAU_xDISPATCHER_CONTEXT@@PEBU_s_FuncInfo@@EH1@Z 000000018003d970     libvcruntime:frame.obj
 0002:00012990       $unwind$?CatchIt@@YAXPEAUEHExceptionRecord@@PEA_KPEAU_CONTEXT@@PEAU_xDISPATCHER_CONTEXT@@PEBU_s_FuncInfo@@PEBU_s_HandlerType@@PEBU_s_CatchableType@@PEBU_s_TryBlockMapEntry@@H1EE@Z 000000018003d990     libvcruntime:frame.obj
 0002:000129a8       $unwind$__BuildCatchObject 000000018003d9a8     libvcruntime:frame.obj
 0002:000129d4       $unwind$?FindHandlerForForeignException@@YAXPEAUEHExceptionRecord@@PEA_KPEAU_CONTEXT@@PEAU_xDISPATCHER_CONTEXT@@PEBU_s_FuncInfo@@HH1@Z 000000018003d9d4     libvcruntime:frame.obj
 0002:000129ec       $unwind$__DestructExceptionObject 000000018003d9ec     libvcruntime:frame.obj
 0002:00012a10       $unwind$__BuildCatchObjectHelper 000000018003da10     libvcruntime:frame.obj
 0002:00012a50       $unwind$_CxxThrowException 000000018003da50     libvcruntime:throw.obj
 0002:00012a64       $unwind$?_GetEstablisherFrame@@YAPEA_KPEA_KPEAU_xDISPATCHER_CONTEXT@@PEBU_s_FuncInfo@@0@Z 000000018003da64     libvcruntime:trnsctrl.obj
 0002:00012a7c       $unwind$?__FrameUnwindToEmptyState@@YAXPEA_KPEAU_xDISPATCHER_CONTEXT@@PEBU_s_FuncInfo@@@Z 000000018003da7c     libvcruntime:trnsctrl.obj
 0002:00012a90       $unwind$_CallSETranslator  000000018003da90     libvcruntime:trnsctrl.obj
 0002:00012ab4       $unwind$_CallSETranslator$filt$0 000000018003dab4     libvcruntime:trnsctrl.obj
 0002:00012abc       $unwind$??R<lambda_4e60a939b0d047cfe11ddc22648dfba9>@@QEBAHXZ 000000018003dabc     libucrt:onexit.obj
 0002:00012abc       $unwind$?_GetRangeOfTrysToCheck@@YAPEBU_s_TryBlockMapEntry@@PEA_KPEBU_s_FuncInfo@@HHPEAI2PEAU_xDISPATCHER_CONTEXT@@@Z 000000018003dabc     libvcruntime:trnsctrl.obj
 0002:00012abc       $unwind$??$parse_command_line@D@@YAXPEADPEAPEAD0PEA_K2@Z 000000018003dabc     libucrt:argv_parsing.obj
 0002:00012ad8       $unwind$_UnwindNestedFrames 000000018003dad8     libvcruntime:trnsctrl.obj
 0002:00012aec       $unwind$__CxxFrameHandler3 000000018003daec     libvcruntime:trnsctrl.obj
 0002:00012afc       $unwind$?__SehTransFilter@@YAHPEAU_EXCEPTION_POINTERS@@PEAUEHExceptionRecord@@PEA_KPEAU_CONTEXT@@PEAU_xDISPATCHER_CONTEXT@@PEBU_s_FuncInfo@@PEAH@Z 000000018003dafc     libvcruntime:trnsctrl.obj
 0002:00012b10       $unwind$__vcrt_uninitialize_winapi_thunks 000000018003db10     libvcruntime:winapi_downlevel.obj
 0002:00012b18       $unwind$?try_get_function@@YAPEAXW4function_id@?A0x679b24ab@@QEBDQEBW4module_id@2@2@Z 000000018003db18     libvcruntime:winapi_downlevel.obj
 0002:00012b18       $unwind$?try_get_function@@YAPEAXW4function_id@?A0x63058377@@QEBDQEBW4module_id@2@2@Z 000000018003db18     libucrt:winapi_thunks.obj
 0002:00012b18       $unwind$?IsInExceptionSpec@@YAEPEAUEHExceptionRecord@@PEBU_s_ESTypeList@@@Z 000000018003db18     libvcruntime:frame.obj
 0002:00012b34       $unwind$__C_specific_handler 000000018003db34     libvcruntime:_chandler_.obj
 0002:00012b34       $unwind$__InternalCxxFrameHandler 000000018003db34     libvcruntime:frame.obj
 0002:00012b50       $xdatasym                  000000018003db50     libvcruntime:memset.obj
 0002:00012b58       $xdatasym                  000000018003db58     libvcruntime:handlers.obj
 0002:00012b60       $xdatasym                  000000018003db60     libvcruntime:_jmpuwind_.obj
 0002:00012b74       $unwind$__acrt_call_reportfault 000000018003db74     libucrt:invalid_parameter.obj
 0002:00012b94       $unwind$_invalid_parameter 000000018003db94     libucrt:invalid_parameter.obj
 0002:00012bac       $unwind$_query_new_handler 000000018003dbac     libucrt:new_handler.obj
 0002:00012bcc       $unwind$terminate          000000018003dbcc     libucrt:terminate.obj
 0002:00012bec       $unwind$?common_exit@@YAXHW4_crt_exit_cleanup_mode@@W4_crt_exit_return_mode@@@Z 000000018003dbec     libucrt:exit.obj
 0002:00012c2c       $unwind$_configure_narrow_argv 000000018003dc2c     libucrt:argv_parsing.obj
 0002:00012c40       $unwind$??$free_environment@D@@YAXQEAPEAD@Z 000000018003dc40     libucrt:environment_initialization.obj
 0002:00012c40       $unwind$??$free_environment@_W@@YAXQEAPEA_W@Z 000000018003dc40     libucrt:environment_initialization.obj
 0002:00012c4c       $unwind$??$create_environment@D@@YAQEAPEADQEAD@Z 000000018003dc4c     libucrt:environment_initialization.obj
 0002:00012c64       $unwind$_register_onexit_function 000000018003dc64     libucrt:onexit.obj
 0002:00012c6c       $unwind$_execute_onexit_table 000000018003dc6c     libucrt:onexit.obj
 0002:00012c74       $unwind$??$?RV<lambda_b8c45f8f788dd370798f47cfe8ac3a86>@@AEAV<lambda_4e60a939b0d047cfe11ddc22648dfba9>@@V<lambda_332c3edc96d0294ec56c57d38c1cdfd5>@@@?$__crt_seh_guarded_call@H@@QEAAH$$QEAV<lambda_b8c45f8f788dd370798f47cfe8ac3a86>@@AEAV<lambda_4e60a939b0d047cfe11ddc22648dfba9>@@$$QEAV<lambda_332c3edc96d0294ec56c57d38c1cdfd5>@@@Z 000000018003dc74     libucrt:onexit.obj
 0002:00012c98       $unwind$??$?RV<lambda_e24bbb7b643b32fcea6fa61b31d4c984>@@AEAV<lambda_275893d493268fdec8709772e3fcec0e>@@V<lambda_9d71df4d7cf3f480f8d633942495c3b0>@@@?$__crt_seh_guarded_call@H@@QEAAH$$QEAV<lambda_e24bbb7b643b32fcea6fa61b31d4c984>@@AEAV<lambda_275893d493268fdec8709772e3fcec0e>@@$$QEAV<lambda_9d71df4d7cf3f480f8d633942495c3b0>@@@Z 000000018003dc98     libucrt:onexit.obj
 0002:00012cc8       $unwind$__TypeMatch        000000018003dcc8     libvcruntime:frame.obj
 0002:00012cc8       $unwind$__GSHandlerCheck_EH 000000018003dcc8     LIBCMT:gshandlereh.obj
 0002:00012cc8       $unwind$__acrt_initialize_stdio 000000018003dcc8     libucrt:_file.obj
 0002:00012cc8       $unwind$_initterm          000000018003dcc8     libucrt:initterm.obj
 0002:00012ce0       $unwind$__acrt_locale_free_numeric 000000018003dce0     libucrt:initnum.obj
 0002:00012ce0       $unwind$_free_base         000000018003dce0     libucrt:free_base.obj
 0002:00012ce0       $unwind$?destroy_fls@@YAXPEAX@Z 000000018003dce0     libucrt:per_thread_data.obj
 0002:00012ce0       $unwind$__acrt_locale_free_lc_time_if_unreferenced 000000018003dce0     libucrt:locale_refcounting.obj
 0002:00012ce8       $unwind$?construct_ptd_array@@YAXQEAU__acrt_ptd@@@Z 000000018003dce8     libucrt:per_thread_data.obj
 0002:00012cf0       $unwind$?destroy_ptd_array@@YAXQEAU__acrt_ptd@@@Z 000000018003dcf0     libucrt:per_thread_data.obj
 0002:00012cf8       $unwind$??$?RV<lambda_72d1df2b273a38828b1ce30cbf4cdab5>@@AEAV<lambda_876a65b173b8412d3a47c70a915b0cf4>@@V<lambda_41932305e351933ebe8f8be3ed8bb5dc>@@@?$__crt_seh_guarded_call@X@@QEAAX$$QEAV<lambda_72d1df2b273a38828b1ce30cbf4cdab5>@@AEAV<lambda_876a65b173b8412d3a47c70a915b0cf4>@@$$QEAV<lambda_41932305e351933ebe8f8be3ed8bb5dc>@@@Z 000000018003dcf8     libucrt:per_thread_data.obj
 0002:00012d1c       $unwind$??$?RV<lambda_5e887d1dcbef67a5eb4283622ba103bf>@@AEAV<lambda_4466841279450cc726390878d4a41900>@@V<lambda_341c25c0346d94847f1f3c463c57e077>@@@?$__crt_seh_guarded_call@X@@QEAAX$$QEAV<lambda_5e887d1dcbef67a5eb4283622ba103bf>@@AEAV<lambda_4466841279450cc726390878d4a41900>@@$$QEAV<lambda_341c25c0346d94847f1f3c463c57e077>@@@Z 000000018003dd1c     libucrt:per_thread_data.obj
 0002:00012d40       $unwind$??$?RV<lambda_46352004c1216016012b18bd6f87e700>@@AEAV<lambda_3bd07e1a1191394380780325891bf33f>@@V<lambda_334532d3f185bcaa59b5be82d7d22bff>@@@?$__crt_seh_guarded_call@X@@QEAAX$$QEAV<lambda_46352004c1216016012b18bd6f87e700>@@AEAV<lambda_3bd07e1a1191394380780325891bf33f>@@$$QEAV<lambda_334532d3f185bcaa59b5be82d7d22bff>@@@Z 000000018003dd40     libucrt:per_thread_data.obj
 0002:00012d64       $unwind$??$?RV<lambda_fb3a7dec4e47f37f22dae91bb15c9095>@@AEAV<lambda_698284760c8add0bfb0756c19673e34b>@@V<lambda_dfb8eca1e75fef3034a8fb18dd509707>@@@?$__crt_seh_guarded_call@X@@QEAAX$$QEAV<lambda_fb3a7dec4e47f37f22dae91bb15c9095>@@AEAV<lambda_698284760c8add0bfb0756c19673e34b>@@$$QEAV<lambda_dfb8eca1e75fef3034a8fb18dd509707>@@@Z 000000018003dd64     libucrt:per_thread_data.obj
 0002:00012d88       $unwind$__acrt_uninitialize_locale 000000018003dd88     libucrt:wsetlocale.obj
 0002:00012da8       $unwind$__acrt_initialize_winapi_thunks 000000018003dda8     libucrt:winapi_thunks.obj
 0002:00012db0       $unwind$??$common_expand_argv_wildcards@D@@YAHQEAPEADQEAPEAPEAD@Z 000000018003ddb0     libucrt:argv_wildcards.obj
 0002:00012dc8       $unwind$__vcrt_InitializeCriticalSectionEx 000000018003ddc8     libvcruntime:winapi_downlevel.obj
 0002:00012dc8       $unwind$?setSBCS@@YAXPEAU__crt_multibyte_data@@@Z 000000018003ddc8     libucrt:mbctype.obj
 0002:00012dc8       $unwind$?expand_if_necessary@?$argument_list@D@?A0xca0879c4@@AEAAHXZ 000000018003ddc8     libucrt:argv_wildcards.obj
 0002:00012dc8       $unwind$_seh_filter_exe    000000018003ddc8     libucrt:exception_filter.obj
 0002:00012dc8       $unwind$__acrt_lowio_create_handle_array 000000018003ddc8     libucrt:osfinfo.obj
 0002:00012dc8       $unwind$__acrt_free_locale 000000018003ddc8     libucrt:locale_refcounting.obj
 0002:00012dc8       $unwind$__acrt_execute_initializers 000000018003ddc8     libucrt:shared_initialization.obj
 0002:00012dc8       $unwind$_recalloc_base     000000018003ddc8     libucrt:recalloc.obj
 0002:00012dc8       $unwind$?_ExecutionInCatch@@YAHPEAU_xDISPATCHER_CONTEXT@@PEBU_s_FuncInfo@@@Z 000000018003ddc8     libvcruntime:trnsctrl.obj
 0002:00012dc8       $unwind$?dllmain_raw@@YAHQEAUHINSTANCE__@@KQEAX@Z 000000018003ddc8     LIBCMT:dll_dllmain.obj
 0002:00012dc8       $unwind$__scrt_dllmain_exception_filter 000000018003ddc8     LIBCMT:utility.obj
 0002:00012dc8       $unwind$__acrt_InitializeCriticalSectionEx 000000018003ddc8     libucrt:winapi_thunks.obj
 0002:00012ddc       $unwind$??$copy_and_add_argument_to_buffer@D@@YAHQEBD0_KAEAV?$argument_list@D@?A0xca0879c4@@@Z 000000018003dddc     libucrt:argv_wildcards.obj
 0002:00012df8       $unwind$??$expand_argument_wildcards@D@@YAHQEAD0AEAV?$argument_list@D@?A0xca0879c4@@@Z 000000018003ddf8     libucrt:argv_wildcards.obj
 0002:00012e18       $unwind$__acrt_update_thread_multibyte_data 000000018003de18     libucrt:mbctype.obj
 0002:00012e3c       $unwind$_setmbcp_nolock    000000018003de3c     libucrt:mbctype.obj
 0002:00012e5c       $unwind$?setSBUpLow@@YAXPEAU__crt_multibyte_data@@@Z 000000018003de5c     libucrt:mbctype.obj
 0002:00012e78       $unwind$?setmbcp_internal@@YAHH_N@Z 000000018003de78     libucrt:mbctype.obj
 0002:00012e88       $unwind$??$?RV<lambda_99476a1ad63dd22509b5d3e65b0ffc95>@@AEAV<lambda_ad1ced32f4ac17aa236e5ef05d6b3b7c>@@V<lambda_f7424dd8d45958661754dc4f2697e9c3>@@@?$__crt_seh_guarded_call@X@@QEAAX$$QEAV<lambda_99476a1ad63dd22509b5d3e65b0ffc95>@@AEAV<lambda_ad1ced32f4ac17aa236e5ef05d6b3b7c>@@$$QEAV<lambda_f7424dd8d45958661754dc4f2697e9c3>@@@Z 000000018003de88     libucrt:mbctype.obj
 0002:00012eac       $unwind$?x_ismbbtype_l@@YAHPEAU__crt_locale_pointers@@IHH@Z 000000018003deac     libucrt:ismbbyte.obj
 0002:00012ebc       $unwind$__dcrt_get_narrow_environment_from_os 000000018003debc     libucrt:get_environment_from_os.obj
 0002:00012ed4       $unwind$__acrt_initialize_lowio 000000018003ded4     libucrt:ioinit.obj
 0002:00012ef4       $unwind$?initialize_inherited_file_handles_nolock@@YAXXZ 000000018003def4     libucrt:ioinit.obj
 0002:00012f10       $unwind$__acrt_get_sigabrt_handler 000000018003df10     libucrt:signal.obj
 0002:00012f18       $unwind$raise              000000018003df18     libucrt:signal.obj
 0002:00012f44       $unwind$??$?RV<lambda_c36588078e9f5dfd39652860aa6b3aaf>@@AEAV<lambda_ec61778202f4f5fc7e7711acc23c3bca>@@V<lambda_dc9d2797ccde5d239b4a0efae8ebd7db>@@@?$__crt_seh_guarded_call@P6AXH@Z@@QEAAP6AXH@Z$$QEAV<lambda_c36588078e9f5dfd39652860aa6b3aaf>@@AEAV<lambda_ec61778202f4f5fc7e7711acc23c3bca>@@$$QEAV<lambda_dc9d2797ccde5d239b4a0efae8ebd7db>@@@Z 000000018003df44     libucrt:signal.obj
 0002:00012f68       $unwind$_mbtowc_l          000000018003df68     libucrt:mbtowc.obj
 0002:00012f68       $unwind$__acrt_LCMapStringEx 000000018003df68     libucrt:winapi_thunks.obj
 0002:00012f80       $unwind$__acrt_update_thread_locale_data 000000018003df80     libucrt:locale_refcounting.obj
 0002:00012fa4       $unwind$__acrt_LCMapStringA 000000018003dfa4     libucrt:lcmapstringa.obj
 0002:00012fb4       $unwind$?__acrt_LCMapStringA_stat@@YAHPEAU__crt_locale_pointers@@PEB_WKPEBDHPEADHHH@Z 000000018003dfb4     libucrt:lcmapstringa.obj
 0002:00012fdc       $unwind$__acrt_locale_free_monetary 000000018003dfdc     libucrt:initmon.obj
 0002:00012fe4       $unwind$__acrt_locale_free_time 000000018003dfe4     libucrt:inittime.obj
 0002:00012ff4       $unwind$__acrt_GetStringTypeA 000000018003dff4     libucrt:getstringtypea.obj
 0002:0001301c       $unwind$?GetTableIndexFromLocaleName@@YAHPEB_W@Z 000000018003e01c     libucrt:lcidtoname_downlevel.obj
 0002:00013034       $unwind$qsort              000000018003e034     libucrt:qsort.obj
 0002:0001304c       $chain$4$qsort             000000018003e04c     libucrt:qsort.obj
 0002:00013070       $chain$5$qsort             000000018003e070     libucrt:qsort.obj
 0002:00013080       $unwind$?shortsort@@YAXPEAD0_KP6AHPEBX2@Z@Z 000000018003e080     libucrt:qsort.obj
 0002:00013090       $chain$2$?shortsort@@YAXPEAD0_KP6AHPEBX2@Z@Z 000000018003e090     libucrt:qsort.obj
 0002:000130ac       $chain$3$?shortsort@@YAXPEAD0_KP6AHPEBX2@Z@Z 000000018003e0ac     libucrt:qsort.obj
 0002:000130bc       $unwind$strpbrk            000000018003e0bc     libucrt:strpbrk.obj
 0002:000130cc       $unwind$__acrt_lowio_destroy_handle_array 000000018003e0cc     libucrt:osfinfo.obj
 0002:000130dc       $unwind$__acrt_lowio_ensure_fh_exists 000000018003e0dc     libucrt:osfinfo.obj
 0002:00013108       $unwind$common_flush_all   000000018003e108     libucrt:fflush.obj
 0002:00013144       $unwind$_fcloseall         000000018003e144     libucrt:closeall.obj
 0002:00013168       $unwind$??$?RV<lambda_b521505b218e5242e90febf6bfebc422>@@AEAV<lambda_6978c1fb23f02e42e1d9e99668cc68aa>@@V<lambda_314360699dd331753a4119843814e9a7>@@@?$__crt_seh_guarded_call@H@@QEAAH$$QEAV<lambda_b521505b218e5242e90febf6bfebc422>@@AEAV<lambda_6978c1fb23f02e42e1d9e99668cc68aa>@@$$QEAV<lambda_314360699dd331753a4119843814e9a7>@@@Z 000000018003e168     libucrt:commit.obj
 0002:0001318c       $unwind$_write             000000018003e18c     libucrt:write.obj
 0002:000131bc       $unwind$_write_nolock      000000018003e1bc     libucrt:write.obj
 0002:000131d4       $unwind$?write_double_translated_ansi_nolock@@YA?AUwrite_result@?A0x9c548279@@HQEBDI@Z 000000018003e1d4     libucrt:write.obj
 0002:000131f4       $unwind$?write_text_utf16le_nolock@@YA?AUwrite_result@?A0x9c548279@@HQEBDI@Z 000000018003e1f4     libucrt:write.obj
 0002:000131f4       $unwind$?write_text_ansi_nolock@@YA?AUwrite_result@?A0x9c548279@@HQEBDI@Z 000000018003e1f4     libucrt:write.obj
 0002:00013214       $unwind$?write_text_utf8_nolock@@YA?AUwrite_result@?A0x9c548279@@HQEBDI@Z 000000018003e214     libucrt:write.obj
 0002:00013238       $xdatasym                  000000018003e238     libucrt:log10.obj
 0002:00013244       $unwind$fclose             000000018003e244     libucrt:fclose.obj
 0002:00013268       $unwind$_call_matherr      000000018003e268     libucrt:libm_error.obj
 0002:00013270       $unwind$_handle_error      000000018003e270     libucrt:libm_error.obj
 0002:00013290       $unwind$__acrt_initialize_fma3 000000018003e290     libucrt:fma3_available.obj
 0002:00013298       $unwind$_log_special_common 000000018003e298     libucrt:log_special.obj
 0002:000132a4       $unwind$_close             000000018003e2a4     libucrt:close.obj
 0002:000132a4       $unwind$_commit            000000018003e2a4     libucrt:commit.obj
 0002:000132ac       $unwind$??$?RV<lambda_bfedae4ebbf01fab1bb6dcc6a9e276e0>@@AEAV<lambda_2fe9b910cf3cbf4a0ab98a02ba45b3ec>@@V<lambda_237c231691f317818eb88cc1d5d642d6>@@@?$__crt_seh_guarded_call@H@@QEAAH$$QEAV<lambda_bfedae4ebbf01fab1bb6dcc6a9e276e0>@@AEAV<lambda_2fe9b910cf3cbf4a0ab98a02ba45b3ec>@@$$QEAV<lambda_237c231691f317818eb88cc1d5d642d6>@@@Z 000000018003e2ac     libucrt:close.obj
 0002:000132d0       $xdatasym                  000000018003e2d0     libucrt:fpsr.obj
 0002:000132d8       $unwind$_raise_exc_ex      000000018003e2d8     libucrt:fpexcept.obj
 0002:000132ec       $unwind$_ctrlfp            000000018003e2ec     libucrt:fpctrl.obj
 0002:00013314       $unwind$_IsNonwritableInCurrentImage 000000018003e314     LIBCMT:pesect.obj
 0002:00013338       $xdatasym                  000000018003e338     LIBCMT:_chkstk_.obj
 0002:00013340       $xdatasym                  000000018003e340     libvcruntime:memcmp.obj
 0002:00013620       .edata                     000000018003e620     libvips-cpp.exp
 0002:00013648       rgpv                       000000018003e648     libvips-cpp.exp
 0002:00013dd4       rgszName                   000000018003edd4     libvips-cpp.exp
 0002:00014560       rgwOrd                     000000018003f560     libvips-cpp.exp
 0002:00014926       szName                     000000018003f926     libvips-cpp.exp
 0002:00014936       $N00001                    000000018003f936     libvips-cpp.exp
 0002:00014955       $N00002                    000000018003f955     libvips-cpp.exp
 0002:000149ab       $N00003                    000000018003f9ab     libvips-cpp.exp
 0002:000149c3       $N00004                    000000018003f9c3     libvips-cpp.exp
 0002:000149e4       $N00005                    000000018003f9e4     libvips-cpp.exp
 0002:00014a03       $N00006                    000000018003fa03     libvips-cpp.exp
 0002:00014a36       $N00007                    000000018003fa36     libvips-cpp.exp
 0002:00014a4e       $N00008                    000000018003fa4e     libvips-cpp.exp
 0002:00014a75       $N00009                    000000018003fa75     libvips-cpp.exp
 0002:00014a9a       $N00010                    000000018003fa9a     libvips-cpp.exp
 0002:00014ad9       $N00011                    000000018003fad9     libvips-cpp.exp
 0002:00014af9       $N00012                    000000018003faf9     libvips-cpp.exp
 0002:00014b12       $N00013                    000000018003fb12     libvips-cpp.exp
 0002:00014b2a       $N00014                    000000018003fb2a     libvips-cpp.exp
 0002:00014b42       $N00015                    000000018003fb42     libvips-cpp.exp
 0002:00014b60       $N00016                    000000018003fb60     libvips-cpp.exp
 0002:00014b79       $N00017                    000000018003fb79     libvips-cpp.exp
 0002:00014b9e       $N00018                    000000018003fb9e     libvips-cpp.exp
 0002:00014bc5       $N00019                    000000018003fbc5     libvips-cpp.exp
 0002:00014bea       $N00020                    000000018003fbea     libvips-cpp.exp
 0002:00014c17       $N00021                    000000018003fc17     libvips-cpp.exp
 0002:00014c42       $N00022                    000000018003fc42     libvips-cpp.exp
 0002:00014c68       $N00023                    000000018003fc68     libvips-cpp.exp
 0002:00014c87       $N00024                    000000018003fc87     libvips-cpp.exp
 0002:00014ca6       $N00025                    000000018003fca6     libvips-cpp.exp
 0002:00014ce9       $N00026                    000000018003fce9     libvips-cpp.exp
 0002:00014d08       $N00027                    000000018003fd08     libvips-cpp.exp
 0002:00014d27       $N00028                    000000018003fd27     libvips-cpp.exp
 0002:00014d6a       $N00029                    000000018003fd6a     libvips-cpp.exp
 0002:00014d89       $N00030                    000000018003fd89     libvips-cpp.exp
 0002:00014da8       $N00031                    000000018003fda8     libvips-cpp.exp
 0002:00014dc7       $N00032                    000000018003fdc7     libvips-cpp.exp
 0002:00014e0a       $N00033                    000000018003fe0a     libvips-cpp.exp
 0002:00014e4d       $N00034                    000000018003fe4d     libvips-cpp.exp
 0002:00014e6c       $N00035                    000000018003fe6c     libvips-cpp.exp
 0002:00014e8b       $N00036                    000000018003fe8b     libvips-cpp.exp
 0002:00014eaa       $N00037                    000000018003feaa     libvips-cpp.exp
 0002:00014eed       $N00038                    000000018003feed     libvips-cpp.exp
 0002:00014f30       $N00039                    000000018003ff30     libvips-cpp.exp
 0002:00014f4e       $N00040                    000000018003ff4e     libvips-cpp.exp
 0002:00014f6d       $N00041                    000000018003ff6d     libvips-cpp.exp
 0002:00014f8c       $N00042                    000000018003ff8c     libvips-cpp.exp
 0002:00014fab       $N00043                    000000018003ffab     libvips-cpp.exp
 0002:00014fee       $N00044                    000000018003ffee     libvips-cpp.exp
 0002:00015031       $N00045                    0000000180040031     libvips-cpp.exp
 0002:00015050       $N00046                    0000000180040050     libvips-cpp.exp
 0002:0001506f       $N00047                    000000018004006f     libvips-cpp.exp
 0002:0001508d       $N00048                    000000018004008d     libvips-cpp.exp
 0002:000150ac       $N00049                    00000001800400ac     libvips-cpp.exp
 0002:000150ef       $N00050                    00000001800400ef     libvips-cpp.exp
 0002:00015132       $N00051                    0000000180040132     libvips-cpp.exp
 0002:00015151       $N00052                    0000000180040151     libvips-cpp.exp
 0002:00015170       $N00053                    0000000180040170     libvips-cpp.exp
 0002:0001518f       $N00054                    000000018004018f     libvips-cpp.exp
 0002:000151d2       $N00055                    00000001800401d2     libvips-cpp.exp
 0002:00015215       $N00056                    0000000180040215     libvips-cpp.exp
 0002:00015234       $N00057                    0000000180040234     libvips-cpp.exp
 0002:00015253       $N00058                    0000000180040253     libvips-cpp.exp
 0002:00015272       $N00059                    0000000180040272     libvips-cpp.exp
 0002:000152b5       $N00060                    00000001800402b5     libvips-cpp.exp
 0002:000152f8       $N00061                    00000001800402f8     libvips-cpp.exp
 0002:00015317       $N00062                    0000000180040317     libvips-cpp.exp
 0002:00015336       $N00063                    0000000180040336     libvips-cpp.exp
 0002:00015355       $N00064                    0000000180040355     libvips-cpp.exp
 0002:00015398       $N00065                    0000000180040398     libvips-cpp.exp
 0002:000153db       $N00066                    00000001800403db     libvips-cpp.exp
 0002:000153fa       $N00067                    00000001800403fa     libvips-cpp.exp
 0002:00015419       $N00068                    0000000180040419     libvips-cpp.exp
 0002:0001545c       $N00069                    000000018004045c     libvips-cpp.exp
 0002:0001547b       $N00070                    000000018004047b     libvips-cpp.exp
 0002:0001549a       $N00071                    000000018004049a     libvips-cpp.exp
 0002:000154b9       $N00072                    00000001800404b9     libvips-cpp.exp
 0002:000154fc       $N00073                    00000001800404fc     libvips-cpp.exp
 0002:0001553f       $N00074                    000000018004053f     libvips-cpp.exp
 0002:0001555e       $N00075                    000000018004055e     libvips-cpp.exp
 0002:0001557d       $N00076                    000000018004057d     libvips-cpp.exp
 0002:0001559c       $N00077                    000000018004059c     libvips-cpp.exp
 0002:000155df       $N00078                    00000001800405df     libvips-cpp.exp
 0002:00015622       $N00079                    0000000180040622     libvips-cpp.exp
 0002:00015641       $N00080                    0000000180040641     libvips-cpp.exp
 0002:00015660       $N00081                    0000000180040660     libvips-cpp.exp
 0002:0001567f       $N00082                    000000018004067f     libvips-cpp.exp
 0002:000156c2       $N00083                    00000001800406c2     libvips-cpp.exp
 0002:00015705       $N00084                    0000000180040705     libvips-cpp.exp
 0002:00015724       $N00085                    0000000180040724     libvips-cpp.exp
 0002:00015743       $N00086                    0000000180040743     libvips-cpp.exp
 0002:00015762       $N00087                    0000000180040762     libvips-cpp.exp
 0002:000157a5       $N00088                    00000001800407a5     libvips-cpp.exp
 0002:000157e8       $N00089                    00000001800407e8     libvips-cpp.exp
 0002:00015828       $N00090                    0000000180040828     libvips-cpp.exp
 0002:00015847       $N00091                    0000000180040847     libvips-cpp.exp
 0002:00015866       $N00092                    0000000180040866     libvips-cpp.exp
 0002:00015885       $N00093                    0000000180040885     libvips-cpp.exp
 0002:000158c8       $N00094                    00000001800408c8     libvips-cpp.exp
 0002:0001590b       $N00095                    000000018004090b     libvips-cpp.exp
 0002:0001592a       $N00096                    000000018004092a     libvips-cpp.exp
 0002:00015949       $N00097                    0000000180040949     libvips-cpp.exp
 0002:00015968       $N00098                    0000000180040968     libvips-cpp.exp
 0002:000159ab       $N00099                    00000001800409ab     libvips-cpp.exp
 0002:000159ee       $N00100                    00000001800409ee     libvips-cpp.exp
 0002:00015a11       $N00101                    0000000180040a11     libvips-cpp.exp
 0002:00015a37       $N00102                    0000000180040a37     libvips-cpp.exp
 0002:00015a7e       $N00103                    0000000180040a7e     libvips-cpp.exp
 0002:00015aa1       $N00104                    0000000180040aa1     libvips-cpp.exp
 0002:00015ac7       $N00105                    0000000180040ac7     libvips-cpp.exp
 0002:00015b0e       $N00106                    0000000180040b0e     libvips-cpp.exp
 0002:00015b31       $N00107                    0000000180040b31     libvips-cpp.exp
 0002:00015b57       $N00108                    0000000180040b57     libvips-cpp.exp
 0002:00015b9e       $N00109                    0000000180040b9e     libvips-cpp.exp
 0002:00015bc2       $N00110                    0000000180040bc2     libvips-cpp.exp
 0002:00015be9       $N00111                    0000000180040be9     libvips-cpp.exp
 0002:00015c31       $N00112                    0000000180040c31     libvips-cpp.exp
 0002:00015c55       $N00113                    0000000180040c55     libvips-cpp.exp
 0002:00015c7c       $N00114                    0000000180040c7c     libvips-cpp.exp
 0002:00015cc4       $N00115                    0000000180040cc4     libvips-cpp.exp
 0002:00015ce8       $N00116                    0000000180040ce8     libvips-cpp.exp
 0002:00015d0f       $N00117                    0000000180040d0f     libvips-cpp.exp
 0002:00015d57       $N00118                    0000000180040d57     libvips-cpp.exp
 0002:00015d7b       $N00119                    0000000180040d7b     libvips-cpp.exp
 0002:00015da2       $N00120                    0000000180040da2     libvips-cpp.exp
 0002:00015dea       $N00121                    0000000180040dea     libvips-cpp.exp
 0002:00015e0e       $N00122                    0000000180040e0e     libvips-cpp.exp
 0002:00015e35       $N00123                    0000000180040e35     libvips-cpp.exp
 0002:00015e7d       $N00124                    0000000180040e7d     libvips-cpp.exp
 0002:00015ea1       $N00125                    0000000180040ea1     libvips-cpp.exp
 0002:00015ec8       $N00126                    0000000180040ec8     libvips-cpp.exp
 0002:00015f10       $N00127                    0000000180040f10     libvips-cpp.exp
 0002:00015f34       $N00128                    0000000180040f34     libvips-cpp.exp
 0002:00015f5b       $N00129                    0000000180040f5b     libvips-cpp.exp
 0002:00015fa3       $N00130                    0000000180040fa3     libvips-cpp.exp
 0002:00015fb8       $N00131                    0000000180040fb8     libvips-cpp.exp
 0002:00015fce       $N00132                    0000000180040fce     libvips-cpp.exp
 0002:00015fff       $N00133                    0000000180040fff     libvips-cpp.exp
 0002:00016031       $N00134                    0000000180041031     libvips-cpp.exp
 0002:00016062       $N00135                    0000000180041062     libvips-cpp.exp
 0002:00016093       $N00136                    0000000180041093     libvips-cpp.exp
 0002:000160c4       $N00137                    00000001800410c4     libvips-cpp.exp
 0002:000160f6       $N00138                    00000001800410f6     libvips-cpp.exp
 0002:00016128       $N00139                    0000000180041128     libvips-cpp.exp
 0002:00016159       $N00140                    0000000180041159     libvips-cpp.exp
 0002:0001618b       $N00141                    000000018004118b     libvips-cpp.exp
 0002:000161be       $N00142                    00000001800411be     libvips-cpp.exp
 0002:000161f1       $N00143                    00000001800411f1     libvips-cpp.exp
 0002:00016223       $N00144                    0000000180041223     libvips-cpp.exp
 0002:00016256       $N00145                    0000000180041256     libvips-cpp.exp
 0002:00016287       $N00146                    0000000180041287     libvips-cpp.exp
 0002:000162b8       $N00147                    00000001800412b8     libvips-cpp.exp
 0002:000162eb       $N00148                    00000001800412eb     libvips-cpp.exp
 0002:0001631c       $N00149                    000000018004131c     libvips-cpp.exp
 0002:00016349       $N00150                    0000000180041349     libvips-cpp.exp
 0002:00016377       $N00151                    0000000180041377     libvips-cpp.exp
 0002:000163a8       $N00152                    00000001800413a8     libvips-cpp.exp
 0002:000163fd       $N00153                    00000001800413fd     libvips-cpp.exp
 0002:00016434       $N00154                    0000000180041434     libvips-cpp.exp
 0002:000164a4       $N00155                    00000001800414a4     libvips-cpp.exp
 0002:000164d2       $N00156                    00000001800414d2     libvips-cpp.exp
 0002:00016500       $N00157                    0000000180041500     libvips-cpp.exp
 0002:00016531       $N00158                    0000000180041531     libvips-cpp.exp
 0002:00016559       $N00159                    0000000180041559     libvips-cpp.exp
 0002:000165a3       $N00160                    00000001800415a3     libvips-cpp.exp
 0002:000165d5       $N00161                    00000001800415d5     libvips-cpp.exp
 0002:00016608       $N00162                    0000000180041608     libvips-cpp.exp
 0002:0001663e       $N00163                    000000018004163e     libvips-cpp.exp
 0002:00016695       $N00164                    0000000180041695     libvips-cpp.exp
 0002:00016704       $N00165                    0000000180041704     libvips-cpp.exp
 0002:00016761       $N00166                    0000000180041761     libvips-cpp.exp
 0002:00016793       $N00167                    0000000180041793     libvips-cpp.exp
 0002:00016802       $N00168                    0000000180041802     libvips-cpp.exp
 0002:0001681e       $N00169                    000000018004181e     libvips-cpp.exp
 0002:0001688c       $N00170                    000000018004188c     libvips-cpp.exp
 0002:000168c0       $N00171                    00000001800418c0     libvips-cpp.exp
 0002:000168ef       $N00172                    00000001800418ef     libvips-cpp.exp
 0002:0001693c       $N00173                    000000018004193c     libvips-cpp.exp
 0002:000169b0       $N00174                    00000001800419b0     libvips-cpp.exp
 0002:000169e2       $N00175                    00000001800419e2     libvips-cpp.exp
 0002:00016a14       $N00176                    0000000180041a14     libvips-cpp.exp
 0002:00016a43       $N00177                    0000000180041a43     libvips-cpp.exp
 0002:00016a6e       $N00178                    0000000180041a6e     libvips-cpp.exp
 0002:00016aa8       $N00179                    0000000180041aa8     libvips-cpp.exp
 0002:00016ae8       $N00180                    0000000180041ae8     libvips-cpp.exp
 0002:00016b16       $N00181                    0000000180041b16     libvips-cpp.exp
 0002:00016b42       $N00182                    0000000180041b42     libvips-cpp.exp
 0002:00016b8d       $N00183                    0000000180041b8d     libvips-cpp.exp
 0002:00016bc2       $N00184                    0000000180041bc2     libvips-cpp.exp
 0002:00016c11       $N00185                    0000000180041c11     libvips-cpp.exp
 0002:00016c5a       $N00186                    0000000180041c5a     libvips-cpp.exp
 0002:00016c93       $N00187                    0000000180041c93     libvips-cpp.exp
 0002:00016ce2       $N00188                    0000000180041ce2     libvips-cpp.exp
 0002:00016d10       $N00189                    0000000180041d10     libvips-cpp.exp
 0002:00016d42       $N00190                    0000000180041d42     libvips-cpp.exp
 0002:00016d75       $N00191                    0000000180041d75     libvips-cpp.exp
 0002:00016dab       $N00192                    0000000180041dab     libvips-cpp.exp
 0002:00016dde       $N00193                    0000000180041dde     libvips-cpp.exp
 0002:00016e11       $N00194                    0000000180041e11     libvips-cpp.exp
 0002:00016e46       $N00195                    0000000180041e46     libvips-cpp.exp
 0002:00016e74       $N00196                    0000000180041e74     libvips-cpp.exp
 0002:00016ea1       $N00197                    0000000180041ea1     libvips-cpp.exp
 0002:00016ee1       $N00198                    0000000180041ee1     libvips-cpp.exp
 0002:00016f14       $N00199                    0000000180041f14     libvips-cpp.exp
 0002:00016f44       $N00200                    0000000180041f44     libvips-cpp.exp
 0002:00016f76       $N00201                    0000000180041f76     libvips-cpp.exp
 0002:00016fa8       $N00202                    0000000180041fa8     libvips-cpp.exp
 0002:00016fdb       $N00203                    0000000180041fdb     libvips-cpp.exp
 0002:00016ff9       $N00204                    0000000180041ff9     libvips-cpp.exp
 0002:00017025       $N00205                    0000000180042025     libvips-cpp.exp
 0002:00017059       $N00206                    0000000180042059     libvips-cpp.exp
 0002:0001708d       $N00207                    000000018004208d     libvips-cpp.exp
 0002:000170e5       $N00208                    00000001800420e5     libvips-cpp.exp
 0002:0001713b       $N00209                    000000018004213b     libvips-cpp.exp
 0002:00017170       $N00210                    0000000180042170     libvips-cpp.exp
 0002:000171c7       $N00211                    00000001800421c7     libvips-cpp.exp
 0002:00017220       $N00212                    0000000180042220     libvips-cpp.exp
 0002:00017277       $N00213                    0000000180042277     libvips-cpp.exp
 0002:000172ab       $N00214                    00000001800422ab     libvips-cpp.exp
 0002:000172da       $N00215                    00000001800422da     libvips-cpp.exp
 0002:0001731a       $N00216                    000000018004231a     libvips-cpp.exp
 0002:0001734d       $N00217                    000000018004234d     libvips-cpp.exp
 0002:00017380       $N00218                    0000000180042380     libvips-cpp.exp
 0002:000173af       $N00219                    00000001800423af     libvips-cpp.exp
 0002:000173dc       $N00220                    00000001800423dc     libvips-cpp.exp
 0002:00017416       $N00221                    0000000180042416     libvips-cpp.exp
 0002:0001744d       $N00222                    000000018004244d     libvips-cpp.exp
 0002:0001747a       $N00223                    000000018004247a     libvips-cpp.exp
 0002:000174af       $N00224                    00000001800424af     libvips-cpp.exp
 0002:000174e4       $N00225                    00000001800424e4     libvips-cpp.exp
 0002:00017506       $N00226                    0000000180042506     libvips-cpp.exp
 0002:0001753a       $N00227                    000000018004253a     libvips-cpp.exp
 0002:0001756b       $N00228                    000000018004256b     libvips-cpp.exp
 0002:0001759c       $N00229                    000000018004259c     libvips-cpp.exp
 0002:000175db       $N00230                    00000001800425db     libvips-cpp.exp
 0002:0001760c       $N00231                    000000018004260c     libvips-cpp.exp
 0002:0001763d       $N00232                    000000018004263d     libvips-cpp.exp
 0002:00017670       $N00233                    0000000180042670     libvips-cpp.exp
 0002:0001769f       $N00234                    000000018004269f     libvips-cpp.exp
 0002:000176cf       $N00235                    00000001800426cf     libvips-cpp.exp
 0002:00017703       $N00236                    0000000180042703     libvips-cpp.exp
 0002:00017739       $N00237                    0000000180042739     libvips-cpp.exp
 0002:00017768       $N00238                    0000000180042768     libvips-cpp.exp
 0002:00017797       $N00239                    0000000180042797     libvips-cpp.exp
 0002:000177cb       $N00240                    00000001800427cb     libvips-cpp.exp
 0002:000177fd       $N00241                    00000001800427fd     libvips-cpp.exp
 0002:00017831       $N00242                    0000000180042831     libvips-cpp.exp
 0002:0001785c       $N00243                    000000018004285c     libvips-cpp.exp
 0002:00017881       $N00244                    0000000180042881     libvips-cpp.exp
 0002:000178b0       $N00245                    00000001800428b0     libvips-cpp.exp
 0002:000178d2       $N00246                    00000001800428d2     libvips-cpp.exp
 0002:00017913       $N00247                    0000000180042913     libvips-cpp.exp
 0002:0001794c       $N00248                    000000018004294c     libvips-cpp.exp
 0002:00017974       $N00249                    0000000180042974     libvips-cpp.exp
 0002:0001799a       $N00250                    000000018004299a     libvips-cpp.exp
 0002:000179ef       $N00251                    00000001800429ef     libvips-cpp.exp
 0002:00017a22       $N00252                    0000000180042a22     libvips-cpp.exp
 0002:00017a67       $N00253                    0000000180042a67     libvips-cpp.exp
 0002:00017a9e       $N00254                    0000000180042a9e     libvips-cpp.exp
 0002:00017acc       $N00255                    0000000180042acc     libvips-cpp.exp
 0002:00017afd       $N00256                    0000000180042afd     libvips-cpp.exp
 0002:00017b3f       $N00257                    0000000180042b3f     libvips-cpp.exp
 0002:00017b5c       $N00258                    0000000180042b5c     libvips-cpp.exp
 0002:00017b8e       $N00259                    0000000180042b8e     libvips-cpp.exp
 0002:00017bbf       $N00260                    0000000180042bbf     libvips-cpp.exp
 0002:00017bf3       $N00261                    0000000180042bf3     libvips-cpp.exp
 0002:00017c26       $N00262                    0000000180042c26     libvips-cpp.exp
 0002:00017c65       $N00263                    0000000180042c65     libvips-cpp.exp
 0002:00017c9d       $N00264                    0000000180042c9d     libvips-cpp.exp
 0002:00017cd3       $N00265                    0000000180042cd3     libvips-cpp.exp
 0002:00017d09       $N00266                    0000000180042d09     libvips-cpp.exp
 0002:00017d41       $N00267                    0000000180042d41     libvips-cpp.exp
 0002:00017d74       $N00268                    0000000180042d74     libvips-cpp.exp
 0002:00017da7       $N00269                    0000000180042da7     libvips-cpp.exp
 0002:00017ddd       $N00270                    0000000180042ddd     libvips-cpp.exp
 0002:00017e11       $N00271                    0000000180042e11     libvips-cpp.exp
 0002:00017e45       $N00272                    0000000180042e45     libvips-cpp.exp
 0002:00017e79       $N00273                    0000000180042e79     libvips-cpp.exp
 0002:00017eb4       $N00274                    0000000180042eb4     libvips-cpp.exp
 0002:00017ee4       $N00275                    0000000180042ee4     libvips-cpp.exp
 0002:00017f1a       $N00276                    0000000180042f1a     libvips-cpp.exp
 0002:00017f53       $N00277                    0000000180042f53     libvips-cpp.exp
 0002:00017f8c       $N00278                    0000000180042f8c     libvips-cpp.exp
 0002:00017fc5       $N00279                    0000000180042fc5     libvips-cpp.exp
 0002:00018022       $N00280                    0000000180043022     libvips-cpp.exp
 0002:0001807c       $N00281                    000000018004307c     libvips-cpp.exp
 0002:000180d9       $N00282                    00000001800430d9     libvips-cpp.exp
 0002:00018107       $N00283                    0000000180043107     libvips-cpp.exp
 0002:0001813d       $N00284                    000000018004313d     libvips-cpp.exp
 0002:00018179       $N00285                    0000000180043179     libvips-cpp.exp
 0002:000181a9       $N00286                    00000001800431a9     libvips-cpp.exp
 0002:000181e7       $N00287                    00000001800431e7     libvips-cpp.exp
 0002:0001821a       $N00288                    000000018004321a     libvips-cpp.exp
 0002:0001824a       $N00289                    000000018004324a     libvips-cpp.exp
 0002:0001828d       $N00290                    000000018004328d     libvips-cpp.exp
 0002:000182c1       $N00291                    00000001800432c1     libvips-cpp.exp
 0002:00018307       $N00292                    0000000180043307     libvips-cpp.exp
 0002:00018338       $N00293                    0000000180043338     libvips-cpp.exp
 0002:0001837a       $N00294                    000000018004337a     libvips-cpp.exp
 0002:000183ac       $N00295                    00000001800433ac     libvips-cpp.exp
 0002:000183e2       $N00296                    00000001800433e2     libvips-cpp.exp
 0002:00018414       $N00297                    0000000180043414     libvips-cpp.exp
 0002:0001846a       $N00298                    000000018004346a     libvips-cpp.exp
 0002:000184c0       $N00299                    00000001800434c0     libvips-cpp.exp
 0002:00018516       $N00300                    0000000180043516     libvips-cpp.exp
 0002:00018549       $N00301                    0000000180043549     libvips-cpp.exp
 0002:00018578       $N00302                    0000000180043578     libvips-cpp.exp
 0002:000185a5       $N00303                    00000001800435a5     libvips-cpp.exp
 0002:000185d5       $N00304                    00000001800435d5     libvips-cpp.exp
 0002:0001860b       $N00305                    000000018004360b     libvips-cpp.exp
 0002:00018653       $N00306                    0000000180043653     libvips-cpp.exp
 0002:00018686       $N00307                    0000000180043686     libvips-cpp.exp
 0002:000186ba       $N00308                    00000001800436ba     libvips-cpp.exp
 0002:000186f7       $N00309                    00000001800436f7     libvips-cpp.exp
 0002:0001873b       $N00310                    000000018004373b     libvips-cpp.exp
 0002:0001877e       $N00311                    000000018004377e     libvips-cpp.exp
 0002:000187b5       $N00312                    00000001800437b5     libvips-cpp.exp
 0002:000187ee       $N00313                    00000001800437ee     libvips-cpp.exp
 0002:0001882e       $N00314                    000000018004382e     libvips-cpp.exp
 0002:0001886d       $N00315                    000000018004386d     libvips-cpp.exp
 0002:000188a2       $N00316                    00000001800438a2     libvips-cpp.exp
 0002:000188de       $N00317                    00000001800438de     libvips-cpp.exp
 0002:00018919       $N00318                    0000000180043919     libvips-cpp.exp
 0002:00018954       $N00319                    0000000180043954     libvips-cpp.exp
 0002:0001899d       $N00320                    000000018004399d     libvips-cpp.exp
 0002:00018a0d       $N00321                    0000000180043a0d     libvips-cpp.exp
 0002:00018a50       $N00322                    0000000180043a50     libvips-cpp.exp
 0002:00018a83       $N00323                    0000000180043a83     libvips-cpp.exp
 0002:00018ab9       $N00324                    0000000180043ab9     libvips-cpp.exp
 0002:00018ae9       $N00325                    0000000180043ae9     libvips-cpp.exp
 0002:00018b1c       $N00326                    0000000180043b1c     libvips-cpp.exp
 0002:00018b44       $N00327                    0000000180043b44     libvips-cpp.exp
 0002:00018b82       $N00328                    0000000180043b82     libvips-cpp.exp
 0002:00018bb5       $N00329                    0000000180043bb5     libvips-cpp.exp
 0002:00018be6       $N00330                    0000000180043be6     libvips-cpp.exp
 0002:00018c2c       $N00331                    0000000180043c2c     libvips-cpp.exp
 0002:00018c54       $N00332                    0000000180043c54     libvips-cpp.exp
 0002:00018c92       $N00333                    0000000180043c92     libvips-cpp.exp
 0002:00018ce0       $N00334                    0000000180043ce0     libvips-cpp.exp
 0002:00018d2e       $N00335                    0000000180043d2e     libvips-cpp.exp
 0002:00018d77       $N00336                    0000000180043d77     libvips-cpp.exp
 0002:00018da4       $N00337                    0000000180043da4     libvips-cpp.exp
 0002:00018dda       $N00338                    0000000180043dda     libvips-cpp.exp
 0002:00018e18       $N00339                    0000000180043e18     libvips-cpp.exp
 0002:00018e59       $N00340                    0000000180043e59     libvips-cpp.exp
 0002:00018e92       $N00341                    0000000180043e92     libvips-cpp.exp
 0002:00018ebd       $N00342                    0000000180043ebd     libvips-cpp.exp
 0002:00018f0c       $N00343                    0000000180043f0c     libvips-cpp.exp
 0002:00018f50       $N00344                    0000000180043f50     libvips-cpp.exp
 0002:00018f8f       $N00345                    0000000180043f8f     libvips-cpp.exp
 0002:00018fb5       $N00346                    0000000180043fb5     libvips-cpp.exp
 0002:00018fe0       $N00347                    0000000180043fe0     libvips-cpp.exp
 0002:00019007       $N00348                    0000000180044007     libvips-cpp.exp
 0002:0001902b       $N00349                    000000018004402b     libvips-cpp.exp
 0002:00019056       $N00350                    0000000180044056     libvips-cpp.exp
 0002:0001908d       $N00351                    000000018004408d     libvips-cpp.exp
 0002:000190c6       $N00352                    00000001800440c6     libvips-cpp.exp
 0002:000190ee       $N00353                    00000001800440ee     libvips-cpp.exp
 0002:00019143       $N00354                    0000000180044143     libvips-cpp.exp
 0002:00019176       $N00355                    0000000180044176     libvips-cpp.exp
 0002:000191bb       $N00356                    00000001800441bb     libvips-cpp.exp
 0002:000191e8       $N00357                    00000001800441e8     libvips-cpp.exp
 0002:00019218       $N00358                    0000000180044218     libvips-cpp.exp
 0002:0001924e       $N00359                    000000018004424e     libvips-cpp.exp
 0002:00019281       $N00360                    0000000180044281     libvips-cpp.exp
 0002:000192c6       $N00361                    00000001800442c6     libvips-cpp.exp
 0002:000192f6       $N00362                    00000001800442f6     libvips-cpp.exp
 0002:00019337       $N00363                    0000000180044337     libvips-cpp.exp
 0002:00019366       $N00364                    0000000180044366     libvips-cpp.exp
 0002:00019394       $N00365                    0000000180044394     libvips-cpp.exp
 0002:000193c5       $N00366                    00000001800443c5     libvips-cpp.exp
 0002:00019417       $N00367                    0000000180044417     libvips-cpp.exp
 0002:0001944a       $N00368                    000000018004444a     libvips-cpp.exp
 0002:0001947a       $N00369                    000000018004447a     libvips-cpp.exp
 0002:000194af       $N00370                    00000001800444af     libvips-cpp.exp
 0002:000194e7       $N00371                    00000001800444e7     libvips-cpp.exp
 0002:0001951f       $N00372                    000000018004451f     libvips-cpp.exp
 0002:00019556       $N00373                    0000000180044556     libvips-cpp.exp
 0002:00019589       $N00374                    0000000180044589     libvips-cpp.exp
 0002:000195bc       $N00375                    00000001800445bc     libvips-cpp.exp
 0002:000195ec       $N00376                    00000001800445ec     libvips-cpp.exp
 0002:0001962d       $N00377                    000000018004462d     libvips-cpp.exp
 0002:0001965e       $N00378                    000000018004465e     libvips-cpp.exp
 0002:00019694       $N00379                    0000000180044694     libvips-cpp.exp
 0002:000196c4       $N00380                    00000001800446c4     libvips-cpp.exp
 0002:000196f4       $N00381                    00000001800446f4     libvips-cpp.exp
 0002:00019722       $N00382                    0000000180044722     libvips-cpp.exp
 0002:00019756       $N00383                    0000000180044756     libvips-cpp.exp
 0002:00019784       $N00384                    0000000180044784     libvips-cpp.exp
 0002:000197b6       $N00385                    00000001800447b6     libvips-cpp.exp
 0002:000197e8       $N00386                    00000001800447e8     libvips-cpp.exp
 0002:0001981a       $N00387                    000000018004481a     libvips-cpp.exp
 0002:0001986d       $N00388                    000000018004486d     libvips-cpp.exp
 0002:000198e7       $N00389                    00000001800448e7     libvips-cpp.exp
 0002:0001991e       $N00390                    000000018004491e     libvips-cpp.exp
 0002:0001997c       $N00391                    000000018004497c     libvips-cpp.exp
 0002:000199b1       $N00392                    00000001800449b1     libvips-cpp.exp
 0002:000199e2       $N00393                    00000001800449e2     libvips-cpp.exp
 0002:00019a10       $N00394                    0000000180044a10     libvips-cpp.exp
 0002:00019a40       $N00395                    0000000180044a40     libvips-cpp.exp
 0002:00019a70       $N00396                    0000000180044a70     libvips-cpp.exp
 0002:00019a9f       $N00397                    0000000180044a9f     libvips-cpp.exp
 0002:00019ace       $N00398                    0000000180044ace     libvips-cpp.exp
 0002:00019b08       $N00399                    0000000180044b08     libvips-cpp.exp
 0002:00019b4d       $N00400                    0000000180044b4d     libvips-cpp.exp
 0002:00019b7f       $N00401                    0000000180044b7f     libvips-cpp.exp
 0002:00019bb3       $N00402                    0000000180044bb3     libvips-cpp.exp
 0002:00019be5       $N00403                    0000000180044be5     libvips-cpp.exp
 0002:00019c18       $N00404                    0000000180044c18     libvips-cpp.exp
 0002:00019c4c       $N00405                    0000000180044c4c     libvips-cpp.exp
 0002:00019c7b       $N00406                    0000000180044c7b     libvips-cpp.exp
 0002:00019caf       $N00407                    0000000180044caf     libvips-cpp.exp
 0002:00019cce       $N00408                    0000000180044cce     libvips-cpp.exp
 0002:00019ced       $N00409                    0000000180044ced     libvips-cpp.exp
 0002:00019d0c       $N00410                    0000000180044d0c     libvips-cpp.exp
 0002:00019d38       $N00411                    0000000180044d38     libvips-cpp.exp
 0002:00019d5e       $N00412                    0000000180044d5e     libvips-cpp.exp
 0002:00019d84       $N00413                    0000000180044d84     libvips-cpp.exp
 0002:00019daa       $N00414                    0000000180044daa     libvips-cpp.exp
 0002:00019dd3       $N00415                    0000000180044dd3     libvips-cpp.exp
 0002:00019dfc       $N00416                    0000000180044dfc     libvips-cpp.exp
 0002:00019e33       $N00417                    0000000180044e33     libvips-cpp.exp
 0002:00019e67       $N00418                    0000000180044e67     libvips-cpp.exp
 0002:00019eb4       $N00419                    0000000180044eb4     libvips-cpp.exp
 0002:00019ee6       $N00420                    0000000180044ee6     libvips-cpp.exp
 0002:00019f10       $N00421                    0000000180044f10     libvips-cpp.exp
 0002:00019f5a       $N00422                    0000000180044f5a     libvips-cpp.exp
 0002:00019fbe       $N00423                    0000000180044fbe     libvips-cpp.exp
 0002:00019fed       $N00424                    0000000180044fed     libvips-cpp.exp
 0002:0001a022       $N00425                    0000000180045022     libvips-cpp.exp
 0002:0001a049       $N00426                    0000000180045049     libvips-cpp.exp
 0002:0001a082       $N00427                    0000000180045082     libvips-cpp.exp
 0002:0001a0b3       $N00428                    00000001800450b3     libvips-cpp.exp
 0002:0001a0e5       $N00429                    00000001800450e5     libvips-cpp.exp
 0002:0001a117       $N00430                    0000000180045117     libvips-cpp.exp
 0002:0001a149       $N00431                    0000000180045149     libvips-cpp.exp
 0002:0001a177       $N00432                    0000000180045177     libvips-cpp.exp
 0002:0001a1ab       $N00433                    00000001800451ab     libvips-cpp.exp
 0002:0001a1d8       $N00434                    00000001800451d8     libvips-cpp.exp
 0002:0001a207       $N00435                    0000000180045207     libvips-cpp.exp
 0002:0001a23c       $N00436                    000000018004523c     libvips-cpp.exp
 0002:0001a26f       $N00437                    000000018004526f     libvips-cpp.exp
 0002:0001a2a1       $N00438                    00000001800452a1     libvips-cpp.exp
 0002:0001a2d0       $N00439                    00000001800452d0     libvips-cpp.exp
 0002:0001a301       $N00440                    0000000180045301     libvips-cpp.exp
 0002:0001a336       $N00441                    0000000180045336     libvips-cpp.exp
 0002:0001a36c       $N00442                    000000018004536c     libvips-cpp.exp
 0002:0001a3d6       $N00443                    00000001800453d6     libvips-cpp.exp
 0002:0001a409       $N00444                    0000000180045409     libvips-cpp.exp
 0002:0001a44e       $N00445                    000000018004544e     libvips-cpp.exp
 0002:0001a47b       $N00446                    000000018004547b     libvips-cpp.exp
 0002:0001a4a8       $N00447                    00000001800454a8     libvips-cpp.exp
 0002:0001a4d8       $N00448                    00000001800454d8     libvips-cpp.exp
 0002:0001a50e       $N00449                    000000018004550e     libvips-cpp.exp
 0002:0001a556       $N00450                    0000000180045556     libvips-cpp.exp
 0002:0001a58a       $N00451                    000000018004558a     libvips-cpp.exp
 0002:0001a5d0       $N00452                    00000001800455d0     libvips-cpp.exp
 0002:0001a601       $N00453                    0000000180045601     libvips-cpp.exp
 0002:0001a643       $N00454                    0000000180045643     libvips-cpp.exp
 0002:0001a676       $N00455                    0000000180045676     libvips-cpp.exp
 0002:0001a6b8       $N00456                    00000001800456b8     libvips-cpp.exp
 0002:0001a6f6       $N00457                    00000001800456f6     libvips-cpp.exp
 0002:0001a735       $N00458                    0000000180045735     libvips-cpp.exp
 0002:0001a764       $N00459                    0000000180045764     libvips-cpp.exp
 0002:0001a79b       $N00460                    000000018004579b     libvips-cpp.exp
 0002:0001a7cf       $N00461                    00000001800457cf     libvips-cpp.exp
 0002:0001a800       $N00462                    0000000180045800     libvips-cpp.exp
 0002:0001a834       $N00463                    0000000180045834     libvips-cpp.exp
 0002:0001a87a       $N00464                    000000018004587a     libvips-cpp.exp
 0002:0001a8ab       $N00465                    00000001800458ab     libvips-cpp.exp
 0002:0001a8ed       $N00466                    00000001800458ed     libvips-cpp.exp
 0002:0001a90b       $N00467                    000000018004590b     libvips-cpp.exp
 0002:0001a927       $N00468                    0000000180045927     libvips-cpp.exp
 0002:0001a955       $N00469                    0000000180045955     libvips-cpp.exp
 0002:0001a986       $N00470                    0000000180045986     libvips-cpp.exp
 0002:0001a9d8       $N00471                    00000001800459d8     libvips-cpp.exp
 0002:0001aa08       $N00472                    0000000180045a08     libvips-cpp.exp
 0002:0001aa36       $N00473                    0000000180045a36     libvips-cpp.exp
 0002:0001aa5b       $N00474                    0000000180045a5b     libvips-cpp.exp
 0002:0001aa9f       $N00475                    0000000180045a9f     libvips-cpp.exp
 0002:0001aad5       $N00476                    0000000180045ad5     libvips-cpp.exp
 0002:0001ab03       $N00477                    0000000180045b03     libvips-cpp.exp
 0002:0001ab21       $N00478                    0000000180045b21     libvips-cpp.exp
 0002:0001ab3c       $N00479                    0000000180045b3c     libvips-cpp.exp
 0002:0001ab69       $N00480                    0000000180045b69     libvips-cpp.exp
 0002:0001ab87       $N00481                    0000000180045b87     libvips-cpp.exp
 0002:0001aba2       $N00482                    0000000180045ba2     libvips-cpp.exp
 0002:0001abd0       $N00483                    0000000180045bd0     libvips-cpp.exp
 0002:0001aeb0       .idata$4                   0000000180045eb0     libvips:ddcis00699.o
 0002:0001aeb8       .idata$4                   0000000180045eb8     libvips:ddcis00881.o
 0002:0001aec0       .idata$4                   0000000180045ec0     libvips:ddcis00894.o
 0002:0001aec8       .idata$4                   0000000180045ec8     libvips:ddcis00900.o
 0002:0001aed0       .idata$4                   0000000180045ed0     libvips:ddcis00950.o
 0002:0001aed8       .idata$4                   0000000180045ed8     libvips:ddcis00951.o
 0002:0001aee0       .idata$4                   0000000180045ee0     libvips:ddcis01003.o
 0002:0001aee8       .idata$4                   0000000180045ee8     libvips:ddcis01200.o
 0002:0001aef0       .idata$4                   0000000180045ef0     libvips:ddcis01210.o
 0002:0001aef8       .idata$4                   0000000180045ef8     libvips:ddcis01211.o
 0002:0001af00       .idata$4                   0000000180045f00     libvips:ddcis01254.o
 0002:0001af08       .idata$4                   0000000180045f08     libvips:ddcis01255.o
 0002:0001af10       .idata$4                   0000000180045f10     libvips:ddcis01256.o
 0002:0001af18       .idata$4                   0000000180045f18     libvips:ddcis01257.o
 0002:0001af20       .idata$4                   0000000180045f20     libvips:ddcis01337.o
 0002:0001af28       .idata$4                   0000000180045f28     libvips:ddcis01436.o
 0002:0001af30       .idata$4                   0000000180045f30     libvips:ddcis01437.o
 0002:0001af38       .idata$4                   0000000180045f38     libvips:ddcis01438.o
 0002:0001af40       .idata$4                   0000000180045f40     libvips:ddcis01439.o
 0002:0001af48       .idata$4                   0000000180045f48     libvips:ddcis01440.o
 0002:0001af50       .idata$4                   0000000180045f50     libvips:ddcis01442.o
 0002:0001af58       .idata$4                   0000000180045f58     libvips:ddcis01443.o
 0002:0001af60       .idata$4                   0000000180045f60     libvips:ddcis01444.o
 0002:0001af68       .idata$4                   0000000180045f68     libvips:ddcis01446.o
 0002:0001af70       .idata$4                   0000000180045f70     libvips:ddcis01447.o
 0002:0001af78       .idata$4                   0000000180045f78     libvips:ddcis01451.o
 0002:0001af80       .idata$4                   0000000180045f80     libvips:ddcis01452.o
 0002:0001af88       .idata$4                   0000000180045f88     libvips:ddcis01453.o
 0002:0001af90       .idata$4                   0000000180045f90     libvips:ddcis01454.o
 0002:0001af98       .idata$4                   0000000180045f98     libvips:ddcis01455.o
 0002:0001afa0       .idata$4                   0000000180045fa0     libvips:ddcis01456.o
 0002:0001afa8       .idata$4                   0000000180045fa8     libvips:ddcis01457.o
 0002:0001afb0       .idata$4                   0000000180045fb0     libvips:ddcis01458.o
 0002:0001afb8       .idata$4                   0000000180045fb8     libvips:ddcis01460.o
 0002:0001afc0       .idata$4                   0000000180045fc0     libvips:ddcis01482.o
 0002:0001afc8       .idata$4                   0000000180045fc8     libvips:ddcis01484.o
 0002:0001afd0       .idata$4                   0000000180045fd0     libvips:ddcis01485.o
 0002:0001afd8       .idata$4                   0000000180045fd8     libvips:ddcis01487.o
 0002:0001afe0       .idata$4                   0000000180045fe0     libvips:ddcis01489.o
 0002:0001afe8       .idata$4                   0000000180045fe8     libvips:ddcis01502.o
 0002:0001aff0       .idata$4                   0000000180045ff0     libvips:ddcis01504.o
 0002:0001aff8       .idata$4                   0000000180045ff8     libvips:ddcis01505.o
 0002:0001b000       .idata$4                   0000000180046000     libvips:ddcis01508.o
 0002:0001b008       .idata$4                   0000000180046008     libvips:ddcis01511.o
 0002:0001b010       .idata$4                   0000000180046010     libvips:ddcis01516.o
 0002:0001b018       .idata$4                   0000000180046018     libvips:ddcis01531.o
 0002:0001b020       .idata$4                   0000000180046020     libvips:ddcis01538.o
 0002:0001b028       .idata$4                   0000000180046028     libvips:ddcis01664.o
 0002:0001b030       .idata$4                   0000000180046030     libvips:ddcis01670.o
 0002:0001b038       .idata$4                   0000000180046038     libvips:ddcis01687.o
 0002:0001b040       .idata$4                   0000000180046040     libvips:ddcis01694.o
 0002:0001b048       .idata$4                   0000000180046048     libvips:ddcis01709.o
 0002:0001b050       .idata$4                   0000000180046050     libvips:ddcis01968.o
 0002:0001b058       .idata$4                   0000000180046058     libvips:ddcis01969.o
 0002:0001b060       .idata$4                   0000000180046060     libvips:ddcis01978.o
 0002:0001b068       .idata$4                   0000000180046068     libvips:ddcis01979.o
 0002:0001b078       .idata$4                   0000000180046078     libgobject-2.0:dhzhs00125.o
 0002:0001b080       .idata$4                   0000000180046080     libgobject-2.0:dhzhs00138.o
 0002:0001b088       .idata$4                   0000000180046088     libgobject-2.0:dhzhs00148.o
 0002:0001b090       .idata$4                   0000000180046090     libgobject-2.0:dhzhs00155.o
 0002:0001b098       .idata$4                   0000000180046098     libgobject-2.0:dhzhs00196.o
 0002:0001b0a0       .idata$4                   00000001800460a0     libgobject-2.0:dhzhs00271.o
 0002:0001b0a8       .idata$4                   00000001800460a8     libgobject-2.0:dhzhs00272.o
 0002:0001b0b0       .idata$4                   00000001800460b0     libgobject-2.0:dhzhs00353.o
 0002:0001b0b8       .idata$4                   00000001800460b8     libgobject-2.0:dhzhs00359.o
 0002:0001b0c0       .idata$4                   00000001800460c0     libgobject-2.0:dhzhs00362.o
 0002:0001b0c8       .idata$4                   00000001800460c8     libgobject-2.0:dhzhs00367.o
 0002:0001b0d0       .idata$4                   00000001800460d0     libgobject-2.0:dhzhs00370.o
 0002:0001b0d8       .idata$4                   00000001800460d8     libgobject-2.0:dhzhs00374.o
 0002:0001b0e0       .idata$4                   00000001800460e0     libgobject-2.0:dhzhs00381.o
 0002:0001b0e8       .idata$4                   00000001800460e8     libgobject-2.0:dhzhs00386.o
 0002:0001b0f0       .idata$4                   00000001800460f0     libgobject-2.0:dhzhs00387.o
 0002:0001b0f8       .idata$4                   00000001800460f8     libgobject-2.0:dhzhs00390.o
 0002:0001b100       .idata$4                   0000000180046100     libgobject-2.0:dhzhs00391.o
 0002:0001b108       .idata$4                   0000000180046108     libgobject-2.0:dhzhs00396.o
 0002:0001b110       .idata$4                   0000000180046110     libgobject-2.0:dhzhs00399.o
 0002:0001b118       .idata$4                   0000000180046118     libgobject-2.0:dhzhs00407.o
 0002:0001b120       .idata$4                   0000000180046120     libgobject-2.0:dhzhs00422.o
 0002:0001b130       .idata$4                   0000000180046130     libglib-2.0:dxyhs00041.o
 0002:0001b138       .idata$4                   0000000180046138     libglib-2.0:dxyhs00617.o
 0002:0001b148       .idata$6                   0000000180046148     kernel32:KERNEL32.dll
 0002:0001b156       .idata$6                   0000000180046156     libvips:ddcis01505.o
 0002:0001b16c       .idata$6                   000000018004616c     libvips:ddcis01482.o
 0002:0001b18a       .idata$6                   000000018004618a     libvips:ddcis01508.o
 0002:0001b1a2       .idata$6                   00000001800461a2     libvips:ddcis01502.o
 0002:0001b1b8       .idata$6                   00000001800461b8     libvips:ddcis01670.o
 0002:0001b1d0       .idata$6                   00000001800461d0     libvips:ddcis01455.o
 0002:0001b1ea       .idata$6                   00000001800461ea     libvips:ddcis01454.o
 0002:0001b202       .idata$6                   0000000180046202     libvips:ddcis01458.o
 0002:0001b218       .idata$6                   0000000180046218     libvips:ddcis01444.o
 0002:0001b230       .idata$6                   0000000180046230     libvips:ddcis01487.o
 0002:0001b248       .idata$6                   0000000180046248     libvips:ddcis01442.o
 0002:0001b262       .idata$6                   0000000180046262     libvips:ddcis01451.o
 0002:0001b27a       .idata$6                   000000018004627a     libvips:ddcis01439.o
 0002:0001b290       .idata$6                   0000000180046290     libvips:ddcis01460.o
 0002:0001b2b2       .idata$6                   00000001800462b2     libvips:ddcis01443.o
 0002:0001b2ca       .idata$6                   00000001800462ca     libvips:ddcis01456.o
 0002:0001b2e0       .idata$6                   00000001800462e0     libvips:ddcis01447.o
 0002:0001b300       .idata$6                   0000000180046300     libvips:ddcis01516.o
 0002:0001b31e       .idata$6                   000000018004631e     libvips:ddcis01436.o
 0002:0001b336       .idata$6                   0000000180046336     libvips:ddcis01453.o
 0002:0001b34e       .idata$6                   000000018004634e     libvips:ddcis01485.o
 0002:0001b372       .idata$6                   0000000180046372     libvips:ddcis01438.o
 0002:0001b38a       .idata$6                   000000018004638a     libvips:ddcis01210.o
 0002:0001b39e       .idata$6                   000000018004639e     libvips:ddcis01489.o
 0002:0001b3ba       .idata$6                   00000001800463ba     libvips:ddcis01437.o
 0002:0001b3d0       .idata$6                   00000001800463d0     libvips:ddcis01440.o
 0002:0001b3e8       .idata$6                   00000001800463e8     libvips:ddcis01504.o
 0002:0001b400       .idata$6                   0000000180046400     libvips:ddcis01446.o
 0002:0001b416       .idata$6                   0000000180046416     libvips:ddcis01457.o
 0002:0001b430       .idata$6                   0000000180046430     libvips:ddcis01538.o
 0002:0001b448       .idata$6                   0000000180046448     libvips:ddcis01531.o
 0002:0001b464       .idata$6                   0000000180046464     libvips:ddcis01979.o
 0002:0001b482       .idata$6                   0000000180046482     libvips:ddcis01978.o
 0002:0001b4a0       .idata$6                   00000001800464a0     libvips:ddcis01255.o
 0002:0001b4c0       .idata$6                   00000001800464c0     libvips:ddcis01709.o
 0002:0001b4d6       .idata$6                   00000001800464d6     libvips:ddcis00900.o
 0002:0001b4f2       .idata$6                   00000001800464f2     libvips:ddcis00699.o
 0002:0001b50a       .idata$6                   000000018004650a     libvips:ddcis00951.o
 0002:0001b51a       .idata$6                   000000018004651a     libvips:ddcis01003.o
 0002:0001b538       .idata$6                   0000000180046538     libvips:ddcis00950.o
 0002:0001b54e       .idata$6                   000000018004654e     libvips:ddcis01200.o
 0002:0001b564       .idata$6                   0000000180046564     libvips:ddcis00894.o
 0002:0001b582       .idata$6                   0000000180046582     libvips:ddcis01337.o
 0002:0001b59e       .idata$6                   000000018004659e     libvips:ddcis01968.o
 0002:0001b5bc       .idata$6                   00000001800465bc     libvips:ddcis01484.o
 0002:0001b5d4       .idata$6                   00000001800465d4     libvips:ddcis01452.o
 0002:0001b5ea       .idata$6                   00000001800465ea     libvips:ddcis01694.o
 0002:0001b606       .idata$6                   0000000180046606     libvips:ddcis01256.o
 0002:0001b620       .idata$6                   0000000180046620     libvips:ddcis01211.o
 0002:0001b634       .idata$6                   0000000180046634     libvips:ddcis01687.o
 0002:0001b652       .idata$6                   0000000180046652     libvips:ddcis01969.o
 0002:0001b670       .idata$6                   0000000180046670     libvips:ddcis01511.o
 0002:0001b684       .idata$6                   0000000180046684     libvips:ddcis00881.o
 0002:0001b696       .idata$6                   0000000180046696     libvips:ddcis01257.o
 0002:0001b6b6       .idata$6                   00000001800466b6     libvips:ddcis01664.o
 0002:0001b6d2       .idata$6                   00000001800466d2     libvips:ddcis01254.o
 0002:0001b6ec       .idata$6                   00000001800466ec     libglib-2.0:dxyhs00041.o
 0002:0001b708       .idata$6                   0000000180046708     libglib-2.0:dxyhs00617.o
 0002:0001b710       .idata$6                   0000000180046710     libgobject-2.0:dhzhs00138.o
 0002:0001b720       .idata$6                   0000000180046720     libgobject-2.0:dhzhs00155.o
 0002:0001b732       .idata$6                   0000000180046732     libgobject-2.0:dhzhs00272.o
 0002:0001b750       .idata$6                   0000000180046750     libgobject-2.0:dhzhs00381.o
 0002:0001b760       .idata$6                   0000000180046760     libgobject-2.0:dhzhs00399.o
 0002:0001b776       .idata$6                   0000000180046776     libgobject-2.0:dhzhs00386.o
 0002:0001b78c       .idata$6                   000000018004678c     libgobject-2.0:dhzhs00374.o
 0002:0001b7a2       .idata$6                   00000001800467a2     libgobject-2.0:dhzhs00390.o
 0002:0001b7b8       .idata$6                   00000001800467b8     libgobject-2.0:dhzhs00407.o
 0002:0001b7ce       .idata$6                   00000001800467ce     libgobject-2.0:dhzhs00271.o
 0002:0001b7ec       .idata$6                   00000001800467ec     libgobject-2.0:dhzhs00359.o
 0002:0001b802       .idata$6                   0000000180046802     libgobject-2.0:dhzhs00196.o
 0002:0001b818       .idata$6                   0000000180046818     libgobject-2.0:dhzhs00387.o
 0002:0001b82c       .idata$6                   000000018004682c     libgobject-2.0:dhzhs00370.o
 0002:0001b842       .idata$6                   0000000180046842     libgobject-2.0:dhzhs00396.o
 0002:0001b854       .idata$6                   0000000180046854     libgobject-2.0:dhzhs00353.o
 0002:0001b868       .idata$6                   0000000180046868     libgobject-2.0:dhzhs00367.o
 0002:0001b87a       .idata$6                   000000018004687a     libgobject-2.0:dhzhs00391.o
 0002:0001b88e       .idata$6                   000000018004688e     libgobject-2.0:dhzhs00362.o
 0002:0001b8a4       .idata$6                   00000001800468a4     libgobject-2.0:dhzhs00125.o
 0002:0001b8bc       .idata$6                   00000001800468bc     libgobject-2.0:dhzhs00422.o
 0002:0001b8cc       .idata$6                   00000001800468cc     libgobject-2.0:dhzhs00148.o
 0002:0001be20       .idata$7                   0000000180046e20     libvips:ddcis01505.o
 0002:0001be24       .idata$7                   0000000180046e24     libvips:ddcis01482.o
 0002:0001be28       .idata$7                   0000000180046e28     libvips:ddcis01508.o
 0002:0001be2c       .idata$7                   0000000180046e2c     libvips:ddcis01502.o
 0002:0001be30       .idata$7                   0000000180046e30     libvips:ddcis01670.o
 0002:0001be34       .idata$7                   0000000180046e34     libvips:ddcis01455.o
 0002:0001be38       .idata$7                   0000000180046e38     libvips:ddcis01454.o
 0002:0001be3c       .idata$7                   0000000180046e3c     libvips:ddcis01458.o
 0002:0001be40       .idata$7                   0000000180046e40     libvips:ddcis01444.o
 0002:0001be44       .idata$7                   0000000180046e44     libvips:ddcis01487.o
 0002:0001be48       .idata$7                   0000000180046e48     libvips:ddcis01442.o
 0002:0001be4c       .idata$7                   0000000180046e4c     libvips:ddcis01451.o
 0002:0001be50       .idata$7                   0000000180046e50     libvips:ddcis01439.o
 0002:0001be54       .idata$7                   0000000180046e54     libvips:ddcis01460.o
 0002:0001be58       .idata$7                   0000000180046e58     libvips:ddcis01443.o
 0002:0001be5c       .idata$7                   0000000180046e5c     libvips:ddcis01456.o
 0002:0001be60       .idata$7                   0000000180046e60     libvips:ddcis01447.o
 0002:0001be64       .idata$7                   0000000180046e64     libvips:ddcis01516.o
 0002:0001be68       .idata$7                   0000000180046e68     libvips:ddcis01436.o
 0002:0001be6c       .idata$7                   0000000180046e6c     libvips:ddcis01453.o
 0002:0001be70       .idata$7                   0000000180046e70     libvips:ddcis01485.o
 0002:0001be74       .idata$7                   0000000180046e74     libvips:ddcis01438.o
 0002:0001be78       .idata$7                   0000000180046e78     libvips:ddcis01210.o
 0002:0001be7c       .idata$7                   0000000180046e7c     libvips:ddcis01489.o
 0002:0001be80       .idata$7                   0000000180046e80     libvips:ddcis01437.o
 0002:0001be84       .idata$7                   0000000180046e84     libvips:ddcis01440.o
 0002:0001be88       .idata$7                   0000000180046e88     libvips:ddcis01504.o
 0002:0001be8c       .idata$7                   0000000180046e8c     libvips:ddcis01446.o
 0002:0001be90       .idata$7                   0000000180046e90     libvips:ddcis01457.o
 0002:0001be94       .idata$7                   0000000180046e94     libvips:ddcis01538.o
 0002:0001be98       .idata$7                   0000000180046e98     libvips:ddcis01531.o
 0002:0001be9c       .idata$7                   0000000180046e9c     libvips:ddcis01979.o
 0002:0001bea0       .idata$7                   0000000180046ea0     libvips:ddcis01978.o
 0002:0001bea4       .idata$7                   0000000180046ea4     libvips:ddcis01255.o
 0002:0001bea8       .idata$7                   0000000180046ea8     libvips:ddcis01709.o
 0002:0001beac       .idata$7                   0000000180046eac     libvips:ddcis00900.o
 0002:0001beb0       .idata$7                   0000000180046eb0     libvips:ddcis00699.o
 0002:0001beb4       .idata$7                   0000000180046eb4     libvips:ddcis00951.o
 0002:0001beb8       .idata$7                   0000000180046eb8     libvips:ddcis01003.o
 0002:0001bebc       .idata$7                   0000000180046ebc     libvips:ddcis00950.o
 0002:0001bec0       .idata$7                   0000000180046ec0     libvips:ddcis01200.o
 0002:0001bec4       .idata$7                   0000000180046ec4     libvips:ddcis00894.o
 0002:0001bec8       .idata$7                   0000000180046ec8     libvips:ddcis01337.o
 0002:0001becc       .idata$7                   0000000180046ecc     libvips:ddcis01968.o
 0002:0001bed0       .idata$7                   0000000180046ed0     libvips:ddcis01484.o
 0002:0001bed4       .idata$7                   0000000180046ed4     libvips:ddcis01452.o
 0002:0001bed8       .idata$7                   0000000180046ed8     libvips:ddcis01694.o
 0002:0001bedc       .idata$7                   0000000180046edc     libvips:ddcis01256.o
 0002:0001bee0       .idata$7                   0000000180046ee0     libvips:ddcis01211.o
 0002:0001bee4       .idata$7                   0000000180046ee4     libvips:ddcis01687.o
 0002:0001bee8       .idata$7                   0000000180046ee8     libvips:ddcis01969.o
 0002:0001beec       .idata$7                   0000000180046eec     libvips:ddcis01511.o
 0002:0001bef0       .idata$7                   0000000180046ef0     libvips:ddcis00881.o
 0002:0001bef4       .idata$7                   0000000180046ef4     libvips:ddcis01257.o
 0002:0001bef8       .idata$7                   0000000180046ef8     libvips:ddcis01664.o
 0002:0001befc       .idata$7                   0000000180046efc     libvips:ddcis01254.o
 0002:0001bf10       .idata$7                   0000000180046f10     libglib-2.0:dxyhs00041.o
 0002:0001bf14       .idata$7                   0000000180046f14     libglib-2.0:dxyhs00617.o
 0002:0001bf2c       .idata$7                   0000000180046f2c     libgobject-2.0:dhzhs00138.o
 0002:0001bf30       .idata$7                   0000000180046f30     libgobject-2.0:dhzhs00155.o
 0002:0001bf34       .idata$7                   0000000180046f34     libgobject-2.0:dhzhs00272.o
 0002:0001bf38       .idata$7                   0000000180046f38     libgobject-2.0:dhzhs00381.o
 0002:0001bf3c       .idata$7                   0000000180046f3c     libgobject-2.0:dhzhs00399.o
 0002:0001bf40       .idata$7                   0000000180046f40     libgobject-2.0:dhzhs00386.o
 0002:0001bf44       .idata$7                   0000000180046f44     libgobject-2.0:dhzhs00374.o
 0002:0001bf48       .idata$7                   0000000180046f48     libgobject-2.0:dhzhs00390.o
 0002:0001bf4c       .idata$7                   0000000180046f4c     libgobject-2.0:dhzhs00407.o
 0002:0001bf50       .idata$7                   0000000180046f50     libgobject-2.0:dhzhs00271.o
 0002:0001bf54       .idata$7                   0000000180046f54     libgobject-2.0:dhzhs00359.o
 0002:0001bf58       .idata$7                   0000000180046f58     libgobject-2.0:dhzhs00196.o
 0002:0001bf5c       .idata$7                   0000000180046f5c     libgobject-2.0:dhzhs00387.o
 0002:0001bf60       .idata$7                   0000000180046f60     libgobject-2.0:dhzhs00370.o
 0002:0001bf64       .idata$7                   0000000180046f64     libgobject-2.0:dhzhs00396.o
 0002:0001bf68       .idata$7                   0000000180046f68     libgobject-2.0:dhzhs00353.o
 0002:0001bf6c       .idata$7                   0000000180046f6c     libgobject-2.0:dhzhs00367.o
 0002:0001bf70       .idata$7                   0000000180046f70     libgobject-2.0:dhzhs00391.o
 0002:0001bf74       .idata$7                   0000000180046f74     libgobject-2.0:dhzhs00362.o
 0002:0001bf78       .idata$7                   0000000180046f78     libgobject-2.0:dhzhs00125.o
 0002:0001bf7c       .idata$7                   0000000180046f7c     libgobject-2.0:dhzhs00422.o
 0002:0001bf80       .idata$7                   0000000180046f80     libgobject-2.0:dhzhs00148.o
 0003:00000030       ?__vcrt_flsindex@@3KA      0000000180047030     libvcruntime:per_thread_data.obj
 0003:00000044       __acrt_flsindex            0000000180047044     libucrt:per_thread_data.obj
 0003:00000048       errno_no_memory            0000000180047048     libucrt:errno.obj
 0003:0000004c       doserrno_no_memory         000000018004704c     libucrt:errno.obj
 0003:000003f0       __rgctypeflag              00000001800473f0     libucrt:mbctype.obj
 0003:00000400       __rgcode_page_info         0000000180047400     libucrt:mbctype.obj
 0003:000008c0       ?dazSupported@?1??_ctrlfp@@9@9 00000001800478c0     libucrt:fpctrl.obj
 0003:00000aa8       ?_Tss_mutex@@3U_RTL_CRITICAL_SECTION@@A 0000000180047aa8     LIBCMT:thread_safe_statics.obj
 0003:00000ad0       ?_Tss_cv@@3U_RTL_CONDITION_VARIABLE@@A 0000000180047ad0     LIBCMT:thread_safe_statics.obj
 0003:00000ad8       ?_Tss_event@@3PEAXEA       0000000180047ad8     LIBCMT:thread_safe_statics.obj
 0003:00000ae0       ?encoded_sleep_condition_variable_cs@@3P6AHPEAU_RTL_CONDITION_VARIABLE@@PEAU_RTL_CRITICAL_SECTION@@K@ZEA 0000000180047ae0     LIBCMT:thread_safe_statics.obj
 0003:00000ae8       ?encoded_wake_all_condition_variable@@3P6AXPEAU_RTL_CONDITION_VARIABLE@@@ZEA 0000000180047ae8     LIBCMT:thread_safe_statics.obj
 0003:00000b00       ?module_local_atexit_table@@3U_onexit_table_t@@A 0000000180047b00     LIBCMT:utility.obj
 0003:00000b18       ?module_local_at_quick_exit_table@@3U_onexit_table_t@@A 0000000180047b18     LIBCMT:utility.obj
 0003:00000b30       ?is_initialized_as_dll@@3_NA 0000000180047b30     LIBCMT:utility.obj
 0003:00000b34       ?__proc_attached@@3HA      0000000180047b34     LIBCMT:dll_dllmain.obj
 0003:00000b40       GS_ExceptionRecord         0000000180047b40     LIBCMT:gs_report.obj
 0003:00000be0       GS_ContextRecord           0000000180047be0     LIBCMT:gs_report.obj
 0003:000010f0       ?module_handles@@3PAPEAUHINSTANCE__@@A 00000001800480f0     libvcruntime:winapi_downlevel.obj
 0003:00001110       ?encoded_function_pointers@@3PAPEAXA 0000000180048110     libvcruntime:winapi_downlevel.obj
 0003:00001160       ?__vcrt_startup_thread_ptd@@3U__vcrt_ptd@@A 0000000180048160     libvcruntime:per_thread_data.obj
 0003:000011d8       __vcrt_lock_table          00000001800481d8     libvcruntime:locks.obj
 0003:00001200       __vcrt_locks_initialized   0000000180048200     libvcruntime:locks.obj
 0003:00001250       ?heap@@3V_HeapManager@@A   0000000180048250     libvcruntime:undname.obj
 0003:00001278       __acrt_invalid_parameter_handler 0000000180048278     libucrt:invalid_parameter.obj
 0003:00001280       __acrt_new_handler         0000000180048280     libucrt:new_handler.obj
 0003:00001288       c_termination_complete     0000000180048288     libucrt:exit.obj
 0003:00001290       thread_local_exit_callback_func 0000000180048290     libucrt:exit.obj
 0003:00001298       ?c_exit_complete@?5??common_exit@@YAXHW4_crt_exit_cleanup_mode@@W4_crt_exit_return_mode@@@Z@4_NA 0000000180048298     libucrt:exit.obj
 0003:000012a0       ?program_name@?5???$common_configure_argv@D@@YAHW4_crt_argv_mode@@@Z@4PADA 00000001800482a0     libucrt:argv_parsing.obj
 0003:00001410       __acrt_lock_table          0000000180048410     libucrt:locks.obj
 0003:00001618       __acrt_locks_initialized   0000000180048618     libucrt:locks.obj
 0003:00001620       module_handles             0000000180048620     libucrt:winapi_thunks.obj
 0003:000016c0       encoded_function_pointers  00000001800486c0     libucrt:winapi_thunks.obj
 0003:000017c0       ?state_cache@?1??__acrt_is_packaged_app@@9@4JA 00000001800487c0     libucrt:winapi_thunks.obj
 0003:000017dc       fSystemSet                 00000001800487dc     libucrt:mbctype.obj
 0003:000017e8       ?initialized@?1??__acrt_initialize_multibyte@@9@4_NA 00000001800487e8     libucrt:mbctype.obj
 0003:00001c28       ctrlc_action               0000000180048c28     libucrt:signal.obj
 0003:00001c30       ctrlbreak_action           0000000180048c30     libucrt:signal.obj
 0003:00001c38       abort_action               0000000180048c38     libucrt:signal.obj
 0003:00001c40       term_action                0000000180048c40     libucrt:signal.obj
 0003:00001c48       user_matherr               0000000180048c48     libucrt:matherr.obj
 0003:00001c60       __acrt_global_new_mode     0000000180048c60     libucrt:new_mode.obj
 0003:00001c80       __acrt_app_type            0000000180048c80     libucrt:report_runtime_error.obj
 0004:00000000       $pdata$?_Raise@exception@stdext@@QEBAXXZ 0000000180049000     VError.obj
 0004:0000000c       $pdata$??_Gruntime_error@std@@UEAAPEAXI@Z 000000018004900c     VError.obj
 0004:0000000c       $pdata$??_Gexception@stdext@@UEAAPEAXI@Z 000000018004900c     VError.obj
 0004:00000018       $pdata$?_Doraise@runtime_error@std@@MEBAXXZ 0000000180049018     VError.obj
 0004:00000018       $pdata$?_Doraise@failure@ios_base@std@@MEBAXXZ 0000000180049018     VError.obj
 0004:00000024       $pdata$??_Gerror_category@std@@UEAAPEAXI@Z 0000000180049024     VError.obj
 0004:00000024       $pdata$??_G_Iostream_error_category@std@@UEAAPEAXI@Z 0000000180049024     VError.obj
 0004:00000030       $pdata$?message@error_code@std@@QEBA?AV?$basic_string@DU?$char_traits@D@std@@V?$allocator@D@2@@2@XZ 0000000180049030     VError.obj
 0004:0000003c       $pdata$?equivalent@error_category@std@@UEBA_NHAEBVerror_condition@2@@Z 000000018004903c     VError.obj
 0004:00000048       $pdata$?_Makestr@_System_error@std@@CA?AV?$basic_string@DU?$char_traits@D@std@@V?$allocator@D@2@@2@Verror_code@2@V32@@Z 0000000180049048     VError.obj
 0004:00000054       $pdata$??_G_System_error@std@@UEAAPEAXI@Z 0000000180049054     VError.obj
 0004:00000054       $pdata$??_Gfailure@ios_base@std@@UEAAPEAXI@Z 0000000180049054     VError.obj
 0004:00000060       $pdata$?message@_Generic_error_category@std@@UEBA?AV?$basic_string@DU?$char_traits@D@std@@V?$allocator@D@2@@2@H@Z 0000000180049060     VError.obj
 0004:0000006c       $pdata$?message@_Iostream_error_category@std@@UEBA?AV?$basic_string@DU?$char_traits@D@std@@V?$allocator@D@2@@2@H@Z 000000018004906c     VError.obj
 0004:00000078       $pdata$?clear@ios_base@std@@QEAAXH_N@Z 0000000180049078     VError.obj
 0004:00000084       $pdata$??0VError@vips@@QEAA@V?$basic_string@DU?$char_traits@D@std@@V?$allocator@D@2@@std@@@Z 0000000180049084     VError.obj
 0004:00000090       $pdata$??0VError@vips@@QEAA@XZ 0000000180049090     VError.obj
 0004:0000009c       $pdata$??1VError@vips@@UEAA@XZ 000000018004909c     VError.obj
 0004:000000a8       $pdata$??0VError@vips@@QEAA@AEBV01@@Z 00000001800490a8     VError.obj
 0004:000000b4       $pdata$??4VError@vips@@QEAAAEAV01@AEBV01@@Z 00000001800490b4     VError.obj
 0004:000000c0       $pdata$??_EVError@vips@@UEAAPEAXI@Z 00000001800490c0     VError.obj
 0004:000000cc       $pdata$0$??_EVError@vips@@UEAAPEAXI@Z 00000001800490cc     VError.obj
 0004:000000d8       $pdata$1$??_EVError@vips@@UEAAPEAXI@Z 00000001800490d8     VError.obj
 0004:000000e4       $pdata$??0VObject@vips@@QEAA@PEAU_VipsObject@@W4VSteal@1@@Z 00000001800490e4     VError.obj
 0004:000000f0       $pdata$??4VObject@vips@@QEAAAEAV01@AEBV01@@Z 00000001800490f0     VError.obj
 0004:000000fc       $pdata$??0VOption@vips@@QEAA@XZ 00000001800490fc     VError.obj
 0004:00000108       $pdata$??0VOption@vips@@QEAA@AEBV01@@Z 0000000180049108     VError.obj
 0004:00000114       $pdata$??4VOption@vips@@QEAAAEAV01@AEBV01@@Z 0000000180049114     VError.obj
 0004:00000120       $pdata$??_EVOption@vips@@UEAAPEAXI@Z 0000000180049120     VError.obj
 0004:0000012c       $pdata$??0VInterpolate@vips@@QEAA@PEAU_VipsInterpolate@@W4VSteal@1@@Z 000000018004912c     VError.obj
 0004:0000012c       $pdata$??0VImage@vips@@QEAA@PEAU_VipsImage@@W4VSteal@1@@Z 000000018004912c     VError.obj
 0004:00000138       $pdata$?get_image@VImage@vips@@QEAAPEAU_VipsImage@@XZ 0000000180049138     VError.obj
 0004:00000138       $pdata$?get_interpolate@VInterpolate@vips@@QEAAPEAU_VipsInterpolate@@XZ 0000000180049138     VError.obj
 0004:00000144       $pdata$?width@VImage@vips@@QEAAHXZ 0000000180049144     VError.obj
 0004:00000150       $pdata$?height@VImage@vips@@QEAAHXZ 0000000180049150     VError.obj
 0004:0000015c       $pdata$?bands@VImage@vips@@QEAAHXZ 000000018004915c     VError.obj
 0004:00000168       $pdata$?format@VImage@vips@@QEAA?AW4VipsBandFormat@@XZ 0000000180049168     VError.obj
 0004:00000174       $pdata$?coding@VImage@vips@@QEAA?AW4VipsCoding@@XZ 0000000180049174     VError.obj
 0004:00000180       $pdata$?interpretation@VImage@vips@@QEAA?AW4VipsInterpretation@@XZ 0000000180049180     VError.obj
 0004:0000018c       $pdata$?guess_interpretation@VImage@vips@@QEAA?AW4VipsInterpretation@@XZ 000000018004918c     VError.obj
 0004:00000198       $pdata$?xres@VImage@vips@@QEAANXZ 0000000180049198     VError.obj
 0004:000001a4       $pdata$?yres@VImage@vips@@QEAANXZ 00000001800491a4     VError.obj
 0004:000001b0       $pdata$?xoffset@VImage@vips@@QEAANXZ 00000001800491b0     VError.obj
 0004:000001bc       $pdata$?yoffset@VImage@vips@@QEAANXZ 00000001800491bc     VError.obj
 0004:000001c8       $pdata$?filename@VImage@vips@@QEAAPEBDXZ 00000001800491c8     VError.obj
 0004:000001d4       $pdata$?data@VImage@vips@@QEAAPEBXXZ 00000001800491d4     VError.obj
 0004:000001e0       $pdata$?set@VImage@vips@@QEAAXPEBDH@Z 00000001800491e0     VError.obj
 0004:000001ec       $pdata$?set@VImage@vips@@QEAAXPEBDN@Z 00000001800491ec     VError.obj
 0004:000001f8       $pdata$?set@VImage@vips@@QEAAXPEBD0@Z 00000001800491f8     VError.obj
 0004:00000204       $pdata$?set@VImage@vips@@QEAAXPEBDP6AHPEAX1@Z1_K@Z 0000000180049204     VError.obj
 0004:00000210       $pdata$?get_typeof@VImage@vips@@QEAA_KPEBD@Z 0000000180049210     VError.obj
 0004:0000021c       $pdata$?get_int@VImage@vips@@QEAAHPEBD@Z 000000018004921c     VError.obj
 0004:00000228       $pdata$?get_double@VImage@vips@@QEAANPEBD@Z 0000000180049228     VError.obj
 0004:00000234       $pdata$?get_string@VImage@vips@@QEAAPEBDPEBD@Z 0000000180049234     VError.obj
 0004:00000240       $pdata$?get_blob@VImage@vips@@QEAAPEBXPEBDPEA_K@Z 0000000180049240     VError.obj
 0004:0000024c       $pdata$?option@VImage@vips@@SAPEAVVOption@2@XZ 000000018004924c     VError.obj
 0004:00000258       $pdata$?new_memory@VImage@vips@@SA?AV12@XZ 0000000180049258     VError.obj
 0004:00000264       $pdata$?new_temp_file@VImage@vips@@SA?AV12@PEBD@Z 0000000180049264     VError.obj
 0004:00000270       $pdata$?new_from_memory@VImage@vips@@SA?AV12@PEAX_KHHHW4VipsBandFormat@@@Z 0000000180049270     VError.obj
 0004:0000027c       $pdata$?new_matrix@VImage@vips@@SA?AV12@HHPEANH@Z 000000018004927c     VError.obj
 0004:00000288       $pdata$?write_to_memory@VImage@vips@@QEAAPEAXPEA_K@Z 0000000180049288     VError.obj
 0004:00000294       $pdata$?linear@VImage@vips@@QEAA?AV12@NNPEAVVOption@2@@Z 0000000180049294     VError.obj
 0004:000002a0       $pdata$?linear@VImage@vips@@QEAA?AV12@V?$vector@NV?$allocator@N@std@@@std@@NPEAVVOption@2@@Z 00000001800492a0     VError.obj
 0004:000002ac       $pdata$?linear@VImage@vips@@QEAA?AV12@NV?$vector@NV?$allocator@N@std@@@std@@PEAVVOption@2@@Z 00000001800492ac     VError.obj
 0004:000002b8       $pdata$?bandjoin@VImage@vips@@QEAA?AV12@NPEAVVOption@2@@Z 00000001800492b8     VError.obj
 0004:000002c4       $pdata$?bandjoin@VImage@vips@@QEAA?AV12@V?$vector@NV?$allocator@N@std@@@std@@PEAVVOption@2@@Z 00000001800492c4     VError.obj
 0004:000002d0       $pdata$?fliphor@VImage@vips@@QEAA?AV12@PEAVVOption@2@@Z 00000001800492d0     VError.obj
 0004:000002dc       $pdata$?flipver@VImage@vips@@QEAA?AV12@PEAVVOption@2@@Z 00000001800492dc     VError.obj
 0004:000002e8       $pdata$?rot90@VImage@vips@@QEAA?AV12@PEAVVOption@2@@Z 00000001800492e8     VError.obj
 0004:000002f4       $pdata$?rot180@VImage@vips@@QEAA?AV12@PEAVVOption@2@@Z 00000001800492f4     VError.obj
 0004:00000300       $pdata$?rot270@VImage@vips@@QEAA?AV12@PEAVVOption@2@@Z 0000000180049300     VError.obj
 0004:0000030c       $pdata$?dilate@VImage@vips@@QEAA?AV12@V12@PEAVVOption@2@@Z 000000018004930c     VError.obj
 0004:00000318       $pdata$?erode@VImage@vips@@QEAA?AV12@V12@PEAVVOption@2@@Z 0000000180049318     VError.obj
 0004:00000324       $pdata$?median@VImage@vips@@QEAA?AV12@HPEAVVOption@2@@Z 0000000180049324     VError.obj
 0004:00000330       $pdata$?floor@VImage@vips@@QEAA?AV12@PEAVVOption@2@@Z 0000000180049330     VError.obj
 0004:0000033c       $pdata$?ceil@VImage@vips@@QEAA?AV12@PEAVVOption@2@@Z 000000018004933c     VError.obj
 0004:00000348       $pdata$?rint@VImage@vips@@QEAA?AV12@PEAVVOption@2@@Z 0000000180049348     VError.obj
 0004:00000354       $pdata$?real@VImage@vips@@QEAA?AV12@PEAVVOption@2@@Z 0000000180049354     VError.obj
 0004:00000360       $pdata$?imag@VImage@vips@@QEAA?AV12@PEAVVOption@2@@Z 0000000180049360     VError.obj
 0004:0000036c       $pdata$?polar@VImage@vips@@QEAA?AV12@PEAVVOption@2@@Z 000000018004936c     VError.obj
 0004:00000378       $pdata$?rect@VImage@vips@@QEAA?AV12@PEAVVOption@2@@Z 0000000180049378     VError.obj
 0004:00000384       $pdata$?conj@VImage@vips@@QEAA?AV12@PEAVVOption@2@@Z 0000000180049384     VError.obj
 0004:00000390       $pdata$?sin@VImage@vips@@QEAA?AV12@PEAVVOption@2@@Z 0000000180049390     VError.obj
 0004:0000039c       $pdata$?cos@VImage@vips@@QEAA?AV12@PEAVVOption@2@@Z 000000018004939c     VError.obj
 0004:000003a8       $pdata$?tan@VImage@vips@@QEAA?AV12@PEAVVOption@2@@Z 00000001800493a8     VError.obj
 0004:000003b4       $pdata$?asin@VImage@vips@@QEAA?AV12@PEAVVOption@2@@Z 00000001800493b4     VError.obj
 0004:000003c0       $pdata$?acos@VImage@vips@@QEAA?AV12@PEAVVOption@2@@Z 00000001800493c0     VError.obj
 0004:000003cc       $pdata$?atan@VImage@vips@@QEAA?AV12@PEAVVOption@2@@Z 00000001800493cc     VError.obj
 0004:000003d8       $pdata$?log@VImage@vips@@QEAA?AV12@PEAVVOption@2@@Z 00000001800493d8     VError.obj
 0004:000003e4       $pdata$?log10@VImage@vips@@QEAA?AV12@PEAVVOption@2@@Z 00000001800493e4     VError.obj
 0004:000003f0       $pdata$?exp@VImage@vips@@QEAA?AV12@PEAVVOption@2@@Z 00000001800493f0     VError.obj
 0004:000003fc       $pdata$?exp10@VImage@vips@@QEAA?AV12@PEAVVOption@2@@Z 00000001800493fc     VError.obj
 0004:00000408       $pdata$?pow@VImage@vips@@QEAA?AV12@V12@PEAVVOption@2@@Z 0000000180049408     VError.obj
 0004:00000414       $pdata$?pow@VImage@vips@@QEAA?AV12@NPEAVVOption@2@@Z 0000000180049414     VError.obj
 0004:00000420       $pdata$?pow@VImage@vips@@QEAA?AV12@V?$vector@NV?$allocator@N@std@@@std@@PEAVVOption@2@@Z 0000000180049420     VError.obj
 0004:0000042c       $pdata$?wop@VImage@vips@@QEAA?AV12@V12@PEAVVOption@2@@Z 000000018004942c     VError.obj
 0004:00000438       $pdata$?wop@VImage@vips@@QEAA?AV12@NPEAVVOption@2@@Z 0000000180049438     VError.obj
 0004:00000444       $pdata$?wop@VImage@vips@@QEAA?AV12@V?$vector@NV?$allocator@N@std@@@std@@PEAVVOption@2@@Z 0000000180049444     VError.obj
 0004:00000450       $pdata$?ifthenelse@VImage@vips@@QEAA?AV12@V?$vector@NV?$allocator@N@std@@@std@@V12@PEAVVOption@2@@Z 0000000180049450     VError.obj
 0004:0000045c       $pdata$?ifthenelse@VImage@vips@@QEAA?AV12@V12@V?$vector@NV?$allocator@N@std@@@std@@PEAVVOption@2@@Z 000000018004945c     VError.obj
 0004:00000468       $pdata$?ifthenelse@VImage@vips@@QEAA?AV12@V?$vector@NV?$allocator@N@std@@@std@@0PEAVVOption@2@@Z 0000000180049468     VError.obj
 0004:00000474       $pdata$?ifthenelse@VImage@vips@@QEAA?AV12@NV12@PEAVVOption@2@@Z 0000000180049474     VError.obj
 0004:00000480       $pdata$?ifthenelse@VImage@vips@@QEAA?AV12@V12@NPEAVVOption@2@@Z 0000000180049480     VError.obj
 0004:0000048c       $pdata$?ifthenelse@VImage@vips@@QEAA?AV12@NNPEAVVOption@2@@Z 000000018004948c     VError.obj
 0004:00000498       $pdata$??1VImage@vips@@QEAA@XZ 0000000180049498     VError.obj
 0004:00000498       $pdata$??1VInterpolate@vips@@QEAA@XZ 0000000180049498     VError.obj
 0004:000004a4       $pdata$??0VInterpolate@vips@@QEAA@$$QEAV01@@Z 00000001800494a4     VError.obj
 0004:000004a4       $pdata$??0VImage@vips@@QEAA@$$QEAV01@@Z 00000001800494a4     VError.obj
 0004:000004a4       $pdata$??0VImage@vips@@QEAA@AEBV01@@Z 00000001800494a4     VError.obj
 0004:000004a4       $pdata$??0VInterpolate@vips@@QEAA@AEBV01@@Z 00000001800494a4     VError.obj
 0004:000004b0       $pdata$??4VImage@vips@@QEAAAEAV01@$$QEAV01@@Z 00000001800494b0     VError.obj
 0004:000004b0       $pdata$??4VInterpolate@vips@@QEAAAEAV01@AEBV01@@Z 00000001800494b0     VError.obj
 0004:000004b0       $pdata$??4VInterpolate@vips@@QEAAAEAV01@$$QEAV01@@Z 00000001800494b0     VError.obj
 0004:000004b0       $pdata$??4VImage@vips@@QEAAAEAV01@AEBV01@@Z 00000001800494b0     VError.obj
 0004:000004bc       $pdata$??0?$list@PEAUPair@VOption@vips@@V?$allocator@PEAUPair@VOption@vips@@@std@@@std@@QEAA@AEBV01@@Z 00000001800494bc     VError.obj
 0004:000004c8       $pdata$??1?$vector@NV?$allocator@N@std@@@std@@QEAA@XZ 00000001800494c8     VError.obj
 0004:000004d4       $pdata$??0?$vector@NV?$allocator@N@std@@@std@@QEAA@AEBV01@@Z 00000001800494d4     VError.obj
 0004:000004e0       $pdata$0$??0?$vector@NV?$allocator@N@std@@@std@@QEAA@AEBV01@@Z 00000001800494e0     VError.obj
 0004:000004ec       $pdata$1$??0?$vector@NV?$allocator@N@std@@@std@@QEAA@AEBV01@@Z 00000001800494ec     VError.obj
 0004:000004f8       $pdata$??1?$basic_string@DU?$char_traits@D@std@@V?$allocator@D@2@@std@@QEAA@XZ 00000001800494f8     VError.obj
 0004:00000504       $pdata$?assign@?$basic_string@DU?$char_traits@D@std@@V?$allocator@D@2@@std@@QEAAAEAV12@PEBD_K@Z 0000000180049504     VError.obj
 0004:00000510       $pdata$?assign@?$basic_string@DU?$char_traits@D@std@@V?$allocator@D@2@@std@@QEAAAEAV12@AEBV12@_K1@Z 0000000180049510     VError.obj
 0004:0000051c       $pdata$?append@?$basic_string@DU?$char_traits@D@std@@V?$allocator@D@2@@std@@QEAAAEAV12@PEBD_K@Z 000000018004951c     VError.obj
 0004:00000528       $pdata$0$?append@?$basic_string@DU?$char_traits@D@std@@V?$allocator@D@2@@std@@QEAAAEAV12@PEBD_K@Z 0000000180049528     VError.obj
 0004:00000534       $pdata$1$?append@?$basic_string@DU?$char_traits@D@std@@V?$allocator@D@2@@std@@QEAAAEAV12@PEBD_K@Z 0000000180049534     VError.obj
 0004:00000540       $pdata$2$?append@?$basic_string@DU?$char_traits@D@std@@V?$allocator@D@2@@std@@QEAAAEAV12@PEBD_K@Z 0000000180049540     VError.obj
 0004:0000054c       $pdata$?append@?$basic_string@DU?$char_traits@D@std@@V?$allocator@D@2@@std@@QEAAAEAV12@AEBV12@_K1@Z 000000018004954c     VError.obj
 0004:00000558       $pdata$0$?append@?$basic_string@DU?$char_traits@D@std@@V?$allocator@D@2@@std@@QEAAAEAV12@AEBV12@_K1@Z 0000000180049558     VError.obj
 0004:00000564       $pdata$1$?append@?$basic_string@DU?$char_traits@D@std@@V?$allocator@D@2@@std@@QEAAAEAV12@AEBV12@_K1@Z 0000000180049564     VError.obj
 0004:00000570       $pdata$2$?append@?$basic_string@DU?$char_traits@D@std@@V?$allocator@D@2@@std@@QEAAAEAV12@AEBV12@_K1@Z 0000000180049570     VError.obj
 0004:0000057c       $pdata$?_Assign_rv@?$basic_string@DU?$char_traits@D@std@@V?$allocator@D@2@@std@@QEAAX$$QEAV12@@Z 000000018004957c     VError.obj
 0004:00000588       $pdata$?deallocate@?$_Wrap_alloc@V?$allocator@N@std@@@std@@QEAAXPEAN_K@Z 0000000180049588     VError.obj
 0004:00000588       $pdata$?deallocate@?$_Wrap_alloc@V?$allocator@VVImage@vips@@@std@@@std@@QEAAXPEAVVImage@vips@@_K@Z 0000000180049588     VImage.obj
 0004:00000594       $pdata$?allocate@?$_Wrap_alloc@V?$allocator@N@std@@@std@@QEAAPEAN_K@Z 0000000180049594     VError.obj
 0004:00000594       $pdata$?allocate@?$_Wrap_alloc@V?$allocator@VVImage@vips@@@std@@@std@@QEAAPEAVVImage@vips@@_K@Z 0000000180049594     VImage.obj
 0004:000005a0       $pdata$?erase@?$basic_string@DU?$char_traits@D@std@@V?$allocator@D@2@@std@@QEAAAEAV12@_K0@Z 00000001800495a0     VError.obj
 0004:000005ac       $pdata$?_Copy@?$basic_string@DU?$char_traits@D@std@@V?$allocator@D@2@@std@@QEAAX_K0@Z 00000001800495ac     VError.obj
 0004:000005b8       $pdata$??$_Immortalize@V_Iostream_error_category@std@@@std@@YAAEAV_Iostream_error_category@0@XZ 00000001800495b8     VError.obj
 0004:000005c4       $pdata$??$?6DU?$char_traits@D@std@@V?$allocator@D@1@@std@@YAAEAV?$basic_ostream@DU?$char_traits@D@std@@@0@AEAV10@AEBV?$basic_string@DU?$char_traits@D@std@@V?$allocator@D@2@@0@@Z 00000001800495c4     VError.obj
 0004:000005d0       $pdata$??$assign@V?$_List_const_iterator@V?$_List_val@U?$_List_simple_types@PEAUPair@VOption@vips@@@std@@@std@@@std@@@?$list@PEAUPair@VOption@vips@@V?$allocator@PEAUPair@VOption@vips@@@std@@@std@@QEAAXV?$_List_const_iterator@V?$_List_val@U?$_List_simple_types@PEAUPair@VOption@vips@@@std@@@std@@@1@0@Z 00000001800495d0     VError.obj
 0004:000005dc       $pdata$??1sentry@?$basic_ostream@DU?$char_traits@D@std@@@std@@QEAA@XZ 00000001800495dc     VError.obj
 0004:000005e8       $pdata$??0sentry@?$basic_ostream@DU?$char_traits@D@std@@@std@@QEAA@AEAV12@@Z 00000001800495e8     VError.obj
 0004:000005f4       $pdata$?flush@?$basic_ostream@DU?$char_traits@D@std@@@std@@QEAAAEAV12@XZ 00000001800495f4     VError.obj
 0004:00000600       $pdata$??$_Insert@AEBQEAUPair@VOption@vips@@@?$list@PEAUPair@VOption@vips@@V?$allocator@PEAUPair@VOption@vips@@@std@@@std@@QEAAXV?$_List_unchecked_const_iterator@V?$_List_val@U?$_List_simple_types@PEAUPair@VOption@vips@@@std@@@std@@U_Iterator_base0@2@@1@AEBQEAUPair@VOption@vips@@@Z 0000000180049600     VError.obj
 0004:0000060c       $pdata$?new_from_name@VInterpolate@vips@@SA?AV12@PEBDPEAVVOption@2@@Z 000000018004960c     VInterpolate.obj
 0004:00000618       $pdata$?set@VOption@vips@@QEAAPEAV12@PEBDVVInterpolate@2@@Z 0000000180049618     VInterpolate.obj
 0004:00000624       $pdata$?to_vectorv@vips@@YA?AV?$vector@NV?$allocator@N@std@@@std@@HZZ 0000000180049624     VImage.obj
 0004:00000630       $pdata$?to_vector@vips@@YA?AV?$vector@NV?$allocator@N@std@@@std@@N@Z 0000000180049630     VImage.obj
 0004:0000063c       $pdata$?to_vector@vips@@YA?AV?$vector@NV?$allocator@N@std@@@std@@HQEAN@Z 000000018004963c     VImage.obj
 0004:00000648       $pdata$0$?to_vector@vips@@YA?AV?$vector@NV?$allocator@N@std@@@std@@HQEAN@Z 0000000180049648     VImage.obj
 0004:00000654       $pdata$1$?to_vector@vips@@YA?AV?$vector@NV?$allocator@N@std@@@std@@HQEAN@Z 0000000180049654     VImage.obj
 0004:00000660       $pdata$?negate@vips@@YA?AV?$vector@NV?$allocator@N@std@@@std@@V23@@Z 0000000180049660     VImage.obj
 0004:0000066c       $pdata$?invert@vips@@YA?AV?$vector@NV?$allocator@N@std@@@std@@V23@@Z 000000018004966c     VImage.obj
 0004:00000678       $pdata$??1VOption@vips@@UEAA@XZ 0000000180049678     VImage.obj
 0004:00000684       $pdata$0$??1VOption@vips@@UEAA@XZ 0000000180049684     VImage.obj
 0004:00000690       $pdata$1$??1VOption@vips@@UEAA@XZ 0000000180049690     VImage.obj
 0004:0000069c       $pdata$?set@VOption@vips@@QEAAPEAV12@PEBD_N@Z 000000018004969c     VImage.obj
 0004:000006a8       $pdata$?set@VOption@vips@@QEAAPEAV12@PEBDH@Z 00000001800496a8     VImage.obj
 0004:000006b4       $pdata$?set@VOption@vips@@QEAAPEAV12@PEBDN@Z 00000001800496b4     VImage.obj
 0004:000006c0       $pdata$?set@VOption@vips@@QEAAPEAV12@PEBD0@Z 00000001800496c0     VImage.obj
 0004:000006cc       $pdata$?set@VOption@vips@@QEAAPEAV12@PEBDVVImage@2@@Z 00000001800496cc     VImage.obj
 0004:000006d8       $pdata$?set@VOption@vips@@QEAAPEAV12@PEBDV?$vector@NV?$allocator@N@std@@@std@@@Z 00000001800496d8     VImage.obj
 0004:000006e4       $pdata$?set@VOption@vips@@QEAAPEAV12@PEBDV?$vector@VVImage@vips@@V?$allocator@VVImage@vips@@@std@@@std@@@Z 00000001800496e4     VImage.obj
 0004:000006f0       $pdata$?set@VOption@vips@@QEAAPEAV12@PEBDPEAU_VipsBlob@@@Z 00000001800496f0     VImage.obj
 0004:000006fc       $pdata$?set@VOption@vips@@QEAAPEAV12@PEBDPEA_N@Z 00000001800496fc     VImage.obj
 0004:00000708       $pdata$?set@VOption@vips@@QEAAPEAV12@PEBDPEAH@Z 0000000180049708     VImage.obj
 0004:00000714       $pdata$?set@VOption@vips@@QEAAPEAV12@PEBDPEAN@Z 0000000180049714     VImage.obj
 0004:00000720       $pdata$?set@VOption@vips@@QEAAPEAV12@PEBDPEAVVImage@2@@Z 0000000180049720     VImage.obj
 0004:0000072c       $pdata$?set@VOption@vips@@QEAAPEAV12@PEBDPEAV?$vector@NV?$allocator@N@std@@@std@@@Z 000000018004972c     VImage.obj
 0004:00000738       $pdata$?set@VOption@vips@@QEAAPEAV12@PEBDPEAPEAU_VipsBlob@@@Z 0000000180049738     VImage.obj
 0004:00000744       $pdata$?set_property@vips@@YAXPEAU_VipsObject@@PEBDPEBU_GValue@@@Z 0000000180049744     VImage.obj
 0004:00000750       $pdata$?set_operation@VOption@vips@@QEAAXPEAU_VipsOperation@@@Z 0000000180049750     VImage.obj
 0004:0000075c       $pdata$1$?set_operation@VOption@vips@@QEAAXPEAU_VipsOperation@@@Z 000000018004975c     VImage.obj
 0004:00000768       $pdata$2$?set_operation@VOption@vips@@QEAAXPEAU_VipsOperation@@@Z 0000000180049768     VImage.obj
 0004:00000774       $pdata$?get_operation@VOption@vips@@QEAAXPEAU_VipsOperation@@@Z 0000000180049774     VImage.obj
 0004:00000780       $pdata$3$?get_operation@VOption@vips@@QEAAXPEAU_VipsOperation@@@Z 0000000180049780     VImage.obj
 0004:0000078c       $pdata$4$?get_operation@VOption@vips@@QEAAXPEAU_VipsOperation@@@Z 000000018004978c     VImage.obj
 0004:00000798       $pdata$?call_option_string@VImage@vips@@SAXPEBD0PEAVVOption@2@@Z 0000000180049798     VImage.obj
 0004:000007a4       $pdata$?new_from_file@VImage@vips@@SA?AV12@PEBDPEAVVOption@2@@Z 00000001800497a4     VImage.obj
 0004:000007b0       $pdata$?new_from_buffer@VImage@vips@@SA?AV12@PEAX_KPEBDPEAVVOption@2@@Z 00000001800497b0     VImage.obj
 0004:000007bc       $pdata$?new_from_image@VImage@vips@@QEAA?AV12@V?$vector@NV?$allocator@N@std@@@std@@@Z 00000001800497bc     VImage.obj
 0004:000007c8       $pdata$?new_from_image@VImage@vips@@QEAA?AV12@N@Z 00000001800497c8     VImage.obj
 0004:000007d4       $pdata$?new_matrix@VImage@vips@@SA?AV12@HH@Z 00000001800497d4     VImage.obj
 0004:000007e0       $pdata$?new_matrixv@VImage@vips@@SA?AV12@HHZZ 00000001800497e0     VImage.obj
 0004:000007ec       $pdata$2$?new_matrixv@VImage@vips@@SA?AV12@HHZZ 00000001800497ec     VImage.obj
 0004:000007f8       $pdata$3$?new_matrixv@VImage@vips@@SA?AV12@HHZZ 00000001800497f8     VImage.obj
 0004:00000804       $pdata$?write@VImage@vips@@QEAA?AV12@V12@@Z 0000000180049804     VImage.obj
 0004:00000810       $pdata$?write_to_file@VImage@vips@@QEAAXPEBDPEAVVOption@2@@Z 0000000180049810     VImage.obj
 0004:0000081c       $pdata$?write_to_buffer@VImage@vips@@QEAAXPEBDPEAPEAXPEA_KPEAVVOption@2@@Z 000000018004981c     VImage.obj
 0004:00000828       $pdata$?system@VImage@vips@@SAXPEADPEAVVOption@2@@Z 0000000180049828     VImage.obj
 0004:00000834       $pdata$?add@VImage@vips@@QEAA?AV12@V12@PEAVVOption@2@@Z 0000000180049834     VImage.obj
 0004:00000840       $pdata$?subtract@VImage@vips@@QEAA?AV12@V12@PEAVVOption@2@@Z 0000000180049840     VImage.obj
 0004:0000084c       $pdata$?multiply@VImage@vips@@QEAA?AV12@V12@PEAVVOption@2@@Z 000000018004984c     VImage.obj
 0004:00000858       $pdata$?divide@VImage@vips@@QEAA?AV12@V12@PEAVVOption@2@@Z 0000000180049858     VImage.obj
 0004:00000864       $pdata$?relational@VImage@vips@@QEAA?AV12@V12@W4VipsOperationRelational@@PEAVVOption@2@@Z 0000000180049864     VImage.obj
 0004:00000870       $pdata$?remainder@VImage@vips@@QEAA?AV12@V12@PEAVVOption@2@@Z 0000000180049870     VImage.obj
 0004:0000087c       $pdata$?boolean@VImage@vips@@QEAA?AV12@V12@W4VipsOperationBoolean@@PEAVVOption@2@@Z 000000018004987c     VImage.obj
 0004:00000888       $pdata$?math2@VImage@vips@@QEAA?AV12@V12@W4VipsOperationMath2@@PEAVVOption@2@@Z 0000000180049888     VImage.obj
 0004:00000894       $pdata$?complex2@VImage@vips@@QEAA?AV12@V12@W4VipsOperationComplex2@@PEAVVOption@2@@Z 0000000180049894     VImage.obj
 0004:000008a0       $pdata$?complexform@VImage@vips@@QEAA?AV12@V12@PEAVVOption@2@@Z 00000001800498a0     VImage.obj
 0004:000008ac       $pdata$?sum@VImage@vips@@SA?AV12@V?$vector@VVImage@vips@@V?$allocator@VVImage@vips@@@std@@@std@@PEAVVOption@2@@Z 00000001800498ac     VImage.obj
 0004:000008b8       $pdata$?invert@VImage@vips@@QEAA?AV12@PEAVVOption@2@@Z 00000001800498b8     VImage.obj
 0004:000008c4       $pdata$?linear@VImage@vips@@QEAA?AV12@V?$vector@NV?$allocator@N@std@@@std@@0PEAVVOption@2@@Z 00000001800498c4     VImage.obj
 0004:000008d0       $pdata$?math@VImage@vips@@QEAA?AV12@W4VipsOperationMath@@PEAVVOption@2@@Z 00000001800498d0     VImage.obj
 0004:000008dc       $pdata$?abs@VImage@vips@@QEAA?AV12@PEAVVOption@2@@Z 00000001800498dc     VImage.obj
 0004:000008e8       $pdata$?sign@VImage@vips@@QEAA?AV12@PEAVVOption@2@@Z 00000001800498e8     VImage.obj
 0004:000008f4       $pdata$?round@VImage@vips@@QEAA?AV12@W4VipsOperationRound@@PEAVVOption@2@@Z 00000001800498f4     VImage.obj
 0004:00000900       $pdata$?relational_const@VImage@vips@@QEAA?AV12@W4VipsOperationRelational@@V?$vector@NV?$allocator@N@std@@@std@@PEAVVOption@2@@Z 0000000180049900     VImage.obj
 0004:0000090c       $pdata$?remainder_const@VImage@vips@@QEAA?AV12@V?$vector@NV?$allocator@N@std@@@std@@PEAVVOption@2@@Z 000000018004990c     VImage.obj
 0004:00000918       $pdata$?boolean_const@VImage@vips@@QEAA?AV12@W4VipsOperationBoolean@@V?$vector@NV?$allocator@N@std@@@std@@PEAVVOption@2@@Z 0000000180049918     VImage.obj
 0004:00000924       $pdata$?math2_const@VImage@vips@@QEAA?AV12@W4VipsOperationMath2@@V?$vector@NV?$allocator@N@std@@@std@@PEAVVOption@2@@Z 0000000180049924     VImage.obj
 0004:00000930       $pdata$?complex@VImage@vips@@QEAA?AV12@W4VipsOperationComplex@@PEAVVOption@2@@Z 0000000180049930     VImage.obj
 0004:0000093c       $pdata$?complexget@VImage@vips@@QEAA?AV12@W4VipsOperationComplexget@@PEAVVOption@2@@Z 000000018004993c     VImage.obj
 0004:00000948       $pdata$?avg@VImage@vips@@QEAANPEAVVOption@2@@Z 0000000180049948     VImage.obj
 0004:00000954       $pdata$?min@VImage@vips@@QEAANPEAVVOption@2@@Z 0000000180049954     VImage.obj
 0004:00000960       $pdata$?max@VImage@vips@@QEAANPEAVVOption@2@@Z 0000000180049960     VImage.obj
 0004:0000096c       $pdata$?deviate@VImage@vips@@QEAANPEAVVOption@2@@Z 000000018004996c     VImage.obj
 0004:00000978       $pdata$?stats@VImage@vips@@QEAA?AV12@PEAVVOption@2@@Z 0000000180049978     VImage.obj
 0004:00000984       $pdata$?hist_find@VImage@vips@@QEAA?AV12@PEAVVOption@2@@Z 0000000180049984     VImage.obj
 0004:00000990       $pdata$?hist_find_ndim@VImage@vips@@QEAA?AV12@PEAVVOption@2@@Z 0000000180049990     VImage.obj
 0004:0000099c       $pdata$?hist_find_indexed@VImage@vips@@QEAA?AV12@V12@PEAVVOption@2@@Z 000000018004999c     VImage.obj
 0004:000009a8       $pdata$?hough_line@VImage@vips@@QEAA?AV12@PEAVVOption@2@@Z 00000001800499a8     VImage.obj
 0004:000009b4       $pdata$?hough_circle@VImage@vips@@QEAA?AV12@PEAVVOption@2@@Z 00000001800499b4     VImage.obj
 0004:000009c0       $pdata$?project@VImage@vips@@QEAA?AV12@PEAV12@PEAVVOption@2@@Z 00000001800499c0     VImage.obj
 0004:000009cc       $pdata$?profile@VImage@vips@@QEAA?AV12@PEAV12@PEAVVOption@2@@Z 00000001800499cc     VImage.obj
 0004:000009d8       $pdata$?measure@VImage@vips@@QEAA?AV12@HHPEAVVOption@2@@Z 00000001800499d8     VImage.obj
 0004:000009e4       $pdata$?getpoint@VImage@vips@@QEAA?AV?$vector@NV?$allocator@N@std@@@std@@HHPEAVVOption@2@@Z 00000001800499e4     VImage.obj
 0004:000009f0       $pdata$?copy@VImage@vips@@QEAA?AV12@PEAVVOption@2@@Z 00000001800499f0     VImage.obj
 0004:000009fc       $pdata$?tilecache@VImage@vips@@QEAA?AV12@PEAVVOption@2@@Z 00000001800499fc     VImage.obj
 0004:00000a08       $pdata$?linecache@VImage@vips@@QEAA?AV12@PEAVVOption@2@@Z 0000000180049a08     VImage.obj
 0004:00000a14       $pdata$?sequential@VImage@vips@@QEAA?AV12@PEAVVOption@2@@Z 0000000180049a14     VImage.obj
 0004:00000a20       $pdata$?cache@VImage@vips@@QEAA?AV12@PEAVVOption@2@@Z 0000000180049a20     VImage.obj
 0004:00000a2c       $pdata$?embed@VImage@vips@@QEAA?AV12@HHHHPEAVVOption@2@@Z 0000000180049a2c     VImage.obj
 0004:00000a38       $pdata$?flip@VImage@vips@@QEAA?AV12@W4VipsDirection@@PEAVVOption@2@@Z 0000000180049a38     VImage.obj
 0004:00000a44       $pdata$?insert@VImage@vips@@QEAA?AV12@V12@HHPEAVVOption@2@@Z 0000000180049a44     VImage.obj
 0004:00000a50       $pdata$?join@VImage@vips@@QEAA?AV12@V12@W4VipsDirection@@PEAVVOption@2@@Z 0000000180049a50     VImage.obj
 0004:00000a5c       $pdata$?arrayjoin@VImage@vips@@SA?AV12@V?$vector@VVImage@vips@@V?$allocator@VVImage@vips@@@std@@@std@@PEAVVOption@2@@Z 0000000180049a5c     VImage.obj
 0004:00000a68       $pdata$?extract_area@VImage@vips@@QEAA?AV12@HHHHPEAVVOption@2@@Z 0000000180049a68     VImage.obj
 0004:00000a74       $pdata$?smartcrop@VImage@vips@@QEAA?AV12@HHPEAVVOption@2@@Z 0000000180049a74     VImage.obj
 0004:00000a80       $pdata$?extract_band@VImage@vips@@QEAA?AV12@HPEAVVOption@2@@Z 0000000180049a80     VImage.obj
 0004:00000a8c       $pdata$?bandjoin@VImage@vips@@SA?AV12@V?$vector@VVImage@vips@@V?$allocator@VVImage@vips@@@std@@@std@@PEAVVOption@2@@Z 0000000180049a8c     VImage.obj
 0004:00000a98       $pdata$?bandjoin_const@VImage@vips@@QEAA?AV12@V?$vector@NV?$allocator@N@std@@@std@@PEAVVOption@2@@Z 0000000180049a98     VImage.obj
 0004:00000aa4       $pdata$?bandrank@VImage@vips@@SA?AV12@V?$vector@VVImage@vips@@V?$allocator@VVImage@vips@@@std@@@std@@PEAVVOption@2@@Z 0000000180049aa4     VImage.obj
 0004:00000ab0       $pdata$?bandmean@VImage@vips@@QEAA?AV12@PEAVVOption@2@@Z 0000000180049ab0     VImage.obj
 0004:00000abc       $pdata$?bandbool@VImage@vips@@QEAA?AV12@W4VipsOperationBoolean@@PEAVVOption@2@@Z 0000000180049abc     VImage.obj
 0004:00000ac8       $pdata$?replicate@VImage@vips@@QEAA?AV12@HHPEAVVOption@2@@Z 0000000180049ac8     VImage.obj
 0004:00000ad4       $pdata$?cast@VImage@vips@@QEAA?AV12@W4VipsBandFormat@@PEAVVOption@2@@Z 0000000180049ad4     VImage.obj
 0004:00000ae0       $pdata$?rot@VImage@vips@@QEAA?AV12@W4VipsAngle@@PEAVVOption@2@@Z 0000000180049ae0     VImage.obj
 0004:00000aec       $pdata$?rot45@VImage@vips@@QEAA?AV12@PEAVVOption@2@@Z 0000000180049aec     VImage.obj
 0004:00000af8       $pdata$?autorot@VImage@vips@@QEAA?AV12@PEAVVOption@2@@Z 0000000180049af8     VImage.obj
 0004:00000b04       $pdata$?ifthenelse@VImage@vips@@QEAA?AV12@V12@0PEAVVOption@2@@Z 0000000180049b04     VImage.obj
 0004:00000b10       $pdata$?recomb@VImage@vips@@QEAA?AV12@V12@PEAVVOption@2@@Z 0000000180049b10     VImage.obj
 0004:00000b1c       $pdata$?bandfold@VImage@vips@@QEAA?AV12@PEAVVOption@2@@Z 0000000180049b1c     VImage.obj
 0004:00000b28       $pdata$?bandunfold@VImage@vips@@QEAA?AV12@PEAVVOption@2@@Z 0000000180049b28     VImage.obj
 0004:00000b34       $pdata$?flatten@VImage@vips@@QEAA?AV12@PEAVVOption@2@@Z 0000000180049b34     VImage.obj
 0004:00000b40       $pdata$?premultiply@VImage@vips@@QEAA?AV12@PEAVVOption@2@@Z 0000000180049b40     VImage.obj
 0004:00000b4c       $pdata$?unpremultiply@VImage@vips@@QEAA?AV12@PEAVVOption@2@@Z 0000000180049b4c     VImage.obj
 0004:00000b58       $pdata$?grid@VImage@vips@@QEAA?AV12@HHHPEAVVOption@2@@Z 0000000180049b58     VImage.obj
 0004:00000b64       $pdata$?scale@VImage@vips@@QEAA?AV12@PEAVVOption@2@@Z 0000000180049b64     VImage.obj
 0004:00000b70       $pdata$?wrap@VImage@vips@@QEAA?AV12@PEAVVOption@2@@Z 0000000180049b70     VImage.obj
 0004:00000b7c       $pdata$?zoom@VImage@vips@@QEAA?AV12@HHPEAVVOption@2@@Z 0000000180049b7c     VImage.obj
 0004:00000b88       $pdata$?subsample@VImage@vips@@QEAA?AV12@HHPEAVVOption@2@@Z 0000000180049b88     VImage.obj
 0004:00000b94       $pdata$?msb@VImage@vips@@QEAA?AV12@PEAVVOption@2@@Z 0000000180049b94     VImage.obj
 0004:00000ba0       $pdata$?byteswap@VImage@vips@@QEAA?AV12@PEAVVOption@2@@Z 0000000180049ba0     VImage.obj
 0004:00000bac       $pdata$?falsecolour@VImage@vips@@QEAA?AV12@PEAVVOption@2@@Z 0000000180049bac     VImage.obj
 0004:00000bb8       $pdata$?gamma@VImage@vips@@QEAA?AV12@PEAVVOption@2@@Z 0000000180049bb8     VImage.obj
 0004:00000bc4       $pdata$?black@VImage@vips@@SA?AV12@HHPEAVVOption@2@@Z 0000000180049bc4     VImage.obj
 0004:00000bd0       $pdata$?gaussnoise@VImage@vips@@SA?AV12@HHPEAVVOption@2@@Z 0000000180049bd0     VImage.obj
 0004:00000bdc       $pdata$?text@VImage@vips@@SA?AV12@PEADPEAVVOption@2@@Z 0000000180049bdc     VImage.obj
 0004:00000be8       $pdata$?xyz@VImage@vips@@SA?AV12@HHPEAVVOption@2@@Z 0000000180049be8     VImage.obj
 0004:00000bf4       $pdata$?gaussmat@VImage@vips@@SA?AV12@NNPEAVVOption@2@@Z 0000000180049bf4     VImage.obj
 0004:00000c00       $pdata$?logmat@VImage@vips@@SA?AV12@NNPEAVVOption@2@@Z 0000000180049c00     VImage.obj
 0004:00000c0c       $pdata$?eye@VImage@vips@@SA?AV12@HHPEAVVOption@2@@Z 0000000180049c0c     VImage.obj
 0004:00000c18       $pdata$?grey@VImage@vips@@SA?AV12@HHPEAVVOption@2@@Z 0000000180049c18     VImage.obj
 0004:00000c24       $pdata$?zone@VImage@vips@@SA?AV12@HHPEAVVOption@2@@Z 0000000180049c24     VImage.obj
 0004:00000c30       $pdata$?sines@VImage@vips@@SA?AV12@HHPEAVVOption@2@@Z 0000000180049c30     VImage.obj
 0004:00000c3c       $pdata$?mask_ideal@VImage@vips@@SA?AV12@HHNPEAVVOption@2@@Z 0000000180049c3c     VImage.obj
 0004:00000c48       $pdata$?mask_ideal_ring@VImage@vips@@SA?AV12@HHNNPEAVVOption@2@@Z 0000000180049c48     VImage.obj
 0004:00000c54       $pdata$?mask_ideal_band@VImage@vips@@SA?AV12@HHNNNPEAVVOption@2@@Z 0000000180049c54     VImage.obj
 0004:00000c60       $pdata$?mask_butterworth@VImage@vips@@SA?AV12@HHNNNPEAVVOption@2@@Z 0000000180049c60     VImage.obj
 0004:00000c6c       $pdata$?mask_butterworth_ring@VImage@vips@@SA?AV12@HHNNNNPEAVVOption@2@@Z 0000000180049c6c     VImage.obj
 0004:00000c78       $pdata$?mask_butterworth_band@VImage@vips@@SA?AV12@HHNNNNNPEAVVOption@2@@Z 0000000180049c78     VImage.obj
 0004:00000c84       $pdata$?mask_gaussian@VImage@vips@@SA?AV12@HHNNPEAVVOption@2@@Z 0000000180049c84     VImage.obj
 0004:00000c90       $pdata$?mask_gaussian_ring@VImage@vips@@SA?AV12@HHNNNPEAVVOption@2@@Z 0000000180049c90     VImage.obj
 0004:00000c9c       $pdata$?mask_gaussian_band@VImage@vips@@SA?AV12@HHNNNNPEAVVOption@2@@Z 0000000180049c9c     VImage.obj
 0004:00000ca8       $pdata$?mask_fractal@VImage@vips@@SA?AV12@HHNPEAVVOption@2@@Z 0000000180049ca8     VImage.obj
 0004:00000cb4       $pdata$?buildlut@VImage@vips@@QEAA?AV12@PEAVVOption@2@@Z 0000000180049cb4     VImage.obj
 0004:00000cc0       $pdata$?invertlut@VImage@vips@@QEAA?AV12@PEAVVOption@2@@Z 0000000180049cc0     VImage.obj
 0004:00000ccc       $pdata$?tonelut@VImage@vips@@SA?AV12@PEAVVOption@2@@Z 0000000180049ccc     VImage.obj
 0004:00000cd8       $pdata$?identity@VImage@vips@@SA?AV12@PEAVVOption@2@@Z 0000000180049cd8     VImage.obj
 0004:00000ce4       $pdata$?fractsurf@VImage@vips@@SA?AV12@HHNPEAVVOption@2@@Z 0000000180049ce4     VImage.obj
 0004:00000cf0       $pdata$?worley@VImage@vips@@SA?AV12@HHPEAVVOption@2@@Z 0000000180049cf0     VImage.obj
 0004:00000cfc       $pdata$?perlin@VImage@vips@@SA?AV12@HHPEAVVOption@2@@Z 0000000180049cfc     VImage.obj
 0004:00000d08       $pdata$?csvload@VImage@vips@@SA?AV12@PEADPEAVVOption@2@@Z 0000000180049d08     VImage.obj
 0004:00000d14       $pdata$?matrixload@VImage@vips@@SA?AV12@PEADPEAVVOption@2@@Z 0000000180049d14     VImage.obj
 0004:00000d20       $pdata$?rawload@VImage@vips@@SA?AV12@PEADHHHPEAVVOption@2@@Z 0000000180049d20     VImage.obj
 0004:00000d2c       $pdata$?vipsload@VImage@vips@@SA?AV12@PEADPEAVVOption@2@@Z 0000000180049d2c     VImage.obj
 0004:00000d38       $pdata$?analyzeload@VImage@vips@@SA?AV12@PEADPEAVVOption@2@@Z 0000000180049d38     VImage.obj
 0004:00000d44       $pdata$?ppmload@VImage@vips@@SA?AV12@PEADPEAVVOption@2@@Z 0000000180049d44     VImage.obj
 0004:00000d50       $pdata$?radload@VImage@vips@@SA?AV12@PEADPEAVVOption@2@@Z 0000000180049d50     VImage.obj
 0004:00000d5c       $pdata$?pdfload@VImage@vips@@SA?AV12@PEADPEAVVOption@2@@Z 0000000180049d5c     VImage.obj
 0004:00000d68       $pdata$?pdfload_buffer@VImage@vips@@SA?AV12@PEAU_VipsBlob@@PEAVVOption@2@@Z 0000000180049d68     VImage.obj
 0004:00000d74       $pdata$?svgload@VImage@vips@@SA?AV12@PEADPEAVVOption@2@@Z 0000000180049d74     VImage.obj
 0004:00000d80       $pdata$?svgload_buffer@VImage@vips@@SA?AV12@PEAU_VipsBlob@@PEAVVOption@2@@Z 0000000180049d80     VImage.obj
 0004:00000d8c       $pdata$?gifload@VImage@vips@@SA?AV12@PEADPEAVVOption@2@@Z 0000000180049d8c     VImage.obj
 0004:00000d98       $pdata$?gifload_buffer@VImage@vips@@SA?AV12@PEAU_VipsBlob@@PEAVVOption@2@@Z 0000000180049d98     VImage.obj
 0004:00000da4       $pdata$?pngload@VImage@vips@@SA?AV12@PEADPEAVVOption@2@@Z 0000000180049da4     VImage.obj
 0004:00000db0       $pdata$?pngload_buffer@VImage@vips@@SA?AV12@PEAU_VipsBlob@@PEAVVOption@2@@Z 0000000180049db0     VImage.obj
 0004:00000dbc       $pdata$?matload@VImage@vips@@SA?AV12@PEADPEAVVOption@2@@Z 0000000180049dbc     VImage.obj
 0004:00000dc8       $pdata$?jpegload@VImage@vips@@SA?AV12@PEADPEAVVOption@2@@Z 0000000180049dc8     VImage.obj
 0004:00000dd4       $pdata$?jpegload_buffer@VImage@vips@@SA?AV12@PEAU_VipsBlob@@PEAVVOption@2@@Z 0000000180049dd4     VImage.obj
 0004:00000de0       $pdata$?webpload@VImage@vips@@SA?AV12@PEADPEAVVOption@2@@Z 0000000180049de0     VImage.obj
 0004:00000dec       $pdata$?webpload_buffer@VImage@vips@@SA?AV12@PEAU_VipsBlob@@PEAVVOption@2@@Z 0000000180049dec     VImage.obj
 0004:00000df8       $pdata$?tiffload@VImage@vips@@SA?AV12@PEADPEAVVOption@2@@Z 0000000180049df8     VImage.obj
 0004:00000e04       $pdata$?tiffload_buffer@VImage@vips@@SA?AV12@PEAU_VipsBlob@@PEAVVOption@2@@Z 0000000180049e04     VImage.obj
 0004:00000e10       $pdata$?openslideload@VImage@vips@@SA?AV12@PEADPEAVVOption@2@@Z 0000000180049e10     VImage.obj
 0004:00000e1c       $pdata$?magickload@VImage@vips@@SA?AV12@PEADPEAVVOption@2@@Z 0000000180049e1c     VImage.obj
 0004:00000e28       $pdata$?magickload_buffer@VImage@vips@@SA?AV12@PEAU_VipsBlob@@PEAVVOption@2@@Z 0000000180049e28     VImage.obj
 0004:00000e34       $pdata$?fitsload@VImage@vips@@SA?AV12@PEADPEAVVOption@2@@Z 0000000180049e34     VImage.obj
 0004:00000e40       $pdata$?openexrload@VImage@vips@@SA?AV12@PEADPEAVVOption@2@@Z 0000000180049e40     VImage.obj
 0004:00000e4c       $pdata$?csvsave@VImage@vips@@QEAAXPEADPEAVVOption@2@@Z 0000000180049e4c     VImage.obj
 0004:00000e58       $pdata$?matrixsave@VImage@vips@@QEAAXPEADPEAVVOption@2@@Z 0000000180049e58     VImage.obj
 0004:00000e64       $pdata$?matrixprint@VImage@vips@@QEAAXPEAVVOption@2@@Z 0000000180049e64     VImage.obj
 0004:00000e70       $pdata$?rawsave@VImage@vips@@QEAAXPEADPEAVVOption@2@@Z 0000000180049e70     VImage.obj
 0004:00000e7c       $pdata$?rawsave_fd@VImage@vips@@QEAAXHPEAVVOption@2@@Z 0000000180049e7c     VImage.obj
 0004:00000e88       $pdata$?vipssave@VImage@vips@@QEAAXPEADPEAVVOption@2@@Z 0000000180049e88     VImage.obj
 0004:00000e94       $pdata$?ppmsave@VImage@vips@@QEAAXPEADPEAVVOption@2@@Z 0000000180049e94     VImage.obj
 0004:00000ea0       $pdata$?radsave@VImage@vips@@QEAAXPEADPEAVVOption@2@@Z 0000000180049ea0     VImage.obj
 0004:00000eac       $pdata$?radsave_buffer@VImage@vips@@QEAAPEAU_VipsBlob@@PEAVVOption@2@@Z 0000000180049eac     VImage.obj
 0004:00000eb8       $pdata$?dzsave@VImage@vips@@QEAAXPEADPEAVVOption@2@@Z 0000000180049eb8     VImage.obj
 0004:00000ec4       $pdata$?dzsave_buffer@VImage@vips@@QEAAPEAU_VipsBlob@@PEAVVOption@2@@Z 0000000180049ec4     VImage.obj
 0004:00000ed0       $pdata$?pngsave@VImage@vips@@QEAAXPEADPEAVVOption@2@@Z 0000000180049ed0     VImage.obj
 0004:00000edc       $pdata$?pngsave_buffer@VImage@vips@@QEAAPEAU_VipsBlob@@PEAVVOption@2@@Z 0000000180049edc     VImage.obj
 0004:00000ee8       $pdata$?jpegsave@VImage@vips@@QEAAXPEADPEAVVOption@2@@Z 0000000180049ee8     VImage.obj
 0004:00000ef4       $pdata$?jpegsave_buffer@VImage@vips@@QEAAPEAU_VipsBlob@@PEAVVOption@2@@Z 0000000180049ef4     VImage.obj
 0004:00000f00       $pdata$?jpegsave_mime@VImage@vips@@QEAAXPEAVVOption@2@@Z 0000000180049f00     VImage.obj
 0004:00000f0c       $pdata$?webpsave@VImage@vips@@QEAAXPEADPEAVVOption@2@@Z 0000000180049f0c     VImage.obj
 0004:00000f18       $pdata$?webpsave_buffer@VImage@vips@@QEAAPEAU_VipsBlob@@PEAVVOption@2@@Z 0000000180049f18     VImage.obj
 0004:00000f24       $pdata$?tiffsave@VImage@vips@@QEAAXPEADPEAVVOption@2@@Z 0000000180049f24     VImage.obj
 0004:00000f30       $pdata$?tiffsave_buffer@VImage@vips@@QEAAPEAU_VipsBlob@@PEAVVOption@2@@Z 0000000180049f30     VImage.obj
 0004:00000f3c       $pdata$?fitssave@VImage@vips@@QEAAXPEADPEAVVOption@2@@Z 0000000180049f3c     VImage.obj
 0004:00000f48       $pdata$?thumbnail@VImage@vips@@SA?AV12@PEADHPEAVVOption@2@@Z 0000000180049f48     VImage.obj
 0004:00000f54       $pdata$?thumbnail_buffer@VImage@vips@@SA?AV12@PEAU_VipsBlob@@HPEAVVOption@2@@Z 0000000180049f54     VImage.obj
 0004:00000f60       $pdata$?mapim@VImage@vips@@QEAA?AV12@V12@PEAVVOption@2@@Z 0000000180049f60     VImage.obj
 0004:00000f6c       $pdata$?shrink@VImage@vips@@QEAA?AV12@NNPEAVVOption@2@@Z 0000000180049f6c     VImage.obj
 0004:00000f78       $pdata$?shrinkh@VImage@vips@@QEAA?AV12@HPEAVVOption@2@@Z 0000000180049f78     VImage.obj
 0004:00000f84       $pdata$?shrinkv@VImage@vips@@QEAA?AV12@HPEAVVOption@2@@Z 0000000180049f84     VImage.obj
 0004:00000f90       $pdata$?reduceh@VImage@vips@@QEAA?AV12@NPEAVVOption@2@@Z 0000000180049f90     VImage.obj
 0004:00000f9c       $pdata$?reducev@VImage@vips@@QEAA?AV12@NPEAVVOption@2@@Z 0000000180049f9c     VImage.obj
 0004:00000fa8       $pdata$?reduce@VImage@vips@@QEAA?AV12@NNPEAVVOption@2@@Z 0000000180049fa8     VImage.obj
 0004:00000fb4       $pdata$?quadratic@VImage@vips@@QEAA?AV12@V12@PEAVVOption@2@@Z 0000000180049fb4     VImage.obj
 0004:00000fc0       $pdata$?affine@VImage@vips@@QEAA?AV12@V?$vector@NV?$allocator@N@std@@@std@@PEAVVOption@2@@Z 0000000180049fc0     VImage.obj
 0004:00000fcc       $pdata$?similarity@VImage@vips@@QEAA?AV12@PEAVVOption@2@@Z 0000000180049fcc     VImage.obj
 0004:00000fd8       $pdata$?resize@VImage@vips@@QEAA?AV12@NPEAVVOption@2@@Z 0000000180049fd8     VImage.obj
 0004:00000fe4       $pdata$?colourspace@VImage@vips@@QEAA?AV12@W4VipsInterpretation@@PEAVVOption@2@@Z 0000000180049fe4     VImage.obj
 0004:00000ff0       $pdata$?Lab2XYZ@VImage@vips@@QEAA?AV12@PEAVVOption@2@@Z 0000000180049ff0     VImage.obj
 0004:00000ffc       $pdata$?XYZ2Lab@VImage@vips@@QEAA?AV12@PEAVVOption@2@@Z 0000000180049ffc     VImage.obj
 0004:00001008       $pdata$?Lab2LCh@VImage@vips@@QEAA?AV12@PEAVVOption@2@@Z 000000018004a008     VImage.obj
 0004:00001014       $pdata$?LCh2Lab@VImage@vips@@QEAA?AV12@PEAVVOption@2@@Z 000000018004a014     VImage.obj
 0004:00001020       $pdata$?LCh2CMC@VImage@vips@@QEAA?AV12@PEAVVOption@2@@Z 000000018004a020     VImage.obj
 0004:0000102c       $pdata$?CMC2LCh@VImage@vips@@QEAA?AV12@PEAVVOption@2@@Z 000000018004a02c     VImage.obj
 0004:00001038       $pdata$?XYZ2Yxy@VImage@vips@@QEAA?AV12@PEAVVOption@2@@Z 000000018004a038     VImage.obj
 0004:00001044       $pdata$?Yxy2XYZ@VImage@vips@@QEAA?AV12@PEAVVOption@2@@Z 000000018004a044     VImage.obj
 0004:00001050       $pdata$?scRGB2XYZ@VImage@vips@@QEAA?AV12@PEAVVOption@2@@Z 000000018004a050     VImage.obj
 0004:0000105c       $pdata$?XYZ2scRGB@VImage@vips@@QEAA?AV12@PEAVVOption@2@@Z 000000018004a05c     VImage.obj
 0004:00001068       $pdata$?LabQ2Lab@VImage@vips@@QEAA?AV12@PEAVVOption@2@@Z 000000018004a068     VImage.obj
 0004:00001074       $pdata$?Lab2LabQ@VImage@vips@@QEAA?AV12@PEAVVOption@2@@Z 000000018004a074     VImage.obj
 0004:00001080       $pdata$?LabQ2LabS@VImage@vips@@QEAA?AV12@PEAVVOption@2@@Z 000000018004a080     VImage.obj
 0004:0000108c       $pdata$?LabS2LabQ@VImage@vips@@QEAA?AV12@PEAVVOption@2@@Z 000000018004a08c     VImage.obj
 0004:00001098       $pdata$?LabS2Lab@VImage@vips@@QEAA?AV12@PEAVVOption@2@@Z 000000018004a098     VImage.obj
 0004:000010a4       $pdata$?Lab2LabS@VImage@vips@@QEAA?AV12@PEAVVOption@2@@Z 000000018004a0a4     VImage.obj
 0004:000010b0       $pdata$?rad2float@VImage@vips@@QEAA?AV12@PEAVVOption@2@@Z 000000018004a0b0     VImage.obj
 0004:000010bc       $pdata$?float2rad@VImage@vips@@QEAA?AV12@PEAVVOption@2@@Z 000000018004a0bc     VImage.obj
 0004:000010c8       $pdata$?LabQ2sRGB@VImage@vips@@QEAA?AV12@PEAVVOption@2@@Z 000000018004a0c8     VImage.obj
 0004:000010d4       $pdata$?sRGB2HSV@VImage@vips@@QEAA?AV12@PEAVVOption@2@@Z 000000018004a0d4     VImage.obj
 0004:000010e0       $pdata$?HSV2sRGB@VImage@vips@@QEAA?AV12@PEAVVOption@2@@Z 000000018004a0e0     VImage.obj
 0004:000010ec       $pdata$?icc_import@VImage@vips@@QEAA?AV12@PEAVVOption@2@@Z 000000018004a0ec     VImage.obj
 0004:000010f8       $pdata$?icc_export@VImage@vips@@QEAA?AV12@PEAVVOption@2@@Z 000000018004a0f8     VImage.obj
 0004:00001104       $pdata$?icc_transform@VImage@vips@@QEAA?AV12@PEADPEAVVOption@2@@Z 000000018004a104     VImage.obj
 0004:00001110       $pdata$?dE76@VImage@vips@@QEAA?AV12@V12@PEAVVOption@2@@Z 000000018004a110     VImage.obj
 0004:0000111c       $pdata$?dE00@VImage@vips@@QEAA?AV12@V12@PEAVVOption@2@@Z 000000018004a11c     VImage.obj
 0004:00001128       $pdata$?dECMC@VImage@vips@@QEAA?AV12@V12@PEAVVOption@2@@Z 000000018004a128     VImage.obj
 0004:00001134       $pdata$?sRGB2scRGB@VImage@vips@@QEAA?AV12@PEAVVOption@2@@Z 000000018004a134     VImage.obj
 0004:00001140       $pdata$?scRGB2BW@VImage@vips@@QEAA?AV12@PEAVVOption@2@@Z 000000018004a140     VImage.obj
 0004:0000114c       $pdata$?scRGB2sRGB@VImage@vips@@QEAA?AV12@PEAVVOption@2@@Z 000000018004a14c     VImage.obj
 0004:00001158       $pdata$?maplut@VImage@vips@@QEAA?AV12@V12@PEAVVOption@2@@Z 000000018004a158     VImage.obj
 0004:00001164       $pdata$?percent@VImage@vips@@QEAAHNPEAVVOption@2@@Z 000000018004a164     VImage.obj
 0004:00001170       $pdata$?stdif@VImage@vips@@QEAA?AV12@HHPEAVVOption@2@@Z 000000018004a170     VImage.obj
 0004:0000117c       $pdata$?hist_cum@VImage@vips@@QEAA?AV12@PEAVVOption@2@@Z 000000018004a17c     VImage.obj
 0004:00001188       $pdata$?hist_match@VImage@vips@@QEAA?AV12@V12@PEAVVOption@2@@Z 000000018004a188     VImage.obj
 0004:00001194       $pdata$?hist_norm@VImage@vips@@QEAA?AV12@PEAVVOption@2@@Z 000000018004a194     VImage.obj
 0004:000011a0       $pdata$?hist_equal@VImage@vips@@QEAA?AV12@PEAVVOption@2@@Z 000000018004a1a0     VImage.obj
 0004:000011ac       $pdata$?hist_plot@VImage@vips@@QEAA?AV12@PEAVVOption@2@@Z 000000018004a1ac     VImage.obj
 0004:000011b8       $pdata$?hist_local@VImage@vips@@QEAA?AV12@HHPEAVVOption@2@@Z 000000018004a1b8     VImage.obj
 0004:000011c4       $pdata$?hist_ismonotonic@VImage@vips@@QEAA_NPEAVVOption@2@@Z 000000018004a1c4     VImage.obj
 0004:000011d0       $pdata$?hist_entropy@VImage@vips@@QEAANPEAVVOption@2@@Z 000000018004a1d0     VImage.obj
 0004:000011dc       $pdata$?conv@VImage@vips@@QEAA?AV12@V12@PEAVVOption@2@@Z 000000018004a1dc     VImage.obj
 0004:000011e8       $pdata$?conva@VImage@vips@@QEAA?AV12@V12@PEAVVOption@2@@Z 000000018004a1e8     VImage.obj
 0004:000011f4       $pdata$?convf@VImage@vips@@QEAA?AV12@V12@PEAVVOption@2@@Z 000000018004a1f4     VImage.obj
 0004:00001200       $pdata$?convi@VImage@vips@@QEAA?AV12@V12@PEAVVOption@2@@Z 000000018004a200     VImage.obj
 0004:0000120c       $pdata$?compass@VImage@vips@@QEAA?AV12@V12@PEAVVOption@2@@Z 000000018004a20c     VImage.obj
 0004:00001218       $pdata$?convsep@VImage@vips@@QEAA?AV12@V12@PEAVVOption@2@@Z 000000018004a218     VImage.obj
 0004:00001224       $pdata$?convasep@VImage@vips@@QEAA?AV12@V12@PEAVVOption@2@@Z 000000018004a224     VImage.obj
 0004:00001230       $pdata$?fastcor@VImage@vips@@QEAA?AV12@V12@PEAVVOption@2@@Z 000000018004a230     VImage.obj
 0004:0000123c       $pdata$?spcor@VImage@vips@@QEAA?AV12@V12@PEAVVOption@2@@Z 000000018004a23c     VImage.obj
 0004:00001248       $pdata$?sharpen@VImage@vips@@QEAA?AV12@PEAVVOption@2@@Z 000000018004a248     VImage.obj
 0004:00001254       $pdata$?gaussblur@VImage@vips@@QEAA?AV12@NPEAVVOption@2@@Z 000000018004a254     VImage.obj
 0004:00001260       $pdata$?fwfft@VImage@vips@@QEAA?AV12@PEAVVOption@2@@Z 000000018004a260     VImage.obj
 0004:0000126c       $pdata$?invfft@VImage@vips@@QEAA?AV12@PEAVVOption@2@@Z 000000018004a26c     VImage.obj
 0004:00001278       $pdata$?freqmult@VImage@vips@@QEAA?AV12@V12@PEAVVOption@2@@Z 000000018004a278     VImage.obj
 0004:00001284       $pdata$?spectrum@VImage@vips@@QEAA?AV12@PEAVVOption@2@@Z 000000018004a284     VImage.obj
 0004:00001290       $pdata$?phasecor@VImage@vips@@QEAA?AV12@V12@PEAVVOption@2@@Z 000000018004a290     VImage.obj
 0004:0000129c       $pdata$?morph@VImage@vips@@QEAA?AV12@V12@W4VipsOperationMorphology@@PEAVVOption@2@@Z 000000018004a29c     VImage.obj
 0004:000012a8       $pdata$?rank@VImage@vips@@QEAA?AV12@HHHPEAVVOption@2@@Z 000000018004a2a8     VImage.obj
 0004:000012b4       $pdata$?countlines@VImage@vips@@QEAANW4VipsDirection@@PEAVVOption@2@@Z 000000018004a2b4     VImage.obj
 0004:000012c0       $pdata$?labelregions@VImage@vips@@QEAA?AV12@PEAVVOption@2@@Z 000000018004a2c0     VImage.obj
 0004:000012cc       $pdata$?draw_rect@VImage@vips@@QEAAXV?$vector@NV?$allocator@N@std@@@std@@HHHHPEAVVOption@2@@Z 000000018004a2cc     VImage.obj
 0004:000012d8       $pdata$?draw_mask@VImage@vips@@QEAAXV?$vector@NV?$allocator@N@std@@@std@@V12@HHPEAVVOption@2@@Z 000000018004a2d8     VImage.obj
 0004:000012e4       $pdata$?draw_line@VImage@vips@@QEAAXV?$vector@NV?$allocator@N@std@@@std@@HHHHPEAVVOption@2@@Z 000000018004a2e4     VImage.obj
 0004:000012f0       $pdata$?draw_circle@VImage@vips@@QEAAXV?$vector@NV?$allocator@N@std@@@std@@HHHPEAVVOption@2@@Z 000000018004a2f0     VImage.obj
 0004:000012fc       $pdata$?draw_flood@VImage@vips@@QEAAXV?$vector@NV?$allocator@N@std@@@std@@HHPEAVVOption@2@@Z 000000018004a2fc     VImage.obj
 0004:00001308       $pdata$?draw_image@VImage@vips@@QEAAXV12@HHPEAVVOption@2@@Z 000000018004a308     VImage.obj
 0004:00001314       $pdata$?draw_smudge@VImage@vips@@QEAAXHHHHPEAVVOption@2@@Z 000000018004a314     VImage.obj
 0004:00001320       $pdata$?merge@VImage@vips@@QEAA?AV12@V12@W4VipsDirection@@HHPEAVVOption@2@@Z 000000018004a320     VImage.obj
 0004:0000132c       $pdata$?mosaic@VImage@vips@@QEAA?AV12@V12@W4VipsDirection@@HHHHPEAVVOption@2@@Z 000000018004a32c     VImage.obj
 0004:00001338       $pdata$?mosaic1@VImage@vips@@QEAA?AV12@V12@W4VipsDirection@@HHHHHHHHPEAVVOption@2@@Z 000000018004a338     VImage.obj
 0004:00001344       $pdata$?match@VImage@vips@@QEAA?AV12@V12@HHHHHHHHPEAVVOption@2@@Z 000000018004a344     VImage.obj
 0004:00001350       $pdata$?globalbalance@VImage@vips@@QEAA?AV12@PEAVVOption@2@@Z 000000018004a350     VImage.obj
 0004:0000135c       $pdata$?bandsplit@VImage@vips@@QEAA?AV?$vector@VVImage@vips@@V?$allocator@VVImage@vips@@@std@@@std@@PEAVVOption@2@@Z 000000018004a35c     VImage.obj
 0004:00001368       $pdata$?bandjoin@VImage@vips@@QEAA?AV12@V12@PEAVVOption@2@@Z 000000018004a368     VImage.obj
 0004:00001374       $pdata$?minpos@VImage@vips@@QEAA?AV?$complex@N@std@@PEAVVOption@2@@Z 000000018004a374     VImage.obj
 0004:00001380       $pdata$?maxpos@VImage@vips@@QEAA?AV?$complex@N@std@@PEAVVOption@2@@Z 000000018004a380     VImage.obj
 0004:0000138c       $pdata$??AVImage@vips@@QEAA?AV01@H@Z 000000018004a38c     VImage.obj
 0004:00001398       $pdata$??RVImage@vips@@QEAA?AV?$vector@NV?$allocator@N@std@@@std@@HH@Z 000000018004a398     VImage.obj
 0004:000013a4       $pdata$??Hvips@@YA?AVVImage@0@V10@0@Z 000000018004a3a4     VImage.obj
 0004:000013b0       $pdata$??Hvips@@YA?AVVImage@0@NV10@@Z 000000018004a3b0     VImage.obj
 0004:000013bc       $pdata$??Hvips@@YA?AVVImage@0@V10@N@Z 000000018004a3bc     VImage.obj
 0004:000013c8       $pdata$??Hvips@@YA?AVVImage@0@V?$vector@NV?$allocator@N@std@@@std@@V10@@Z 000000018004a3c8     VImage.obj
 0004:000013d4       $pdata$??Hvips@@YA?AVVImage@0@V10@V?$vector@NV?$allocator@N@std@@@std@@@Z 000000018004a3d4     VImage.obj
 0004:000013e0       $pdata$??Yvips@@YAAEAVVImage@0@AEAV10@V10@@Z 000000018004a3e0     VImage.obj
 0004:000013ec       $pdata$??Yvips@@YAAEAVVImage@0@AEAV10@N@Z 000000018004a3ec     VImage.obj
 0004:000013f8       $pdata$??Yvips@@YAAEAVVImage@0@AEAV10@V?$vector@NV?$allocator@N@std@@@std@@@Z 000000018004a3f8     VImage.obj
 0004:00001404       $pdata$??Gvips@@YA?AVVImage@0@V10@0@Z 000000018004a404     VImage.obj
 0004:00001410       $pdata$??Gvips@@YA?AVVImage@0@NV10@@Z 000000018004a410     VImage.obj
 0004:0000141c       $pdata$??Gvips@@YA?AVVImage@0@V10@N@Z 000000018004a41c     VImage.obj
 0004:00001428       $pdata$??Gvips@@YA?AVVImage@0@V?$vector@NV?$allocator@N@std@@@std@@V10@@Z 000000018004a428     VImage.obj
 0004:00001434       $pdata$??Gvips@@YA?AVVImage@0@V10@V?$vector@NV?$allocator@N@std@@@std@@@Z 000000018004a434     VImage.obj
 0004:00001440       $pdata$??Zvips@@YAAEAVVImage@0@AEAV10@V10@@Z 000000018004a440     VImage.obj
 0004:0000144c       $pdata$??Zvips@@YAAEAVVImage@0@AEAV10@N@Z 000000018004a44c     VImage.obj
 0004:00001458       $pdata$??Zvips@@YAAEAVVImage@0@AEAV10@V?$vector@NV?$allocator@N@std@@@std@@@Z 000000018004a458     VImage.obj
 0004:00001464       $pdata$??Gvips@@YA?AVVImage@0@V10@@Z 000000018004a464     VImage.obj
 0004:00001470       $pdata$??Dvips@@YA?AVVImage@0@V10@0@Z 000000018004a470     VImage.obj
 0004:0000147c       $pdata$??Dvips@@YA?AVVImage@0@NV10@@Z 000000018004a47c     VImage.obj
 0004:00001488       $pdata$??Dvips@@YA?AVVImage@0@V10@N@Z 000000018004a488     VImage.obj
 0004:00001494       $pdata$??Dvips@@YA?AVVImage@0@V?$vector@NV?$allocator@N@std@@@std@@V10@@Z 000000018004a494     VImage.obj
 0004:000014a0       $pdata$??Dvips@@YA?AVVImage@0@V10@V?$vector@NV?$allocator@N@std@@@std@@@Z 000000018004a4a0     VImage.obj
 0004:000014ac       $pdata$??Xvips@@YAAEAVVImage@0@AEAV10@V10@@Z 000000018004a4ac     VImage.obj
 0004:000014b8       $pdata$??Xvips@@YAAEAVVImage@0@AEAV10@N@Z 000000018004a4b8     VImage.obj
 0004:000014c4       $pdata$??Xvips@@YAAEAVVImage@0@AEAV10@V?$vector@NV?$allocator@N@std@@@std@@@Z 000000018004a4c4     VImage.obj
 0004:000014d0       $pdata$??Kvips@@YA?AVVImage@0@V10@0@Z 000000018004a4d0     VImage.obj
 0004:000014dc       $pdata$??Kvips@@YA?AVVImage@0@NV10@@Z 000000018004a4dc     VImage.obj
 0004:000014e8       $pdata$??Kvips@@YA?AVVImage@0@V10@N@Z 000000018004a4e8     VImage.obj
 0004:000014f4       $pdata$??Kvips@@YA?AVVImage@0@V?$vector@NV?$allocator@N@std@@@std@@V10@@Z 000000018004a4f4     VImage.obj
 0004:00001500       $pdata$??Kvips@@YA?AVVImage@0@V10@V?$vector@NV?$allocator@N@std@@@std@@@Z 000000018004a500     VImage.obj
 0004:0000150c       $pdata$??_0vips@@YAAEAVVImage@0@AEAV10@V10@@Z 000000018004a50c     VImage.obj
 0004:00001518       $pdata$??_0vips@@YAAEAVVImage@0@AEAV10@N@Z 000000018004a518     VImage.obj
 0004:00001524       $pdata$??_0vips@@YAAEAVVImage@0@AEAV10@V?$vector@NV?$allocator@N@std@@@std@@@Z 000000018004a524     VImage.obj
 0004:00001530       $pdata$??Lvips@@YA?AVVImage@0@V10@0@Z 000000018004a530     VImage.obj
 0004:0000153c       $pdata$??Lvips@@YA?AVVImage@0@V10@N@Z 000000018004a53c     VImage.obj
 0004:00001548       $pdata$??Lvips@@YA?AVVImage@0@V10@V?$vector@NV?$allocator@N@std@@@std@@@Z 000000018004a548     VImage.obj
 0004:00001554       $pdata$??_1vips@@YAAEAVVImage@0@AEAV10@V10@@Z 000000018004a554     VImage.obj
 0004:00001560       $pdata$??_1vips@@YAAEAVVImage@0@AEAV10@N@Z 000000018004a560     VImage.obj
 0004:0000156c       $pdata$??_1vips@@YAAEAVVImage@0@AEAV10@V?$vector@NV?$allocator@N@std@@@std@@@Z 000000018004a56c     VImage.obj
 0004:00001578       $pdata$??Mvips@@YA?AVVImage@0@V10@0@Z 000000018004a578     VImage.obj
 0004:00001584       $pdata$??Mvips@@YA?AVVImage@0@NV10@@Z 000000018004a584     VImage.obj
 0004:00001590       $pdata$??Mvips@@YA?AVVImage@0@V10@N@Z 000000018004a590     VImage.obj
 0004:0000159c       $pdata$??Mvips@@YA?AVVImage@0@V?$vector@NV?$allocator@N@std@@@std@@V10@@Z 000000018004a59c     VImage.obj
 0004:000015a8       $pdata$??Mvips@@YA?AVVImage@0@V10@V?$vector@NV?$allocator@N@std@@@std@@@Z 000000018004a5a8     VImage.obj
 0004:000015b4       $pdata$??Nvips@@YA?AVVImage@0@V10@0@Z 000000018004a5b4     VImage.obj
 0004:000015c0       $pdata$??Nvips@@YA?AVVImage@0@NV10@@Z 000000018004a5c0     VImage.obj
 0004:000015cc       $pdata$??Nvips@@YA?AVVImage@0@V10@N@Z 000000018004a5cc     VImage.obj
 0004:000015d8       $pdata$??Nvips@@YA?AVVImage@0@V?$vector@NV?$allocator@N@std@@@std@@V10@@Z 000000018004a5d8     VImage.obj
 0004:000015e4       $pdata$??Nvips@@YA?AVVImage@0@V10@V?$vector@NV?$allocator@N@std@@@std@@@Z 000000018004a5e4     VImage.obj
 0004:000015f0       $pdata$??Ovips@@YA?AVVImage@0@V10@0@Z 000000018004a5f0     VImage.obj
 0004:000015fc       $pdata$??Ovips@@YA?AVVImage@0@NV10@@Z 000000018004a5fc     VImage.obj
 0004:00001608       $pdata$??Ovips@@YA?AVVImage@0@V10@N@Z 000000018004a608     VImage.obj
 0004:00001614       $pdata$??Ovips@@YA?AVVImage@0@V?$vector@NV?$allocator@N@std@@@std@@V10@@Z 000000018004a614     VImage.obj
 0004:00001620       $pdata$??Ovips@@YA?AVVImage@0@V10@V?$vector@NV?$allocator@N@std@@@std@@@Z 000000018004a620     VImage.obj
 0004:0000162c       $pdata$??Pvips@@YA?AVVImage@0@V10@0@Z 000000018004a62c     VImage.obj
 0004:00001638       $pdata$??Pvips@@YA?AVVImage@0@NV10@@Z 000000018004a638     VImage.obj
 0004:00001644       $pdata$??Pvips@@YA?AVVImage@0@V10@N@Z 000000018004a644     VImage.obj
 0004:00001650       $pdata$??Pvips@@YA?AVVImage@0@V?$vector@NV?$allocator@N@std@@@std@@V10@@Z 000000018004a650     VImage.obj
 0004:0000165c       $pdata$??Pvips@@YA?AVVImage@0@V10@V?$vector@NV?$allocator@N@std@@@std@@@Z 000000018004a65c     VImage.obj
 0004:00001668       $pdata$??8vips@@YA?AVVImage@0@V10@0@Z 000000018004a668     VImage.obj
 0004:00001674       $pdata$??8vips@@YA?AVVImage@0@NV10@@Z 000000018004a674     VImage.obj
 0004:00001680       $pdata$??8vips@@YA?AVVImage@0@V10@N@Z 000000018004a680     VImage.obj
 0004:0000168c       $pdata$??8vips@@YA?AVVImage@0@V?$vector@NV?$allocator@N@std@@@std@@V10@@Z 000000018004a68c     VImage.obj
 0004:00001698       $pdata$??8vips@@YA?AVVImage@0@V10@V?$vector@NV?$allocator@N@std@@@std@@@Z 000000018004a698     VImage.obj
 0004:000016a4       $pdata$??9vips@@YA?AVVImage@0@V10@0@Z 000000018004a6a4     VImage.obj
 0004:000016b0       $pdata$??9vips@@YA?AVVImage@0@NV10@@Z 000000018004a6b0     VImage.obj
 0004:000016bc       $pdata$??9vips@@YA?AVVImage@0@V10@N@Z 000000018004a6bc     VImage.obj
 0004:000016c8       $pdata$??9vips@@YA?AVVImage@0@V?$vector@NV?$allocator@N@std@@@std@@V10@@Z 000000018004a6c8     VImage.obj
 0004:000016d4       $pdata$??9vips@@YA?AVVImage@0@V10@V?$vector@NV?$allocator@N@std@@@std@@@Z 000000018004a6d4     VImage.obj
 0004:000016e0       $pdata$??Ivips@@YA?AVVImage@0@V10@0@Z 000000018004a6e0     VImage.obj
 0004:000016ec       $pdata$??Ivips@@YA?AVVImage@0@NV10@@Z 000000018004a6ec     VImage.obj
 0004:000016f8       $pdata$??Ivips@@YA?AVVImage@0@V10@N@Z 000000018004a6f8     VImage.obj
 0004:00001704       $pdata$??Ivips@@YA?AVVImage@0@V?$vector@NV?$allocator@N@std@@@std@@V10@@Z 000000018004a704     VImage.obj
 0004:00001710       $pdata$??Ivips@@YA?AVVImage@0@V10@V?$vector@NV?$allocator@N@std@@@std@@@Z 000000018004a710     VImage.obj
 0004:0000171c       $pdata$??_4vips@@YAAEAVVImage@0@AEAV10@V10@@Z 000000018004a71c     VImage.obj
 0004:00001728       $pdata$??_4vips@@YAAEAVVImage@0@AEAV10@N@Z 000000018004a728     VImage.obj
 0004:00001734       $pdata$??_4vips@@YAAEAVVImage@0@AEAV10@V?$vector@NV?$allocator@N@std@@@std@@@Z 000000018004a734     VImage.obj
 0004:00001740       $pdata$??Uvips@@YA?AVVImage@0@V10@0@Z 000000018004a740     VImage.obj
 0004:0000174c       $pdata$??Uvips@@YA?AVVImage@0@NV10@@Z 000000018004a74c     VImage.obj
 0004:00001758       $pdata$??Uvips@@YA?AVVImage@0@V10@N@Z 000000018004a758     VImage.obj
 0004:00001764       $pdata$??Uvips@@YA?AVVImage@0@V?$vector@NV?$allocator@N@std@@@std@@V10@@Z 000000018004a764     VImage.obj
 0004:00001770       $pdata$??Uvips@@YA?AVVImage@0@V10@V?$vector@NV?$allocator@N@std@@@std@@@Z 000000018004a770     VImage.obj
 0004:0000177c       $pdata$??_5vips@@YAAEAVVImage@0@AEAV10@V10@@Z 000000018004a77c     VImage.obj
 0004:00001788       $pdata$??_5vips@@YAAEAVVImage@0@AEAV10@N@Z 000000018004a788     VImage.obj
 0004:00001794       $pdata$??_5vips@@YAAEAVVImage@0@AEAV10@V?$vector@NV?$allocator@N@std@@@std@@@Z 000000018004a794     VImage.obj
 0004:000017a0       $pdata$??Tvips@@YA?AVVImage@0@V10@0@Z 000000018004a7a0     VImage.obj
 0004:000017ac       $pdata$??Tvips@@YA?AVVImage@0@NV10@@Z 000000018004a7ac     VImage.obj
 0004:000017b8       $pdata$??Tvips@@YA?AVVImage@0@V10@N@Z 000000018004a7b8     VImage.obj
 0004:000017c4       $pdata$??Tvips@@YA?AVVImage@0@V?$vector@NV?$allocator@N@std@@@std@@V10@@Z 000000018004a7c4     VImage.obj
 0004:000017d0       $pdata$??Tvips@@YA?AVVImage@0@V10@V?$vector@NV?$allocator@N@std@@@std@@@Z 000000018004a7d0     VImage.obj
 0004:000017dc       $pdata$??_6vips@@YAAEAVVImage@0@AEAV10@V10@@Z 000000018004a7dc     VImage.obj
 0004:000017e8       $pdata$??_6vips@@YAAEAVVImage@0@AEAV10@N@Z 000000018004a7e8     VImage.obj
 0004:000017f4       $pdata$??_6vips@@YAAEAVVImage@0@AEAV10@V?$vector@NV?$allocator@N@std@@@std@@@Z 000000018004a7f4     VImage.obj
 0004:00001800       $pdata$??6vips@@YA?AVVImage@0@V10@0@Z 000000018004a800     VImage.obj
 0004:0000180c       $pdata$??6vips@@YA?AVVImage@0@V10@N@Z 000000018004a80c     VImage.obj
 0004:00001818       $pdata$??6vips@@YA?AVVImage@0@V10@V?$vector@NV?$allocator@N@std@@@std@@@Z 000000018004a818     VImage.obj
 0004:00001824       $pdata$??_3vips@@YAAEAVVImage@0@AEAV10@V10@@Z 000000018004a824     VImage.obj
 0004:00001824       $pdata$??_2vips@@YAAEAVVImage@0@AEAV10@V10@@Z 000000018004a824     VImage.obj
 0004:00001830       $pdata$??_3vips@@YAAEAVVImage@0@AEAV10@N@Z 000000018004a830     VImage.obj
 0004:00001830       $pdata$??_2vips@@YAAEAVVImage@0@AEAV10@N@Z 000000018004a830     VImage.obj
 0004:0000183c       $pdata$??_2vips@@YAAEAVVImage@0@AEAV10@V?$vector@NV?$allocator@N@std@@@std@@@Z 000000018004a83c     VImage.obj
 0004:0000183c       $pdata$??_3vips@@YAAEAVVImage@0@AEAV10@V?$vector@NV?$allocator@N@std@@@std@@@Z 000000018004a83c     VImage.obj
 0004:00001848       $pdata$??5vips@@YA?AVVImage@0@V10@0@Z 000000018004a848     VImage.obj
 0004:00001854       $pdata$??5vips@@YA?AVVImage@0@V10@N@Z 000000018004a854     VImage.obj
 0004:00001860       $pdata$??5vips@@YA?AVVImage@0@V10@V?$vector@NV?$allocator@N@std@@@std@@@Z 000000018004a860     VImage.obj
 0004:0000186c       $pdata$??1?$vector@VVImage@vips@@V?$allocator@VVImage@vips@@@std@@@std@@QEAA@XZ 000000018004a86c     VImage.obj
 0004:00001878       $pdata$?push_back@?$vector@VVImage@vips@@V?$allocator@VVImage@vips@@@std@@@std@@QEAAX$$QEAVVImage@vips@@@Z 000000018004a878     VImage.obj
 0004:00001884       $pdata$??0?$vector@VVImage@vips@@V?$allocator@VVImage@vips@@@std@@@std@@QEAA@AEBV01@@Z 000000018004a884     VImage.obj
 0004:00001890       $pdata$?resize@?$vector@NV?$allocator@N@std@@@std@@QEAAX_K@Z 000000018004a890     VImage.obj
 0004:0000189c       $pdata$??0?$vector@NV?$allocator@N@std@@@std@@QEAA@_K@Z 000000018004a89c     VImage.obj
 0004:000018a8       $pdata$?_Reserve@?$vector@VVImage@vips@@V?$allocator@VVImage@vips@@@std@@@std@@IEAAX_K@Z 000000018004a8a8     VImage.obj
 0004:000018b4       $pdata$?_Reallocate@?$vector@VVImage@vips@@V?$allocator@VVImage@vips@@@std@@@std@@IEAAX_K@Z 000000018004a8b4     VImage.obj
 0004:000018c0       $pdata$0$?_Reallocate@?$vector@VVImage@vips@@V?$allocator@VVImage@vips@@@std@@@std@@IEAAX_K@Z 000000018004a8c0     VImage.obj
 0004:000018cc       $pdata$1$?_Reallocate@?$vector@VVImage@vips@@V?$allocator@VVImage@vips@@@std@@@std@@IEAAX_K@Z 000000018004a8cc     VImage.obj
 0004:000018d8       $pdata$?_Reallocate@?$vector@NV?$allocator@N@std@@@std@@IEAAX_K@Z 000000018004a8d8     VImage.obj
 0004:000018e4       $pdata$0$?_Reallocate@?$vector@NV?$allocator@N@std@@@std@@IEAAX_K@Z 000000018004a8e4     VImage.obj
 0004:000018f0       $pdata$1$?_Reallocate@?$vector@NV?$allocator@N@std@@@std@@IEAAX_K@Z 000000018004a8f0     VImage.obj
 0004:000018fc       $pdata$??$_Destroy_range1@V?$allocator@VVImage@vips@@@std@@PEAVVImage@vips@@@std@@YAXPEAVVImage@vips@@0AEAU?$_Wrap_alloc@V?$allocator@VVImage@vips@@@std@@@0@U?$integral_constant@_N$0A@@0@@Z 000000018004a8fc     VImage.obj
 0004:00001908       $pdata$0$??$_Destroy_range1@V?$allocator@VVImage@vips@@@std@@PEAVVImage@vips@@@std@@YAXPEAVVImage@vips@@0AEAU?$_Wrap_alloc@V?$allocator@VVImage@vips@@@std@@@0@U?$integral_constant@_N$0A@@0@@Z 000000018004a908     VImage.obj
 0004:00001914       $pdata$1$??$_Destroy_range1@V?$allocator@VVImage@vips@@@std@@PEAVVImage@vips@@@std@@YAXPEAVVImage@vips@@0AEAU?$_Wrap_alloc@V?$allocator@VVImage@vips@@@std@@@0@U?$integral_constant@_N$0A@@0@@Z 000000018004a914     VImage.obj
 0004:00001920       $pdata$??$_Uninitialized_move_al_unchecked1@PEAVVImage@vips@@PEAV12@V?$allocator@VVImage@vips@@@std@@@std@@YAPEAVVImage@vips@@PEAV12@00AEAU?$_Wrap_alloc@V?$allocator@VVImage@vips@@@std@@@0@U_General_ptr_iterator_tag@0@U_Any_tag@0@@Z 000000018004a920     VImage.obj
 0004:00001920       $pdata$??$_Uninitialized_copy_al_unchecked1@PEAVVImage@vips@@PEAV12@V?$allocator@VVImage@vips@@@std@@@std@@YAPEAVVImage@vips@@PEAV12@00AEAU?$_Wrap_alloc@V?$allocator@VVImage@vips@@@std@@@0@U_General_ptr_iterator_tag@0@U_Any_tag@0@@Z 000000018004a920     VImage.obj
 0004:00001920       $pdata$??$_Uninitialized_copy_al_unchecked1@PEBVVImage@vips@@PEAV12@V?$allocator@VVImage@vips@@@std@@@std@@YAPEAVVImage@vips@@PEBV12@0PEAV12@AEAU?$_Wrap_alloc@V?$allocator@VVImage@vips@@@std@@@0@U_General_ptr_iterator_tag@0@U_Any_tag@0@@Z 000000018004a920     VImage.obj
 0004:0000192c       $pdata$0$??$_Uninitialized_copy_al_unchecked1@PEAVVImage@vips@@PEAV12@V?$allocator@VVImage@vips@@@std@@@std@@YAPEAVVImage@vips@@PEAV12@00AEAU?$_Wrap_alloc@V?$allocator@VVImage@vips@@@std@@@0@U_General_ptr_iterator_tag@0@U_Any_tag@0@@Z 000000018004a92c     VImage.obj
 0004:0000192c       $pdata$0$??$_Uninitialized_copy_al_unchecked1@PEBVVImage@vips@@PEAV12@V?$allocator@VVImage@vips@@@std@@@std@@YAPEAVVImage@vips@@PEBV12@0PEAV12@AEAU?$_Wrap_alloc@V?$allocator@VVImage@vips@@@std@@@0@U_General_ptr_iterator_tag@0@U_Any_tag@0@@Z 000000018004a92c     VImage.obj
 0004:0000192c       $pdata$0$??$_Uninitialized_move_al_unchecked1@PEAVVImage@vips@@PEAV12@V?$allocator@VVImage@vips@@@std@@@std@@YAPEAVVImage@vips@@PEAV12@00AEAU?$_Wrap_alloc@V?$allocator@VVImage@vips@@@std@@@0@U_General_ptr_iterator_tag@0@U_Any_tag@0@@Z 000000018004a92c     VImage.obj
 0004:00001938       $pdata$1$??$_Uninitialized_move_al_unchecked1@PEAVVImage@vips@@PEAV12@V?$allocator@VVImage@vips@@@std@@@std@@YAPEAVVImage@vips@@PEAV12@00AEAU?$_Wrap_alloc@V?$allocator@VVImage@vips@@@std@@@0@U_General_ptr_iterator_tag@0@U_Any_tag@0@@Z 000000018004a938     VImage.obj
 0004:00001938       $pdata$1$??$_Uninitialized_copy_al_unchecked1@PEBVVImage@vips@@PEAV12@V?$allocator@VVImage@vips@@@std@@@std@@YAPEAVVImage@vips@@PEBV12@0PEAV12@AEAU?$_Wrap_alloc@V?$allocator@VVImage@vips@@@std@@@0@U_General_ptr_iterator_tag@0@U_Any_tag@0@@Z 000000018004a938     VImage.obj
 0004:00001938       $pdata$1$??$_Uninitialized_copy_al_unchecked1@PEAVVImage@vips@@PEAV12@V?$allocator@VVImage@vips@@@std@@@std@@YAPEAVVImage@vips@@PEAV12@00AEAU?$_Wrap_alloc@V?$allocator@VVImage@vips@@@std@@@0@U_General_ptr_iterator_tag@0@U_Any_tag@0@@Z 000000018004a938     VImage.obj
 0004:00001944       $pdata$??0bad_alloc@std@@QEAA@AEBV01@@Z 000000018004a944     libcpmt:xthrow.obj
 0004:00001950       $pdata$??0exception@std@@QEAA@AEBV01@@Z 000000018004a950     libcpmt:xthrow.obj
 0004:0000195c       $pdata$??0length_error@std@@QEAA@AEBV01@@Z 000000018004a95c     libcpmt:xthrow.obj
 0004:00001968       $pdata$??0length_error@std@@QEAA@PEBD@Z 000000018004a968     libcpmt:xthrow.obj
 0004:00001974       $pdata$??0logic_error@std@@QEAA@AEBV01@@Z 000000018004a974     libcpmt:xthrow.obj
 0004:00001980       $pdata$??0out_of_range@std@@QEAA@AEBV01@@Z 000000018004a980     libcpmt:xthrow.obj
 0004:0000198c       $pdata$??0out_of_range@std@@QEAA@PEBD@Z 000000018004a98c     libcpmt:xthrow.obj
 0004:00001998       $pdata$??_Glogic_error@std@@UEAAPEAXI@Z 000000018004a998     libcpmt:xthrow.obj
 0004:00001998       $pdata$??_Glength_error@std@@UEAAPEAXI@Z 000000018004a998     libcpmt:xthrow.obj
 0004:00001998       $pdata$??_Gexception@std@@UEAAPEAXI@Z 000000018004a998     libcpmt:xthrow.obj
 0004:00001998       $pdata$??_Gbad_alloc@std@@UEAAPEAXI@Z 000000018004a998     libcpmt:xthrow.obj
 0004:00001998       $pdata$??_Gout_of_range@std@@UEAAPEAXI@Z 000000018004a998     libcpmt:xthrow.obj
 0004:00001998       $pdata$??_Gbad_array_new_length@std@@UEAAPEAXI@Z 000000018004a998     LIBCMT:throw_bad_alloc.obj
 0004:00001998       $pdata$??_Gbad_exception@std@@UEAAPEAXI@Z 000000018004a998     libvcruntime:frame.obj
 0004:000019a4       $pdata$?_Xlength_error@std@@YAXPEBD@Z 000000018004a9a4     libcpmt:xthrow.obj
 0004:000019b0       $pdata$?_Xout_of_range@std@@YAXPEBD@Z 000000018004a9b0     libcpmt:xthrow.obj
 0004:000019c8       $pdata$?__scrt_initialize_thread_safe_statics@@YAHXZ 000000018004a9c8     LIBCMT:thread_safe_statics.obj
 0004:000019d4       $pdata$?__scrt_uninitialize_thread_safe_statics@@YAXXZ 000000018004a9d4     LIBCMT:thread_safe_statics.obj
 0004:000019e0       $pdata$_Init_thread_footer 000000018004a9e0     LIBCMT:thread_safe_statics.obj
 0004:000019ec       $pdata$_Init_thread_header 000000018004a9ec     LIBCMT:thread_safe_statics.obj
 0004:000019f8       $pdata$_Init_thread_notify 000000018004a9f8     LIBCMT:thread_safe_statics.obj
 0004:00001a04       $pdata$_Init_thread_wait   000000018004aa04     LIBCMT:thread_safe_statics.obj
 0004:00001a10       $pdata$??2@YAPEAX_K@Z      000000018004aa10     LIBCMT:new_scalar.obj
 0004:00001a1c       $pdata$??_M@YAXPEAX_K1P6AX0@Z@Z 000000018004aa1c     LIBCMT:ehvecdtr.obj
 0004:00001a28       $pdata$?__ArrayUnwind@@YAXPEAX_K1P6AX0@Z@Z 000000018004aa28     LIBCMT:ehvecdtr.obj
 0004:00001a34       $pdata$__scrt_acquire_startup_lock 000000018004aa34     LIBCMT:utility.obj
 0004:00001a40       $pdata$__scrt_dllmain_after_initialize_c 000000018004aa40     LIBCMT:utility.obj
 0004:00001a4c       $pdata$__scrt_dllmain_before_initialize_c 000000018004aa4c     LIBCMT:utility.obj
 0004:00001a58       $pdata$__scrt_dllmain_crt_thread_attach 000000018004aa58     LIBCMT:utility.obj
 0004:00001a64       $pdata$__scrt_dllmain_crt_thread_detach 000000018004aa64     LIBCMT:utility.obj
 0004:00001a70       $pdata$__scrt_dllmain_exception_filter 000000018004aa70     LIBCMT:utility.obj
 0004:00001a7c       $pdata$__scrt_dllmain_uninitialize_c 000000018004aa7c     LIBCMT:utility.obj
 0004:00001a88       $pdata$__scrt_dllmain_uninitialize_critical 000000018004aa88     LIBCMT:utility.obj
 0004:00001a94       $pdata$__scrt_initialize_crt 000000018004aa94     LIBCMT:utility.obj
 0004:00001aa0       $pdata$__scrt_initialize_onexit_tables 000000018004aaa0     LIBCMT:utility.obj
 0004:00001aac       $pdata$__scrt_is_nonwritable_in_current_image 000000018004aaac     LIBCMT:utility.obj
 0004:00001ab8       $pdata$__scrt_release_startup_lock 000000018004aab8     LIBCMT:utility.obj
 0004:00001ac4       $pdata$__scrt_uninitialize_crt 000000018004aac4     LIBCMT:utility.obj
 0004:00001ad0       $pdata$_onexit             000000018004aad0     LIBCMT:utility.obj
 0004:00001adc       $pdata$atexit              000000018004aadc     LIBCMT:utility.obj
 0004:00001ae8       $pdata$??_Gtype_info@@UEAAPEAXI@Z 000000018004aae8     LIBCMT:std_type_info_static.obj
 0004:00001af4       $pdata$?dllmain_crt_dispatch@@YAHQEAUHINSTANCE__@@KQEAX@Z 000000018004aaf4     LIBCMT:dll_dllmain.obj
 0004:00001b00       $pdata$?dllmain_crt_process_attach@@YAHQEAUHINSTANCE__@@QEAX@Z 000000018004ab00     LIBCMT:dll_dllmain.obj
 0004:00001b0c       $pdata$?dllmain_crt_process_detach@@YAH_N@Z 000000018004ab0c     LIBCMT:dll_dllmain.obj
 0004:00001b18       $pdata$?dllmain_dispatch@@YAHQEAUHINSTANCE__@@KQEAX@Z 000000018004ab18     LIBCMT:dll_dllmain.obj
 0004:00001b24       $pdata$?dllmain_raw@@YAHQEAUHINSTANCE__@@KQEAX@Z 000000018004ab24     LIBCMT:dll_dllmain.obj
 0004:00001b30       $pdata$_DllMainCRTStartup  000000018004ab30     LIBCMT:dll_dllmain.obj
 0004:00001b3c       $pdata$__GSHandlerCheck    000000018004ab3c     LIBCMT:_gshandler_.obj
 0004:00001b48       $pdata$__GSHandlerCheckCommon 000000018004ab48     LIBCMT:_gshandler_.obj
 0004:00001b54       $pdata$__raise_securityfailure 000000018004ab54     LIBCMT:gs_report.obj
 0004:00001b60       $pdata$__report_gsfailure  000000018004ab60     LIBCMT:gs_report.obj
 0004:00001b6c       $pdata$__report_rangecheckfailure 000000018004ab6c     LIBCMT:gs_report.obj
 0004:00001b78       $pdata$__report_securityfailure 000000018004ab78     LIBCMT:gs_report.obj
 0004:00001b84       $pdata$capture_current_context 000000018004ab84     LIBCMT:gs_report.obj
 0004:00001b90       $pdata$capture_previous_context 000000018004ab90     LIBCMT:gs_report.obj
 0004:00001b9c       $pdata$__scrt_fastfail     000000018004ab9c     LIBCMT:utility_desktop.obj
 0004:00001ba8       $pdata$??0bad_array_new_length@std@@QEAA@AEBV01@@Z 000000018004aba8     LIBCMT:throw_bad_alloc.obj
 0004:00001bb4       $pdata$?__scrt_throw_std_bad_alloc@@YAXXZ 000000018004abb4     LIBCMT:throw_bad_alloc.obj
 0004:00001bb4       $pdata$?_Xbad_alloc@std@@YAXXZ 000000018004abb4     libcpmt:xthrow.obj
 0004:00001bc0       $pdata$?__scrt_throw_std_bad_array_new_length@@YAXXZ 000000018004abc0     LIBCMT:throw_bad_alloc.obj
 0004:00001bcc       $pdata$__isa_available_init 000000018004abcc     LIBCMT:_cpu_disp_.obj
 0004:00001bd8       $pdata$__security_init_cookie 000000018004abd8     LIBCMT:gs_support.obj
 0004:00001be4       $pdata$__scrt_initialize_default_local_stdio_options 000000018004abe4     LIBCMT:default_local_stdio_options.obj
 0004:00001bf0       $pdata$_RTC_Initialize     000000018004abf0     LIBCMT:_initsect_.obj
 0004:00001bfc       $pdata$_RTC_Terminate      000000018004abfc     LIBCMT:_initsect_.obj
 0004:00001c14       $pdata$_purecall           000000018004ac14     libvcruntime:purevirt.obj
 0004:00001c20       $pdata$__DestructExceptionObject 000000018004ac20     libvcruntime:frame.obj
 0004:00001c2c       $pdata$??0bad_exception@std@@QEAA@AEBV01@@Z 000000018004ac2c     libvcruntime:frame.obj
 0004:00001c38       $pdata$?CatchIt@@YAXPEAUEHExceptionRecord@@PEA_KPEAU_CONTEXT@@PEAU_xDISPATCHER_CONTEXT@@PEBU_s_FuncInfo@@PEBU_s_HandlerType@@PEBU_s_CatchableType@@PEBU_s_TryBlockMapEntry@@H1EE@Z 000000018004ac38     libvcruntime:frame.obj
 0004:00001c44       $pdata$?ExFilterRethrow@@YAHPEAU_EXCEPTION_POINTERS@@PEAUEHExceptionRecord@@PEAH@Z 000000018004ac44     libvcruntime:frame.obj
 0004:00001c50       $pdata$?FindHandler@@YAXPEAUEHExceptionRecord@@PEA_KPEAU_CONTEXT@@PEAU_xDISPATCHER_CONTEXT@@PEBU_s_FuncInfo@@EH1@Z 000000018004ac50     libvcruntime:frame.obj
 0004:00001c5c       $pdata$?FindHandlerForForeignException@@YAXPEAUEHExceptionRecord@@PEA_KPEAU_CONTEXT@@PEAU_xDISPATCHER_CONTEXT@@PEBU_s_FuncInfo@@HH1@Z 000000018004ac5c     libvcruntime:frame.obj
 0004:00001c68       $pdata$?IsInExceptionSpec@@YAEPEAUEHExceptionRecord@@PEBU_s_ESTypeList@@@Z 000000018004ac68     libvcruntime:frame.obj
 0004:00001c74       $pdata$__BuildCatchObject  000000018004ac74     libvcruntime:frame.obj
 0004:00001c80       $pdata$__BuildCatchObjectHelper 000000018004ac80     libvcruntime:frame.obj
 0004:00001c8c       $pdata$__CxxCallCatchBlock 000000018004ac8c     libvcruntime:frame.obj
 0004:00001c98       $pdata$__FrameUnwindFilter 000000018004ac98     libvcruntime:frame.obj
 0004:00001ca4       $pdata$__FrameUnwindToState 000000018004aca4     libvcruntime:frame.obj
 0004:00001cb0       $pdata$__InternalCxxFrameHandler 000000018004acb0     libvcruntime:frame.obj
 0004:00001cbc       $pdata$__TypeMatch         000000018004acbc     libvcruntime:frame.obj
 0004:00001cc8       $pdata$__std_exception_copy 000000018004acc8     libvcruntime:std_exception.obj
 0004:00001cd4       $pdata$__std_exception_destroy 000000018004acd4     libvcruntime:std_exception.obj
 0004:00001ce0       $pdata$_CxxThrowException  000000018004ace0     libvcruntime:throw.obj
 0004:00001cec       $pdata$?_ExecutionInCatch@@YAHPEAU_xDISPATCHER_CONTEXT@@PEBU_s_FuncInfo@@@Z 000000018004acec     libvcruntime:trnsctrl.obj
 0004:00001cf8       $pdata$?_GetEstablisherFrame@@YAPEA_KPEA_KPEAU_xDISPATCHER_CONTEXT@@PEBU_s_FuncInfo@@0@Z 000000018004acf8     libvcruntime:trnsctrl.obj
 0004:00001d04       $pdata$?_GetRangeOfTrysToCheck@@YAPEBU_s_TryBlockMapEntry@@PEA_KPEBU_s_FuncInfo@@HHPEAI2PEAU_xDISPATCHER_CONTEXT@@@Z 000000018004ad04     libvcruntime:trnsctrl.obj
 0004:00001d10       $pdata$?__FrameUnwindToEmptyState@@YAXPEA_KPEAU_xDISPATCHER_CONTEXT@@PEBU_s_FuncInfo@@@Z 000000018004ad10     libvcruntime:trnsctrl.obj
 0004:00001d1c       $pdata$?__SehTransFilter@@YAHPEAU_EXCEPTION_POINTERS@@PEAUEHExceptionRecord@@PEA_KPEAU_CONTEXT@@PEAU_xDISPATCHER_CONTEXT@@PEBU_s_FuncInfo@@PEAH@Z 000000018004ad1c     libvcruntime:trnsctrl.obj
 0004:00001d28       $pdata$_CallSETranslator   000000018004ad28     libvcruntime:trnsctrl.obj
 0004:00001d34       $pdata$_CreateFrameInfo    000000018004ad34     libvcruntime:trnsctrl.obj
 0004:00001d40       $pdata$_FindAndUnlinkFrame 000000018004ad40     libvcruntime:trnsctrl.obj
 0004:00001d4c       $pdata$_GetImageBase       000000018004ad4c     libvcruntime:trnsctrl.obj
 0004:00001d58       $pdata$_GetThrowImageBase  000000018004ad58     libvcruntime:trnsctrl.obj
 0004:00001d64       $pdata$_IsExceptionObjectToBeDestroyed 000000018004ad64     libvcruntime:trnsctrl.obj
 0004:00001d70       $pdata$_SetImageBase       000000018004ad70     libvcruntime:trnsctrl.obj
 0004:00001d7c       $pdata$_SetThrowImageBase  000000018004ad7c     libvcruntime:trnsctrl.obj
 0004:00001d88       $pdata$_UnwindNestedFrames 000000018004ad88     libvcruntime:trnsctrl.obj
 0004:00001d94       $pdata$__CxxFrameHandler3  000000018004ad94     libvcruntime:trnsctrl.obj
 0004:00001da0       $pdata$?try_get_function@@YAPEAXW4function_id@?A0x679b24ab@@QEBDQEBW4module_id@2@2@Z 000000018004ada0     libvcruntime:winapi_downlevel.obj
 0004:00001dac       $pdata$__vcrt_FlsAlloc     000000018004adac     libvcruntime:winapi_downlevel.obj
 0004:00001db8       $pdata$__vcrt_FlsFree      000000018004adb8     libvcruntime:winapi_downlevel.obj
 0004:00001dc4       $pdata$__vcrt_FlsGetValue  000000018004adc4     libvcruntime:winapi_downlevel.obj
 0004:00001dd0       $pdata$__vcrt_FlsSetValue  000000018004add0     libvcruntime:winapi_downlevel.obj
 0004:00001ddc       $pdata$__vcrt_InitializeCriticalSectionEx 000000018004addc     libvcruntime:winapi_downlevel.obj
 0004:00001de8       $pdata$__vcrt_uninitialize_winapi_thunks 000000018004ade8     libvcruntime:winapi_downlevel.obj
 0004:00001df4       $pdata$__C_specific_handler 000000018004adf4     libvcruntime:_chandler_.obj
 0004:00001e00       $pdata$__vcrt_initialize   000000018004ae00     libvcruntime:initialization.obj
 0004:00001e0c       $pdata$__vcrt_thread_attach 000000018004ae0c     libvcruntime:initialization.obj
 0004:00001e18       $pdata$__vcrt_thread_detach 000000018004ae18     libvcruntime:initialization.obj
 0004:00001e24       $pdata$__vcrt_uninitialize 000000018004ae24     libvcruntime:initialization.obj
 0004:00001e30       $pdata$__vcrt_uninitialize_critical 000000018004ae30     libvcruntime:initialization.obj
 0004:00001e48       $pdata$__std_type_info_destroy_list 000000018004ae48     libvcruntime:std_type_info.obj
 0004:00001e54       $pdata$__vcrt_freefls      000000018004ae54     libvcruntime:per_thread_data.obj
 0004:00001e60       $pdata$__vcrt_freeptd      000000018004ae60     libvcruntime:per_thread_data.obj
 0004:00001e6c       $pdata$__vcrt_getptd       000000018004ae6c     libvcruntime:per_thread_data.obj
 0004:00001e78       $pdata$__vcrt_getptd_noexit 000000018004ae78     libvcruntime:per_thread_data.obj
 0004:00001e84       $pdata$__vcrt_initialize_ptd 000000018004ae84     libvcruntime:per_thread_data.obj
 0004:00001e90       $pdata$__vcrt_uninitialize_ptd 000000018004ae90     libvcruntime:per_thread_data.obj
 0004:00001e9c       $pdata$?__GetCurrentState@@YAHPEA_KPEAU_xDISPATCHER_CONTEXT@@PEBU_s_FuncInfo@@@Z 000000018004ae9c     libvcruntime:ehstate.obj
 0004:00001ea8       $pdata$?__GetUnwindTryBlock@@YAHPEA_KPEAU_xDISPATCHER_CONTEXT@@PEBU_s_FuncInfo@@@Z 000000018004aea8     libvcruntime:ehstate.obj
 0004:00001eb4       $pdata$?__SetUnwindTryBlock@@YAXPEA_KPEAU_xDISPATCHER_CONTEXT@@PEBU_s_FuncInfo@@H@Z 000000018004aeb4     libvcruntime:ehstate.obj
 0004:00001ec0       $pdata$?__StateFromIp@@YAHPEBU_s_FuncInfo@@PEAU_xDISPATCHER_CONTEXT@@_J@Z 000000018004aec0     libvcruntime:ehstate.obj
 0004:00001f08       $pdata$__vcrt_initialize_locks 000000018004af08     libvcruntime:locks.obj
 0004:00001f14       $pdata$__vcrt_uninitialize_locks 000000018004af14     libvcruntime:locks.obj
 0004:00001f20       $pdata$__acrt_call_reportfault 000000018004af20     libucrt:invalid_parameter.obj
 0004:00001f2c       $pdata$_invalid_parameter  000000018004af2c     libucrt:invalid_parameter.obj
 0004:00001f38       $pdata$_invalid_parameter_noinfo 000000018004af38     libucrt:invalid_parameter.obj
 0004:00001f44       $pdata$_invalid_parameter_noinfo_noreturn 000000018004af44     libucrt:invalid_parameter.obj
 0004:00001f50       $pdata$_invoke_watson      000000018004af50     libucrt:invalid_parameter.obj
 0004:00001f5c       $pdata$??0_LocaleUpdate@@QEAA@QEAU__crt_locale_pointers@@@Z 000000018004af5c     libucrt:stricmp.obj
 0004:00001f68       $pdata$_callnewh           000000018004af68     libucrt:new_handler.obj
 0004:00001f74       $pdata$_query_new_handler  000000018004af74     libucrt:new_handler.obj
 0004:00001f80       $pdata$terminate           000000018004af80     libucrt:terminate.obj
 0004:00001f8c       $pdata$_seh_filter_exe     000000018004af8c     libucrt:exception_filter.obj
 0004:00001f98       $pdata$?common_exit@@YAXHW4_crt_exit_cleanup_mode@@W4_crt_exit_return_mode@@@Z 000000018004af98     libucrt:exit.obj
 0004:00001fa4       $pdata$?exit_or_terminate_process@@YAXI@Z 000000018004afa4     libucrt:exit.obj
 0004:00001fb0       $pdata$?try_cor_exit_process@@YAXI@Z 000000018004afb0     libucrt:exit.obj
 0004:00001fbc       $pdata$??$parse_command_line@D@@YAXPEADPEAPEAD0PEA_K2@Z 000000018004afbc     libucrt:argv_parsing.obj
 0004:00001fc8       $pdata$__acrt_allocate_buffer_for_argv 000000018004afc8     libucrt:argv_parsing.obj
 0004:00001fd4       $pdata$_configure_narrow_argv 000000018004afd4     libucrt:argv_parsing.obj
 0004:00001fe0       $pdata$??$common_initialize_environment_nolock@D@@YAHXZ 000000018004afe0     libucrt:environment_initialization.obj
 0004:00001fec       $pdata$??$create_environment@D@@YAQEAPEADQEAD@Z 000000018004afec     libucrt:environment_initialization.obj
 0004:00001ff8       $pdata$??$free_environment@D@@YAXQEAPEAD@Z 000000018004aff8     libucrt:environment_initialization.obj
 0004:00001ff8       $pdata$??$free_environment@_W@@YAXQEAPEA_W@Z 000000018004aff8     libucrt:environment_initialization.obj
 0004:00002004       $pdata$??$uninitialize_environment_internal@D@@YAXAEAPEAPEAD@Z 000000018004b004     libucrt:environment_initialization.obj
 0004:00002010       $pdata$??$uninitialize_environment_internal@_W@@YAXAEAPEAPEA_W@Z 000000018004b010     libucrt:environment_initialization.obj
 0004:0000201c       $pdata$__dcrt_uninitialize_environments_nolock 000000018004b01c     libucrt:environment_initialization.obj
 0004:00002028       $pdata$??$?RV<lambda_b8c45f8f788dd370798f47cfe8ac3a86>@@AEAV<lambda_4e60a939b0d047cfe11ddc22648dfba9>@@V<lambda_332c3edc96d0294ec56c57d38c1cdfd5>@@@?$__crt_seh_guarded_call@H@@QEAAH$$QEAV<lambda_b8c45f8f788dd370798f47cfe8ac3a86>@@AEAV<lambda_4e60a939b0d047cfe11ddc22648dfba9>@@$$QEAV<lambda_332c3edc96d0294ec56c57d38c1cdfd5>@@@Z 000000018004b028     libucrt:onexit.obj
 0004:00002034       $pdata$??$?RV<lambda_e24bbb7b643b32fcea6fa61b31d4c984>@@AEAV<lambda_275893d493268fdec8709772e3fcec0e>@@V<lambda_9d71df4d7cf3f480f8d633942495c3b0>@@@?$__crt_seh_guarded_call@H@@QEAAH$$QEAV<lambda_e24bbb7b643b32fcea6fa61b31d4c984>@@AEAV<lambda_275893d493268fdec8709772e3fcec0e>@@$$QEAV<lambda_9d71df4d7cf3f480f8d633942495c3b0>@@@Z 000000018004b034     libucrt:onexit.obj
 0004:00002040       $pdata$??R<lambda_4e60a939b0d047cfe11ddc22648dfba9>@@QEBAHXZ 000000018004b040     libucrt:onexit.obj
 0004:0000204c       $pdata$_execute_onexit_table 000000018004b04c     libucrt:onexit.obj
 0004:00002058       $pdata$_register_onexit_function 000000018004b058     libucrt:onexit.obj
 0004:00002064       $pdata$initialize_c        000000018004b064     libucrt:initialization.obj
 0004:00002070       $pdata$uninitialize_environment 000000018004b070     libucrt:initialization.obj
 0004:0000207c       $pdata$initialize_pointers 000000018004b07c     libucrt:initialization.obj
 0004:00002088       $pdata$uninitialize_allocated_memory 000000018004b088     libucrt:initialization.obj
 0004:00002094       $pdata$__acrt_thread_attach 000000018004b094     libucrt:initialization.obj
 0004:000020a0       $pdata$__acrt_thread_detach 000000018004b0a0     libucrt:initialization.obj
 0004:000020ac       $pdata$__acrt_uninitialize_critical 000000018004b0ac     libucrt:initialization.obj
 0004:000020b8       $pdata$_initterm           000000018004b0b8     libucrt:initterm.obj
 0004:000020c4       $pdata$_initterm_e         000000018004b0c4     libucrt:initterm.obj
 0004:000020d0       $pdata$abort               000000018004b0d0     libucrt:abort.obj
 0004:000020dc       $pdata$strcpy_s            000000018004b0dc     libucrt:strcpy_s.obj
 0004:000020e8       $pdata$_free_base          000000018004b0e8     libucrt:free_base.obj
 0004:000020f4       $pdata$_malloc_base        000000018004b0f4     libucrt:malloc_base.obj
 0004:00002100       $pdata$_calloc_base        000000018004b100     libucrt:calloc_base.obj
 0004:0000210c       $pdata$??$?RV<lambda_46352004c1216016012b18bd6f87e700>@@AEAV<lambda_3bd07e1a1191394380780325891bf33f>@@V<lambda_334532d3f185bcaa59b5be82d7d22bff>@@@?$__crt_seh_guarded_call@X@@QEAAX$$QEAV<lambda_46352004c1216016012b18bd6f87e700>@@AEAV<lambda_3bd07e1a1191394380780325891bf33f>@@$$QEAV<lambda_334532d3f185bcaa59b5be82d7d22bff>@@@Z 000000018004b10c     libucrt:per_thread_data.obj
 0004:00002118       $pdata$??$?RV<lambda_5e887d1dcbef67a5eb4283622ba103bf>@@AEAV<lambda_4466841279450cc726390878d4a41900>@@V<lambda_341c25c0346d94847f1f3c463c57e077>@@@?$__crt_seh_guarded_call@X@@QEAAX$$QEAV<lambda_5e887d1dcbef67a5eb4283622ba103bf>@@AEAV<lambda_4466841279450cc726390878d4a41900>@@$$QEAV<lambda_341c25c0346d94847f1f3c463c57e077>@@@Z 000000018004b118     libucrt:per_thread_data.obj
 0004:00002124       $pdata$??$?RV<lambda_72d1df2b273a38828b1ce30cbf4cdab5>@@AEAV<lambda_876a65b173b8412d3a47c70a915b0cf4>@@V<lambda_41932305e351933ebe8f8be3ed8bb5dc>@@@?$__crt_seh_guarded_call@X@@QEAAX$$QEAV<lambda_72d1df2b273a38828b1ce30cbf4cdab5>@@AEAV<lambda_876a65b173b8412d3a47c70a915b0cf4>@@$$QEAV<lambda_41932305e351933ebe8f8be3ed8bb5dc>@@@Z 000000018004b124     libucrt:per_thread_data.obj
 0004:00002130       $pdata$??$?RV<lambda_fb3a7dec4e47f37f22dae91bb15c9095>@@AEAV<lambda_698284760c8add0bfb0756c19673e34b>@@V<lambda_dfb8eca1e75fef3034a8fb18dd509707>@@@?$__crt_seh_guarded_call@X@@QEAAX$$QEAV<lambda_fb3a7dec4e47f37f22dae91bb15c9095>@@AEAV<lambda_698284760c8add0bfb0756c19673e34b>@@$$QEAV<lambda_dfb8eca1e75fef3034a8fb18dd509707>@@@Z 000000018004b130     libucrt:per_thread_data.obj
 0004:0000213c       $pdata$?construct_ptd_array@@YAXQEAU__acrt_ptd@@@Z 000000018004b13c     libucrt:per_thread_data.obj
 0004:00002148       $pdata$?destroy_fls@@YAXPEAX@Z 000000018004b148     libucrt:per_thread_data.obj
 0004:00002154       $pdata$?destroy_ptd_array@@YAXQEAU__acrt_ptd@@@Z 000000018004b154     libucrt:per_thread_data.obj
 0004:00002160       $pdata$?replace_current_thread_locale_nolock@@YAXQEAU__acrt_ptd@@QEAU__crt_locale_data@@@Z 000000018004b160     libucrt:per_thread_data.obj
 0004:0000216c       $pdata$__acrt_freeptd      000000018004b16c     libucrt:per_thread_data.obj
 0004:00002178       $pdata$__acrt_getptd       000000018004b178     libucrt:per_thread_data.obj
 0004:00002184       $pdata$__acrt_getptd_noexit 000000018004b184     libucrt:per_thread_data.obj
 0004:00002190       $pdata$__acrt_initialize_ptd 000000018004b190     libucrt:per_thread_data.obj
 0004:0000219c       $pdata$__acrt_uninitialize_ptd 000000018004b19c     libucrt:per_thread_data.obj
 0004:000021a8       $pdata$__acrt_errno_map_os_error 000000018004b1a8     libucrt:errno.obj
 0004:000021b4       $pdata$__doserrno          000000018004b1b4     libucrt:errno.obj
 0004:000021c0       $pdata$_errno              000000018004b1c0     libucrt:errno.obj
 0004:000021cc       $pdata$__acrt_update_locale_info 000000018004b1cc     libucrt:locale_update.obj
 0004:000021d8       $pdata$__acrt_update_multibyte_info 000000018004b1d8     libucrt:locale_update.obj
 0004:000021e4       $pdata$__acrt_uninitialize_locale 000000018004b1e4     libucrt:wsetlocale.obj
 0004:000021f0       $pdata$__acrt_initialize_locks 000000018004b1f0     libucrt:locks.obj
 0004:000021fc       $pdata$__acrt_uninitialize_locks 000000018004b1fc     libucrt:locks.obj
 0004:00002208       $pdata$?try_get_function@@YAPEAXW4function_id@?A0x63058377@@QEBDQEBW4module_id@2@2@Z 000000018004b208     libucrt:winapi_thunks.obj
 0004:00002214       $pdata$__acrt_FlsAlloc     000000018004b214     libucrt:winapi_thunks.obj
 0004:00002220       $pdata$__acrt_FlsFree      000000018004b220     libucrt:winapi_thunks.obj
 0004:0000222c       $pdata$__acrt_FlsGetValue  000000018004b22c     libucrt:winapi_thunks.obj
 0004:00002238       $pdata$__acrt_FlsSetValue  000000018004b238     libucrt:winapi_thunks.obj
 0004:00002244       $pdata$__acrt_InitializeCriticalSectionEx 000000018004b244     libucrt:winapi_thunks.obj
 0004:00002250       $pdata$__acrt_LCMapStringEx 000000018004b250     libucrt:winapi_thunks.obj
 0004:0000225c       $pdata$__acrt_LocaleNameToLCID 000000018004b25c     libucrt:winapi_thunks.obj
 0004:00002268       $pdata$__acrt_initialize_winapi_thunks 000000018004b268     libucrt:winapi_thunks.obj
 0004:00002274       $pdata$__acrt_is_packaged_app 000000018004b274     libucrt:winapi_thunks.obj
 0004:00002280       $pdata$__acrt_uninitialize_winapi_thunks 000000018004b280     libucrt:winapi_thunks.obj
 0004:0000228c       $pdata$??$common_expand_argv_wildcards@D@@YAHQEAPEADQEAPEAPEAD@Z 000000018004b28c     libucrt:argv_wildcards.obj
 0004:00002298       $pdata$??$copy_and_add_argument_to_buffer@D@@YAHQEBD0_KAEAV?$argument_list@D@?A0xca0879c4@@@Z 000000018004b298     libucrt:argv_wildcards.obj
 0004:000022a4       $pdata$??$expand_argument_wildcards@D@@YAHQEAD0AEAV?$argument_list@D@?A0xca0879c4@@@Z 000000018004b2a4     libucrt:argv_wildcards.obj
 0004:000022b0       $pdata$?expand_if_necessary@?$argument_list@D@?A0xca0879c4@@AEAAHXZ 000000018004b2b0     libucrt:argv_wildcards.obj
 0004:000022bc       $pdata$??$?RV<lambda_99476a1ad63dd22509b5d3e65b0ffc95>@@AEAV<lambda_ad1ced32f4ac17aa236e5ef05d6b3b7c>@@V<lambda_f7424dd8d45958661754dc4f2697e9c3>@@@?$__crt_seh_guarded_call@X@@QEAAX$$QEAV<lambda_99476a1ad63dd22509b5d3e65b0ffc95>@@AEAV<lambda_ad1ced32f4ac17aa236e5ef05d6b3b7c>@@$$QEAV<lambda_f7424dd8d45958661754dc4f2697e9c3>@@@Z 000000018004b2bc     libucrt:mbctype.obj
 0004:000022c8       $pdata$??R<lambda_ad1ced32f4ac17aa236e5ef05d6b3b7c>@@QEBAXXZ 000000018004b2c8     libucrt:mbctype.obj
 0004:000022d4       $pdata$?getSystemCP@@YAHH@Z 000000018004b2d4     libucrt:mbctype.obj
 0004:000022e0       $pdata$?setSBCS@@YAXPEAU__crt_multibyte_data@@@Z 000000018004b2e0     libucrt:mbctype.obj
 0004:000022ec       $pdata$?setSBUpLow@@YAXPEAU__crt_multibyte_data@@@Z 000000018004b2ec     libucrt:mbctype.obj
 0004:000022f8       $pdata$?setmbcp_internal@@YAHH_N@Z 000000018004b2f8     libucrt:mbctype.obj
 0004:00002304       $pdata$__acrt_initialize_multibyte 000000018004b304     libucrt:mbctype.obj
 0004:00002310       $pdata$__acrt_update_thread_multibyte_data 000000018004b310     libucrt:mbctype.obj
 0004:0000231c       $pdata$_setmbcp_nolock     000000018004b31c     libucrt:mbctype.obj
 0004:00002328       $pdata$?x_ismbbtype_l@@YAHPEAU__crt_locale_pointers@@IHH@Z 000000018004b328     libucrt:ismbbyte.obj
 0004:00002334       $pdata$__acrt_initialize_command_line 000000018004b334     libucrt:argv_data.obj
 0004:00002340       $pdata$__dcrt_get_narrow_environment_from_os 000000018004b340     libucrt:get_environment_from_os.obj
 0004:0000234c       $pdata$_recalloc_base      000000018004b34c     libucrt:recalloc.obj
 0004:00002358       $pdata$__acrt_initialize_heap 000000018004b358     libucrt:heap_handle.obj
 0004:00002364       $pdata$?initialize_inherited_file_handles_nolock@@YAXXZ 000000018004b364     libucrt:ioinit.obj
 0004:00002370       $pdata$?initialize_stdio_handles_nolock@@YAXXZ 000000018004b370     libucrt:ioinit.obj
 0004:0000237c       $pdata$__acrt_initialize_lowio 000000018004b37c     libucrt:ioinit.obj
 0004:00002388       $pdata$__acrt_uninitialize_lowio 000000018004b388     libucrt:ioinit.obj
 0004:00002394       $pdata$__acrt_execute_initializers 000000018004b394     libucrt:shared_initialization.obj
 0004:000023a0       $pdata$__acrt_execute_uninitializers 000000018004b3a0     libucrt:shared_initialization.obj
 0004:000023ac       $pdata$??$?RV<lambda_c36588078e9f5dfd39652860aa6b3aaf>@@AEAV<lambda_ec61778202f4f5fc7e7711acc23c3bca>@@V<lambda_dc9d2797ccde5d239b4a0efae8ebd7db>@@@?$__crt_seh_guarded_call@P6AXH@Z@@QEAAP6AXH@Z$$QEAV<lambda_c36588078e9f5dfd39652860aa6b3aaf>@@AEAV<lambda_ec61778202f4f5fc7e7711acc23c3bca>@@$$QEAV<lambda_dc9d2797ccde5d239b4a0efae8ebd7db>@@@Z 000000018004b3ac     libucrt:signal.obj
 0004:000023b8       $pdata$__acrt_get_sigabrt_handler 000000018004b3b8     libucrt:signal.obj
 0004:000023c4       $pdata$raise               000000018004b3c4     libucrt:signal.obj
 0004:000023d0       $pdata$__acrt_invoke_user_matherr 000000018004b3d0     libucrt:matherr.obj
 0004:000023dc       $pdata$_mbtowc_l           000000018004b3dc     libucrt:mbtowc.obj
 0004:000023e8       $pdata$_fileno             000000018004b3e8     libucrt:fileno.obj
 0004:000023f4       $pdata$__acrt_initialize_stdio 000000018004b3f4     libucrt:_file.obj
 0004:00002400       $pdata$__acrt_uninitialize_stdio 000000018004b400     libucrt:_file.obj
 0004:0000240c       $pdata$__pctype_func       000000018004b40c     libucrt:ctype.obj
 0004:00002418       $pdata$__acrt_free_locale  000000018004b418     libucrt:locale_refcounting.obj
 0004:00002424       $pdata$__acrt_locale_free_lc_time_if_unreferenced 000000018004b424     libucrt:locale_refcounting.obj
 0004:00002430       $pdata$__acrt_release_locale_ref 000000018004b430     libucrt:locale_refcounting.obj
 0004:0000243c       $pdata$__acrt_update_thread_locale_data 000000018004b43c     libucrt:locale_refcounting.obj
 0004:00002448       $pdata$_updatetlocinfoEx_nolock 000000018004b448     libucrt:locale_refcounting.obj
 0004:00002454       $pdata$_isleadbyte_l       000000018004b454     libucrt:_wctype.obj
 0004:00002460       $pdata$?__acrt_LCMapStringA_stat@@YAHPEAU__crt_locale_pointers@@PEB_WKPEBDHPEADHHH@Z 000000018004b460     libucrt:lcmapstringa.obj
 0004:0000246c       $pdata$__acrt_LCMapStringA 000000018004b46c     libucrt:lcmapstringa.obj
 0004:00002478       $pdata$__acrt_locale_free_monetary 000000018004b478     libucrt:initmon.obj
 0004:00002484       $pdata$__acrt_locale_free_numeric 000000018004b484     libucrt:initnum.obj
 0004:00002490       $pdata$?free_crt_array_internal@@YAXQEAPEBX_K@Z 000000018004b490     libucrt:inittime.obj
 0004:0000249c       $pdata$__acrt_locale_free_time 000000018004b49c     libucrt:inittime.obj
 0004:000024a8       $pdata$__acrt_GetStringTypeA 000000018004b4a8     libucrt:getstringtypea.obj
 0004:000024b4       $pdata$?GetTableIndexFromLocaleName@@YAHPEB_W@Z 000000018004b4b4     libucrt:lcidtoname_downlevel.obj
 0004:000024c0       $pdata$__acrt_DownlevelLocaleNameToLCID 000000018004b4c0     libucrt:lcidtoname_downlevel.obj
 0004:000024cc       $pdata$?shortsort@@YAXPEAD0_KP6AHPEBX2@Z@Z 000000018004b4cc     libucrt:qsort.obj
 0004:000024d8       $pdata$2$?shortsort@@YAXPEAD0_KP6AHPEBX2@Z@Z 000000018004b4d8     libucrt:qsort.obj
 0004:000024e4       $pdata$3$?shortsort@@YAXPEAD0_KP6AHPEBX2@Z@Z 000000018004b4e4     libucrt:qsort.obj
 0004:000024f0       $pdata$qsort               000000018004b4f0     libucrt:qsort.obj
 0004:000024fc       $pdata$4$qsort             000000018004b4fc     libucrt:qsort.obj
 0004:00002508       $pdata$5$qsort             000000018004b508     libucrt:qsort.obj
 0004:00002514       $pdata$strncpy_s           000000018004b514     libucrt:strncpy_s.obj
 0004:00002520       $pdata$strpbrk             000000018004b520     libucrt:strpbrk.obj
 0004:0000252c       $pdata$_mbsdec_l           000000018004b52c     libucrt:mbsdec.obj
 0004:00002538       $pdata$?initialize_multibyte@@YAHXZ 000000018004b538     libucrt:multibyte_initializer.obj
 0004:00002544       $pdata$_msize              000000018004b544     libucrt:msize.obj
 0004:00002550       $pdata$_realloc_base       000000018004b550     libucrt:realloc_base.obj
 0004:0000255c       $pdata$__acrt_lowio_create_handle_array 000000018004b55c     libucrt:osfinfo.obj
 0004:00002568       $pdata$__acrt_lowio_destroy_handle_array 000000018004b568     libucrt:osfinfo.obj
 0004:00002574       $pdata$__acrt_lowio_ensure_fh_exists 000000018004b574     libucrt:osfinfo.obj
 0004:00002580       $pdata$_free_osfhnd        000000018004b580     libucrt:osfinfo.obj
 0004:0000258c       $pdata$_get_osfhandle      000000018004b58c     libucrt:osfinfo.obj
 0004:00002598       $pdata$_isatty             000000018004b598     libucrt:isatty.obj
 0004:000025a4       $pdata$__acrt_stdio_flush_nolock 000000018004b5a4     libucrt:fflush.obj
 0004:000025b0       $pdata$_fflush_nolock      000000018004b5b0     libucrt:fflush.obj
 0004:000025bc       $pdata$common_flush_all    000000018004b5bc     libucrt:fflush.obj
 0004:000025c8       $pdata$_fcloseall          000000018004b5c8     libucrt:closeall.obj
 0004:000025d4       $pdata$__acrt_stdio_free_buffer_nolock 000000018004b5d4     libucrt:_freebuf.obj
 0004:000025e0       $pdata$??$?RV<lambda_b521505b218e5242e90febf6bfebc422>@@AEAV<lambda_6978c1fb23f02e42e1d9e99668cc68aa>@@V<lambda_314360699dd331753a4119843814e9a7>@@@?$__crt_seh_guarded_call@H@@QEAAH$$QEAV<lambda_b521505b218e5242e90febf6bfebc422>@@AEAV<lambda_6978c1fb23f02e42e1d9e99668cc68aa>@@$$QEAV<lambda_314360699dd331753a4119843814e9a7>@@@Z 000000018004b5e0     libucrt:commit.obj
 0004:000025ec       $pdata$_commit             000000018004b5ec     libucrt:commit.obj
 0004:000025f8       $pdata$?write_double_translated_ansi_nolock@@YA?AUwrite_result@?A0x9c548279@@HQEBDI@Z 000000018004b5f8     libucrt:write.obj
 0004:00002604       $pdata$?write_text_ansi_nolock@@YA?AUwrite_result@?A0x9c548279@@HQEBDI@Z 000000018004b604     libucrt:write.obj
 0004:00002610       $pdata$?write_text_utf16le_nolock@@YA?AUwrite_result@?A0x9c548279@@HQEBDI@Z 000000018004b610     libucrt:write.obj
 0004:0000261c       $pdata$?write_text_utf8_nolock@@YA?AUwrite_result@?A0x9c548279@@HQEBDI@Z 000000018004b61c     libucrt:write.obj
 0004:00002628       $pdata$_write              000000018004b628     libucrt:write.obj
 0004:00002634       $pdata$_write_nolock       000000018004b634     libucrt:write.obj
 0004:0000264c       $pdata$??$common_lseek_nolock@_J@@YA_JH_JH@Z 000000018004b64c     libucrt:lseek.obj
 0004:00002658       $pdata$_fclose_nolock      000000018004b658     libucrt:fclose.obj
 0004:00002664       $pdata$fclose              000000018004b664     libucrt:fclose.obj
 0004:00002670       $pdata$_putwch_nolock      000000018004b670     libucrt:putwch.obj
 0004:0000267c       $pdata$_call_matherr       000000018004b67c     libucrt:libm_error.obj
 0004:00002688       $pdata$_exception_enabled  000000018004b688     libucrt:libm_error.obj
 0004:00002694       $pdata$_handle_error       000000018004b694     libucrt:libm_error.obj
 0004:000026a0       $pdata$__acrt_initialize_fma3 000000018004b6a0     libucrt:fma3_available.obj
 0004:000026ac       $pdata$_log10_special      000000018004b6ac     libucrt:log_special.obj
 0004:000026b8       $pdata$_log_special_common 000000018004b6b8     libucrt:log_special.obj
 0004:000026c4       $pdata$??$?RV<lambda_bfedae4ebbf01fab1bb6dcc6a9e276e0>@@AEAV<lambda_2fe9b910cf3cbf4a0ab98a02ba45b3ec>@@V<lambda_237c231691f317818eb88cc1d5d642d6>@@@?$__crt_seh_guarded_call@H@@QEAAH$$QEAV<lambda_bfedae4ebbf01fab1bb6dcc6a9e276e0>@@AEAV<lambda_2fe9b910cf3cbf4a0ab98a02ba45b3ec>@@$$QEAV<lambda_237c231691f317818eb88cc1d5d642d6>@@@Z 000000018004b6c4     libucrt:close.obj
 0004:000026d0       $pdata$_close              000000018004b6d0     libucrt:close.obj
 0004:000026dc       $pdata$_close_nolock       000000018004b6dc     libucrt:close.obj
 0004:000026e8       $pdata$__dcrt_lowio_initialize_console_output 000000018004b6e8     libucrt:initcon.obj
 0004:000026f4       $pdata$__dcrt_terminate_console_output 000000018004b6f4     libucrt:initcon.obj
 0004:0000270c       $pdata$_raise_exc          000000018004b70c     libucrt:fpexcept.obj
 0004:00002718       $pdata$_raise_exc_ex       000000018004b718     libucrt:fpexcept.obj
 0004:00002724       $pdata$_set_errno_from_matherr 000000018004b724     libucrt:fpexcept.obj
 0004:00002730       $pdata$_clrfp              000000018004b730     libucrt:fpctrl.obj
 0004:0000273c       $pdata$_ctrlfp             000000018004b73c     libucrt:fpctrl.obj
 0004:00002748       $pdata$_set_statfp         000000018004b748     libucrt:fpctrl.obj
 0004:00002754       $pdata$_statfp             000000018004b754     libucrt:fpctrl.obj
 0004:00002760       $pdata$_IsNonwritableInCurrentImage 000000018004b760     LIBCMT:pesect.obj
 0004:00002784       $pdata$__GSHandlerCheck_EH 000000018004b784     LIBCMT:gshandlereh.obj
 0004:0000279c       $pdata$?dtor$0@?0??option@VImage@vips@@SAPEAVVOption@2@XZ@4HA 000000018004b79c     VError.obj
 0004:000027a8       $pdata$?dtor$0@?0??new_from_file@VImage@vips@@SA?AV12@PEBDPEAVVOption@2@@Z@4HA 000000018004b7a8     VImage.obj
 0004:000027a8       $pdata$?dtor$0@?0??new_from_buffer@VImage@vips@@SA?AV12@PEAX_KPEBDPEAVVOption@2@@Z@4HA 000000018004b7a8     VImage.obj
 0004:000027b4       $pdata$?dtor$6@?0??new_from_image@VImage@vips@@QEAA?AV12@V?$vector@NV?$allocator@N@std@@@std@@@Z@4HA 000000018004b7b4     VImage.obj
 0004:000027c0       $pdata$?dtor$1@?0??dE00@VImage@vips@@QEAA?AV12@V12@PEAVVOption@2@@Z@4HA 000000018004b7c0     VImage.obj
 0004:000027c0       $pdata$?dtor$1@?0??convi@VImage@vips@@QEAA?AV12@V12@PEAVVOption@2@@Z@4HA 000000018004b7c0     VImage.obj
 0004:000027c0       $pdata$?dtor$1@?0??convf@VImage@vips@@QEAA?AV12@V12@PEAVVOption@2@@Z@4HA 000000018004b7c0     VImage.obj
 0004:000027c0       $pdata$?dtor$1@?0??compass@VImage@vips@@QEAA?AV12@V12@PEAVVOption@2@@Z@4HA 000000018004b7c0     VImage.obj
 0004:000027c0       $pdata$?dtor$1@?0??maplut@VImage@vips@@QEAA?AV12@V12@PEAVVOption@2@@Z@4HA 000000018004b7c0     VImage.obj
 0004:000027c0       $pdata$?dtor$1@?0??conva@VImage@vips@@QEAA?AV12@V12@PEAVVOption@2@@Z@4HA 000000018004b7c0     VImage.obj
 0004:000027c0       $pdata$?dtor$1@?0??subtract@VImage@vips@@QEAA?AV12@V12@PEAVVOption@2@@Z@4HA 000000018004b7c0     VImage.obj
 0004:000027c0       $pdata$?dtor$1@?0??hist_find_indexed@VImage@vips@@QEAA?AV12@V12@PEAVVOption@2@@Z@4HA 000000018004b7c0     VImage.obj
 0004:000027c0       $pdata$?dtor$1@?0??add@VImage@vips@@QEAA?AV12@V12@PEAVVOption@2@@Z@4HA 000000018004b7c0     VImage.obj
 0004:000027c0       $pdata$?dtor$1@?0??hist_match@VImage@vips@@QEAA?AV12@V12@PEAVVOption@2@@Z@4HA 000000018004b7c0     VImage.obj
 0004:000027c0       $pdata$?dtor$1@?0??dE76@VImage@vips@@QEAA?AV12@V12@PEAVVOption@2@@Z@4HA 000000018004b7c0     VImage.obj
 0004:000027c0       $pdata$?dtor$1@?0??dECMC@VImage@vips@@QEAA?AV12@V12@PEAVVOption@2@@Z@4HA 000000018004b7c0     VImage.obj
 0004:000027c0       $pdata$?dtor$1@?0??remainder@VImage@vips@@QEAA?AV12@V12@PEAVVOption@2@@Z@4HA 000000018004b7c0     VImage.obj
 0004:000027c0       $pdata$?dtor$1@?0??convasep@VImage@vips@@QEAA?AV12@V12@PEAVVOption@2@@Z@4HA 000000018004b7c0     VImage.obj
 0004:000027c0       $pdata$?dtor$1@?0??phasecor@VImage@vips@@QEAA?AV12@V12@PEAVVOption@2@@Z@4HA 000000018004b7c0     VImage.obj
 0004:000027c0       $pdata$?dtor$1@?0??multiply@VImage@vips@@QEAA?AV12@V12@PEAVVOption@2@@Z@4HA 000000018004b7c0     VImage.obj
 0004:000027c0       $pdata$?dtor$1@?0??conv@VImage@vips@@QEAA?AV12@V12@PEAVVOption@2@@Z@4HA 000000018004b7c0     VImage.obj
 0004:000027c0       $pdata$?dtor$1@?0??freqmult@VImage@vips@@QEAA?AV12@V12@PEAVVOption@2@@Z@4HA 000000018004b7c0     VImage.obj
 0004:000027c0       $pdata$?dtor$1@?0??mapim@VImage@vips@@QEAA?AV12@V12@PEAVVOption@2@@Z@4HA 000000018004b7c0     VImage.obj
 0004:000027c0       $pdata$?dtor$1@?0??recomb@VImage@vips@@QEAA?AV12@V12@PEAVVOption@2@@Z@4HA 000000018004b7c0     VImage.obj
 0004:000027c0       $pdata$?dtor$1@?0??convsep@VImage@vips@@QEAA?AV12@V12@PEAVVOption@2@@Z@4HA 000000018004b7c0     VImage.obj
 0004:000027c0       $pdata$?dtor$1@?0??spcor@VImage@vips@@QEAA?AV12@V12@PEAVVOption@2@@Z@4HA 000000018004b7c0     VImage.obj
 0004:000027c0       $pdata$?dtor$1@?0??divide@VImage@vips@@QEAA?AV12@V12@PEAVVOption@2@@Z@4HA 000000018004b7c0     VImage.obj
 0004:000027c0       $pdata$?dtor$1@?0??complexform@VImage@vips@@QEAA?AV12@V12@PEAVVOption@2@@Z@4HA 000000018004b7c0     VImage.obj
 0004:000027c0       $pdata$?dtor$1@?0??quadratic@VImage@vips@@QEAA?AV12@V12@PEAVVOption@2@@Z@4HA 000000018004b7c0     VImage.obj
 0004:000027c0       $pdata$?dtor$1@?0??fastcor@VImage@vips@@QEAA?AV12@V12@PEAVVOption@2@@Z@4HA 000000018004b7c0     VImage.obj
 0004:000027cc       $pdata$?dtor$1@?0??mosaic@VImage@vips@@QEAA?AV12@V12@W4VipsDirection@@HHHHPEAVVOption@2@@Z@4HA 000000018004b7cc     VImage.obj
 0004:000027cc       $pdata$?dtor$1@?0??match@VImage@vips@@QEAA?AV12@V12@HHHHHHHHPEAVVOption@2@@Z@4HA 000000018004b7cc     VImage.obj
 0004:000027cc       $pdata$?dtor$1@?0??merge@VImage@vips@@QEAA?AV12@V12@W4VipsDirection@@HHPEAVVOption@2@@Z@4HA 000000018004b7cc     VImage.obj
 0004:000027cc       $pdata$?dtor$1@?0??insert@VImage@vips@@QEAA?AV12@V12@HHPEAVVOption@2@@Z@4HA 000000018004b7cc     VImage.obj
 0004:000027cc       $pdata$?dtor$1@?0??math2@VImage@vips@@QEAA?AV12@V12@W4VipsOperationMath2@@PEAVVOption@2@@Z@4HA 000000018004b7cc     VImage.obj
 0004:000027cc       $pdata$?dtor$1@?0??relational@VImage@vips@@QEAA?AV12@V12@W4VipsOperationRelational@@PEAVVOption@2@@Z@4HA 000000018004b7cc     VImage.obj
 0004:000027cc       $pdata$?dtor$1@?0??complex2@VImage@vips@@QEAA?AV12@V12@W4VipsOperationComplex2@@PEAVVOption@2@@Z@4HA 000000018004b7cc     VImage.obj
 0004:000027cc       $pdata$?dtor$1@?0??morph@VImage@vips@@QEAA?AV12@V12@W4VipsOperationMorphology@@PEAVVOption@2@@Z@4HA 000000018004b7cc     VImage.obj
 0004:000027cc       $pdata$?dtor$1@?0??boolean@VImage@vips@@QEAA?AV12@V12@W4VipsOperationBoolean@@PEAVVOption@2@@Z@4HA 000000018004b7cc     VImage.obj
 0004:000027cc       $pdata$?dtor$1@?0??join@VImage@vips@@QEAA?AV12@V12@W4VipsDirection@@PEAVVOption@2@@Z@4HA 000000018004b7cc     VImage.obj
 0004:000027cc       $pdata$?dtor$1@?0??mosaic1@VImage@vips@@QEAA?AV12@V12@W4VipsDirection@@HHHHHHHHPEAVVOption@2@@Z@4HA 000000018004b7cc     VImage.obj
 0004:000027d8       $pdata$?dtor$1@?0??bandrank@VImage@vips@@SA?AV12@V?$vector@VVImage@vips@@V?$allocator@VVImage@vips@@@std@@@std@@PEAVVOption@2@@Z@4HA 000000018004b7d8     VImage.obj
 0004:000027d8       $pdata$?dtor$1@?0??arrayjoin@VImage@vips@@SA?AV12@V?$vector@VVImage@vips@@V?$allocator@VVImage@vips@@@std@@@std@@PEAVVOption@2@@Z@4HA 000000018004b7d8     VImage.obj
 0004:000027d8       $pdata$?dtor$1@?0??sum@VImage@vips@@SA?AV12@V?$vector@VVImage@vips@@V?$allocator@VVImage@vips@@@std@@@std@@PEAVVOption@2@@Z@4HA 000000018004b7d8     VImage.obj
 0004:000027d8       $pdata$?dtor$1@?0??bandjoin@VImage@vips@@SA?AV12@V?$vector@VVImage@vips@@V?$allocator@VVImage@vips@@@std@@@std@@PEAVVOption@2@@Z@4HA 000000018004b7d8     VImage.obj
 0004:000027e4       $pdata$?dtor$0@?0??hist_plot@VImage@vips@@QEAA?AV12@PEAVVOption@2@@Z@4HA 000000018004b7e4     VImage.obj
 0004:000027e4       $pdata$?dtor$0@?0??rad2float@VImage@vips@@QEAA?AV12@PEAVVOption@2@@Z@4HA 000000018004b7e4     VImage.obj
 0004:000027e4       $pdata$?dtor$0@?0??invertlut@VImage@vips@@QEAA?AV12@PEAVVOption@2@@Z@4HA 000000018004b7e4     VImage.obj
 0004:000027e4       $pdata$?dtor$0@?0??icc_export@VImage@vips@@QEAA?AV12@PEAVVOption@2@@Z@4HA 000000018004b7e4     VImage.obj
 0004:000027e4       $pdata$?dtor$0@?0??Lab2LabS@VImage@vips@@QEAA?AV12@PEAVVOption@2@@Z@4HA 000000018004b7e4     VImage.obj
 0004:000027e4       $pdata$?dtor$0@?0??buildlut@VImage@vips@@QEAA?AV12@PEAVVOption@2@@Z@4HA 000000018004b7e4     VImage.obj
 0004:000027e4       $pdata$?dtor$0@?0??sRGB2HSV@VImage@vips@@QEAA?AV12@PEAVVOption@2@@Z@4HA 000000018004b7e4     VImage.obj
 0004:000027e4       $pdata$?dtor$0@?0??LabS2Lab@VImage@vips@@QEAA?AV12@PEAVVOption@2@@Z@4HA 000000018004b7e4     VImage.obj
 0004:000027e4       $pdata$?dtor$0@?0??invert@VImage@vips@@QEAA?AV12@PEAVVOption@2@@Z@4HA 000000018004b7e4     VImage.obj
 0004:000027e4       $pdata$?dtor$0@?0??cache@VImage@vips@@QEAA?AV12@PEAVVOption@2@@Z@4HA 000000018004b7e4     VImage.obj
 0004:000027e4       $pdata$?dtor$0@?0??LabS2LabQ@VImage@vips@@QEAA?AV12@PEAVVOption@2@@Z@4HA 000000018004b7e4     VImage.obj
 0004:000027e4       $pdata$?dtor$0@?0??sequential@VImage@vips@@QEAA?AV12@PEAVVOption@2@@Z@4HA 000000018004b7e4     VImage.obj
 0004:000027e4       $pdata$?dtor$0@?0??LabQ2LabS@VImage@vips@@QEAA?AV12@PEAVVOption@2@@Z@4HA 000000018004b7e4     VImage.obj
 0004:000027e4       $pdata$?dtor$0@?0??Lab2XYZ@VImage@vips@@QEAA?AV12@PEAVVOption@2@@Z@4HA 000000018004b7e4     VImage.obj
 0004:000027e4       $pdata$?dtor$0@?0??similarity@VImage@vips@@QEAA?AV12@PEAVVOption@2@@Z@4HA 000000018004b7e4     VImage.obj
 0004:000027e4       $pdata$?dtor$0@?0??gamma@VImage@vips@@QEAA?AV12@PEAVVOption@2@@Z@4HA 000000018004b7e4     VImage.obj
 0004:000027e4       $pdata$?dtor$0@?0??linecache@VImage@vips@@QEAA?AV12@PEAVVOption@2@@Z@4HA 000000018004b7e4     VImage.obj
 0004:000027e4       $pdata$?dtor$0@?0??hist_equal@VImage@vips@@QEAA?AV12@PEAVVOption@2@@Z@4HA 000000018004b7e4     VImage.obj
 0004:000027e4       $pdata$?dtor$0@?0??tilecache@VImage@vips@@QEAA?AV12@PEAVVOption@2@@Z@4HA 000000018004b7e4     VImage.obj
 0004:000027e4       $pdata$?dtor$0@?0??abs@VImage@vips@@QEAA?AV12@PEAVVOption@2@@Z@4HA 000000018004b7e4     VImage.obj
 0004:000027e4       $pdata$?dtor$0@?0??labelregions@VImage@vips@@QEAA?AV12@PEAVVOption@2@@Z@4HA 000000018004b7e4     VImage.obj
 0004:000027e4       $pdata$?dtor$0@?0??falsecolour@VImage@vips@@QEAA?AV12@PEAVVOption@2@@Z@4HA 000000018004b7e4     VImage.obj
 0004:000027e4       $pdata$?dtor$0@?0??float2rad@VImage@vips@@QEAA?AV12@PEAVVOption@2@@Z@4HA 000000018004b7e4     VImage.obj
 0004:000027e4       $pdata$?dtor$0@?0??XYZ2Lab@VImage@vips@@QEAA?AV12@PEAVVOption@2@@Z@4HA 000000018004b7e4     VImage.obj
 0004:000027e4       $pdata$?dtor$0@?0??copy@VImage@vips@@QEAA?AV12@PEAVVOption@2@@Z@4HA 000000018004b7e4     VImage.obj
 0004:000027e4       $pdata$?dtor$0@?0??Lab2LCh@VImage@vips@@QEAA?AV12@PEAVVOption@2@@Z@4HA 000000018004b7e4     VImage.obj
 0004:000027e4       $pdata$?dtor$0@?0??bandmean@VImage@vips@@QEAA?AV12@PEAVVOption@2@@Z@4HA 000000018004b7e4     VImage.obj
 0004:000027e4       $pdata$?dtor$0@?0??icc_import@VImage@vips@@QEAA?AV12@PEAVVOption@2@@Z@4HA 000000018004b7e4     VImage.obj
 0004:000027e4       $pdata$?dtor$0@?0??byteswap@VImage@vips@@QEAA?AV12@PEAVVOption@2@@Z@4HA 000000018004b7e4     VImage.obj
 0004:000027e4       $pdata$?dtor$0@?0??sign@VImage@vips@@QEAA?AV12@PEAVVOption@2@@Z@4HA 000000018004b7e4     VImage.obj
 0004:000027e4       $pdata$?dtor$0@?0??LabQ2sRGB@VImage@vips@@QEAA?AV12@PEAVVOption@2@@Z@4HA 000000018004b7e4     VImage.obj
 0004:000027e4       $pdata$?dtor$0@?0??sRGB2scRGB@VImage@vips@@QEAA?AV12@PEAVVOption@2@@Z@4HA 000000018004b7e4     VImage.obj
 0004:000027e4       $pdata$?dtor$0@?0??Lab2LabQ@VImage@vips@@QEAA?AV12@PEAVVOption@2@@Z@4HA 000000018004b7e4     VImage.obj
 0004:000027e4       $pdata$?dtor$0@?0??msb@VImage@vips@@QEAA?AV12@PEAVVOption@2@@Z@4HA 000000018004b7e4     VImage.obj
 0004:000027e4       $pdata$?dtor$0@?0??spectrum@VImage@vips@@QEAA?AV12@PEAVVOption@2@@Z@4HA 000000018004b7e4     VImage.obj
 0004:000027e4       $pdata$?dtor$0@?0??scRGB2BW@VImage@vips@@QEAA?AV12@PEAVVOption@2@@Z@4HA 000000018004b7e4     VImage.obj
 0004:000027e4       $pdata$?dtor$0@?0??hist_norm@VImage@vips@@QEAA?AV12@PEAVVOption@2@@Z@4HA 000000018004b7e4     VImage.obj
 0004:000027e4       $pdata$?dtor$0@?0??LCh2Lab@VImage@vips@@QEAA?AV12@PEAVVOption@2@@Z@4HA 000000018004b7e4     VImage.obj
 0004:000027e4       $pdata$?dtor$0@?0??invfft@VImage@vips@@QEAA?AV12@PEAVVOption@2@@Z@4HA 000000018004b7e4     VImage.obj
 0004:000027e4       $pdata$?dtor$0@?0??fwfft@VImage@vips@@QEAA?AV12@PEAVVOption@2@@Z@4HA 000000018004b7e4     VImage.obj
 0004:000027e4       $pdata$?dtor$0@?0??wrap@VImage@vips@@QEAA?AV12@PEAVVOption@2@@Z@4HA 000000018004b7e4     VImage.obj
 0004:000027e4       $pdata$?dtor$0@?0??scRGB2sRGB@VImage@vips@@QEAA?AV12@PEAVVOption@2@@Z@4HA 000000018004b7e4     VImage.obj
 0004:000027e4       $pdata$?dtor$0@?0??LCh2CMC@VImage@vips@@QEAA?AV12@PEAVVOption@2@@Z@4HA 000000018004b7e4     VImage.obj
 0004:000027e4       $pdata$?dtor$0@?0??LabQ2Lab@VImage@vips@@QEAA?AV12@PEAVVOption@2@@Z@4HA 000000018004b7e4     VImage.obj
 0004:000027e4       $pdata$?dtor$0@?0??rot45@VImage@vips@@QEAA?AV12@PEAVVOption@2@@Z@4HA 000000018004b7e4     VImage.obj
 0004:000027e4       $pdata$?dtor$0@?0??hist_cum@VImage@vips@@QEAA?AV12@PEAVVOption@2@@Z@4HA 000000018004b7e4     VImage.obj
 0004:000027e4       $pdata$?dtor$0@?0??scale@VImage@vips@@QEAA?AV12@PEAVVOption@2@@Z@4HA 000000018004b7e4     VImage.obj
 0004:000027e4       $pdata$?dtor$0@?0??CMC2LCh@VImage@vips@@QEAA?AV12@PEAVVOption@2@@Z@4HA 000000018004b7e4     VImage.obj
 0004:000027e4       $pdata$?dtor$0@?0??autorot@VImage@vips@@QEAA?AV12@PEAVVOption@2@@Z@4HA 000000018004b7e4     VImage.obj
 0004:000027e4       $pdata$?dtor$0@?0??sharpen@VImage@vips@@QEAA?AV12@PEAVVOption@2@@Z@4HA 000000018004b7e4     VImage.obj
 0004:000027e4       $pdata$?dtor$0@?0??HSV2sRGB@VImage@vips@@QEAA?AV12@PEAVVOption@2@@Z@4HA 000000018004b7e4     VImage.obj
 0004:000027e4       $pdata$?dtor$0@?0??hough_circle@VImage@vips@@QEAA?AV12@PEAVVOption@2@@Z@4HA 000000018004b7e4     VImage.obj
 0004:000027e4       $pdata$?dtor$0@?0??hough_line@VImage@vips@@QEAA?AV12@PEAVVOption@2@@Z@4HA 000000018004b7e4     VImage.obj
 0004:000027e4       $pdata$?dtor$0@?0??unpremultiply@VImage@vips@@QEAA?AV12@PEAVVOption@2@@Z@4HA 000000018004b7e4     VImage.obj
 0004:000027e4       $pdata$?dtor$0@?0??XYZ2Yxy@VImage@vips@@QEAA?AV12@PEAVVOption@2@@Z@4HA 000000018004b7e4     VImage.obj
 0004:000027e4       $pdata$?dtor$0@?0??XYZ2scRGB@VImage@vips@@QEAA?AV12@PEAVVOption@2@@Z@4HA 000000018004b7e4     VImage.obj
 0004:000027e4       $pdata$?dtor$0@?0??Yxy2XYZ@VImage@vips@@QEAA?AV12@PEAVVOption@2@@Z@4HA 000000018004b7e4     VImage.obj
 0004:000027e4       $pdata$?dtor$0@?0??bandfold@VImage@vips@@QEAA?AV12@PEAVVOption@2@@Z@4HA 000000018004b7e4     VImage.obj
 0004:000027e4       $pdata$?dtor$0@?0??globalbalance@VImage@vips@@QEAA?AV12@PEAVVOption@2@@Z@4HA 000000018004b7e4     VImage.obj
 0004:000027e4       $pdata$?dtor$0@?0??bandunfold@VImage@vips@@QEAA?AV12@PEAVVOption@2@@Z@4HA 000000018004b7e4     VImage.obj
 0004:000027e4       $pdata$?dtor$0@?0??stats@VImage@vips@@QEAA?AV12@PEAVVOption@2@@Z@4HA 000000018004b7e4     VImage.obj
 0004:000027e4       $pdata$?dtor$0@?0??hist_find_ndim@VImage@vips@@QEAA?AV12@PEAVVOption@2@@Z@4HA 000000018004b7e4     VImage.obj
 0004:000027e4       $pdata$?dtor$0@?0??flatten@VImage@vips@@QEAA?AV12@PEAVVOption@2@@Z@4HA 000000018004b7e4     VImage.obj
 0004:000027e4       $pdata$?dtor$0@?0??premultiply@VImage@vips@@QEAA?AV12@PEAVVOption@2@@Z@4HA 000000018004b7e4     VImage.obj
 0004:000027e4       $pdata$?dtor$0@?0??hist_find@VImage@vips@@QEAA?AV12@PEAVVOption@2@@Z@4HA 000000018004b7e4     VImage.obj
 0004:000027e4       $pdata$?dtor$0@?0??scRGB2XYZ@VImage@vips@@QEAA?AV12@PEAVVOption@2@@Z@4HA 000000018004b7e4     VImage.obj
 0004:000027f0       $pdata$?dtor$2@?0??linear@VImage@vips@@QEAA?AV12@V?$vector@NV?$allocator@N@std@@@std@@0PEAVVOption@2@@Z@4HA 000000018004b7f0     VImage.obj
 0004:000027fc       $pdata$?dtor$0@?0??extract_area@VImage@vips@@QEAA?AV12@HHHHPEAVVOption@2@@Z@4HA 000000018004b7fc     VImage.obj
 0004:000027fc       $pdata$?dtor$0@?0??embed@VImage@vips@@QEAA?AV12@HHHHPEAVVOption@2@@Z@4HA 000000018004b7fc     VImage.obj
 0004:000027fc       $pdata$?dtor$0@?0??hist_local@VImage@vips@@QEAA?AV12@HHPEAVVOption@2@@Z@4HA 000000018004b7fc     VImage.obj
 0004:000027fc       $pdata$?dtor$0@?0??stdif@VImage@vips@@QEAA?AV12@HHPEAVVOption@2@@Z@4HA 000000018004b7fc     VImage.obj
 0004:000027fc       $pdata$?dtor$0@?0??smartcrop@VImage@vips@@QEAA?AV12@HHPEAVVOption@2@@Z@4HA 000000018004b7fc     VImage.obj
 0004:000027fc       $pdata$?dtor$0@?0??icc_transform@VImage@vips@@QEAA?AV12@PEADPEAVVOption@2@@Z@4HA 000000018004b7fc     VImage.obj
 0004:000027fc       $pdata$?dtor$0@?0??resize@VImage@vips@@QEAA?AV12@NPEAVVOption@2@@Z@4HA 000000018004b7fc     VImage.obj
 0004:000027fc       $pdata$?dtor$0@?0??bandbool@VImage@vips@@QEAA?AV12@W4VipsOperationBoolean@@PEAVVOption@2@@Z@4HA 000000018004b7fc     VImage.obj
 0004:000027fc       $pdata$?dtor$0@?0??extract_band@VImage@vips@@QEAA?AV12@HPEAVVOption@2@@Z@4HA 000000018004b7fc     VImage.obj
 0004:000027fc       $pdata$?dtor$0@?0??measure@VImage@vips@@QEAA?AV12@HHPEAVVOption@2@@Z@4HA 000000018004b7fc     VImage.obj
 0004:000027fc       $pdata$?dtor$0@?0??grid@VImage@vips@@QEAA?AV12@HHHPEAVVOption@2@@Z@4HA 000000018004b7fc     VImage.obj
 0004:000027fc       $pdata$?dtor$0@?0??flip@VImage@vips@@QEAA?AV12@W4VipsDirection@@PEAVVOption@2@@Z@4HA 000000018004b7fc     VImage.obj
 0004:000027fc       $pdata$?dtor$0@?0??colourspace@VImage@vips@@QEAA?AV12@W4VipsInterpretation@@PEAVVOption@2@@Z@4HA 000000018004b7fc     VImage.obj
 0004:000027fc       $pdata$?dtor$0@?0??gaussblur@VImage@vips@@QEAA?AV12@NPEAVVOption@2@@Z@4HA 000000018004b7fc     VImage.obj
 0004:000027fc       $pdata$?dtor$0@?0??complexget@VImage@vips@@QEAA?AV12@W4VipsOperationComplexget@@PEAVVOption@2@@Z@4HA 000000018004b7fc     VImage.obj
 0004:000027fc       $pdata$?dtor$0@?0??project@VImage@vips@@QEAA?AV12@PEAV12@PEAVVOption@2@@Z@4HA 000000018004b7fc     VImage.obj
 0004:000027fc       $pdata$?dtor$0@?0??profile@VImage@vips@@QEAA?AV12@PEAV12@PEAVVOption@2@@Z@4HA 000000018004b7fc     VImage.obj
 0004:000027fc       $pdata$?dtor$0@?0??complex@VImage@vips@@QEAA?AV12@W4VipsOperationComplex@@PEAVVOption@2@@Z@4HA 000000018004b7fc     VImage.obj
 0004:000027fc       $pdata$?dtor$0@?0??reducev@VImage@vips@@QEAA?AV12@NPEAVVOption@2@@Z@4HA 000000018004b7fc     VImage.obj
 0004:000027fc       $pdata$?dtor$0@?0??shrinkh@VImage@vips@@QEAA?AV12@HPEAVVOption@2@@Z@4HA 000000018004b7fc     VImage.obj
 0004:000027fc       $pdata$?dtor$0@?0??cast@VImage@vips@@QEAA?AV12@W4VipsBandFormat@@PEAVVOption@2@@Z@4HA 000000018004b7fc     VImage.obj
 0004:000027fc       $pdata$?dtor$0@?0??reduceh@VImage@vips@@QEAA?AV12@NPEAVVOption@2@@Z@4HA 000000018004b7fc     VImage.obj
 0004:000027fc       $pdata$?dtor$0@?0??zoom@VImage@vips@@QEAA?AV12@HHPEAVVOption@2@@Z@4HA 000000018004b7fc     VImage.obj
 0004:000027fc       $pdata$?dtor$0@?0??rank@VImage@vips@@QEAA?AV12@HHHPEAVVOption@2@@Z@4HA 000000018004b7fc     VImage.obj
 0004:000027fc       $pdata$?dtor$0@?0??round@VImage@vips@@QEAA?AV12@W4VipsOperationRound@@PEAVVOption@2@@Z@4HA 000000018004b7fc     VImage.obj
 0004:000027fc       $pdata$?dtor$0@?0??replicate@VImage@vips@@QEAA?AV12@HHPEAVVOption@2@@Z@4HA 000000018004b7fc     VImage.obj
 0004:000027fc       $pdata$?dtor$0@?0??math@VImage@vips@@QEAA?AV12@W4VipsOperationMath@@PEAVVOption@2@@Z@4HA 000000018004b7fc     VImage.obj
 0004:000027fc       $pdata$?dtor$0@?0??rot@VImage@vips@@QEAA?AV12@W4VipsAngle@@PEAVVOption@2@@Z@4HA 000000018004b7fc     VImage.obj
 0004:000027fc       $pdata$?dtor$0@?0??subsample@VImage@vips@@QEAA?AV12@HHPEAVVOption@2@@Z@4HA 000000018004b7fc     VImage.obj
 0004:000027fc       $pdata$?dtor$0@?0??shrinkv@VImage@vips@@QEAA?AV12@HPEAVVOption@2@@Z@4HA 000000018004b7fc     VImage.obj
 0004:00002808       $pdata$?dtor$1@?0??boolean_const@VImage@vips@@QEAA?AV12@W4VipsOperationBoolean@@V?$vector@NV?$allocator@N@std@@@std@@PEAVVOption@2@@Z@4HA 000000018004b808     VImage.obj
 0004:00002808       $pdata$?dtor$1@?0??relational_const@VImage@vips@@QEAA?AV12@W4VipsOperationRelational@@V?$vector@NV?$allocator@N@std@@@std@@PEAVVOption@2@@Z@4HA 000000018004b808     VImage.obj
 0004:00002808       $pdata$?dtor$1@?0??math2_const@VImage@vips@@QEAA?AV12@W4VipsOperationMath2@@V?$vector@NV?$allocator@N@std@@@std@@PEAVVOption@2@@Z@4HA 000000018004b808     VImage.obj
 0004:00002814       $pdata$?dtor$1@?0??remainder_const@VImage@vips@@QEAA?AV12@V?$vector@NV?$allocator@N@std@@@std@@PEAVVOption@2@@Z@4HA 000000018004b814     VImage.obj
 0004:00002814       $pdata$?dtor$1@?0??affine@VImage@vips@@QEAA?AV12@V?$vector@NV?$allocator@N@std@@@std@@PEAVVOption@2@@Z@4HA 000000018004b814     VImage.obj
 0004:00002814       $pdata$?dtor$1@?0??bandjoin_const@VImage@vips@@QEAA?AV12@V?$vector@NV?$allocator@N@std@@@std@@PEAVVOption@2@@Z@4HA 000000018004b814     VImage.obj
 0004:00002820       $pdata$?dtor$0@?0??getpoint@VImage@vips@@QEAA?AV?$vector@NV?$allocator@N@std@@@std@@HHPEAVVOption@2@@Z@4HA 000000018004b820     VImage.obj
 0004:0000282c       $pdata$?dtor$2@?0??ifthenelse@VImage@vips@@QEAA?AV12@V12@0PEAVVOption@2@@Z@4HA 000000018004b82c     VImage.obj
 0004:00002838       $pdata$?dtor$0@?0??vipsload@VImage@vips@@SA?AV12@PEADPEAVVOption@2@@Z@4HA 000000018004b838     VImage.obj
 0004:00002838       $pdata$?dtor$0@?0??svgload@VImage@vips@@SA?AV12@PEADPEAVVOption@2@@Z@4HA 000000018004b838     VImage.obj
 0004:00002838       $pdata$?dtor$0@?0??pdfload_buffer@VImage@vips@@SA?AV12@PEAU_VipsBlob@@PEAVVOption@2@@Z@4HA 000000018004b838     VImage.obj
 0004:00002838       $pdata$?dtor$0@?0??pdfload@VImage@vips@@SA?AV12@PEADPEAVVOption@2@@Z@4HA 000000018004b838     VImage.obj
 0004:00002838       $pdata$?dtor$0@?0??svgload_buffer@VImage@vips@@SA?AV12@PEAU_VipsBlob@@PEAVVOption@2@@Z@4HA 000000018004b838     VImage.obj
 0004:00002838       $pdata$?dtor$0@?0??black@VImage@vips@@SA?AV12@HHPEAVVOption@2@@Z@4HA 000000018004b838     VImage.obj
 0004:00002838       $pdata$?dtor$0@?0??radload@VImage@vips@@SA?AV12@PEADPEAVVOption@2@@Z@4HA 000000018004b838     VImage.obj
 0004:00002838       $pdata$?dtor$0@?0??gaussnoise@VImage@vips@@SA?AV12@HHPEAVVOption@2@@Z@4HA 000000018004b838     VImage.obj
 0004:00002838       $pdata$?dtor$0@?0??matrixload@VImage@vips@@SA?AV12@PEADPEAVVOption@2@@Z@4HA 000000018004b838     VImage.obj
 0004:00002838       $pdata$?dtor$0@?0??pngload_buffer@VImage@vips@@SA?AV12@PEAU_VipsBlob@@PEAVVOption@2@@Z@4HA 000000018004b838     VImage.obj
 0004:00002838       $pdata$?dtor$0@?0??jpegload@VImage@vips@@SA?AV12@PEADPEAVVOption@2@@Z@4HA 000000018004b838     VImage.obj
 0004:00002838       $pdata$?dtor$0@?0??text@VImage@vips@@SA?AV12@PEADPEAVVOption@2@@Z@4HA 000000018004b838     VImage.obj
 0004:00002838       $pdata$?dtor$0@?0??gifload_buffer@VImage@vips@@SA?AV12@PEAU_VipsBlob@@PEAVVOption@2@@Z@4HA 000000018004b838     VImage.obj
 0004:00002838       $pdata$?dtor$0@?0??xyz@VImage@vips@@SA?AV12@HHPEAVVOption@2@@Z@4HA 000000018004b838     VImage.obj
 0004:00002838       $pdata$?dtor$0@?0??openexrload@VImage@vips@@SA?AV12@PEADPEAVVOption@2@@Z@4HA 000000018004b838     VImage.obj
 0004:00002838       $pdata$?dtor$0@?0??rawload@VImage@vips@@SA?AV12@PEADHHHPEAVVOption@2@@Z@4HA 000000018004b838     VImage.obj
 0004:00002838       $pdata$?dtor$0@?0??perlin@VImage@vips@@SA?AV12@HHPEAVVOption@2@@Z@4HA 000000018004b838     VImage.obj
 0004:00002838       $pdata$?dtor$0@?0??jpegload_buffer@VImage@vips@@SA?AV12@PEAU_VipsBlob@@PEAVVOption@2@@Z@4HA 000000018004b838     VImage.obj
 0004:00002838       $pdata$?dtor$0@?0??eye@VImage@vips@@SA?AV12@HHPEAVVOption@2@@Z@4HA 000000018004b838     VImage.obj
 0004:00002838       $pdata$?dtor$0@?0??fitsload@VImage@vips@@SA?AV12@PEADPEAVVOption@2@@Z@4HA 000000018004b838     VImage.obj
 0004:00002838       $pdata$?dtor$0@?0??grey@VImage@vips@@SA?AV12@HHPEAVVOption@2@@Z@4HA 000000018004b838     VImage.obj
 0004:00002838       $pdata$?dtor$0@?0??worley@VImage@vips@@SA?AV12@HHPEAVVOption@2@@Z@4HA 000000018004b838     VImage.obj
 0004:00002838       $pdata$?dtor$0@?0??ppmload@VImage@vips@@SA?AV12@PEADPEAVVOption@2@@Z@4HA 000000018004b838     VImage.obj
 0004:00002838       $pdata$?dtor$0@?0??identity@VImage@vips@@SA?AV12@PEAVVOption@2@@Z@4HA 000000018004b838     VImage.obj
 0004:00002838       $pdata$?dtor$0@?0??zone@VImage@vips@@SA?AV12@HHPEAVVOption@2@@Z@4HA 000000018004b838     VImage.obj
 0004:00002838       $pdata$?dtor$0@?0??webpload@VImage@vips@@SA?AV12@PEADPEAVVOption@2@@Z@4HA 000000018004b838     VImage.obj
 0004:00002838       $pdata$?dtor$0@?0??magickload_buffer@VImage@vips@@SA?AV12@PEAU_VipsBlob@@PEAVVOption@2@@Z@4HA 000000018004b838     VImage.obj
 0004:00002838       $pdata$?dtor$0@?0??matload@VImage@vips@@SA?AV12@PEADPEAVVOption@2@@Z@4HA 000000018004b838     VImage.obj
 0004:00002838       $pdata$?dtor$0@?0??sines@VImage@vips@@SA?AV12@HHPEAVVOption@2@@Z@4HA 000000018004b838     VImage.obj
 0004:00002838       $pdata$?dtor$0@?0??thumbnail_buffer@VImage@vips@@SA?AV12@PEAU_VipsBlob@@HPEAVVOption@2@@Z@4HA 000000018004b838     VImage.obj
 0004:00002838       $pdata$?dtor$0@?0??tonelut@VImage@vips@@SA?AV12@PEAVVOption@2@@Z@4HA 000000018004b838     VImage.obj
 0004:00002838       $pdata$?dtor$0@?0??thumbnail@VImage@vips@@SA?AV12@PEADHPEAVVOption@2@@Z@4HA 000000018004b838     VImage.obj
 0004:00002838       $pdata$?dtor$0@?0??csvload@VImage@vips@@SA?AV12@PEADPEAVVOption@2@@Z@4HA 000000018004b838     VImage.obj
 0004:00002838       $pdata$?dtor$0@?0??analyzeload@VImage@vips@@SA?AV12@PEADPEAVVOption@2@@Z@4HA 000000018004b838     VImage.obj
 0004:00002838       $pdata$?dtor$0@?0??webpload_buffer@VImage@vips@@SA?AV12@PEAU_VipsBlob@@PEAVVOption@2@@Z@4HA 000000018004b838     VImage.obj
 0004:00002838       $pdata$?dtor$0@?0??gifload@VImage@vips@@SA?AV12@PEADPEAVVOption@2@@Z@4HA 000000018004b838     VImage.obj
 0004:00002838       $pdata$?dtor$0@?0??magickload@VImage@vips@@SA?AV12@PEADPEAVVOption@2@@Z@4HA 000000018004b838     VImage.obj
 0004:00002838       $pdata$?dtor$0@?0??pngload@VImage@vips@@SA?AV12@PEADPEAVVOption@2@@Z@4HA 000000018004b838     VImage.obj
 0004:00002838       $pdata$?dtor$0@?0??tiffload@VImage@vips@@SA?AV12@PEADPEAVVOption@2@@Z@4HA 000000018004b838     VImage.obj
 0004:00002838       $pdata$?dtor$0@?0??tiffload_buffer@VImage@vips@@SA?AV12@PEAU_VipsBlob@@PEAVVOption@2@@Z@4HA 000000018004b838     VImage.obj
 0004:00002838       $pdata$?dtor$0@?0??openslideload@VImage@vips@@SA?AV12@PEADPEAVVOption@2@@Z@4HA 000000018004b838     VImage.obj
 0004:00002844       $pdata$?dtor$0@?0??gaussmat@VImage@vips@@SA?AV12@NNPEAVVOption@2@@Z@4HA 000000018004b844     VImage.obj
 0004:00002844       $pdata$?dtor$0@?0??logmat@VImage@vips@@SA?AV12@NNPEAVVOption@2@@Z@4HA 000000018004b844     VImage.obj
 0004:00002850       $pdata$?dtor$0@?0??mask_fractal@VImage@vips@@SA?AV12@HHNPEAVVOption@2@@Z@4HA 000000018004b850     VImage.obj
 0004:00002850       $pdata$?dtor$0@?0??mask_gaussian_ring@VImage@vips@@SA?AV12@HHNNNPEAVVOption@2@@Z@4HA 000000018004b850     VImage.obj
 0004:00002850       $pdata$?dtor$0@?0??mask_butterworth_ring@VImage@vips@@SA?AV12@HHNNNNPEAVVOption@2@@Z@4HA 000000018004b850     VImage.obj
 0004:00002850       $pdata$?dtor$0@?0??mask_gaussian_band@VImage@vips@@SA?AV12@HHNNNNPEAVVOption@2@@Z@4HA 000000018004b850     VImage.obj
 0004:00002850       $pdata$?dtor$0@?0??mask_butterworth@VImage@vips@@SA?AV12@HHNNNPEAVVOption@2@@Z@4HA 000000018004b850     VImage.obj
 0004:00002850       $pdata$?dtor$0@?0??mask_ideal@VImage@vips@@SA?AV12@HHNPEAVVOption@2@@Z@4HA 000000018004b850     VImage.obj
 0004:00002850       $pdata$?dtor$0@?0??mask_ideal_ring@VImage@vips@@SA?AV12@HHNNPEAVVOption@2@@Z@4HA 000000018004b850     VImage.obj
 0004:00002850       $pdata$?dtor$0@?0??mask_butterworth_band@VImage@vips@@SA?AV12@HHNNNNNPEAVVOption@2@@Z@4HA 000000018004b850     VImage.obj
 0004:00002850       $pdata$?dtor$0@?0??mask_ideal_band@VImage@vips@@SA?AV12@HHNNNPEAVVOption@2@@Z@4HA 000000018004b850     VImage.obj
 0004:00002850       $pdata$?dtor$0@?0??mask_gaussian@VImage@vips@@SA?AV12@HHNNPEAVVOption@2@@Z@4HA 000000018004b850     VImage.obj
 0004:00002850       $pdata$?dtor$0@?0??fractsurf@VImage@vips@@SA?AV12@HHNPEAVVOption@2@@Z@4HA 000000018004b850     VImage.obj
 0004:0000285c       $pdata$?dtor$0@?0??shrink@VImage@vips@@QEAA?AV12@NNPEAVVOption@2@@Z@4HA 000000018004b85c     VImage.obj
 0004:0000285c       $pdata$?dtor$0@?0??reduce@VImage@vips@@QEAA?AV12@NNPEAVVOption@2@@Z@4HA 000000018004b85c     VImage.obj
 0004:00002868       $pdata$?dtor$0@?0??bandsplit@VImage@vips@@QEAA?AV?$vector@VVImage@vips@@V?$allocator@VVImage@vips@@@std@@@std@@PEAVVOption@2@@Z@4HA 000000018004b868     VImage.obj
 0004:00002874       $pdata$?dtor$3@?0??bandjoin@VImage@vips@@QEAA?AV12@V12@PEAVVOption@2@@Z@4HA 000000018004b874     VImage.obj
 0004:00002880       $pdata$?dtor$6@?0??bandjoin@VImage@vips@@QEAA?AV12@V12@PEAVVOption@2@@Z@4HA 000000018004b880     VImage.obj
 0004:0000288c       $pdata$?fin$0@?0???_M@YAXPEAX_K1P6AX0@Z@Z@4HA 000000018004b88c     LIBCMT:ehvecdtr.obj
 0004:00002898       $pdata$?filt$0@?0??__ArrayUnwind@@YAXPEAX_K1P6AX0@Z@Z@4HA 000000018004b898     LIBCMT:ehvecdtr.obj
 0004:000028a4       $pdata$__scrt_is_nonwritable_in_current_image$filt$0 000000018004b8a4     LIBCMT:utility.obj
 0004:000028b0       $pdata$?fin$0@?0??dllmain_crt_process_attach@@YAHQEAUHINSTANCE__@@QEAX@Z@4HA 000000018004b8b0     LIBCMT:dll_dllmain.obj
 0004:000028bc       $pdata$?fin$0@?0??dllmain_crt_process_detach@@YAH_N@Z@4HA 000000018004b8bc     LIBCMT:dll_dllmain.obj
 0004:000028c8       $pdata$?filt$0@?0??dllmain_dispatch@@YAHQEAUHINSTANCE__@@KQEAX@Z@4HA 000000018004b8c8     LIBCMT:dll_dllmain.obj
 0004:000028d4       $pdata$__CxxCallCatchBlock$filt$0 000000018004b8d4     libvcruntime:frame.obj
 0004:000028e0       $pdata$__CxxCallCatchBlock$fin$1 000000018004b8e0     libvcruntime:frame.obj
 0004:000028ec       $pdata$__DestructExceptionObject$filt$0 000000018004b8ec     libvcruntime:frame.obj
 0004:000028f8       $pdata$__FrameUnwindToState$filt$0 000000018004b8f8     libvcruntime:frame.obj
 0004:00002904       $pdata$__FrameUnwindToState$fin$1 000000018004b904     libvcruntime:frame.obj
 0004:00002910       $pdata$_CallSETranslator$filt$0 000000018004b910     libvcruntime:trnsctrl.obj
 0004:0000291c       $pdata$_query_new_handler$fin$0 000000018004b91c     libucrt:new_handler.obj
 0004:00002928       $pdata$?filt$0@?0??common_exit@@YAXHW4_crt_exit_cleanup_mode@@W4_crt_exit_return_mode@@@Z@4HA 000000018004b928     libucrt:exit.obj
 0004:00002934       $pdata$?fin$1@?0??common_exit@@YAXHW4_crt_exit_cleanup_mode@@W4_crt_exit_return_mode@@@Z@4HA 000000018004b934     libucrt:exit.obj
 0004:00002940       $pdata$?fin$0@?0???$?RV<lambda_e24bbb7b643b32fcea6fa61b31d4c984>@@AEAV<lambda_275893d493268fdec8709772e3fcec0e>@@V<lambda_9d71df4d7cf3f480f8d633942495c3b0>@@@?$__crt_seh_guarded_call@H@@QEAAH$$QEAV<lambda_e24bbb7b643b32fcea6fa61b31d4c984>@@AEAV<lambda_275893d493268fdec8709772e3fcec0e>@@$$QEAV<lambda_9d71df4d7cf3f480f8d633942495c3b0>@@@Z@4HA 000000018004b940     libucrt:onexit.obj
 0004:0000294c       $pdata$__acrt_update_thread_multibyte_data$fin$0 000000018004b94c     libucrt:mbctype.obj
 0004:00002958       $pdata$?fin$0@?0???$?RV<lambda_99476a1ad63dd22509b5d3e65b0ffc95>@@AEAV<lambda_ad1ced32f4ac17aa236e5ef05d6b3b7c>@@V<lambda_f7424dd8d45958661754dc4f2697e9c3>@@@?$__crt_seh_guarded_call@X@@QEAAX$$QEAV<lambda_99476a1ad63dd22509b5d3e65b0ffc95>@@AEAV<lambda_ad1ced32f4ac17aa236e5ef05d6b3b7c>@@$$QEAV<lambda_f7424dd8d45958661754dc4f2697e9c3>@@@Z@4HA 000000018004b958     libucrt:mbctype.obj
 0004:00002958       $pdata$?fin$0@?0???$?RV<lambda_fb3a7dec4e47f37f22dae91bb15c9095>@@AEAV<lambda_698284760c8add0bfb0756c19673e34b>@@V<lambda_dfb8eca1e75fef3034a8fb18dd509707>@@@?$__crt_seh_guarded_call@X@@QEAAX$$QEAV<lambda_fb3a7dec4e47f37f22dae91bb15c9095>@@AEAV<lambda_698284760c8add0bfb0756c19673e34b>@@$$QEAV<lambda_dfb8eca1e75fef3034a8fb18dd509707>@@@Z@4HA 000000018004b958     libucrt:per_thread_data.obj
 0004:00002958       $pdata$?fin$0@?0???$?RV<lambda_72d1df2b273a38828b1ce30cbf4cdab5>@@AEAV<lambda_876a65b173b8412d3a47c70a915b0cf4>@@V<lambda_41932305e351933ebe8f8be3ed8bb5dc>@@@?$__crt_seh_guarded_call@X@@QEAAX$$QEAV<lambda_72d1df2b273a38828b1ce30cbf4cdab5>@@AEAV<lambda_876a65b173b8412d3a47c70a915b0cf4>@@$$QEAV<lambda_41932305e351933ebe8f8be3ed8bb5dc>@@@Z@4HA 000000018004b958     libucrt:per_thread_data.obj
 0004:00002958       $pdata$?fin$0@?0???$?RV<lambda_b8c45f8f788dd370798f47cfe8ac3a86>@@AEAV<lambda_4e60a939b0d047cfe11ddc22648dfba9>@@V<lambda_332c3edc96d0294ec56c57d38c1cdfd5>@@@?$__crt_seh_guarded_call@H@@QEAAH$$QEAV<lambda_b8c45f8f788dd370798f47cfe8ac3a86>@@AEAV<lambda_4e60a939b0d047cfe11ddc22648dfba9>@@$$QEAV<lambda_332c3edc96d0294ec56c57d38c1cdfd5>@@@Z@4HA 000000018004b958     libucrt:onexit.obj
 0004:00002958       $pdata$?fin$0@?0???$?RV<lambda_c36588078e9f5dfd39652860aa6b3aaf>@@AEAV<lambda_ec61778202f4f5fc7e7711acc23c3bca>@@V<lambda_dc9d2797ccde5d239b4a0efae8ebd7db>@@@?$__crt_seh_guarded_call@P6AXH@Z@@QEAAP6AXH@Z$$QEAV<lambda_c36588078e9f5dfd39652860aa6b3aaf>@@AEAV<lambda_ec61778202f4f5fc7e7711acc23c3bca>@@$$QEAV<lambda_dc9d2797ccde5d239b4a0efae8ebd7db>@@@Z@4HA 000000018004b958     libucrt:signal.obj
 0004:00002958       $pdata$?fin$0@?0???$?RV<lambda_5e887d1dcbef67a5eb4283622ba103bf>@@AEAV<lambda_4466841279450cc726390878d4a41900>@@V<lambda_341c25c0346d94847f1f3c463c57e077>@@@?$__crt_seh_guarded_call@X@@QEAAX$$QEAV<lambda_5e887d1dcbef67a5eb4283622ba103bf>@@AEAV<lambda_4466841279450cc726390878d4a41900>@@$$QEAV<lambda_341c25c0346d94847f1f3c463c57e077>@@@Z@4HA 000000018004b958     libucrt:per_thread_data.obj
 0004:00002958       $pdata$?fin$0@?0???$?RV<lambda_46352004c1216016012b18bd6f87e700>@@AEAV<lambda_3bd07e1a1191394380780325891bf33f>@@V<lambda_334532d3f185bcaa59b5be82d7d22bff>@@@?$__crt_seh_guarded_call@X@@QEAAX$$QEAV<lambda_46352004c1216016012b18bd6f87e700>@@AEAV<lambda_3bd07e1a1191394380780325891bf33f>@@$$QEAV<lambda_334532d3f185bcaa59b5be82d7d22bff>@@@Z@4HA 000000018004b958     libucrt:per_thread_data.obj
 0004:00002964       $pdata$raise$fin$0         000000018004b964     libucrt:signal.obj
 0004:00002970       $pdata$__acrt_uninitialize_locale$fin$0 000000018004b970     libucrt:wsetlocale.obj
 0004:00002970       $pdata$__acrt_update_thread_locale_data$fin$0 000000018004b970     libucrt:locale_refcounting.obj
 0004:0000297c       $pdata$__acrt_lowio_ensure_fh_exists$fin$0 000000018004b97c     libucrt:osfinfo.obj
 0004:0000297c       $pdata$__acrt_initialize_lowio$fin$0 000000018004b97c     libucrt:ioinit.obj
 0004:00002988       $pdata$common_flush_all$fin$0 000000018004b988     libucrt:fflush.obj
 0004:00002994       $pdata$common_flush_all$fin$1 000000018004b994     libucrt:fflush.obj
 0004:000029a0       $pdata$_fcloseall$fin$0    000000018004b9a0     libucrt:closeall.obj
 0004:000029ac       $pdata$_write$fin$0        000000018004b9ac     libucrt:write.obj
 0004:000029b8       $pdata$fclose$fin$0        000000018004b9b8     libucrt:fclose.obj
 0004:000029c4       $pdata$?fin$0@?0???$?RV<lambda_bfedae4ebbf01fab1bb6dcc6a9e276e0>@@AEAV<lambda_2fe9b910cf3cbf4a0ab98a02ba45b3ec>@@V<lambda_237c231691f317818eb88cc1d5d642d6>@@@?$__crt_seh_guarded_call@H@@QEAAH$$QEAV<lambda_bfedae4ebbf01fab1bb6dcc6a9e276e0>@@AEAV<lambda_2fe9b910cf3cbf4a0ab98a02ba45b3ec>@@$$QEAV<lambda_237c231691f317818eb88cc1d5d642d6>@@@Z@4HA 000000018004b9c4     libucrt:close.obj
 0004:000029c4       $pdata$?fin$0@?0???$?RV<lambda_b521505b218e5242e90febf6bfebc422>@@AEAV<lambda_6978c1fb23f02e42e1d9e99668cc68aa>@@V<lambda_314360699dd331753a4119843814e9a7>@@@?$__crt_seh_guarded_call@H@@QEAAH$$QEAV<lambda_b521505b218e5242e90febf6bfebc422>@@AEAV<lambda_6978c1fb23f02e42e1d9e99668cc68aa>@@$$QEAV<lambda_314360699dd331753a4119843814e9a7>@@@Z@4HA 000000018004b9c4     libucrt:commit.obj
 0004:000029d0       $pdata$_ctrlfp$filt$0      000000018004b9d0     libucrt:fpctrl.obj
 0004:000029dc       $pdata$_IsNonwritableInCurrentImage$filt$0 000000018004b9dc     LIBCMT:pesect.obj
 0005:00000000       __guard_fids__             000000018004c000     libucrt:initialization.obj
 0005:00000060       __guard_fids___acrt_initialize_ptd 000000018004c060     libucrt:per_thread_data.obj
 0005:00000064       __guard_fids_??$expand_argument_wildcards@D@@YAHQEAD0AEAV?$argument_list@D@?A0xca0879c4@@@Z 000000018004c064     libucrt:argv_wildcards.obj
 0005:00000068       __guard_fids__             000000018004c068     libucrt:locale_initializer.obj
 0005:0000006c       __guard_fids__             000000018004c06c     libucrt:multibyte_initializer.obj
 0005:00000070       __guard_fids__             000000018004c070     libucrt:stdio_initializer.obj
 0005:00000074       __guard_fids__             000000018004c074     libucrt:stdio_initializer.obj
 0005:00000078       __guard_fids__             000000018004c078     libucrt:fma3_initializer.obj
 0005:0000007c       __guard_fids__             000000018004c07c     libucrt:console_output_initializer.obj
 0005:00000080       __guard_fids__             000000018004c080     libcpmt:xthrow.obj
 0005:00000088       __guard_fids__             000000018004c088     libcpmt:xthrow.obj
 0005:00000090       __guard_fids__             000000018004c090     libcpmt:xthrow.obj
 0005:00000098       __guard_fids__             000000018004c098     libcpmt:xthrow.obj
 0005:000000a0       __guard_fids__             000000018004c0a0     libcpmt:xthrow.obj
 0005:000000a8       __guard_fids__             000000018004c0a8     libcpmt:xthrow.obj
 0005:000000b0       __guard_fids__             000000018004c0b0     LIBCMT:thread_safe_statics.obj
 0005:000000b4       __guard_fids_?__scrt_initialize_thread_safe_statics@@YAHXZ 000000018004c0b4     LIBCMT:thread_safe_statics.obj
 0005:000000b8       __guard_fids__             000000018004c0b8     LIBCMT:std_type_info_static.obj
 0005:000000bc       __guard_fids_?dllmain_crt_process_attach@@YAHQEAUHINSTANCE__@@QEAX@Z 000000018004c0bc     LIBCMT:dll_dllmain.obj
 0005:000000c4       __guard_fids_?dllmain_dispatch@@YAHQEAUHINSTANCE__@@KQEAX@Z 000000018004c0c4     LIBCMT:dll_dllmain.obj
 0005:000000c8       __guard_fids__             000000018004c0c8     LIBCMT:throw_bad_alloc.obj
 0005:000000d0       __guard_fids__             000000018004c0d0     LIBCMT:guard_support.obj
 0005:000000d4       __guard_fids__             000000018004c0d4     libvcruntime:frame.obj
 0005:000000d8       __guard_fids__             000000018004c0d8     libvcruntime:frame.obj
 0005:000000e0       __guard_fids__UnwindNestedFrames 000000018004c0e0     libvcruntime:trnsctrl.obj
 0005:000000e4       __guard_fids___vcrt_initialize_ptd 000000018004c0e4     libvcruntime:per_thread_data.obj
 0007:00000060       $R000000                   000000018004e060     * linker generated manifest res *

 Exports

  ordinal    name

        1    ??0VError@vips@@QEAA@AEBV01@@Z (public: __cdecl vips::VError::VError(class vips::VError const &))
        2    ??0VError@vips@@QEAA@V?$basic_string@DU?$char_traits@D@std@@V?$allocator@D@2@@std@@@Z (public: __cdecl vips::VError::VError(class std::basic_string<char,struct std::char_traits<char>,class std::allocator<char> >))
        3    ??0VError@vips@@QEAA@XZ (public: __cdecl vips::VError::VError(void))
        4    ??0VImage@vips@@QEAA@$$QEAV01@@Z (public: __cdecl vips::VImage::VImage(class vips::VImage &&))
        5    ??0VImage@vips@@QEAA@AEBV01@@Z (public: __cdecl vips::VImage::VImage(class vips::VImage const &))
        6    ??0VImage@vips@@QEAA@PEAU_VipsImage@@W4VSteal@1@@Z (public: __cdecl vips::VImage::VImage(struct _VipsImage *,enum vips::VSteal))
        7    ??0VImage@vips@@QEAA@XZ (public: __cdecl vips::VImage::VImage(void))
        8    ??0VInterpolate@vips@@QEAA@$$QEAV01@@Z (public: __cdecl vips::VInterpolate::VInterpolate(class vips::VInterpolate &&))
        9    ??0VInterpolate@vips@@QEAA@AEBV01@@Z (public: __cdecl vips::VInterpolate::VInterpolate(class vips::VInterpolate const &))
       10    ??0VInterpolate@vips@@QEAA@PEAU_VipsInterpolate@@W4VSteal@1@@Z (public: __cdecl vips::VInterpolate::VInterpolate(struct _VipsInterpolate *,enum vips::VSteal))
       11    ??0VOption@vips@@QEAA@AEBV01@@Z (public: __cdecl vips::VOption::VOption(class vips::VOption const &))
       12    ??0VOption@vips@@QEAA@XZ (public: __cdecl vips::VOption::VOption(void))
       13    ??1VError@vips@@UEAA@XZ (public: virtual __cdecl vips::VError::~VError(void))
       14    ??1VImage@vips@@QEAA@XZ (public: __cdecl vips::VImage::~VImage(void))
       15    ??1VInterpolate@vips@@QEAA@XZ (public: __cdecl vips::VInterpolate::~VInterpolate(void))
       16    ??1VOption@vips@@UEAA@XZ (public: virtual __cdecl vips::VOption::~VOption(void))
       17    ??4VError@vips@@QEAAAEAV01@AEBV01@@Z (public: class vips::VError & __cdecl vips::VError::operator=(class vips::VError const &))
       18    ??4VImage@vips@@QEAAAEAV01@$$QEAV01@@Z (public: class vips::VImage & __cdecl vips::VImage::operator=(class vips::VImage &&))
       19    ??4VImage@vips@@QEAAAEAV01@AEBV01@@Z (public: class vips::VImage & __cdecl vips::VImage::operator=(class vips::VImage const &))
       20    ??4VInterpolate@vips@@QEAAAEAV01@$$QEAV01@@Z (public: class vips::VInterpolate & __cdecl vips::VInterpolate::operator=(class vips::VInterpolate &&))
       21    ??4VInterpolate@vips@@QEAAAEAV01@AEBV01@@Z (public: class vips::VInterpolate & __cdecl vips::VInterpolate::operator=(class vips::VInterpolate const &))
       22    ??4VOption@vips@@QEAAAEAV01@AEBV01@@Z (public: class vips::VOption & __cdecl vips::VOption::operator=(class vips::VOption const &))
       23    ??5vips@@YA?AVVImage@0@V10@0@Z (class vips::VImage __cdecl vips::operator>>(class vips::VImage,class vips::VImage))
       24    ??5vips@@YA?AVVImage@0@V10@N@Z (class vips::VImage __cdecl vips::operator>>(class vips::VImage,double))
       25    ??5vips@@YA?AVVImage@0@V10@V?$vector@NV?$allocator@N@std@@@std@@@Z (class vips::VImage __cdecl vips::operator>>(class vips::VImage,class std::vector<double,class std::allocator<double> >))
       26    ??6vips@@YA?AVVImage@0@V10@0@Z (class vips::VImage __cdecl vips::operator<<(class vips::VImage,class vips::VImage))
       27    ??6vips@@YA?AVVImage@0@V10@N@Z (class vips::VImage __cdecl vips::operator<<(class vips::VImage,double))
       28    ??6vips@@YA?AVVImage@0@V10@V?$vector@NV?$allocator@N@std@@@std@@@Z (class vips::VImage __cdecl vips::operator<<(class vips::VImage,class std::vector<double,class std::allocator<double> >))
       29    ??8vips@@YA?AVVImage@0@NV10@@Z (class vips::VImage __cdecl vips::operator==(double,class vips::VImage))
       30    ??8vips@@YA?AVVImage@0@V10@0@Z (class vips::VImage __cdecl vips::operator==(class vips::VImage,class vips::VImage))
       31    ??8vips@@YA?AVVImage@0@V10@N@Z (class vips::VImage __cdecl vips::operator==(class vips::VImage,double))
       32    ??8vips@@YA?AVVImage@0@V10@V?$vector@NV?$allocator@N@std@@@std@@@Z (class vips::VImage __cdecl vips::operator==(class vips::VImage,class std::vector<double,class std::allocator<double> >))
       33    ??8vips@@YA?AVVImage@0@V?$vector@NV?$allocator@N@std@@@std@@V10@@Z (class vips::VImage __cdecl vips::operator==(class std::vector<double,class std::allocator<double> >,class vips::VImage))
       34    ??9vips@@YA?AVVImage@0@NV10@@Z (class vips::VImage __cdecl vips::operator!=(double,class vips::VImage))
       35    ??9vips@@YA?AVVImage@0@V10@0@Z (class vips::VImage __cdecl vips::operator!=(class vips::VImage,class vips::VImage))
       36    ??9vips@@YA?AVVImage@0@V10@N@Z (class vips::VImage __cdecl vips::operator!=(class vips::VImage,double))
       37    ??9vips@@YA?AVVImage@0@V10@V?$vector@NV?$allocator@N@std@@@std@@@Z (class vips::VImage __cdecl vips::operator!=(class vips::VImage,class std::vector<double,class std::allocator<double> >))
       38    ??9vips@@YA?AVVImage@0@V?$vector@NV?$allocator@N@std@@@std@@V10@@Z (class vips::VImage __cdecl vips::operator!=(class std::vector<double,class std::allocator<double> >,class vips::VImage))
       39    ??AVImage@vips@@QEAA?AV01@H@Z (public: class vips::VImage __cdecl vips::VImage::operator[](int))
       40    ??Dvips@@YA?AVVImage@0@NV10@@Z (class vips::VImage __cdecl vips::operator*(double,class vips::VImage))
       41    ??Dvips@@YA?AVVImage@0@V10@0@Z (class vips::VImage __cdecl vips::operator*(class vips::VImage,class vips::VImage))
       42    ??Dvips@@YA?AVVImage@0@V10@N@Z (class vips::VImage __cdecl vips::operator*(class vips::VImage,double))
       43    ??Dvips@@YA?AVVImage@0@V10@V?$vector@NV?$allocator@N@std@@@std@@@Z (class vips::VImage __cdecl vips::operator*(class vips::VImage,class std::vector<double,class std::allocator<double> >))
       44    ??Dvips@@YA?AVVImage@0@V?$vector@NV?$allocator@N@std@@@std@@V10@@Z (class vips::VImage __cdecl vips::operator*(class std::vector<double,class std::allocator<double> >,class vips::VImage))
       45    ??Gvips@@YA?AVVImage@0@NV10@@Z (class vips::VImage __cdecl vips::operator-(double,class vips::VImage))
       46    ??Gvips@@YA?AVVImage@0@V10@0@Z (class vips::VImage __cdecl vips::operator-(class vips::VImage,class vips::VImage))
       47    ??Gvips@@YA?AVVImage@0@V10@@Z (class vips::VImage __cdecl vips::operator-(class vips::VImage))
       48    ??Gvips@@YA?AVVImage@0@V10@N@Z (class vips::VImage __cdecl vips::operator-(class vips::VImage,double))
       49    ??Gvips@@YA?AVVImage@0@V10@V?$vector@NV?$allocator@N@std@@@std@@@Z (class vips::VImage __cdecl vips::operator-(class vips::VImage,class std::vector<double,class std::allocator<double> >))
       50    ??Gvips@@YA?AVVImage@0@V?$vector@NV?$allocator@N@std@@@std@@V10@@Z (class vips::VImage __cdecl vips::operator-(class std::vector<double,class std::allocator<double> >,class vips::VImage))
       51    ??Hvips@@YA?AVVImage@0@NV10@@Z (class vips::VImage __cdecl vips::operator+(double,class vips::VImage))
       52    ??Hvips@@YA?AVVImage@0@V10@0@Z (class vips::VImage __cdecl vips::operator+(class vips::VImage,class vips::VImage))
       53    ??Hvips@@YA?AVVImage@0@V10@N@Z (class vips::VImage __cdecl vips::operator+(class vips::VImage,double))
       54    ??Hvips@@YA?AVVImage@0@V10@V?$vector@NV?$allocator@N@std@@@std@@@Z (class vips::VImage __cdecl vips::operator+(class vips::VImage,class std::vector<double,class std::allocator<double> >))
       55    ??Hvips@@YA?AVVImage@0@V?$vector@NV?$allocator@N@std@@@std@@V10@@Z (class vips::VImage __cdecl vips::operator+(class std::vector<double,class std::allocator<double> >,class vips::VImage))
       56    ??Ivips@@YA?AVVImage@0@NV10@@Z (class vips::VImage __cdecl vips::operator&(double,class vips::VImage))
       57    ??Ivips@@YA?AVVImage@0@V10@0@Z (class vips::VImage __cdecl vips::operator&(class vips::VImage,class vips::VImage))
       58    ??Ivips@@YA?AVVImage@0@V10@N@Z (class vips::VImage __cdecl vips::operator&(class vips::VImage,double))
       59    ??Ivips@@YA?AVVImage@0@V10@V?$vector@NV?$allocator@N@std@@@std@@@Z (class vips::VImage __cdecl vips::operator&(class vips::VImage,class std::vector<double,class std::allocator<double> >))
       60    ??Ivips@@YA?AVVImage@0@V?$vector@NV?$allocator@N@std@@@std@@V10@@Z (class vips::VImage __cdecl vips::operator&(class std::vector<double,class std::allocator<double> >,class vips::VImage))
       61    ??Kvips@@YA?AVVImage@0@NV10@@Z (class vips::VImage __cdecl vips::operator/(double,class vips::VImage))
       62    ??Kvips@@YA?AVVImage@0@V10@0@Z (class vips::VImage __cdecl vips::operator/(class vips::VImage,class vips::VImage))
       63    ??Kvips@@YA?AVVImage@0@V10@N@Z (class vips::VImage __cdecl vips::operator/(class vips::VImage,double))
       64    ??Kvips@@YA?AVVImage@0@V10@V?$vector@NV?$allocator@N@std@@@std@@@Z (class vips::VImage __cdecl vips::operator/(class vips::VImage,class std::vector<double,class std::allocator<double> >))
       65    ??Kvips@@YA?AVVImage@0@V?$vector@NV?$allocator@N@std@@@std@@V10@@Z (class vips::VImage __cdecl vips::operator/(class std::vector<double,class std::allocator<double> >,class vips::VImage))
       66    ??Lvips@@YA?AVVImage@0@V10@0@Z (class vips::VImage __cdecl vips::operator%(class vips::VImage,class vips::VImage))
       67    ??Lvips@@YA?AVVImage@0@V10@N@Z (class vips::VImage __cdecl vips::operator%(class vips::VImage,double))
       68    ??Lvips@@YA?AVVImage@0@V10@V?$vector@NV?$allocator@N@std@@@std@@@Z (class vips::VImage __cdecl vips::operator%(class vips::VImage,class std::vector<double,class std::allocator<double> >))
       69    ??Mvips@@YA?AVVImage@0@NV10@@Z (class vips::VImage __cdecl vips::operator<(double,class vips::VImage))
       70    ??Mvips@@YA?AVVImage@0@V10@0@Z (class vips::VImage __cdecl vips::operator<(class vips::VImage,class vips::VImage))
       71    ??Mvips@@YA?AVVImage@0@V10@N@Z (class vips::VImage __cdecl vips::operator<(class vips::VImage,double))
       72    ??Mvips@@YA?AVVImage@0@V10@V?$vector@NV?$allocator@N@std@@@std@@@Z (class vips::VImage __cdecl vips::operator<(class vips::VImage,class std::vector<double,class std::allocator<double> >))
       73    ??Mvips@@YA?AVVImage@0@V?$vector@NV?$allocator@N@std@@@std@@V10@@Z (class vips::VImage __cdecl vips::operator<(class std::vector<double,class std::allocator<double> >,class vips::VImage))
       74    ??Nvips@@YA?AVVImage@0@NV10@@Z (class vips::VImage __cdecl vips::operator<=(double,class vips::VImage))
       75    ??Nvips@@YA?AVVImage@0@V10@0@Z (class vips::VImage __cdecl vips::operator<=(class vips::VImage,class vips::VImage))
       76    ??Nvips@@YA?AVVImage@0@V10@N@Z (class vips::VImage __cdecl vips::operator<=(class vips::VImage,double))
       77    ??Nvips@@YA?AVVImage@0@V10@V?$vector@NV?$allocator@N@std@@@std@@@Z (class vips::VImage __cdecl vips::operator<=(class vips::VImage,class std::vector<double,class std::allocator<double> >))
       78    ??Nvips@@YA?AVVImage@0@V?$vector@NV?$allocator@N@std@@@std@@V10@@Z (class vips::VImage __cdecl vips::operator<=(class std::vector<double,class std::allocator<double> >,class vips::VImage))
       79    ??Ovips@@YA?AVVImage@0@NV10@@Z (class vips::VImage __cdecl vips::operator>(double,class vips::VImage))
       80    ??Ovips@@YA?AVVImage@0@V10@0@Z (class vips::VImage __cdecl vips::operator>(class vips::VImage,class vips::VImage))
       81    ??Ovips@@YA?AVVImage@0@V10@N@Z (class vips::VImage __cdecl vips::operator>(class vips::VImage,double))
       82    ??Ovips@@YA?AVVImage@0@V10@V?$vector@NV?$allocator@N@std@@@std@@@Z (class vips::VImage __cdecl vips::operator>(class vips::VImage,class std::vector<double,class std::allocator<double> >))
       83    ??Ovips@@YA?AVVImage@0@V?$vector@NV?$allocator@N@std@@@std@@V10@@Z (class vips::VImage __cdecl vips::operator>(class std::vector<double,class std::allocator<double> >,class vips::VImage))
       84    ??Pvips@@YA?AVVImage@0@NV10@@Z (class vips::VImage __cdecl vips::operator>=(double,class vips::VImage))
       85    ??Pvips@@YA?AVVImage@0@V10@0@Z (class vips::VImage __cdecl vips::operator>=(class vips::VImage,class vips::VImage))
       86    ??Pvips@@YA?AVVImage@0@V10@N@Z (class vips::VImage __cdecl vips::operator>=(class vips::VImage,double))
       87    ??Pvips@@YA?AVVImage@0@V10@V?$vector@NV?$allocator@N@std@@@std@@@Z (class vips::VImage __cdecl vips::operator>=(class vips::VImage,class std::vector<double,class std::allocator<double> >))
       88    ??Pvips@@YA?AVVImage@0@V?$vector@NV?$allocator@N@std@@@std@@V10@@Z (class vips::VImage __cdecl vips::operator>=(class std::vector<double,class std::allocator<double> >,class vips::VImage))
       89    ??RVImage@vips@@QEAA?AV?$vector@NV?$allocator@N@std@@@std@@HH@Z (public: class std::vector<double,class std::allocator<double> > __cdecl vips::VImage::operator()(int,int))
       90    ??Tvips@@YA?AVVImage@0@NV10@@Z (class vips::VImage __cdecl vips::operator^(double,class vips::VImage))
       91    ??Tvips@@YA?AVVImage@0@V10@0@Z (class vips::VImage __cdecl vips::operator^(class vips::VImage,class vips::VImage))
       92    ??Tvips@@YA?AVVImage@0@V10@N@Z (class vips::VImage __cdecl vips::operator^(class vips::VImage,double))
       93    ??Tvips@@YA?AVVImage@0@V10@V?$vector@NV?$allocator@N@std@@@std@@@Z (class vips::VImage __cdecl vips::operator^(class vips::VImage,class std::vector<double,class std::allocator<double> >))
       94    ??Tvips@@YA?AVVImage@0@V?$vector@NV?$allocator@N@std@@@std@@V10@@Z (class vips::VImage __cdecl vips::operator^(class std::vector<double,class std::allocator<double> >,class vips::VImage))
       95    ??Uvips@@YA?AVVImage@0@NV10@@Z (class vips::VImage __cdecl vips::operator|(double,class vips::VImage))
       96    ??Uvips@@YA?AVVImage@0@V10@0@Z (class vips::VImage __cdecl vips::operator|(class vips::VImage,class vips::VImage))
       97    ??Uvips@@YA?AVVImage@0@V10@N@Z (class vips::VImage __cdecl vips::operator|(class vips::VImage,double))
       98    ??Uvips@@YA?AVVImage@0@V10@V?$vector@NV?$allocator@N@std@@@std@@@Z (class vips::VImage __cdecl vips::operator|(class vips::VImage,class std::vector<double,class std::allocator<double> >))
       99    ??Uvips@@YA?AVVImage@0@V?$vector@NV?$allocator@N@std@@@std@@V10@@Z (class vips::VImage __cdecl vips::operator|(class std::vector<double,class std::allocator<double> >,class vips::VImage))
      100    ??Xvips@@YAAEAVVImage@0@AEAV10@N@Z (class vips::VImage & __cdecl vips::operator*=(class vips::VImage &,double))
      101    ??Xvips@@YAAEAVVImage@0@AEAV10@V10@@Z (class vips::VImage & __cdecl vips::operator*=(class vips::VImage &,class vips::VImage))
      102    ??Xvips@@YAAEAVVImage@0@AEAV10@V?$vector@NV?$allocator@N@std@@@std@@@Z (class vips::VImage & __cdecl vips::operator*=(class vips::VImage &,class std::vector<double,class std::allocator<double> >))
      103    ??Yvips@@YAAEAVVImage@0@AEAV10@N@Z (class vips::VImage & __cdecl vips::operator+=(class vips::VImage &,double))
      104    ??Yvips@@YAAEAVVImage@0@AEAV10@V10@@Z (class vips::VImage & __cdecl vips::operator+=(class vips::VImage &,class vips::VImage))
      105    ??Yvips@@YAAEAVVImage@0@AEAV10@V?$vector@NV?$allocator@N@std@@@std@@@Z (class vips::VImage & __cdecl vips::operator+=(class vips::VImage &,class std::vector<double,class std::allocator<double> >))
      106    ??Zvips@@YAAEAVVImage@0@AEAV10@N@Z (class vips::VImage & __cdecl vips::operator-=(class vips::VImage &,double))
      107    ??Zvips@@YAAEAVVImage@0@AEAV10@V10@@Z (class vips::VImage & __cdecl vips::operator-=(class vips::VImage &,class vips::VImage))
      108    ??Zvips@@YAAEAVVImage@0@AEAV10@V?$vector@NV?$allocator@N@std@@@std@@@Z (class vips::VImage & __cdecl vips::operator-=(class vips::VImage &,class std::vector<double,class std::allocator<double> >))
      109    ??_0vips@@YAAEAVVImage@0@AEAV10@N@Z (class vips::VImage & __cdecl vips::operator/=(class vips::VImage &,double))
      110    ??_0vips@@YAAEAVVImage@0@AEAV10@V10@@Z (class vips::VImage & __cdecl vips::operator/=(class vips::VImage &,class vips::VImage))
      111    ??_0vips@@YAAEAVVImage@0@AEAV10@V?$vector@NV?$allocator@N@std@@@std@@@Z (class vips::VImage & __cdecl vips::operator/=(class vips::VImage &,class std::vector<double,class std::allocator<double> >))
      112    ??_1vips@@YAAEAVVImage@0@AEAV10@N@Z (class vips::VImage & __cdecl vips::operator%=(class vips::VImage &,double))
      113    ??_1vips@@YAAEAVVImage@0@AEAV10@V10@@Z (class vips::VImage & __cdecl vips::operator%=(class vips::VImage &,class vips::VImage))
      114    ??_1vips@@YAAEAVVImage@0@AEAV10@V?$vector@NV?$allocator@N@std@@@std@@@Z (class vips::VImage & __cdecl vips::operator%=(class vips::VImage &,class std::vector<double,class std::allocator<double> >))
      115    ??_2vips@@YAAEAVVImage@0@AEAV10@N@Z (class vips::VImage & __cdecl vips::operator>>=(class vips::VImage &,double))
      116    ??_2vips@@YAAEAVVImage@0@AEAV10@V10@@Z (class vips::VImage & __cdecl vips::operator>>=(class vips::VImage &,class vips::VImage))
      117    ??_2vips@@YAAEAVVImage@0@AEAV10@V?$vector@NV?$allocator@N@std@@@std@@@Z (class vips::VImage & __cdecl vips::operator>>=(class vips::VImage &,class std::vector<double,class std::allocator<double> >))
      118    ??_3vips@@YAAEAVVImage@0@AEAV10@N@Z (class vips::VImage & __cdecl vips::operator<<=(class vips::VImage &,double))
      119    ??_3vips@@YAAEAVVImage@0@AEAV10@V10@@Z (class vips::VImage & __cdecl vips::operator<<=(class vips::VImage &,class vips::VImage))
      120    ??_3vips@@YAAEAVVImage@0@AEAV10@V?$vector@NV?$allocator@N@std@@@std@@@Z (class vips::VImage & __cdecl vips::operator<<=(class vips::VImage &,class std::vector<double,class std::allocator<double> >))
      121    ??_4vips@@YAAEAVVImage@0@AEAV10@N@Z (class vips::VImage & __cdecl vips::operator&=(class vips::VImage &,double))
      122    ??_4vips@@YAAEAVVImage@0@AEAV10@V10@@Z (class vips::VImage & __cdecl vips::operator&=(class vips::VImage &,class vips::VImage))
      123    ??_4vips@@YAAEAVVImage@0@AEAV10@V?$vector@NV?$allocator@N@std@@@std@@@Z (class vips::VImage & __cdecl vips::operator&=(class vips::VImage &,class std::vector<double,class std::allocator<double> >))
      124    ??_5vips@@YAAEAVVImage@0@AEAV10@N@Z (class vips::VImage & __cdecl vips::operator|=(class vips::VImage &,double))
      125    ??_5vips@@YAAEAVVImage@0@AEAV10@V10@@Z (class vips::VImage & __cdecl vips::operator|=(class vips::VImage &,class vips::VImage))
      126    ??_5vips@@YAAEAVVImage@0@AEAV10@V?$vector@NV?$allocator@N@std@@@std@@@Z (class vips::VImage & __cdecl vips::operator|=(class vips::VImage &,class std::vector<double,class std::allocator<double> >))
      127    ??_6vips@@YAAEAVVImage@0@AEAV10@N@Z (class vips::VImage & __cdecl vips::operator^=(class vips::VImage &,double))
      128    ??_6vips@@YAAEAVVImage@0@AEAV10@V10@@Z (class vips::VImage & __cdecl vips::operator^=(class vips::VImage &,class vips::VImage))
      129    ??_6vips@@YAAEAVVImage@0@AEAV10@V?$vector@NV?$allocator@N@std@@@std@@@Z (class vips::VImage & __cdecl vips::operator^=(class vips::VImage &,class std::vector<double,class std::allocator<double> >))
      130    ??_7VError@vips@@6B@ (const vips::VError::`vftable')
      131    ??_7VOption@vips@@6B@ (const vips::VOption::`vftable')
      132    ?CMC2LCh@VImage@vips@@QEAA?AV12@PEAVVOption@2@@Z (public: class vips::VImage __cdecl vips::VImage::CMC2LCh(class vips::VOption *))
      133    ?HSV2sRGB@VImage@vips@@QEAA?AV12@PEAVVOption@2@@Z (public: class vips::VImage __cdecl vips::VImage::HSV2sRGB(class vips::VOption *))
      134    ?LCh2CMC@VImage@vips@@QEAA?AV12@PEAVVOption@2@@Z (public: class vips::VImage __cdecl vips::VImage::LCh2CMC(class vips::VOption *))
      135    ?LCh2Lab@VImage@vips@@QEAA?AV12@PEAVVOption@2@@Z (public: class vips::VImage __cdecl vips::VImage::LCh2Lab(class vips::VOption *))
      136    ?Lab2LCh@VImage@vips@@QEAA?AV12@PEAVVOption@2@@Z (public: class vips::VImage __cdecl vips::VImage::Lab2LCh(class vips::VOption *))
      137    ?Lab2LabQ@VImage@vips@@QEAA?AV12@PEAVVOption@2@@Z (public: class vips::VImage __cdecl vips::VImage::Lab2LabQ(class vips::VOption *))
      138    ?Lab2LabS@VImage@vips@@QEAA?AV12@PEAVVOption@2@@Z (public: class vips::VImage __cdecl vips::VImage::Lab2LabS(class vips::VOption *))
      139    ?Lab2XYZ@VImage@vips@@QEAA?AV12@PEAVVOption@2@@Z (public: class vips::VImage __cdecl vips::VImage::Lab2XYZ(class vips::VOption *))
      140    ?LabQ2Lab@VImage@vips@@QEAA?AV12@PEAVVOption@2@@Z (public: class vips::VImage __cdecl vips::VImage::LabQ2Lab(class vips::VOption *))
      141    ?LabQ2LabS@VImage@vips@@QEAA?AV12@PEAVVOption@2@@Z (public: class vips::VImage __cdecl vips::VImage::LabQ2LabS(class vips::VOption *))
      142    ?LabQ2sRGB@VImage@vips@@QEAA?AV12@PEAVVOption@2@@Z (public: class vips::VImage __cdecl vips::VImage::LabQ2sRGB(class vips::VOption *))
      143    ?LabS2Lab@VImage@vips@@QEAA?AV12@PEAVVOption@2@@Z (public: class vips::VImage __cdecl vips::VImage::LabS2Lab(class vips::VOption *))
      144    ?LabS2LabQ@VImage@vips@@QEAA?AV12@PEAVVOption@2@@Z (public: class vips::VImage __cdecl vips::VImage::LabS2LabQ(class vips::VOption *))
      145    ?XYZ2Lab@VImage@vips@@QEAA?AV12@PEAVVOption@2@@Z (public: class vips::VImage __cdecl vips::VImage::XYZ2Lab(class vips::VOption *))
      146    ?XYZ2Yxy@VImage@vips@@QEAA?AV12@PEAVVOption@2@@Z (public: class vips::VImage __cdecl vips::VImage::XYZ2Yxy(class vips::VOption *))
      147    ?XYZ2scRGB@VImage@vips@@QEAA?AV12@PEAVVOption@2@@Z (public: class vips::VImage __cdecl vips::VImage::XYZ2scRGB(class vips::VOption *))
      148    ?Yxy2XYZ@VImage@vips@@QEAA?AV12@PEAVVOption@2@@Z (public: class vips::VImage __cdecl vips::VImage::Yxy2XYZ(class vips::VOption *))
      149    ?abs@VImage@vips@@QEAA?AV12@PEAVVOption@2@@Z (public: class vips::VImage __cdecl vips::VImage::abs(class vips::VOption *))
      150    ?acos@VImage@vips@@QEAA?AV12@PEAVVOption@2@@Z (public: class vips::VImage __cdecl vips::VImage::acos(class vips::VOption *))
      151    ?add@VImage@vips@@QEAA?AV12@V12@PEAVVOption@2@@Z (public: class vips::VImage __cdecl vips::VImage::add(class vips::VImage,class vips::VOption *))
      152    ?affine@VImage@vips@@QEAA?AV12@V?$vector@NV?$allocator@N@std@@@std@@PEAVVOption@2@@Z (public: class vips::VImage __cdecl vips::VImage::affine(class std::vector<double,class std::allocator<double> >,class vips::VOption *))
      153    ?analyzeload@VImage@vips@@SA?AV12@PEADPEAVVOption@2@@Z (public: static class vips::VImage __cdecl vips::VImage::analyzeload(char *,class vips::VOption *))
      154    ?arrayjoin@VImage@vips@@SA?AV12@V?$vector@VVImage@vips@@V?$allocator@VVImage@vips@@@std@@@std@@PEAVVOption@2@@Z (public: static class vips::VImage __cdecl vips::VImage::arrayjoin(class std::vector<class vips::VImage,class std::allocator<class vips::VImage> >,class vips::VOption *))
      155    ?asin@VImage@vips@@QEAA?AV12@PEAVVOption@2@@Z (public: class vips::VImage __cdecl vips::VImage::asin(class vips::VOption *))
      156    ?atan@VImage@vips@@QEAA?AV12@PEAVVOption@2@@Z (public: class vips::VImage __cdecl vips::VImage::atan(class vips::VOption *))
      157    ?autorot@VImage@vips@@QEAA?AV12@PEAVVOption@2@@Z (public: class vips::VImage __cdecl vips::VImage::autorot(class vips::VOption *))
      158    ?avg@VImage@vips@@QEAANPEAVVOption@2@@Z (public: double __cdecl vips::VImage::avg(class vips::VOption *))
      159    ?bandbool@VImage@vips@@QEAA?AV12@W4VipsOperationBoolean@@PEAVVOption@2@@Z (public: class vips::VImage __cdecl vips::VImage::bandbool(enum VipsOperationBoolean,class vips::VOption *))
      160    ?bandfold@VImage@vips@@QEAA?AV12@PEAVVOption@2@@Z (public: class vips::VImage __cdecl vips::VImage::bandfold(class vips::VOption *))
      161    ?bandjoin@VImage@vips@@QEAA?AV12@NPEAVVOption@2@@Z (public: class vips::VImage __cdecl vips::VImage::bandjoin(double,class vips::VOption *))
      162    ?bandjoin@VImage@vips@@QEAA?AV12@V12@PEAVVOption@2@@Z (public: class vips::VImage __cdecl vips::VImage::bandjoin(class vips::VImage,class vips::VOption *))
      163    ?bandjoin@VImage@vips@@QEAA?AV12@V?$vector@NV?$allocator@N@std@@@std@@PEAVVOption@2@@Z (public: class vips::VImage __cdecl vips::VImage::bandjoin(class std::vector<double,class std::allocator<double> >,class vips::VOption *))
      164    ?bandjoin@VImage@vips@@SA?AV12@V?$vector@VVImage@vips@@V?$allocator@VVImage@vips@@@std@@@std@@PEAVVOption@2@@Z (public: static class vips::VImage __cdecl vips::VImage::bandjoin(class std::vector<class vips::VImage,class std::allocator<class vips::VImage> >,class vips::VOption *))
      165    ?bandjoin_const@VImage@vips@@QEAA?AV12@V?$vector@NV?$allocator@N@std@@@std@@PEAVVOption@2@@Z (public: class vips::VImage __cdecl vips::VImage::bandjoin_const(class std::vector<double,class std::allocator<double> >,class vips::VOption *))
      166    ?bandmean@VImage@vips@@QEAA?AV12@PEAVVOption@2@@Z (public: class vips::VImage __cdecl vips::VImage::bandmean(class vips::VOption *))
      167    ?bandrank@VImage@vips@@SA?AV12@V?$vector@VVImage@vips@@V?$allocator@VVImage@vips@@@std@@@std@@PEAVVOption@2@@Z (public: static class vips::VImage __cdecl vips::VImage::bandrank(class std::vector<class vips::VImage,class std::allocator<class vips::VImage> >,class vips::VOption *))
      168    ?bands@VImage@vips@@QEAAHXZ (public: int __cdecl vips::VImage::bands(void))
      169    ?bandsplit@VImage@vips@@QEAA?AV?$vector@VVImage@vips@@V?$allocator@VVImage@vips@@@std@@@std@@PEAVVOption@2@@Z (public: class std::vector<class vips::VImage,class std::allocator<class vips::VImage> > __cdecl vips::VImage::bandsplit(class vips::VOption *))
      170    ?bandunfold@VImage@vips@@QEAA?AV12@PEAVVOption@2@@Z (public: class vips::VImage __cdecl vips::VImage::bandunfold(class vips::VOption *))
      171    ?black@VImage@vips@@SA?AV12@HHPEAVVOption@2@@Z (public: static class vips::VImage __cdecl vips::VImage::black(int,int,class vips::VOption *))
      172    ?boolean@VImage@vips@@QEAA?AV12@V12@W4VipsOperationBoolean@@PEAVVOption@2@@Z (public: class vips::VImage __cdecl vips::VImage::boolean(class vips::VImage,enum VipsOperationBoolean,class vips::VOption *))
      173    ?boolean_const@VImage@vips@@QEAA?AV12@W4VipsOperationBoolean@@V?$vector@NV?$allocator@N@std@@@std@@PEAVVOption@2@@Z (public: class vips::VImage __cdecl vips::VImage::boolean_const(enum VipsOperationBoolean,class std::vector<double,class std::allocator<double> >,class vips::VOption *))
      174    ?buildlut@VImage@vips@@QEAA?AV12@PEAVVOption@2@@Z (public: class vips::VImage __cdecl vips::VImage::buildlut(class vips::VOption *))
      175    ?byteswap@VImage@vips@@QEAA?AV12@PEAVVOption@2@@Z (public: class vips::VImage __cdecl vips::VImage::byteswap(class vips::VOption *))
      176    ?cache@VImage@vips@@QEAA?AV12@PEAVVOption@2@@Z (public: class vips::VImage __cdecl vips::VImage::cache(class vips::VOption *))
      177    ?call@VImage@vips@@SAXPEBDPEAVVOption@2@@Z (public: static void __cdecl vips::VImage::call(char const *,class vips::VOption *))
      178    ?call_option_string@VImage@vips@@SAXPEBD0PEAVVOption@2@@Z (public: static void __cdecl vips::VImage::call_option_string(char const *,char const *,class vips::VOption *))
      179    ?cast@VImage@vips@@QEAA?AV12@W4VipsBandFormat@@PEAVVOption@2@@Z (public: class vips::VImage __cdecl vips::VImage::cast(enum VipsBandFormat,class vips::VOption *))
      180    ?ceil@VImage@vips@@QEAA?AV12@PEAVVOption@2@@Z (public: class vips::VImage __cdecl vips::VImage::ceil(class vips::VOption *))
      181    ?coding@VImage@vips@@QEAA?AW4VipsCoding@@XZ (public: enum VipsCoding __cdecl vips::VImage::coding(void))
      182    ?colourspace@VImage@vips@@QEAA?AV12@W4VipsInterpretation@@PEAVVOption@2@@Z (public: class vips::VImage __cdecl vips::VImage::colourspace(enum VipsInterpretation,class vips::VOption *))
      183    ?compass@VImage@vips@@QEAA?AV12@V12@PEAVVOption@2@@Z (public: class vips::VImage __cdecl vips::VImage::compass(class vips::VImage,class vips::VOption *))
      184    ?complex2@VImage@vips@@QEAA?AV12@V12@W4VipsOperationComplex2@@PEAVVOption@2@@Z (public: class vips::VImage __cdecl vips::VImage::complex2(class vips::VImage,enum VipsOperationComplex2,class vips::VOption *))
      185    ?complex@VImage@vips@@QEAA?AV12@W4VipsOperationComplex@@PEAVVOption@2@@Z (public: class vips::VImage __cdecl vips::VImage::complex(enum VipsOperationComplex,class vips::VOption *))
      186    ?complexform@VImage@vips@@QEAA?AV12@V12@PEAVVOption@2@@Z (public: class vips::VImage __cdecl vips::VImage::complexform(class vips::VImage,class vips::VOption *))
      187    ?complexget@VImage@vips@@QEAA?AV12@W4VipsOperationComplexget@@PEAVVOption@2@@Z (public: class vips::VImage __cdecl vips::VImage::complexget(enum VipsOperationComplexget,class vips::VOption *))
      188    ?conj@VImage@vips@@QEAA?AV12@PEAVVOption@2@@Z (public: class vips::VImage __cdecl vips::VImage::conj(class vips::VOption *))
      189    ?conv@VImage@vips@@QEAA?AV12@V12@PEAVVOption@2@@Z (public: class vips::VImage __cdecl vips::VImage::conv(class vips::VImage,class vips::VOption *))
      190    ?conva@VImage@vips@@QEAA?AV12@V12@PEAVVOption@2@@Z (public: class vips::VImage __cdecl vips::VImage::conva(class vips::VImage,class vips::VOption *))
      191    ?convasep@VImage@vips@@QEAA?AV12@V12@PEAVVOption@2@@Z (public: class vips::VImage __cdecl vips::VImage::convasep(class vips::VImage,class vips::VOption *))
      192    ?convf@VImage@vips@@QEAA?AV12@V12@PEAVVOption@2@@Z (public: class vips::VImage __cdecl vips::VImage::convf(class vips::VImage,class vips::VOption *))
      193    ?convi@VImage@vips@@QEAA?AV12@V12@PEAVVOption@2@@Z (public: class vips::VImage __cdecl vips::VImage::convi(class vips::VImage,class vips::VOption *))
      194    ?convsep@VImage@vips@@QEAA?AV12@V12@PEAVVOption@2@@Z (public: class vips::VImage __cdecl vips::VImage::convsep(class vips::VImage,class vips::VOption *))
      195    ?copy@VImage@vips@@QEAA?AV12@PEAVVOption@2@@Z (public: class vips::VImage __cdecl vips::VImage::copy(class vips::VOption *))
      196    ?cos@VImage@vips@@QEAA?AV12@PEAVVOption@2@@Z (public: class vips::VImage __cdecl vips::VImage::cos(class vips::VOption *))
      197    ?countlines@VImage@vips@@QEAANW4VipsDirection@@PEAVVOption@2@@Z (public: double __cdecl vips::VImage::countlines(enum VipsDirection,class vips::VOption *))
      198    ?csvload@VImage@vips@@SA?AV12@PEADPEAVVOption@2@@Z (public: static class vips::VImage __cdecl vips::VImage::csvload(char *,class vips::VOption *))
      199    ?csvsave@VImage@vips@@QEAAXPEADPEAVVOption@2@@Z (public: void __cdecl vips::VImage::csvsave(char *,class vips::VOption *))
      200    ?dE00@VImage@vips@@QEAA?AV12@V12@PEAVVOption@2@@Z (public: class vips::VImage __cdecl vips::VImage::dE00(class vips::VImage,class vips::VOption *))
      201    ?dE76@VImage@vips@@QEAA?AV12@V12@PEAVVOption@2@@Z (public: class vips::VImage __cdecl vips::VImage::dE76(class vips::VImage,class vips::VOption *))
      202    ?dECMC@VImage@vips@@QEAA?AV12@V12@PEAVVOption@2@@Z (public: class vips::VImage __cdecl vips::VImage::dECMC(class vips::VImage,class vips::VOption *))
      203    ?data@VImage@vips@@QEAAPEBXXZ (public: void const * __cdecl vips::VImage::data(void))
      204    ?deviate@VImage@vips@@QEAANPEAVVOption@2@@Z (public: double __cdecl vips::VImage::deviate(class vips::VOption *))
      205    ?dilate@VImage@vips@@QEAA?AV12@V12@PEAVVOption@2@@Z (public: class vips::VImage __cdecl vips::VImage::dilate(class vips::VImage,class vips::VOption *))
      206    ?divide@VImage@vips@@QEAA?AV12@V12@PEAVVOption@2@@Z (public: class vips::VImage __cdecl vips::VImage::divide(class vips::VImage,class vips::VOption *))
      207    ?draw_circle@VImage@vips@@QEAAXV?$vector@NV?$allocator@N@std@@@std@@HHHPEAVVOption@2@@Z (public: void __cdecl vips::VImage::draw_circle(class std::vector<double,class std::allocator<double> >,int,int,int,class vips::VOption *))
      208    ?draw_flood@VImage@vips@@QEAAXV?$vector@NV?$allocator@N@std@@@std@@HHPEAVVOption@2@@Z (public: void __cdecl vips::VImage::draw_flood(class std::vector<double,class std::allocator<double> >,int,int,class vips::VOption *))
      209    ?draw_image@VImage@vips@@QEAAXV12@HHPEAVVOption@2@@Z (public: void __cdecl vips::VImage::draw_image(class vips::VImage,int,int,class vips::VOption *))
      210    ?draw_line@VImage@vips@@QEAAXV?$vector@NV?$allocator@N@std@@@std@@HHHHPEAVVOption@2@@Z (public: void __cdecl vips::VImage::draw_line(class std::vector<double,class std::allocator<double> >,int,int,int,int,class vips::VOption *))
      211    ?draw_mask@VImage@vips@@QEAAXV?$vector@NV?$allocator@N@std@@@std@@V12@HHPEAVVOption@2@@Z (public: void __cdecl vips::VImage::draw_mask(class std::vector<double,class std::allocator<double> >,class vips::VImage,int,int,class vips::VOption *))
      212    ?draw_rect@VImage@vips@@QEAAXV?$vector@NV?$allocator@N@std@@@std@@HHHHPEAVVOption@2@@Z (public: void __cdecl vips::VImage::draw_rect(class std::vector<double,class std::allocator<double> >,int,int,int,int,class vips::VOption *))
      213    ?draw_smudge@VImage@vips@@QEAAXHHHHPEAVVOption@2@@Z (public: void __cdecl vips::VImage::draw_smudge(int,int,int,int,class vips::VOption *))
      214    ?dzsave@VImage@vips@@QEAAXPEADPEAVVOption@2@@Z (public: void __cdecl vips::VImage::dzsave(char *,class vips::VOption *))
      215    ?dzsave_buffer@VImage@vips@@QEAAPEAU_VipsBlob@@PEAVVOption@2@@Z (public: struct _VipsBlob * __cdecl vips::VImage::dzsave_buffer(class vips::VOption *))
      216    ?embed@VImage@vips@@QEAA?AV12@HHHHPEAVVOption@2@@Z (public: class vips::VImage __cdecl vips::VImage::embed(int,int,int,int,class vips::VOption *))
      217    ?erode@VImage@vips@@QEAA?AV12@V12@PEAVVOption@2@@Z (public: class vips::VImage __cdecl vips::VImage::erode(class vips::VImage,class vips::VOption *))
      218    ?exp10@VImage@vips@@QEAA?AV12@PEAVVOption@2@@Z (public: class vips::VImage __cdecl vips::VImage::exp10(class vips::VOption *))
      219    ?exp@VImage@vips@@QEAA?AV12@PEAVVOption@2@@Z (public: class vips::VImage __cdecl vips::VImage::exp(class vips::VOption *))
      220    ?extract_area@VImage@vips@@QEAA?AV12@HHHHPEAVVOption@2@@Z (public: class vips::VImage __cdecl vips::VImage::extract_area(int,int,int,int,class vips::VOption *))
      221    ?extract_band@VImage@vips@@QEAA?AV12@HPEAVVOption@2@@Z (public: class vips::VImage __cdecl vips::VImage::extract_band(int,class vips::VOption *))
      222    ?eye@VImage@vips@@SA?AV12@HHPEAVVOption@2@@Z (public: static class vips::VImage __cdecl vips::VImage::eye(int,int,class vips::VOption *))
      223    ?falsecolour@VImage@vips@@QEAA?AV12@PEAVVOption@2@@Z (public: class vips::VImage __cdecl vips::VImage::falsecolour(class vips::VOption *))
      224    ?fastcor@VImage@vips@@QEAA?AV12@V12@PEAVVOption@2@@Z (public: class vips::VImage __cdecl vips::VImage::fastcor(class vips::VImage,class vips::VOption *))
      225    ?filename@VImage@vips@@QEAAPEBDXZ (public: char const * __cdecl vips::VImage::filename(void))
      226    ?fitsload@VImage@vips@@SA?AV12@PEADPEAVVOption@2@@Z (public: static class vips::VImage __cdecl vips::VImage::fitsload(char *,class vips::VOption *))
      227    ?fitssave@VImage@vips@@QEAAXPEADPEAVVOption@2@@Z (public: void __cdecl vips::VImage::fitssave(char *,class vips::VOption *))
      228    ?flatten@VImage@vips@@QEAA?AV12@PEAVVOption@2@@Z (public: class vips::VImage __cdecl vips::VImage::flatten(class vips::VOption *))
      229    ?flip@VImage@vips@@QEAA?AV12@W4VipsDirection@@PEAVVOption@2@@Z (public: class vips::VImage __cdecl vips::VImage::flip(enum VipsDirection,class vips::VOption *))
      230    ?fliphor@VImage@vips@@QEAA?AV12@PEAVVOption@2@@Z (public: class vips::VImage __cdecl vips::VImage::fliphor(class vips::VOption *))
      231    ?flipver@VImage@vips@@QEAA?AV12@PEAVVOption@2@@Z (public: class vips::VImage __cdecl vips::VImage::flipver(class vips::VOption *))
      232    ?float2rad@VImage@vips@@QEAA?AV12@PEAVVOption@2@@Z (public: class vips::VImage __cdecl vips::VImage::float2rad(class vips::VOption *))
      233    ?floor@VImage@vips@@QEAA?AV12@PEAVVOption@2@@Z (public: class vips::VImage __cdecl vips::VImage::floor(class vips::VOption *))
      234    ?format@VImage@vips@@QEAA?AW4VipsBandFormat@@XZ (public: enum VipsBandFormat __cdecl vips::VImage::format(void))
      235    ?fractsurf@VImage@vips@@SA?AV12@HHNPEAVVOption@2@@Z (public: static class vips::VImage __cdecl vips::VImage::fractsurf(int,int,double,class vips::VOption *))
      236    ?freqmult@VImage@vips@@QEAA?AV12@V12@PEAVVOption@2@@Z (public: class vips::VImage __cdecl vips::VImage::freqmult(class vips::VImage,class vips::VOption *))
      237    ?fwfft@VImage@vips@@QEAA?AV12@PEAVVOption@2@@Z (public: class vips::VImage __cdecl vips::VImage::fwfft(class vips::VOption *))
      238    ?gamma@VImage@vips@@QEAA?AV12@PEAVVOption@2@@Z (public: class vips::VImage __cdecl vips::VImage::gamma(class vips::VOption *))
      239    ?gaussblur@VImage@vips@@QEAA?AV12@NPEAVVOption@2@@Z (public: class vips::VImage __cdecl vips::VImage::gaussblur(double,class vips::VOption *))
      240    ?gaussmat@VImage@vips@@SA?AV12@NNPEAVVOption@2@@Z (public: static class vips::VImage __cdecl vips::VImage::gaussmat(double,double,class vips::VOption *))
      241    ?gaussnoise@VImage@vips@@SA?AV12@HHPEAVVOption@2@@Z (public: static class vips::VImage __cdecl vips::VImage::gaussnoise(int,int,class vips::VOption *))
      242    ?get_blob@VImage@vips@@QEAAPEBXPEBDPEA_K@Z (public: void const * __cdecl vips::VImage::get_blob(char const *,unsigned __int64 *))
      243    ?get_double@VImage@vips@@QEAANPEBD@Z (public: double __cdecl vips::VImage::get_double(char const *))
      244    ?get_image@VImage@vips@@QEAAPEAU_VipsImage@@XZ (public: struct _VipsImage * __cdecl vips::VImage::get_image(void))
      245    ?get_int@VImage@vips@@QEAAHPEBD@Z (public: int __cdecl vips::VImage::get_int(char const *))
      246    ?get_interpolate@VInterpolate@vips@@QEAAPEAU_VipsInterpolate@@XZ (public: struct _VipsInterpolate * __cdecl vips::VInterpolate::get_interpolate(void))
      247    ?get_operation@VOption@vips@@QEAAXPEAU_VipsOperation@@@Z (public: void __cdecl vips::VOption::get_operation(struct _VipsOperation *))
      248    ?get_string@VImage@vips@@QEAAPEBDPEBD@Z (public: char const * __cdecl vips::VImage::get_string(char const *))
      249    ?get_typeof@VImage@vips@@QEAA_KPEBD@Z (public: unsigned __int64 __cdecl vips::VImage::get_typeof(char const *))
      250    ?getpoint@VImage@vips@@QEAA?AV?$vector@NV?$allocator@N@std@@@std@@HHPEAVVOption@2@@Z (public: class std::vector<double,class std::allocator<double> > __cdecl vips::VImage::getpoint(int,int,class vips::VOption *))
      251    ?gifload@VImage@vips@@SA?AV12@PEADPEAVVOption@2@@Z (public: static class vips::VImage __cdecl vips::VImage::gifload(char *,class vips::VOption *))
      252    ?gifload_buffer@VImage@vips@@SA?AV12@PEAU_VipsBlob@@PEAVVOption@2@@Z (public: static class vips::VImage __cdecl vips::VImage::gifload_buffer(struct _VipsBlob *,class vips::VOption *))
      253    ?globalbalance@VImage@vips@@QEAA?AV12@PEAVVOption@2@@Z (public: class vips::VImage __cdecl vips::VImage::globalbalance(class vips::VOption *))
      254    ?grey@VImage@vips@@SA?AV12@HHPEAVVOption@2@@Z (public: static class vips::VImage __cdecl vips::VImage::grey(int,int,class vips::VOption *))
      255    ?grid@VImage@vips@@QEAA?AV12@HHHPEAVVOption@2@@Z (public: class vips::VImage __cdecl vips::VImage::grid(int,int,int,class vips::VOption *))
      256    ?guess_interpretation@VImage@vips@@QEAA?AW4VipsInterpretation@@XZ (public: enum VipsInterpretation __cdecl vips::VImage::guess_interpretation(void))
      257    ?height@VImage@vips@@QEAAHXZ (public: int __cdecl vips::VImage::height(void))
      258    ?hist_cum@VImage@vips@@QEAA?AV12@PEAVVOption@2@@Z (public: class vips::VImage __cdecl vips::VImage::hist_cum(class vips::VOption *))
      259    ?hist_entropy@VImage@vips@@QEAANPEAVVOption@2@@Z (public: double __cdecl vips::VImage::hist_entropy(class vips::VOption *))
      260    ?hist_equal@VImage@vips@@QEAA?AV12@PEAVVOption@2@@Z (public: class vips::VImage __cdecl vips::VImage::hist_equal(class vips::VOption *))
      261    ?hist_find@VImage@vips@@QEAA?AV12@PEAVVOption@2@@Z (public: class vips::VImage __cdecl vips::VImage::hist_find(class vips::VOption *))
      262    ?hist_find_indexed@VImage@vips@@QEAA?AV12@V12@PEAVVOption@2@@Z (public: class vips::VImage __cdecl vips::VImage::hist_find_indexed(class vips::VImage,class vips::VOption *))
      263    ?hist_find_ndim@VImage@vips@@QEAA?AV12@PEAVVOption@2@@Z (public: class vips::VImage __cdecl vips::VImage::hist_find_ndim(class vips::VOption *))
      264    ?hist_ismonotonic@VImage@vips@@QEAA_NPEAVVOption@2@@Z (public: bool __cdecl vips::VImage::hist_ismonotonic(class vips::VOption *))
      265    ?hist_local@VImage@vips@@QEAA?AV12@HHPEAVVOption@2@@Z (public: class vips::VImage __cdecl vips::VImage::hist_local(int,int,class vips::VOption *))
      266    ?hist_match@VImage@vips@@QEAA?AV12@V12@PEAVVOption@2@@Z (public: class vips::VImage __cdecl vips::VImage::hist_match(class vips::VImage,class vips::VOption *))
      267    ?hist_norm@VImage@vips@@QEAA?AV12@PEAVVOption@2@@Z (public: class vips::VImage __cdecl vips::VImage::hist_norm(class vips::VOption *))
      268    ?hist_plot@VImage@vips@@QEAA?AV12@PEAVVOption@2@@Z (public: class vips::VImage __cdecl vips::VImage::hist_plot(class vips::VOption *))
      269    ?hough_circle@VImage@vips@@QEAA?AV12@PEAVVOption@2@@Z (public: class vips::VImage __cdecl vips::VImage::hough_circle(class vips::VOption *))
      270    ?hough_line@VImage@vips@@QEAA?AV12@PEAVVOption@2@@Z (public: class vips::VImage __cdecl vips::VImage::hough_line(class vips::VOption *))
      271    ?icc_export@VImage@vips@@QEAA?AV12@PEAVVOption@2@@Z (public: class vips::VImage __cdecl vips::VImage::icc_export(class vips::VOption *))
      272    ?icc_import@VImage@vips@@QEAA?AV12@PEAVVOption@2@@Z (public: class vips::VImage __cdecl vips::VImage::icc_import(class vips::VOption *))
      273    ?icc_transform@VImage@vips@@QEAA?AV12@PEADPEAVVOption@2@@Z (public: class vips::VImage __cdecl vips::VImage::icc_transform(char *,class vips::VOption *))
      274    ?identity@VImage@vips@@SA?AV12@PEAVVOption@2@@Z (public: static class vips::VImage __cdecl vips::VImage::identity(class vips::VOption *))
      275    ?ifthenelse@VImage@vips@@QEAA?AV12@NNPEAVVOption@2@@Z (public: class vips::VImage __cdecl vips::VImage::ifthenelse(double,double,class vips::VOption *))
      276    ?ifthenelse@VImage@vips@@QEAA?AV12@NV12@PEAVVOption@2@@Z (public: class vips::VImage __cdecl vips::VImage::ifthenelse(double,class vips::VImage,class vips::VOption *))
      277    ?ifthenelse@VImage@vips@@QEAA?AV12@V12@0PEAVVOption@2@@Z (public: class vips::VImage __cdecl vips::VImage::ifthenelse(class vips::VImage,class vips::VImage,class vips::VOption *))
      278    ?ifthenelse@VImage@vips@@QEAA?AV12@V12@NPEAVVOption@2@@Z (public: class vips::VImage __cdecl vips::VImage::ifthenelse(class vips::VImage,double,class vips::VOption *))
      279    ?ifthenelse@VImage@vips@@QEAA?AV12@V12@V?$vector@NV?$allocator@N@std@@@std@@PEAVVOption@2@@Z (public: class vips::VImage __cdecl vips::VImage::ifthenelse(class vips::VImage,class std::vector<double,class std::allocator<double> >,class vips::VOption *))
      280    ?ifthenelse@VImage@vips@@QEAA?AV12@V?$vector@NV?$allocator@N@std@@@std@@0PEAVVOption@2@@Z (public: class vips::VImage __cdecl vips::VImage::ifthenelse(class std::vector<double,class std::allocator<double> >,class std::vector<double,class std::allocator<double> >,class vips::VOption *))
      281    ?ifthenelse@VImage@vips@@QEAA?AV12@V?$vector@NV?$allocator@N@std@@@std@@V12@PEAVVOption@2@@Z (public: class vips::VImage __cdecl vips::VImage::ifthenelse(class std::vector<double,class std::allocator<double> >,class vips::VImage,class vips::VOption *))
      282    ?imag@VImage@vips@@QEAA?AV12@PEAVVOption@2@@Z (public: class vips::VImage __cdecl vips::VImage::imag(class vips::VOption *))
      283    ?insert@VImage@vips@@QEAA?AV12@V12@HHPEAVVOption@2@@Z (public: class vips::VImage __cdecl vips::VImage::insert(class vips::VImage,int,int,class vips::VOption *))
      284    ?interpretation@VImage@vips@@QEAA?AW4VipsInterpretation@@XZ (public: enum VipsInterpretation __cdecl vips::VImage::interpretation(void))
      285    ?invert@VImage@vips@@QEAA?AV12@PEAVVOption@2@@Z (public: class vips::VImage __cdecl vips::VImage::invert(class vips::VOption *))
      286    ?invert@vips@@YA?AV?$vector@NV?$allocator@N@std@@@std@@V23@@Z (class std::vector<double,class std::allocator<double> > __cdecl vips::invert(class std::vector<double,class std::allocator<double> >))
      287    ?invertlut@VImage@vips@@QEAA?AV12@PEAVVOption@2@@Z (public: class vips::VImage __cdecl vips::VImage::invertlut(class vips::VOption *))
      288    ?invfft@VImage@vips@@QEAA?AV12@PEAVVOption@2@@Z (public: class vips::VImage __cdecl vips::VImage::invfft(class vips::VOption *))
      289    ?join@VImage@vips@@QEAA?AV12@V12@W4VipsDirection@@PEAVVOption@2@@Z (public: class vips::VImage __cdecl vips::VImage::join(class vips::VImage,enum VipsDirection,class vips::VOption *))
      290    ?jpegload@VImage@vips@@SA?AV12@PEADPEAVVOption@2@@Z (public: static class vips::VImage __cdecl vips::VImage::jpegload(char *,class vips::VOption *))
      291    ?jpegload_buffer@VImage@vips@@SA?AV12@PEAU_VipsBlob@@PEAVVOption@2@@Z (public: static class vips::VImage __cdecl vips::VImage::jpegload_buffer(struct _VipsBlob *,class vips::VOption *))
      292    ?jpegsave@VImage@vips@@QEAAXPEADPEAVVOption@2@@Z (public: void __cdecl vips::VImage::jpegsave(char *,class vips::VOption *))
      293    ?jpegsave_buffer@VImage@vips@@QEAAPEAU_VipsBlob@@PEAVVOption@2@@Z (public: struct _VipsBlob * __cdecl vips::VImage::jpegsave_buffer(class vips::VOption *))
      294    ?jpegsave_mime@VImage@vips@@QEAAXPEAVVOption@2@@Z (public: void __cdecl vips::VImage::jpegsave_mime(class vips::VOption *))
      295    ?labelregions@VImage@vips@@QEAA?AV12@PEAVVOption@2@@Z (public: class vips::VImage __cdecl vips::VImage::labelregions(class vips::VOption *))
      296    ?linear@VImage@vips@@QEAA?AV12@NNPEAVVOption@2@@Z (public: class vips::VImage __cdecl vips::VImage::linear(double,double,class vips::VOption *))
      297    ?linear@VImage@vips@@QEAA?AV12@NV?$vector@NV?$allocator@N@std@@@std@@PEAVVOption@2@@Z (public: class vips::VImage __cdecl vips::VImage::linear(double,class std::vector<double,class std::allocator<double> >,class vips::VOption *))
      298    ?linear@VImage@vips@@QEAA?AV12@V?$vector@NV?$allocator@N@std@@@std@@0PEAVVOption@2@@Z (public: class vips::VImage __cdecl vips::VImage::linear(class std::vector<double,class std::allocator<double> >,class std::vector<double,class std::allocator<double> >,class vips::VOption *))
      299    ?linear@VImage@vips@@QEAA?AV12@V?$vector@NV?$allocator@N@std@@@std@@NPEAVVOption@2@@Z (public: class vips::VImage __cdecl vips::VImage::linear(class std::vector<double,class std::allocator<double> >,double,class vips::VOption *))
      300    ?linecache@VImage@vips@@QEAA?AV12@PEAVVOption@2@@Z (public: class vips::VImage __cdecl vips::VImage::linecache(class vips::VOption *))
      301    ?log10@VImage@vips@@QEAA?AV12@PEAVVOption@2@@Z (public: class vips::VImage __cdecl vips::VImage::log10(class vips::VOption *))
      302    ?log@VImage@vips@@QEAA?AV12@PEAVVOption@2@@Z (public: class vips::VImage __cdecl vips::VImage::log(class vips::VOption *))
      303    ?logmat@VImage@vips@@SA?AV12@NNPEAVVOption@2@@Z (public: static class vips::VImage __cdecl vips::VImage::logmat(double,double,class vips::VOption *))
      304    ?magickload@VImage@vips@@SA?AV12@PEADPEAVVOption@2@@Z (public: static class vips::VImage __cdecl vips::VImage::magickload(char *,class vips::VOption *))
      305    ?magickload_buffer@VImage@vips@@SA?AV12@PEAU_VipsBlob@@PEAVVOption@2@@Z (public: static class vips::VImage __cdecl vips::VImage::magickload_buffer(struct _VipsBlob *,class vips::VOption *))
      306    ?mapim@VImage@vips@@QEAA?AV12@V12@PEAVVOption@2@@Z (public: class vips::VImage __cdecl vips::VImage::mapim(class vips::VImage,class vips::VOption *))
      307    ?maplut@VImage@vips@@QEAA?AV12@V12@PEAVVOption@2@@Z (public: class vips::VImage __cdecl vips::VImage::maplut(class vips::VImage,class vips::VOption *))
      308    ?mask_butterworth@VImage@vips@@SA?AV12@HHNNNPEAVVOption@2@@Z (public: static class vips::VImage __cdecl vips::VImage::mask_butterworth(int,int,double,double,double,class vips::VOption *))
      309    ?mask_butterworth_band@VImage@vips@@SA?AV12@HHNNNNNPEAVVOption@2@@Z (public: static class vips::VImage __cdecl vips::VImage::mask_butterworth_band(int,int,double,double,double,double,double,class vips::VOption *))
      310    ?mask_butterworth_ring@VImage@vips@@SA?AV12@HHNNNNPEAVVOption@2@@Z (public: static class vips::VImage __cdecl vips::VImage::mask_butterworth_ring(int,int,double,double,double,double,class vips::VOption *))
      311    ?mask_fractal@VImage@vips@@SA?AV12@HHNPEAVVOption@2@@Z (public: static class vips::VImage __cdecl vips::VImage::mask_fractal(int,int,double,class vips::VOption *))
      312    ?mask_gaussian@VImage@vips@@SA?AV12@HHNNPEAVVOption@2@@Z (public: static class vips::VImage __cdecl vips::VImage::mask_gaussian(int,int,double,double,class vips::VOption *))
      313    ?mask_gaussian_band@VImage@vips@@SA?AV12@HHNNNNPEAVVOption@2@@Z (public: static class vips::VImage __cdecl vips::VImage::mask_gaussian_band(int,int,double,double,double,double,class vips::VOption *))
      314    ?mask_gaussian_ring@VImage@vips@@SA?AV12@HHNNNPEAVVOption@2@@Z (public: static class vips::VImage __cdecl vips::VImage::mask_gaussian_ring(int,int,double,double,double,class vips::VOption *))
      315    ?mask_ideal@VImage@vips@@SA?AV12@HHNPEAVVOption@2@@Z (public: static class vips::VImage __cdecl vips::VImage::mask_ideal(int,int,double,class vips::VOption *))
      316    ?mask_ideal_band@VImage@vips@@SA?AV12@HHNNNPEAVVOption@2@@Z (public: static class vips::VImage __cdecl vips::VImage::mask_ideal_band(int,int,double,double,double,class vips::VOption *))
      317    ?mask_ideal_ring@VImage@vips@@SA?AV12@HHNNPEAVVOption@2@@Z (public: static class vips::VImage __cdecl vips::VImage::mask_ideal_ring(int,int,double,double,class vips::VOption *))
      318    ?match@VImage@vips@@QEAA?AV12@V12@HHHHHHHHPEAVVOption@2@@Z (public: class vips::VImage __cdecl vips::VImage::match(class vips::VImage,int,int,int,int,int,int,int,int,class vips::VOption *))
      319    ?math2@VImage@vips@@QEAA?AV12@V12@W4VipsOperationMath2@@PEAVVOption@2@@Z (public: class vips::VImage __cdecl vips::VImage::math2(class vips::VImage,enum VipsOperationMath2,class vips::VOption *))
      320    ?math2_const@VImage@vips@@QEAA?AV12@W4VipsOperationMath2@@V?$vector@NV?$allocator@N@std@@@std@@PEAVVOption@2@@Z (public: class vips::VImage __cdecl vips::VImage::math2_const(enum VipsOperationMath2,class std::vector<double,class std::allocator<double> >,class vips::VOption *))
      321    ?math@VImage@vips@@QEAA?AV12@W4VipsOperationMath@@PEAVVOption@2@@Z (public: class vips::VImage __cdecl vips::VImage::math(enum VipsOperationMath,class vips::VOption *))
      322    ?matload@VImage@vips@@SA?AV12@PEADPEAVVOption@2@@Z (public: static class vips::VImage __cdecl vips::VImage::matload(char *,class vips::VOption *))
      323    ?matrixload@VImage@vips@@SA?AV12@PEADPEAVVOption@2@@Z (public: static class vips::VImage __cdecl vips::VImage::matrixload(char *,class vips::VOption *))
      324    ?matrixprint@VImage@vips@@QEAAXPEAVVOption@2@@Z (public: void __cdecl vips::VImage::matrixprint(class vips::VOption *))
      325    ?matrixsave@VImage@vips@@QEAAXPEADPEAVVOption@2@@Z (public: void __cdecl vips::VImage::matrixsave(char *,class vips::VOption *))
      326    ?max@VImage@vips@@QEAANPEAVVOption@2@@Z (public: double __cdecl vips::VImage::max(class vips::VOption *))
      327    ?maxpos@VImage@vips@@QEAA?AV?$complex@N@std@@PEAVVOption@2@@Z (public: class std::complex<double> __cdecl vips::VImage::maxpos(class vips::VOption *))
      328    ?measure@VImage@vips@@QEAA?AV12@HHPEAVVOption@2@@Z (public: class vips::VImage __cdecl vips::VImage::measure(int,int,class vips::VOption *))
      329    ?median@VImage@vips@@QEAA?AV12@HPEAVVOption@2@@Z (public: class vips::VImage __cdecl vips::VImage::median(int,class vips::VOption *))
      330    ?merge@VImage@vips@@QEAA?AV12@V12@W4VipsDirection@@HHPEAVVOption@2@@Z (public: class vips::VImage __cdecl vips::VImage::merge(class vips::VImage,enum VipsDirection,int,int,class vips::VOption *))
      331    ?min@VImage@vips@@QEAANPEAVVOption@2@@Z (public: double __cdecl vips::VImage::min(class vips::VOption *))
      332    ?minpos@VImage@vips@@QEAA?AV?$complex@N@std@@PEAVVOption@2@@Z (public: class std::complex<double> __cdecl vips::VImage::minpos(class vips::VOption *))
      333    ?morph@VImage@vips@@QEAA?AV12@V12@W4VipsOperationMorphology@@PEAVVOption@2@@Z (public: class vips::VImage __cdecl vips::VImage::morph(class vips::VImage,enum VipsOperationMorphology,class vips::VOption *))
      334    ?mosaic1@VImage@vips@@QEAA?AV12@V12@W4VipsDirection@@HHHHHHHHPEAVVOption@2@@Z (public: class vips::VImage __cdecl vips::VImage::mosaic1(class vips::VImage,enum VipsDirection,int,int,int,int,int,int,int,int,class vips::VOption *))
      335    ?mosaic@VImage@vips@@QEAA?AV12@V12@W4VipsDirection@@HHHHPEAVVOption@2@@Z (public: class vips::VImage __cdecl vips::VImage::mosaic(class vips::VImage,enum VipsDirection,int,int,int,int,class vips::VOption *))
      336    ?msb@VImage@vips@@QEAA?AV12@PEAVVOption@2@@Z (public: class vips::VImage __cdecl vips::VImage::msb(class vips::VOption *))
      337    ?multiply@VImage@vips@@QEAA?AV12@V12@PEAVVOption@2@@Z (public: class vips::VImage __cdecl vips::VImage::multiply(class vips::VImage,class vips::VOption *))
      338    ?negate@vips@@YA?AV?$vector@NV?$allocator@N@std@@@std@@V23@@Z (class std::vector<double,class std::allocator<double> > __cdecl vips::negate(class std::vector<double,class std::allocator<double> >))
      339    ?new_from_buffer@VImage@vips@@SA?AV12@PEAX_KPEBDPEAVVOption@2@@Z (public: static class vips::VImage __cdecl vips::VImage::new_from_buffer(void *,unsigned __int64,char const *,class vips::VOption *))
      340    ?new_from_file@VImage@vips@@SA?AV12@PEBDPEAVVOption@2@@Z (public: static class vips::VImage __cdecl vips::VImage::new_from_file(char const *,class vips::VOption *))
      341    ?new_from_image@VImage@vips@@QEAA?AV12@N@Z (public: class vips::VImage __cdecl vips::VImage::new_from_image(double))
      342    ?new_from_image@VImage@vips@@QEAA?AV12@V?$vector@NV?$allocator@N@std@@@std@@@Z (public: class vips::VImage __cdecl vips::VImage::new_from_image(class std::vector<double,class std::allocator<double> >))
      343    ?new_from_memory@VImage@vips@@SA?AV12@PEAX_KHHHW4VipsBandFormat@@@Z (public: static class vips::VImage __cdecl vips::VImage::new_from_memory(void *,unsigned __int64,int,int,int,enum VipsBandFormat))
      344    ?new_from_name@VInterpolate@vips@@SA?AV12@PEBDPEAVVOption@2@@Z (public: static class vips::VInterpolate __cdecl vips::VInterpolate::new_from_name(char const *,class vips::VOption *))
      345    ?new_matrix@VImage@vips@@SA?AV12@HH@Z (public: static class vips::VImage __cdecl vips::VImage::new_matrix(int,int))
      346    ?new_matrix@VImage@vips@@SA?AV12@HHPEANH@Z (public: static class vips::VImage __cdecl vips::VImage::new_matrix(int,int,double *,int))
      347    ?new_matrixv@VImage@vips@@SA?AV12@HHZZ (public: static class vips::VImage __cdecl vips::VImage::new_matrixv(int,int,...))
      348    ?new_memory@VImage@vips@@SA?AV12@XZ (public: static class vips::VImage __cdecl vips::VImage::new_memory(void))
      349    ?new_temp_file@VImage@vips@@SA?AV12@PEBD@Z (public: static class vips::VImage __cdecl vips::VImage::new_temp_file(char const *))
      350    ?openexrload@VImage@vips@@SA?AV12@PEADPEAVVOption@2@@Z (public: static class vips::VImage __cdecl vips::VImage::openexrload(char *,class vips::VOption *))
      351    ?openslideload@VImage@vips@@SA?AV12@PEADPEAVVOption@2@@Z (public: static class vips::VImage __cdecl vips::VImage::openslideload(char *,class vips::VOption *))
      352    ?option@VImage@vips@@SAPEAVVOption@2@XZ (public: static class vips::VOption * __cdecl vips::VImage::option(void))
      353    ?ostream_print@VError@vips@@QEBAXAEAV?$basic_ostream@DU?$char_traits@D@std@@@std@@@Z (public: void __cdecl vips::VError::ostream_print(class std::basic_ostream<char,struct std::char_traits<char> > &)const )
      354    ?pdfload@VImage@vips@@SA?AV12@PEADPEAVVOption@2@@Z (public: static class vips::VImage __cdecl vips::VImage::pdfload(char *,class vips::VOption *))
      355    ?pdfload_buffer@VImage@vips@@SA?AV12@PEAU_VipsBlob@@PEAVVOption@2@@Z (public: static class vips::VImage __cdecl vips::VImage::pdfload_buffer(struct _VipsBlob *,class vips::VOption *))
      356    ?percent@VImage@vips@@QEAAHNPEAVVOption@2@@Z (public: int __cdecl vips::VImage::percent(double,class vips::VOption *))
      357    ?perlin@VImage@vips@@SA?AV12@HHPEAVVOption@2@@Z (public: static class vips::VImage __cdecl vips::VImage::perlin(int,int,class vips::VOption *))
      358    ?phasecor@VImage@vips@@QEAA?AV12@V12@PEAVVOption@2@@Z (public: class vips::VImage __cdecl vips::VImage::phasecor(class vips::VImage,class vips::VOption *))
      359    ?pngload@VImage@vips@@SA?AV12@PEADPEAVVOption@2@@Z (public: static class vips::VImage __cdecl vips::VImage::pngload(char *,class vips::VOption *))
      360    ?pngload_buffer@VImage@vips@@SA?AV12@PEAU_VipsBlob@@PEAVVOption@2@@Z (public: static class vips::VImage __cdecl vips::VImage::pngload_buffer(struct _VipsBlob *,class vips::VOption *))
      361    ?pngsave@VImage@vips@@QEAAXPEADPEAVVOption@2@@Z (public: void __cdecl vips::VImage::pngsave(char *,class vips::VOption *))
      362    ?pngsave_buffer@VImage@vips@@QEAAPEAU_VipsBlob@@PEAVVOption@2@@Z (public: struct _VipsBlob * __cdecl vips::VImage::pngsave_buffer(class vips::VOption *))
      363    ?polar@VImage@vips@@QEAA?AV12@PEAVVOption@2@@Z (public: class vips::VImage __cdecl vips::VImage::polar(class vips::VOption *))
      364    ?pow@VImage@vips@@QEAA?AV12@NPEAVVOption@2@@Z (public: class vips::VImage __cdecl vips::VImage::pow(double,class vips::VOption *))
      365    ?pow@VImage@vips@@QEAA?AV12@V12@PEAVVOption@2@@Z (public: class vips::VImage __cdecl vips::VImage::pow(class vips::VImage,class vips::VOption *))
      366    ?pow@VImage@vips@@QEAA?AV12@V?$vector@NV?$allocator@N@std@@@std@@PEAVVOption@2@@Z (public: class vips::VImage __cdecl vips::VImage::pow(class std::vector<double,class std::allocator<double> >,class vips::VOption *))
      367    ?ppmload@VImage@vips@@SA?AV12@PEADPEAVVOption@2@@Z (public: static class vips::VImage __cdecl vips::VImage::ppmload(char *,class vips::VOption *))
      368    ?ppmsave@VImage@vips@@QEAAXPEADPEAVVOption@2@@Z (public: void __cdecl vips::VImage::ppmsave(char *,class vips::VOption *))
      369    ?premultiply@VImage@vips@@QEAA?AV12@PEAVVOption@2@@Z (public: class vips::VImage __cdecl vips::VImage::premultiply(class vips::VOption *))
      370    ?profile@VImage@vips@@QEAA?AV12@PEAV12@PEAVVOption@2@@Z (public: class vips::VImage __cdecl vips::VImage::profile(class vips::VImage *,class vips::VOption *))
      371    ?project@VImage@vips@@QEAA?AV12@PEAV12@PEAVVOption@2@@Z (public: class vips::VImage __cdecl vips::VImage::project(class vips::VImage *,class vips::VOption *))
      372    ?quadratic@VImage@vips@@QEAA?AV12@V12@PEAVVOption@2@@Z (public: class vips::VImage __cdecl vips::VImage::quadratic(class vips::VImage,class vips::VOption *))
      373    ?rad2float@VImage@vips@@QEAA?AV12@PEAVVOption@2@@Z (public: class vips::VImage __cdecl vips::VImage::rad2float(class vips::VOption *))
      374    ?radload@VImage@vips@@SA?AV12@PEADPEAVVOption@2@@Z (public: static class vips::VImage __cdecl vips::VImage::radload(char *,class vips::VOption *))
      375    ?radsave@VImage@vips@@QEAAXPEADPEAVVOption@2@@Z (public: void __cdecl vips::VImage::radsave(char *,class vips::VOption *))
      376    ?radsave_buffer@VImage@vips@@QEAAPEAU_VipsBlob@@PEAVVOption@2@@Z (public: struct _VipsBlob * __cdecl vips::VImage::radsave_buffer(class vips::VOption *))
      377    ?rank@VImage@vips@@QEAA?AV12@HHHPEAVVOption@2@@Z (public: class vips::VImage __cdecl vips::VImage::rank(int,int,int,class vips::VOption *))
      378    ?rawload@VImage@vips@@SA?AV12@PEADHHHPEAVVOption@2@@Z (public: static class vips::VImage __cdecl vips::VImage::rawload(char *,int,int,int,class vips::VOption *))
      379    ?rawsave@VImage@vips@@QEAAXPEADPEAVVOption@2@@Z (public: void __cdecl vips::VImage::rawsave(char *,class vips::VOption *))
      380    ?rawsave_fd@VImage@vips@@QEAAXHPEAVVOption@2@@Z (public: void __cdecl vips::VImage::rawsave_fd(int,class vips::VOption *))
      381    ?real@VImage@vips@@QEAA?AV12@PEAVVOption@2@@Z (public: class vips::VImage __cdecl vips::VImage::real(class vips::VOption *))
      382    ?recomb@VImage@vips@@QEAA?AV12@V12@PEAVVOption@2@@Z (public: class vips::VImage __cdecl vips::VImage::recomb(class vips::VImage,class vips::VOption *))
      383    ?rect@VImage@vips@@QEAA?AV12@PEAVVOption@2@@Z (public: class vips::VImage __cdecl vips::VImage::rect(class vips::VOption *))
      384    ?reduce@VImage@vips@@QEAA?AV12@NNPEAVVOption@2@@Z (public: class vips::VImage __cdecl vips::VImage::reduce(double,double,class vips::VOption *))
      385    ?reduceh@VImage@vips@@QEAA?AV12@NPEAVVOption@2@@Z (public: class vips::VImage __cdecl vips::VImage::reduceh(double,class vips::VOption *))
      386    ?reducev@VImage@vips@@QEAA?AV12@NPEAVVOption@2@@Z (public: class vips::VImage __cdecl vips::VImage::reducev(double,class vips::VOption *))
      387    ?relational@VImage@vips@@QEAA?AV12@V12@W4VipsOperationRelational@@PEAVVOption@2@@Z (public: class vips::VImage __cdecl vips::VImage::relational(class vips::VImage,enum VipsOperationRelational,class vips::VOption *))
      388    ?relational_const@VImage@vips@@QEAA?AV12@W4VipsOperationRelational@@V?$vector@NV?$allocator@N@std@@@std@@PEAVVOption@2@@Z (public: class vips::VImage __cdecl vips::VImage::relational_const(enum VipsOperationRelational,class std::vector<double,class std::allocator<double> >,class vips::VOption *))
      389    ?remainder@VImage@vips@@QEAA?AV12@V12@PEAVVOption@2@@Z (public: class vips::VImage __cdecl vips::VImage::remainder(class vips::VImage,class vips::VOption *))
      390    ?remainder_const@VImage@vips@@QEAA?AV12@V?$vector@NV?$allocator@N@std@@@std@@PEAVVOption@2@@Z (public: class vips::VImage __cdecl vips::VImage::remainder_const(class std::vector<double,class std::allocator<double> >,class vips::VOption *))
      391    ?replicate@VImage@vips@@QEAA?AV12@HHPEAVVOption@2@@Z (public: class vips::VImage __cdecl vips::VImage::replicate(int,int,class vips::VOption *))
      392    ?resize@VImage@vips@@QEAA?AV12@NPEAVVOption@2@@Z (public: class vips::VImage __cdecl vips::VImage::resize(double,class vips::VOption *))
      393    ?rint@VImage@vips@@QEAA?AV12@PEAVVOption@2@@Z (public: class vips::VImage __cdecl vips::VImage::rint(class vips::VOption *))
      394    ?rot180@VImage@vips@@QEAA?AV12@PEAVVOption@2@@Z (public: class vips::VImage __cdecl vips::VImage::rot180(class vips::VOption *))
      395    ?rot270@VImage@vips@@QEAA?AV12@PEAVVOption@2@@Z (public: class vips::VImage __cdecl vips::VImage::rot270(class vips::VOption *))
      396    ?rot45@VImage@vips@@QEAA?AV12@PEAVVOption@2@@Z (public: class vips::VImage __cdecl vips::VImage::rot45(class vips::VOption *))
      397    ?rot90@VImage@vips@@QEAA?AV12@PEAVVOption@2@@Z (public: class vips::VImage __cdecl vips::VImage::rot90(class vips::VOption *))
      398    ?rot@VImage@vips@@QEAA?AV12@W4VipsAngle@@PEAVVOption@2@@Z (public: class vips::VImage __cdecl vips::VImage::rot(enum VipsAngle,class vips::VOption *))
      399    ?round@VImage@vips@@QEAA?AV12@W4VipsOperationRound@@PEAVVOption@2@@Z (public: class vips::VImage __cdecl vips::VImage::round(enum VipsOperationRound,class vips::VOption *))
      400    ?sRGB2HSV@VImage@vips@@QEAA?AV12@PEAVVOption@2@@Z (public: class vips::VImage __cdecl vips::VImage::sRGB2HSV(class vips::VOption *))
      401    ?sRGB2scRGB@VImage@vips@@QEAA?AV12@PEAVVOption@2@@Z (public: class vips::VImage __cdecl vips::VImage::sRGB2scRGB(class vips::VOption *))
      402    ?scRGB2BW@VImage@vips@@QEAA?AV12@PEAVVOption@2@@Z (public: class vips::VImage __cdecl vips::VImage::scRGB2BW(class vips::VOption *))
      403    ?scRGB2XYZ@VImage@vips@@QEAA?AV12@PEAVVOption@2@@Z (public: class vips::VImage __cdecl vips::VImage::scRGB2XYZ(class vips::VOption *))
      404    ?scRGB2sRGB@VImage@vips@@QEAA?AV12@PEAVVOption@2@@Z (public: class vips::VImage __cdecl vips::VImage::scRGB2sRGB(class vips::VOption *))
      405    ?scale@VImage@vips@@QEAA?AV12@PEAVVOption@2@@Z (public: class vips::VImage __cdecl vips::VImage::scale(class vips::VOption *))
      406    ?sequential@VImage@vips@@QEAA?AV12@PEAVVOption@2@@Z (public: class vips::VImage __cdecl vips::VImage::sequential(class vips::VOption *))
      407    ?set@VImage@vips@@QEAAXPEBD0@Z (public: void __cdecl vips::VImage::set(char const *,char const *))
      408    ?set@VImage@vips@@QEAAXPEBDH@Z (public: void __cdecl vips::VImage::set(char const *,int))
      409    ?set@VImage@vips@@QEAAXPEBDN@Z (public: void __cdecl vips::VImage::set(char const *,double))
      410    ?set@VImage@vips@@QEAAXPEBDP6AHPEAX1@Z1_K@Z (public: void __cdecl vips::VImage::set(char const *,int (__cdecl*)(void *,void *),void *,unsigned __int64))
      411    ?set@VOption@vips@@QEAAPEAV12@PEBD0@Z (public: class vips::VOption * __cdecl vips::VOption::set(char const *,char const *))
      412    ?set@VOption@vips@@QEAAPEAV12@PEBDH@Z (public: class vips::VOption * __cdecl vips::VOption::set(char const *,int))
      413    ?set@VOption@vips@@QEAAPEAV12@PEBDN@Z (public: class vips::VOption * __cdecl vips::VOption::set(char const *,double))
      414    ?set@VOption@vips@@QEAAPEAV12@PEBDPEAH@Z (public: class vips::VOption * __cdecl vips::VOption::set(char const *,int *))
      415    ?set@VOption@vips@@QEAAPEAV12@PEBDPEAN@Z (public: class vips::VOption * __cdecl vips::VOption::set(char const *,double *))
      416    ?set@VOption@vips@@QEAAPEAV12@PEBDPEAPEAU_VipsBlob@@@Z (public: class vips::VOption * __cdecl vips::VOption::set(char const *,struct _VipsBlob * *))
      417    ?set@VOption@vips@@QEAAPEAV12@PEBDPEAU_VipsBlob@@@Z (public: class vips::VOption * __cdecl vips::VOption::set(char const *,struct _VipsBlob *))
      418    ?set@VOption@vips@@QEAAPEAV12@PEBDPEAV?$vector@NV?$allocator@N@std@@@std@@@Z (public: class vips::VOption * __cdecl vips::VOption::set(char const *,class std::vector<double,class std::allocator<double> > *))
      419    ?set@VOption@vips@@QEAAPEAV12@PEBDPEAVVImage@2@@Z (public: class vips::VOption * __cdecl vips::VOption::set(char const *,class vips::VImage *))
      420    ?set@VOption@vips@@QEAAPEAV12@PEBDPEA_N@Z (public: class vips::VOption * __cdecl vips::VOption::set(char const *,bool *))
      421    ?set@VOption@vips@@QEAAPEAV12@PEBDV?$vector@NV?$allocator@N@std@@@std@@@Z (public: class vips::VOption * __cdecl vips::VOption::set(char const *,class std::vector<double,class std::allocator<double> >))
      422    ?set@VOption@vips@@QEAAPEAV12@PEBDV?$vector@VVImage@vips@@V?$allocator@VVImage@vips@@@std@@@std@@@Z (public: class vips::VOption * __cdecl vips::VOption::set(char const *,class std::vector<class vips::VImage,class std::allocator<class vips::VImage> >))
      423    ?set@VOption@vips@@QEAAPEAV12@PEBDVVImage@2@@Z (public: class vips::VOption * __cdecl vips::VOption::set(char const *,class vips::VImage))
      424    ?set@VOption@vips@@QEAAPEAV12@PEBDVVInterpolate@2@@Z (public: class vips::VOption * __cdecl vips::VOption::set(char const *,class vips::VInterpolate))
      425    ?set@VOption@vips@@QEAAPEAV12@PEBD_N@Z (public: class vips::VOption * __cdecl vips::VOption::set(char const *,bool))
      426    ?set_operation@VOption@vips@@QEAAXPEAU_VipsOperation@@@Z (public: void __cdecl vips::VOption::set_operation(struct _VipsOperation *))
      427    ?sharpen@VImage@vips@@QEAA?AV12@PEAVVOption@2@@Z (public: class vips::VImage __cdecl vips::VImage::sharpen(class vips::VOption *))
      428    ?shrink@VImage@vips@@QEAA?AV12@NNPEAVVOption@2@@Z (public: class vips::VImage __cdecl vips::VImage::shrink(double,double,class vips::VOption *))
      429    ?shrinkh@VImage@vips@@QEAA?AV12@HPEAVVOption@2@@Z (public: class vips::VImage __cdecl vips::VImage::shrinkh(int,class vips::VOption *))
      430    ?shrinkv@VImage@vips@@QEAA?AV12@HPEAVVOption@2@@Z (public: class vips::VImage __cdecl vips::VImage::shrinkv(int,class vips::VOption *))
      431    ?sign@VImage@vips@@QEAA?AV12@PEAVVOption@2@@Z (public: class vips::VImage __cdecl vips::VImage::sign(class vips::VOption *))
      432    ?similarity@VImage@vips@@QEAA?AV12@PEAVVOption@2@@Z (public: class vips::VImage __cdecl vips::VImage::similarity(class vips::VOption *))
      433    ?sin@VImage@vips@@QEAA?AV12@PEAVVOption@2@@Z (public: class vips::VImage __cdecl vips::VImage::sin(class vips::VOption *))
      434    ?sines@VImage@vips@@SA?AV12@HHPEAVVOption@2@@Z (public: static class vips::VImage __cdecl vips::VImage::sines(int,int,class vips::VOption *))
      435    ?smartcrop@VImage@vips@@QEAA?AV12@HHPEAVVOption@2@@Z (public: class vips::VImage __cdecl vips::VImage::smartcrop(int,int,class vips::VOption *))
      436    ?spcor@VImage@vips@@QEAA?AV12@V12@PEAVVOption@2@@Z (public: class vips::VImage __cdecl vips::VImage::spcor(class vips::VImage,class vips::VOption *))
      437    ?spectrum@VImage@vips@@QEAA?AV12@PEAVVOption@2@@Z (public: class vips::VImage __cdecl vips::VImage::spectrum(class vips::VOption *))
      438    ?stats@VImage@vips@@QEAA?AV12@PEAVVOption@2@@Z (public: class vips::VImage __cdecl vips::VImage::stats(class vips::VOption *))
      439    ?stdif@VImage@vips@@QEAA?AV12@HHPEAVVOption@2@@Z (public: class vips::VImage __cdecl vips::VImage::stdif(int,int,class vips::VOption *))
      440    ?subsample@VImage@vips@@QEAA?AV12@HHPEAVVOption@2@@Z (public: class vips::VImage __cdecl vips::VImage::subsample(int,int,class vips::VOption *))
      441    ?subtract@VImage@vips@@QEAA?AV12@V12@PEAVVOption@2@@Z (public: class vips::VImage __cdecl vips::VImage::subtract(class vips::VImage,class vips::VOption *))
      442    ?sum@VImage@vips@@SA?AV12@V?$vector@VVImage@vips@@V?$allocator@VVImage@vips@@@std@@@std@@PEAVVOption@2@@Z (public: static class vips::VImage __cdecl vips::VImage::sum(class std::vector<class vips::VImage,class std::allocator<class vips::VImage> >,class vips::VOption *))
      443    ?svgload@VImage@vips@@SA?AV12@PEADPEAVVOption@2@@Z (public: static class vips::VImage __cdecl vips::VImage::svgload(char *,class vips::VOption *))
      444    ?svgload_buffer@VImage@vips@@SA?AV12@PEAU_VipsBlob@@PEAVVOption@2@@Z (public: static class vips::VImage __cdecl vips::VImage::svgload_buffer(struct _VipsBlob *,class vips::VOption *))
      445    ?system@VImage@vips@@SAXPEADPEAVVOption@2@@Z (public: static void __cdecl vips::VImage::system(char *,class vips::VOption *))
      446    ?tan@VImage@vips@@QEAA?AV12@PEAVVOption@2@@Z (public: class vips::VImage __cdecl vips::VImage::tan(class vips::VOption *))
      447    ?text@VImage@vips@@SA?AV12@PEADPEAVVOption@2@@Z (public: static class vips::VImage __cdecl vips::VImage::text(char *,class vips::VOption *))
      448    ?thumbnail@VImage@vips@@SA?AV12@PEADHPEAVVOption@2@@Z (public: static class vips::VImage __cdecl vips::VImage::thumbnail(char *,int,class vips::VOption *))
      449    ?thumbnail_buffer@VImage@vips@@SA?AV12@PEAU_VipsBlob@@HPEAVVOption@2@@Z (public: static class vips::VImage __cdecl vips::VImage::thumbnail_buffer(struct _VipsBlob *,int,class vips::VOption *))
      450    ?tiffload@VImage@vips@@SA?AV12@PEADPEAVVOption@2@@Z (public: static class vips::VImage __cdecl vips::VImage::tiffload(char *,class vips::VOption *))
      451    ?tiffload_buffer@VImage@vips@@SA?AV12@PEAU_VipsBlob@@PEAVVOption@2@@Z (public: static class vips::VImage __cdecl vips::VImage::tiffload_buffer(struct _VipsBlob *,class vips::VOption *))
      452    ?tiffsave@VImage@vips@@QEAAXPEADPEAVVOption@2@@Z (public: void __cdecl vips::VImage::tiffsave(char *,class vips::VOption *))
      453    ?tiffsave_buffer@VImage@vips@@QEAAPEAU_VipsBlob@@PEAVVOption@2@@Z (public: struct _VipsBlob * __cdecl vips::VImage::tiffsave_buffer(class vips::VOption *))
      454    ?tilecache@VImage@vips@@QEAA?AV12@PEAVVOption@2@@Z (public: class vips::VImage __cdecl vips::VImage::tilecache(class vips::VOption *))
      455    ?to_vector@vips@@YA?AV?$vector@NV?$allocator@N@std@@@std@@HQEAN@Z (class std::vector<double,class std::allocator<double> > __cdecl vips::to_vector(int,double * const))
      456    ?to_vector@vips@@YA?AV?$vector@NV?$allocator@N@std@@@std@@N@Z (class std::vector<double,class std::allocator<double> > __cdecl vips::to_vector(double))
      457    ?to_vectorv@vips@@YA?AV?$vector@NV?$allocator@N@std@@@std@@HZZ (class std::vector<double,class std::allocator<double> > __cdecl vips::to_vectorv(int,...))
      458    ?tonelut@VImage@vips@@SA?AV12@PEAVVOption@2@@Z (public: static class vips::VImage __cdecl vips::VImage::tonelut(class vips::VOption *))
      459    ?unpremultiply@VImage@vips@@QEAA?AV12@PEAVVOption@2@@Z (public: class vips::VImage __cdecl vips::VImage::unpremultiply(class vips::VOption *))
      460    ?vipsload@VImage@vips@@SA?AV12@PEADPEAVVOption@2@@Z (public: static class vips::VImage __cdecl vips::VImage::vipsload(char *,class vips::VOption *))
      461    ?vipssave@VImage@vips@@QEAAXPEADPEAVVOption@2@@Z (public: void __cdecl vips::VImage::vipssave(char *,class vips::VOption *))
      462    ?webpload@VImage@vips@@SA?AV12@PEADPEAVVOption@2@@Z (public: static class vips::VImage __cdecl vips::VImage::webpload(char *,class vips::VOption *))
      463    ?webpload_buffer@VImage@vips@@SA?AV12@PEAU_VipsBlob@@PEAVVOption@2@@Z (public: static class vips::VImage __cdecl vips::VImage::webpload_buffer(struct _VipsBlob *,class vips::VOption *))
      464    ?webpsave@VImage@vips@@QEAAXPEADPEAVVOption@2@@Z (public: void __cdecl vips::VImage::webpsave(char *,class vips::VOption *))
      465    ?webpsave_buffer@VImage@vips@@QEAAPEAU_VipsBlob@@PEAVVOption@2@@Z (public: struct _VipsBlob * __cdecl vips::VImage::webpsave_buffer(class vips::VOption *))
      466    ?what@VError@vips@@UEBAPEBDXZ (public: virtual char const * __cdecl vips::VError::what(void)const )
      467    ?width@VImage@vips@@QEAAHXZ (public: int __cdecl vips::VImage::width(void))
      468    ?wop@VImage@vips@@QEAA?AV12@NPEAVVOption@2@@Z (public: class vips::VImage __cdecl vips::VImage::wop(double,class vips::VOption *))
      469    ?wop@VImage@vips@@QEAA?AV12@V12@PEAVVOption@2@@Z (public: class vips::VImage __cdecl vips::VImage::wop(class vips::VImage,class vips::VOption *))
      470    ?wop@VImage@vips@@QEAA?AV12@V?$vector@NV?$allocator@N@std@@@std@@PEAVVOption@2@@Z (public: class vips::VImage __cdecl vips::VImage::wop(class std::vector<double,class std::allocator<double> >,class vips::VOption *))
      471    ?worley@VImage@vips@@SA?AV12@HHPEAVVOption@2@@Z (public: static class vips::VImage __cdecl vips::VImage::worley(int,int,class vips::VOption *))
      472    ?wrap@VImage@vips@@QEAA?AV12@PEAVVOption@2@@Z (public: class vips::VImage __cdecl vips::VImage::wrap(class vips::VOption *))
      473    ?write@VImage@vips@@QEAA?AV12@V12@@Z (public: class vips::VImage __cdecl vips::VImage::write(class vips::VImage))
      474    ?write_to_buffer@VImage@vips@@QEAAXPEBDPEAPEAXPEA_KPEAVVOption@2@@Z (public: void __cdecl vips::VImage::write_to_buffer(char const *,void * *,unsigned __int64 *,class vips::VOption *))
      475    ?write_to_file@VImage@vips@@QEAAXPEBDPEAVVOption@2@@Z (public: void __cdecl vips::VImage::write_to_file(char const *,class vips::VOption *))
      476    ?write_to_memory@VImage@vips@@QEAAPEAXPEA_K@Z (public: void * __cdecl vips::VImage::write_to_memory(unsigned __int64 *))
      477    ?xoffset@VImage@vips@@QEAANXZ (public: double __cdecl vips::VImage::xoffset(void))
      478    ?xres@VImage@vips@@QEAANXZ (public: double __cdecl vips::VImage::xres(void))
      479    ?xyz@VImage@vips@@SA?AV12@HHPEAVVOption@2@@Z (public: static class vips::VImage __cdecl vips::VImage::xyz(int,int,class vips::VOption *))
      480    ?yoffset@VImage@vips@@QEAANXZ (public: double __cdecl vips::VImage::yoffset(void))
      481    ?yres@VImage@vips@@QEAANXZ (public: double __cdecl vips::VImage::yres(void))
      482    ?zone@VImage@vips@@SA?AV12@HHPEAVVOption@2@@Z (public: static class vips::VImage __cdecl vips::VImage::zone(int,int,class vips::VOption *))
      483    ?zoom@VImage@vips@@QEAA?AV12@HHPEAVVOption@2@@Z (public: class vips::VImage __cdecl vips::VImage::zoom(int,int,class vips::VOption *))
